 ChannelServerd

 Timestamp is 568374d4 (Wed Dec 30 14:08:20 2015)

 Preferred load address is 00400000

 Start         Length     Name                   Class
 0001:00000000 00184d02H .text                   CODE
 0001:00184d10 0000aad3H .text$x                 CODE
 0001:0018f7f0 00000bd5H .text$yc                CODE
 0001:001903d0 00000371H .text$yd                CODE
 0002:00000000 00000d34H .idata$5                DATA
 0002:00000d34 00000004H .CRT$XCA                DATA
 0002:00000d38 0000001cH .CRT$XCC                DATA
 0002:00000d54 000000c0H .CRT$XCL                DATA
 0002:00000e14 00000080H .CRT$XCU                DATA
 0002:00000e94 00000004H .CRT$XCZ                DATA
 0002:00000e98 00000004H .CRT$XIA                DATA
 0002:00000e9c 00000014H .CRT$XIC                DATA
 0002:00000eb0 00000004H .CRT$XIY                DATA
 0002:00000eb4 00000004H .CRT$XIZ                DATA
 0002:00000eb8 00000004H .CRT$XPA                DATA
 0002:00000ebc 00000008H .CRT$XPX                DATA
 0002:00000ec4 00000004H .CRT$XPXA               DATA
 0002:00000ec8 00000004H .CRT$XPZ                DATA
 0002:00000ecc 00000004H .CRT$XTA                DATA
 0002:00000ed0 00000004H .CRT$XTZ                DATA
 0002:00000ee0 00052b40H .rdata                  DATA
 0002:00053a20 00000059H .rdata$debug            DATA
 0002:00053a7c 00005d70H .rdata$r                DATA
 0002:000597f0 00000cb8H .rdata$sxdata           DATA
 0002:0005a4a8 00000004H .rtc$IAA                DATA
 0002:0005a4ac 00000040H .rtc$IMZ                DATA
 0002:0005a4ec 00000004H .rtc$IZZ                DATA
 0002:0005a4f0 00000004H .rtc$TAA                DATA
 0002:0005a4f4 00000040H .rtc$TMZ                DATA
 0002:0005a534 00000004H .rtc$TZZ                DATA
 0002:0005a538 0000db8cH .xdata$x                DATA
 0002:000680c4 00000004H ATL$__a                 DATA
 0002:000680c8 00000004H ATL$__z                 DATA
 0002:000680cc 00000020H .didat$2                DATA
 0002:000680ec 00000020H .didat$3                DATA
 0002:0006810c 00000010H .didat$4                DATA
 0002:0006811c 0000004eH .didat$6                DATA
 0002:0006816c 00000010H .didat$7                DATA
 0002:0006817c 00000140H .idata$2                DATA
 0002:000682bc 00000014H .idata$3                DATA
 0002:000682d0 00000d34H .idata$4                DATA
 0002:00069004 000036a0H .idata$6                DATA
 0002:0006c6a4 00000000H .edata                  DATA
 0003:00000000 00004860H .data                   DATA
 0003:00004860 00000010H .didat$5                DATA
 0003:00004880 000047c8H .bss                    DATA
 0004:00000000 00001150H .rsrc$01                DATA
 0004:00001150 00004490H .rsrc$02                DATA

  Address         Publics by Value              Rva+Base       Lib:Object

 0000:00000000       __except_list              00000000     <absolute>
 0000:0000032e       ___safe_se_handler_count   0000032e     <absolute>
 0000:00000000       ___ImageBase               00400000     <linker-defined>
 0001:00000000       ?GetRuntimeClass@CAllPropertyPage@@UBEPAUCRuntimeClass@@XZ 00401000 f   AllPropertyPage.obj
 0001:00000030       ??0CAllPropertyPage@@QAE@IPAVCWnd@@I@Z 00401030 f   AllPropertyPage.obj
 0001:00000100       ??_ECAllPropertyPage@@UAEPAXI@Z 00401100 f i AllPropertyPage.obj
 0001:00000100       ??_GCAllPropertyPage@@UAEPAXI@Z 00401100 f i AllPropertyPage.obj
 0001:00000160       ??0CAllPropertyPage@@QAE@PB_WPAVCWnd@@I@Z 00401160 f   AllPropertyPage.obj
 0001:00000230       ??0CAllPropertyPage@@QAE@XZ 00401230 f   AllPropertyPage.obj
 0001:00000300       ??1CAllPropertyPage@@UAE@XZ 00401300 f   AllPropertyPage.obj
 0001:000003d0       ?GetMessageMap@CAllPropertyPage@@MBEPBUAFX_MSGMAP@@XZ 004013d0 f   AllPropertyPage.obj
 0001:00000410       ?GetThisMessageMap@CAllPropertyPage@@KGPBUAFX_MSGMAP@@XZ 00401410 f   AllPropertyPage.obj
 0001:00000440       ?BuildPropPageArray@CAllPropertyPage@@MAEXXZ 00401440 f   AllPropertyPage.obj
 0001:00000630       ?OnInitDialog@CAllPropertyPage@@UAEHXZ 00401630 f   AllPropertyPage.obj
 0001:00000e50       ?AddAllPages@CAllPropertyPage@@QAEXXZ 00401e50 f   AllPropertyPage.obj
 0001:00000eb0       ?DoModal@CAllPropertyPage@@UAEHXZ 00401eb0 f   AllPropertyPage.obj
 0001:00000f10       ?MakeUpper@?$CStringT@_WV?$StrTraitMFC@_WV?$ChTraitsCRT@_W@ATL@@@@@ATL@@QAEAAV12@XZ 00401f10 f i AllPropertyPage.obj
 0001:00000f90       ??8ATL@@YA_NABV?$CStringT@_WV?$StrTraitMFC@_WV?$ChTraitsCRT@_W@ATL@@@@@0@PB_W@Z 00401f90 f i AllPropertyPage.obj
 0001:00000fe0       ?Compare@?$CStringT@_WV?$StrTraitMFC@_WV?$ChTraitsCRT@_W@ATL@@@@@ATL@@QBEHPB_W@Z 00401fe0 f i AllPropertyPage.obj
 0001:00001090       ?AtlThrowImpl@ATL@@YGXJ@Z  00402090 f i AllPropertyPage.obj
 0001:00001120       ??0CTraceFileAndLineInfo@ATL@@QAE@PBDH@Z 00402120 f i AllPropertyPage.obj
 0001:00001160       ??RCTraceFileAndLineInfo@ATL@@QBAXKIPB_WZZ 00402160 f i AllPropertyPage.obj
 0001:000011d0       ?TraceV@CTrace@ATL@@QBAXPBDHKIPB_WPAD@Z 004021d0 f i AllPropertyPage.obj
 0001:00001230       ??BCTraceCategory@ATL@@QBEKXZ 00402230 f i AllPropertyPage.obj
 0001:00001260       ?AtlIsValidString@ATL@@YAHPB_WI@Z 00402260 f i AllPropertyPage.obj
 0001:00001290       ?StringCompare@?$ChTraitsCRT@_W@ATL@@SAHPB_W0@Z 00402290 f i AllPropertyPage.obj
 0001:000012e0       ?StringUppercase@?$ChTraitsCRT@_W@ATL@@SAPA_WPA_WI@Z 004022e0 f i AllPropertyPage.obj
 0001:00001340       ??0?$CStringT@_WV?$StrTraitMFC@_WV?$ChTraitsCRT@_W@ATL@@@@@ATL@@QAE@XZ 00402340 f i AllPropertyPage.obj
 0001:00001390       ??1?$CStringT@_WV?$StrTraitMFC@_WV?$ChTraitsCRT@_W@ATL@@@@@ATL@@QAE@XZ 00402390 f i AllPropertyPage.obj
 0001:000013d0       ??B?$CSimpleStringT@_W$0A@@ATL@@QBEPB_WXZ 004023d0 f i AllPropertyPage.obj
 0001:00001400       ?GetBufferSetLength@?$CSimpleStringT@_W$0A@@ATL@@QAEPA_WH@Z 00402400 f i AllPropertyPage.obj
 0001:00001460       ?GetLength@?$CSimpleStringT@_W$0A@@ATL@@QBEHXZ 00402460 f i AllPropertyPage.obj
 0001:000014b0       ?GetString@?$CSimpleStringT@_W$0A@@ATL@@QBEPB_WXZ 004024b0 f i AllPropertyPage.obj
 0001:000014e0       ??0?$CSimpleStringT@_W$0A@@ATL@@QAE@PAUIAtlStringMgr@1@@Z 004024e0 f i AllPropertyPage.obj
 0001:00001590       ??1?$CSimpleStringT@_W$0A@@ATL@@QAE@XZ 00402590 f i AllPropertyPage.obj
 0001:000015e0       ?Release@CStringData@ATL@@QAEXXZ 004025e0 f i AllPropertyPage.obj
 0001:00001670       ?GetBuffer@?$CSimpleStringT@_W$0A@@ATL@@QAEPA_WH@Z 00402670 f i AllPropertyPage.obj
 0001:000016c0       ?GetData@?$CSimpleStringT@_W$0A@@ATL@@ABEPAUCStringData@2@XZ 004026c0 f i AllPropertyPage.obj
 0001:00001700       ?PrepareWrite@?$CSimpleStringT@_W$0A@@ATL@@AAEPA_WH@Z 00402700 f i AllPropertyPage.obj
 0001:00001780       ?SetLength@?$CSimpleStringT@_W$0A@@ATL@@AAEXH@Z 00402780 f i AllPropertyPage.obj
 0001:00001850       ?GetDefaultManager@?$StrTraitMFC@_WV?$ChTraitsCRT@_W@ATL@@@@SAPAUIAtlStringMgr@ATL@@XZ 00402850 f i AllPropertyPage.obj
 0001:00001890       ?ReleaseBufferSetLength@?$CSimpleStringT@_W$0A@@ATL@@QAEXH@Z 00402890 f i AllPropertyPage.obj
 0001:00001900       ?Attach@?$CSimpleStringT@_W$0A@@ATL@@AAEXPAUCStringData@2@@Z 00402900 f i AllPropertyPage.obj
 0001:00001950       ?data@CStringData@ATL@@QAEPAXXZ 00402950 f i AllPropertyPage.obj
 0001:00001980       ?PrepareWrite2@?$CSimpleStringT@_W$0A@@ATL@@AAEXH@Z 00402980 f i AllPropertyPage.obj
 0001:00001a50       ?IsShared@CStringData@ATL@@QBE_NXZ 00402a50 f i AllPropertyPage.obj
 0001:00001a90       ?Fork@?$CSimpleStringT@_W$0A@@ATL@@AAEXH@Z 00402a90 f i AllPropertyPage.obj
 0001:00001ba0       ?CopyChars@?$CSimpleStringT@_W$0A@@ATL@@SAXPA_WIPB_WH@Z 00402ba0 f i AllPropertyPage.obj
 0001:00001bf0       ?ThrowMemoryException@?$CSimpleStringT@_W$0A@@ATL@@KAXXZ 00402bf0 f i AllPropertyPage.obj
 0001:00001c30       ?Reallocate@?$CSimpleStringT@_W$0A@@ATL@@AAEXH@Z 00402c30 f i AllPropertyPage.obj
 0001:00001d00       ?GetMessageMap@CChannelServerApp@@MBEPBUAFX_MSGMAP@@XZ 00402d00 f   ChannelServer.obj
 0001:00001d40       ?GetThisMessageMap@CChannelServerApp@@KGPBUAFX_MSGMAP@@XZ 00402d40 f   ChannelServer.obj
 0001:00001d70       ??0CChannelServerApp@@QAE@XZ 00402d70 f   ChannelServer.obj
 0001:00001dc0       ??_ECChannelServerApp@@UAEPAXI@Z 00402dc0 f i ChannelServer.obj
 0001:00001dc0       ??_GCChannelServerApp@@UAEPAXI@Z 00402dc0 f i ChannelServer.obj
 0001:00001e20       ??1CChannelServerApp@@UAE@XZ 00402e20 f i ChannelServer.obj
 0001:00001e60       ?InitInstance@CChannelServerApp@@UAEHXZ 00402e60 f   ChannelServer.obj
 0001:00002020       ?OnAppAbout@CChannelServerApp@@QAEXXZ 00403020 f   ChannelServer.obj
 0001:000020f0       ?ExitInstance@CChannelServerApp@@UAEHXZ 004030f0 f   ChannelServer.obj
 0001:00002130       ?CreateObject@CChannelServerDoc@@SGPAVCObject@@XZ 00403130 f   ChannelServerDoc.obj
 0001:000021f0       ?GetRuntimeClass@CChannelServerDoc@@UBEPAUCRuntimeClass@@XZ 004031f0 f   ChannelServerDoc.obj
 0001:00002220       ?GetMessageMap@CChannelServerDoc@@MBEPBUAFX_MSGMAP@@XZ 00403220 f   ChannelServerDoc.obj
 0001:00002260       ?GetThisMessageMap@CChannelServerDoc@@KGPBUAFX_MSGMAP@@XZ 00403260 f   ChannelServerDoc.obj
 0001:00002290       ??0CChannelServerDoc@@IAE@XZ 00403290 f   ChannelServerDoc.obj
 0001:000022e0       ??_GCChannelServerDoc@@UAEPAXI@Z 004032e0 f i ChannelServerDoc.obj
 0001:000022e0       ??_ECChannelServerDoc@@UAEPAXI@Z 004032e0 f i ChannelServerDoc.obj
 0001:00002340       ??1CChannelServerDoc@@UAE@XZ 00403340 f   ChannelServerDoc.obj
 0001:00002390       ?OnNewDocument@CChannelServerDoc@@UAEHXZ 00403390 f   ChannelServerDoc.obj
 0001:000023e0       ?Serialize@CChannelServerDoc@@UAEXAAVCArchive@@@Z 004033e0 f   ChannelServerDoc.obj
 0001:00002430       ?AssertValid@CChannelServerDoc@@UBEXXZ 00403430 f   ChannelServerDoc.obj
 0001:00002470       ?Dump@CChannelServerDoc@@UBEXAAVCDumpContext@@@Z 00403470 f   ChannelServerDoc.obj
 0001:000024c0       ?CreateObject@CChannelServerView@@SGPAVCObject@@XZ 004034c0 f   ChannelServerView.obj
 0001:00002580       ?GetRuntimeClass@CChannelServerView@@UBEPAUCRuntimeClass@@XZ 00403580 f   ChannelServerView.obj
 0001:000025b0       ?GetMessageMap@CChannelServerView@@MBEPBUAFX_MSGMAP@@XZ 004035b0 f   ChannelServerView.obj
 0001:000025f0       ?GetThisMessageMap@CChannelServerView@@KGPBUAFX_MSGMAP@@XZ 004035f0 f   ChannelServerView.obj
 0001:00002620       ??0CChannelServerView@@IAE@XZ 00403620 f   ChannelServerView.obj
 0001:00002670       ??_GCChannelServerView@@UAEPAXI@Z 00403670 f i ChannelServerView.obj
 0001:00002670       ??_ECChannelServerView@@UAEPAXI@Z 00403670 f i ChannelServerView.obj
 0001:000026d0       ??1CChannelServerView@@UAE@XZ 004036d0 f   ChannelServerView.obj
 0001:00002720       ?PreCreateWindow@CChannelServerView@@UAEHAAUtagCREATESTRUCTW@@@Z 00403720 f   ChannelServerView.obj
 0001:00002770       ?OnDraw@CChannelServerView@@UAEXPAVCDC@@@Z 00403770 f   ChannelServerView.obj
 0001:000027d0       ?AssertValid@CChannelServerView@@UBEXXZ 004037d0 f   ChannelServerView.obj
 0001:00002810       ?Dump@CChannelServerView@@UBEXAAVCDumpContext@@@Z 00403810 f   ChannelServerView.obj
 0001:00002860       ?GetDocument@CChannelServerView@@QAEPAVCChannelServerDoc@@XZ 00403860 f   ChannelServerView.obj
 0001:000028d0       ?CreateObject@CClientInfoSheet@@SGPAVCObject@@XZ 004038d0 f   ClientInfoSheet.obj
 0001:00002990       ?GetRuntimeClass@CClientInfoSheet@@UBEPAUCRuntimeClass@@XZ 00403990 f   ClientInfoSheet.obj
 0001:000029c0       ??0CClientInfoSheet@@QAE@XZ 004039c0 f   ClientInfoSheet.obj
 0001:00002a70       ??_GCClientInfoSheet@@UAEPAXI@Z 00403a70 f i ClientInfoSheet.obj
 0001:00002a70       ??_ECClientInfoSheet@@UAEPAXI@Z 00403a70 f i ClientInfoSheet.obj
 0001:00002ad0       ??1CClientInfoSheet@@UAE@XZ 00403ad0 f   ClientInfoSheet.obj
 0001:00002b60       ?DoDataExchange@CClientInfoSheet@@MAEXPAVCDataExchange@@@Z 00403b60 f   ClientInfoSheet.obj
 0001:00002be0       ?GetMessageMap@CClientInfoSheet@@MBEPBUAFX_MSGMAP@@XZ 00403be0 f   ClientInfoSheet.obj
 0001:00002c20       ?GetThisMessageMap@CClientInfoSheet@@KGPBUAFX_MSGMAP@@XZ 00403c20 f   ClientInfoSheet.obj
 0001:00002c50       ?OnInitDialog@CClientInfoSheet@@MAEHXZ 00403c50 f   ClientInfoSheet.obj
 0001:00002d10       ?OnBtnRefresh@CClientInfoSheet@@IAEXXZ 00403d10 f   ClientInfoSheet.obj
 0001:00002d50       ?RefreshClientInfo@CClientInfoSheet@@QAEXXZ 00403d50 f   ClientInfoSheet.obj
 0001:00002f10       ?CreateObject@CConfigureSheet@@SGPAVCObject@@XZ 00403f10 f   ConfigureSheet.obj
 0001:00002fd0       ?GetRuntimeClass@CConfigureSheet@@UBEPAUCRuntimeClass@@XZ 00403fd0 f   ConfigureSheet.obj
 0001:00003000       ??0CConfigureSheet@@QAE@XZ 00404000 f   ConfigureSheet.obj
 0001:00003170       ??_ECConfigureSheet@@UAEPAXI@Z 00404170 f i ConfigureSheet.obj
 0001:00003170       ??_GCConfigureSheet@@UAEPAXI@Z 00404170 f i ConfigureSheet.obj
 0001:000031d0       ??1CDlgUartConfig@@UAE@XZ  004041d0 f i ConfigureSheet.obj
 0001:000032a0       ??1CDlgSocketConfig@@UAE@XZ 004042a0 f i ConfigureSheet.obj
 0001:00003330       ??1CDlgFileConfig@@UAE@XZ  00404330 f i ConfigureSheet.obj
 0001:000033b0       ??1CConfigureSheet@@UAE@XZ 004043b0 f   ConfigureSheet.obj
 0001:00003480       ?DoDataExchange@CConfigureSheet@@MAEXPAVCDataExchange@@@Z 00404480 f   ConfigureSheet.obj
 0001:00003510       ?GetMessageMap@CConfigureSheet@@MBEPBUAFX_MSGMAP@@XZ 00404510 f   ConfigureSheet.obj
 0001:00003550       ?GetThisMessageMap@CConfigureSheet@@KGPBUAFX_MSGMAP@@XZ 00404550 f   ConfigureSheet.obj
 0001:00003580       ?OnInitDialog@CConfigureSheet@@MAEHXZ 00404580 f   ConfigureSheet.obj
 0001:00003720       ?GetConfiguration@CConfigureSheet@@QAEXXZ 00404720 f   ConfigureSheet.obj
 0001:00003f10       ?_AtlGetConversionACP@ATL@@YGIXZ 00404f10 f i ConfigureSheet.obj
 0001:00003f40       ?AtlW2AHelper@@YGPADPADPB_WHI@Z 00404f40 f i ConfigureSheet.obj
 0001:00004050       ?SaveConfiguration@CConfigureSheet@@QAEHXZ 00405050 f   ConfigureSheet.obj
 0001:00004320       ?OnOK@CConfigureSheet@@UAEXXZ 00405320 f   ConfigureSheet.obj
 0001:00004410       ?OnSelchangeChannelType@CConfigureSheet@@IAEXXZ 00405410 f   ConfigureSheet.obj
 0001:00004590       ?OnKillActive@CConfigureSheet@@UAEHXZ 00405590 f   ConfigureSheet.obj
 0001:000045e0       ?CheckServerPort@CConfigureSheet@@IAEHXZ 004055e0 f   ConfigureSheet.obj
 0001:00004680       ?CheckTimeout@CConfigureSheet@@IAEHXZ 00405680 f   ConfigureSheet.obj
 0001:00004710       ?CheckData@CConfigureSheet@@IAEHXZ 00405710 f   ConfigureSheet.obj
 0001:000047f0       ?GetUartParam@CConfigureSheet@@QAEXAAK000@Z 004057f0 f   ConfigureSheet.obj
 0001:00004860       ?IsNeedPortReset@CConfigureSheet@@QAEHXZ 00405860 f   ConfigureSheet.obj
 0001:000048b0       ?CreateCtrls@CConfigureSheet@@QAEXXZ 004058b0 f   ConfigureSheet.obj
 0001:00004aa0       ?GetUartInfo@CConfigureSheet@@QAEXXZ 00405aa0 f   ConfigureSheet.obj
 0001:00004af0       ?IsRightPort@CConfigureSheet@@QAEHKPB_WH@Z 00405af0 f   ConfigureSheet.obj
 0001:00004b50       ?GetServerParam@CConfigureSheet@@QAEXAAK0@Z 00405b50 f   ConfigureSheet.obj
 0001:00004ba0       ?GetSocketParam@CConfigureSheet@@QAEXAAK0AAH@Z 00405ba0 f   ConfigureSheet.obj
 0001:00004c00       ?GetFileParam@CConfigureSheet@@QAEHAAHAAV?$CStringT@_WV?$StrTraitMFC@_WV?$ChTraitsCRT@_W@ATL@@@@@ATL@@@Z 00405c00 f   ConfigureSheet.obj
 0001:00004c70       ?DeleteMergedFile@CConfigureSheet@@QAEXXZ 00405c70 f   ConfigureSheet.obj
 0001:00004cc0       ?IsDiagPort@CConfigureSheet@@QAEHK@Z 00405cc0 f   ConfigureSheet.obj
 0001:00004d00       ?IsLogPort@CConfigureSheet@@QAEHK@Z 00405d00 f   ConfigureSheet.obj
 0001:00004d40       ?GetEnumPortDelay@CConfigureSheet@@QAEKXZ 00405d40 f   ConfigureSheet.obj
 0001:00004d80       ?GetEndian@CConfigureSheet@@QAEHXZ 00405d80 f   ConfigureSheet.obj
 0001:00004e00       ?Find@?$CStringT@_WV?$StrTraitMFC@_WV?$ChTraitsCRT@_W@ATL@@@@@ATL@@QBEHPB_WH@Z 00405e00 f i ConfigureSheet.obj
 0001:00004f10       ?MakeLower@?$CStringT@_WV?$StrTraitMFC@_WV?$ChTraitsCRT@_W@ATL@@@@@ATL@@QAEAAV12@XZ 00405f10 f i ConfigureSheet.obj
 0001:00004f90       ?TrimRight@?$CStringT@_WV?$StrTraitMFC@_WV?$ChTraitsCRT@_W@ATL@@@@@ATL@@QAEAAV12@XZ 00405f90 f i ConfigureSheet.obj
 0001:00005050       ?Left@?$CStringT@_WV?$StrTraitMFC@_WV?$ChTraitsCRT@_W@ATL@@@@@ATL@@QBE?AV12@H@Z 00406050 f i ConfigureSheet.obj
 0001:00005110       ?IsEmpty@?$CSimpleStringT@_W$0A@@ATL@@QBE_NXZ 00406110 f i ConfigureSheet.obj
 0001:00005160       ??1?$vector@UDEV_INFO@@V?$allocator@UDEV_INFO@@@std@@@std@@QAE@XZ 00406160 f i ConfigureSheet.obj
 0001:000051e0       ??1?$_Vector_val@UDEV_INFO@@V?$allocator@UDEV_INFO@@@std@@@std@@QAE@XZ 004061e0 f i ConfigureSheet.obj
 0001:00005220       ??0?$CStringT@_WV?$StrTraitMFC@_WV?$ChTraitsCRT@_W@ATL@@@@@ATL@@QAE@PB_WHPAUIAtlStringMgr@1@@Z 00406220 f i ConfigureSheet.obj
 0001:00005270       ?GetManager@?$CStringT@_WV?$StrTraitMFC@_WV?$ChTraitsCRT@_W@ATL@@@@@ATL@@QBEPAUIAtlStringMgr@2@XZ 00406270 f i ConfigureSheet.obj
 0001:000052e0       ?Truncate@?$CSimpleStringT@_W$0A@@ATL@@QAEXH@Z 004062e0 f i ConfigureSheet.obj
 0001:00005360       ?_Tidy@?$vector@UDEV_INFO@@V?$allocator@UDEV_INFO@@@std@@@std@@IAEXXZ 00406360 f i ConfigureSheet.obj
 0001:00005410       ?_Orphan_all@_Container_base_secure@std@@QBEXXZ 00406410 f i ConfigureSheet.obj
 0001:000054d0       ??1?$_Container_base_aux_alloc_empty@V?$allocator@UDEV_INFO@@@std@@@std@@IAE@XZ 004064d0 f i ConfigureSheet.obj
 0001:00005510       ??1_Container_base_secure@std@@QAE@XZ 00406510 f i ConfigureSheet.obj
 0001:00005550       ??0?$CSimpleStringT@_W$0A@@ATL@@QAE@PB_WHPAUIAtlStringMgr@1@@Z 00406550 f i ConfigureSheet.obj
 0001:00005650       ?GetManager@?$CSimpleStringT@_W$0A@@ATL@@QBEPAUIAtlStringMgr@2@XZ 00406650 f i ConfigureSheet.obj
 0001:000056d0       ?_Destroy@?$vector@UDEV_INFO@@V?$allocator@UDEV_INFO@@@std@@@std@@IAEXPAUDEV_INFO@@0@Z 004066d0 f i ConfigureSheet.obj
 0001:00005720       ?deallocate@?$allocator@UDEV_INFO@@@std@@QAEXPAUDEV_INFO@@I@Z 00406720 f i ConfigureSheet.obj
 0001:00005770       ?Format@?$CStringT@_WV?$StrTraitMFC@_WV?$ChTraitsCRT@_W@ATL@@@@@ATL@@QAAXPB_WZZ 00406770 f i ConfigureSheet.obj
 0001:00005800       ??$_Destroy_range@V?$allocator@UDEV_INFO@@@std@@@std@@YAXPAUDEV_INFO@@0AAV?$allocator@UDEV_INFO@@@0@@Z 00406800 f i ConfigureSheet.obj
 0001:00005870       ?FormatV@?$CStringT@_WV?$StrTraitMFC@_WV?$ChTraitsCRT@_W@ATL@@@@@ATL@@QAEXPB_WPAD@Z 00406870 f i ConfigureSheet.obj
 0001:00005940       ??$_Ptr_cat@PAUDEV_INFO@@PAU1@@std@@YA?AU_Nonscalar_ptr_iterator_tag@0@AAPAUDEV_INFO@@0@Z 00406940 f i ConfigureSheet.obj
 0001:000059a0       ??$_Destroy_range@V?$allocator@UDEV_INFO@@@std@@@std@@YAXPAUDEV_INFO@@0AAV?$allocator@UDEV_INFO@@@0@U_Nonscalar_ptr_iterator_tag@0@@Z 004069a0 f i ConfigureSheet.obj
 0001:00005a00       ?destroy@?$allocator@UDEV_INFO@@@std@@QAEXPAUDEV_INFO@@@Z 00406a00 f i ConfigureSheet.obj
 0001:00005a50       ??$_Destroy@UDEV_INFO@@@std@@YAXPAUDEV_INFO@@@Z 00406a50 f i ConfigureSheet.obj
 0001:00005a80       ?CharNextW@?$ChTraitsCRT@_W@ATL@@SAPA_WPB_W@Z 00406a80 f i ConfigureSheet.obj
 0001:00005ab0       ?IsSpace@?$ChTraitsCRT@_W@ATL@@SAH_W@Z 00406ab0 f i ConfigureSheet.obj
 0001:00005af0       ?StringFindString@?$ChTraitsCRT@_W@ATL@@SAPB_WPB_W0@Z 00406af0 f i ConfigureSheet.obj
 0001:00005b40       ?StringLowercase@?$ChTraitsCRT@_W@ATL@@SAPA_WPA_WI@Z 00406b40 f i ConfigureSheet.obj
 0001:00005ba0       ?GetFormattedLength@?$ChTraitsCRT@_W@ATL@@SAHPB_WPAD@Z 00406ba0 f i ConfigureSheet.obj
 0001:00005bf0       ?Format@?$ChTraitsCRT@_W@ATL@@SAHPA_WIPB_WPAD@Z 00406bf0 f i ConfigureSheet.obj
 0001:00005c40       ??0?$CStringT@_WV?$StrTraitMFC@_WV?$ChTraitsCRT@_W@ATL@@@@@ATL@@QAE@ABV01@@Z 00406c40 f i ConfigureSheet.obj
 0001:00005c90       ??0?$CStringT@_WV?$StrTraitMFC@_WV?$ChTraitsCRT@_W@ATL@@@@@ATL@@QAE@PB_W@Z 00406c90 f i ConfigureSheet.obj
 0001:00005d40       ??4?$CStringT@_WV?$StrTraitMFC@_WV?$ChTraitsCRT@_W@ATL@@@@@ATL@@QAEAAV01@PB_W@Z 00406d40 f i ConfigureSheet.obj
 0001:00005d90       ??4?$CStringT@_WV?$StrTraitMFC@_WV?$ChTraitsCRT@_W@ATL@@@@@ATL@@QAEAAV01@PBD@Z 00406d90 f i ConfigureSheet.obj
 0001:00005e40       ?GetBaseTypeLength@?$ChTraitsCRT@_W@ATL@@SAHPBD@Z 00406e40 f i ConfigureSheet.obj
 0001:00005ea0       ?ConvertToBaseType@?$ChTraitsCRT@_W@ATL@@SAXPA_WHPBDH@Z 00406ea0 f i ConfigureSheet.obj
 0001:00005f00       ?CheckImplicitLoad@?$CStringT@_WV?$StrTraitMFC@_WV?$ChTraitsCRT@_W@ATL@@@@@ATL@@AAE_NPBX@Z 00406f00 f i ConfigureSheet.obj
 0001:00005fb0       ?LoadStringW@?$CStringT@_WV?$StrTraitMFC@_WV?$ChTraitsCRT@_W@ATL@@@@@ATL@@QAEHI@Z 00406fb0 f i ConfigureSheet.obj
 0001:00006020       ?LoadStringW@?$CStringT@_WV?$StrTraitMFC@_WV?$ChTraitsCRT@_W@ATL@@@@@ATL@@QAEHPAUHINSTANCE__@@I@Z 00407020 f i ConfigureSheet.obj
 0001:000060d0       ?AtlGetStringResourceImage@ATL@@YAPBUATLSTRINGRESOURCEIMAGE@1@PAUHINSTANCE__@@I@Z 004070d0 f i ConfigureSheet.obj
 0001:00006150       ?_AtlGetStringResourceImage@ATL@@YAPBUATLSTRINGRESOURCEIMAGE@1@PAUHINSTANCE__@@PAUHRSRC__@@I@Z 00407150 f i ConfigureSheet.obj
 0001:00006240       ?GetBaseTypeLength@?$ChTraitsCRT@_W@ATL@@SAHPB_WH@Z 00407240 f i ConfigureSheet.obj
 0001:00006270       ?ConvertToBaseType@?$ChTraitsCRT@_W@ATL@@SAXPA_WHPB_WH@Z 00407270 f i ConfigureSheet.obj
 0001:000062e0       ?wmemcpy_s@Checked@ATL@@YAXPA_WIPB_WI@Z 004072e0 f i ConfigureSheet.obj
 0001:00006340       _wmemcpy_s                 00407340 f i ConfigureSheet.obj
 0001:00006390       ?AfxCrtErrorCheck@@YAHH@Z  00407390 f i ConfigureSheet.obj
 0001:00006470       ?GetBaseTypeLength@?$ChTraitsCRT@_W@ATL@@SAHPB_W@Z 00407470 f i ConfigureSheet.obj
 0001:000064b0       ??0?$CSimpleStringT@_W$0A@@ATL@@QAE@ABV01@@Z 004074b0 f i ConfigureSheet.obj
 0001:00006520       ??4?$CSimpleStringT@_W$0A@@ATL@@QAEAAV01@PB_W@Z 00407520 f i ConfigureSheet.obj
 0001:00006570       ?FindStringResourceInstance@?$StrTraitMFC@_WV?$ChTraitsCRT@_W@ATL@@@@SAPAUHINSTANCE__@@I@Z 00407570 f i ConfigureSheet.obj
 0001:000065b0       ?Empty@?$CSimpleStringT@_W$0A@@ATL@@QAEXXZ 004075b0 f i ConfigureSheet.obj
 0001:00006650       ?IsLocked@CStringData@ATL@@QBE_NXZ 00407650 f i ConfigureSheet.obj
 0001:00006690       ?SetString@?$CSimpleStringT@_W$0A@@ATL@@QAEXPB_W@Z 00407690 f i ConfigureSheet.obj
 0001:000066f0       ?CloneData@?$CSimpleStringT@_W$0A@@ATL@@CAPAUCStringData@2@PAU32@@Z 004076f0 f i ConfigureSheet.obj
 0001:000067e0       ?AddRef@CStringData@ATL@@QAEXXZ 004077e0 f i ConfigureSheet.obj
 0001:00006850       ?SetString@?$CSimpleStringT@_W$0A@@ATL@@QAEXPB_WH@Z 00407850 f i ConfigureSheet.obj
 0001:00006930       ?StringLength@?$CSimpleStringT@_W$0A@@ATL@@SAHPB_W@Z 00407930 f i ConfigureSheet.obj
 0001:00006980       ?GetAllocLength@?$CSimpleStringT@_W$0A@@ATL@@QBEHXZ 00407980 f i ConfigureSheet.obj
 0001:000069d0       ?CopyCharsOverlapped@?$CSimpleStringT@_W$0A@@ATL@@SAXPA_WIPB_WH@Z 004079d0 f i ConfigureSheet.obj
 0001:00006a20       ??4?$CStringT@_WV?$StrTraitMFC@_WV?$ChTraitsCRT@_W@ATL@@@@@ATL@@QAEAAV01@ABV01@@Z 00407a20 f i ConfigureSheet.obj
 0001:00006a70       ??4?$CSimpleStringT@_W$0A@@ATL@@QAEAAV01@ABV01@@Z 00407a70 f i ConfigureSheet.obj
 0001:00006b30       ??0CControlCenter@@QAE@XZ  00407b30 f   ControlCenter.obj
 0001:00006cc0       ??_ECControlCenter@@UAEPAXI@Z 00407cc0 f i ControlCenter.obj
 0001:00006cc0       ??_GCControlCenter@@UAEPAXI@Z 00407cc0 f i ControlCenter.obj
 0001:00006d20       ??0IProtocolObserver@@QAE@XZ 00407d20 f i ControlCenter.obj
 0001:00006d60       ??1CControlCenter@@UAE@XZ  00407d60 f   ControlCenter.obj
 0001:00006e40       ?OnHiLvlData@CControlCenter@@QAEHPAXK@Z 00407e40 f   ControlCenter.obj
 0001:00007130       ?OnHiLvlEvent@CControlCenter@@QAEHIPAX@Z 00408130 f   ControlCenter.obj
 0001:000071a0       ?OnChannelData@CControlCenter@@UAEHPAXK@Z 004081a0 f   ControlCenter.obj
 0001:000075f0       ?IsNeedResetPort@CMainFrame@@QAEHXZ 004085f0 f i ControlCenter.obj
 0001:00007640       ?OnChannelEvent@CControlCenter@@UAEHIPAX@Z 00408640 f   ControlCenter.obj
 0001:000077c0       ?ProcessData@CControlCenter@@IAEXKPAUPRT_BUFF@@@Z 004087c0 f   ControlCenter.obj
 0001:00007960       ?Reg@CControlCenter@@IAEHKE@Z 00408960 f   ControlCenter.obj
 0001:00007ab0       ?Unreg@CControlCenter@@IAEXKEH@Z 00408ab0 f   ControlCenter.obj
 0001:00007c50       ?ProcessRequest@CControlCenter@@IAEXKPAUPRT_BUFF@@@Z 00408c50 f   ControlCenter.obj
 0001:00007ce0       ?AddClient@CControlCenter@@IAEXK@Z 00408ce0 f   ControlCenter.obj
 0001:00007d30       ?RemoveClient@CControlCenter@@IAEXK@Z 00408d30 f   ControlCenter.obj
 0001:00007d80       ?SendDown@CControlCenter@@IAEKPAUPRT_BUFF@@@Z 00408d80 f   ControlCenter.obj
 0001:00007f20       ?SendUp@CControlCenter@@IAEKGPAUPRT_BUFF@@H@Z 00408f20 f   ControlCenter.obj
 0001:00008050       ?SendUp@CControlCenter@@IAEKGKEEH@Z 00409050 f   ControlCenter.obj
 0001:00008200       ?SendUp@CControlCenter@@IAEKGPAEK@Z 00409200 f   ControlCenter.obj
 0001:00008330       ?IsLastPackage@CControlCenter@@IAE_NPAUDIAG_HEADER@@@Z 00409330 f   ControlCenter.obj
 0001:000083d0       ?LoadTypeDef@CControlCenter@@IAEXXZ 004093d0 f   ControlCenter.obj
 0001:00008600       ?wcsrchr@@YAPA_WPA_W_W@Z   00409600 f i ControlCenter.obj
 0001:00008650       ?OnTimerInterval@CControlCenter@@QAEXXZ 00409650 f   ControlCenter.obj
 0001:000087a0       ?OnItcReq@CControlCenter@@IAEHKPAUPRT_BUFF@@@Z 004097a0 f   ControlCenter.obj
 0001:00009000       ?AtlA2WHelper@@YGPA_WPA_WPBDHI@Z 0040a000 f i ControlCenter.obj
 0001:00009100       ??RCTraceFileAndLineInfo@ATL@@QBAXPB_WZZ 0040a100 f i ControlCenter.obj
 0001:00009170       ?GetClientInfo@CControlCenter@@QAEIPAPAUClient_Info@@@Z 0040a170 f   ControlCenter.obj
 0001:000092e0       ?StartLog@CControlCenter@@QAEXXZ 0040a2e0 f   ControlCenter.obj
 0001:000093b0       ?StopLog@CControlCenter@@QAEXXZ 0040a3b0 f   ControlCenter.obj
 0001:00009460       ?IsCommSockData@CControlCenter@@IAEHPAE@Z 0040a460 f   ControlCenter.obj
 0001:00009590       ?TellClientsEndian@CControlCenter@@IAEXXZ 0040a590 f   ControlCenter.obj
 0001:00009690       ?RefreshClientInfo@CControlCenter@@IAEXXZ 0040a690 f   ControlCenter.obj
 0001:00009ef0       ?TellClientsConnectState@CControlCenter@@QAEXH@Z 0040aef0 f   ControlCenter.obj
 0001:0000a000       ??0?$CMap@GGPAUClient_Info@@PAU1@@@QAE@H@Z 0040b000 f i ControlCenter.obj
 0001:0000a0e0       ?GetCount@?$CMap@GGPAUClient_Info@@PAU1@@@QBEHXZ 0040b0e0 f i ControlCenter.obj
 0001:0000a110       ?Lookup@?$CMap@GGPAUClient_Info@@PAU1@@@QBEHGAAPAUClient_Info@@@Z 0040b110 f i ControlCenter.obj
 0001:0000a1e0       ?SetAt@?$CMap@GGPAUClient_Info@@PAU1@@@QAEXGPAUClient_Info@@@Z 0040b1e0 f i ControlCenter.obj
 0001:0000a230       ?RemoveKey@?$CMap@GGPAUClient_Info@@PAU1@@@QAEHG@Z 0040b230 f i ControlCenter.obj
 0001:0000a310       ?GetStartPosition@?$CMap@GGPAUClient_Info@@PAU1@@@QBEPAU__POSITION@@XZ 0040b310 f i ControlCenter.obj
 0001:0000a350       ?GetNextAssoc@?$CMap@GGPAUClient_Info@@PAU1@@@QBEXAAPAU__POSITION@@AAGAAPAUClient_Info@@@Z 0040b350 f i ControlCenter.obj
 0001:0000a520       ??1?$CMap@GGPAUClient_Info@@PAU1@@@UAE@XZ 0040b520 f i ControlCenter.obj
 0001:0000a5d0       ?Serialize@?$CMap@GGPAUClient_Info@@PAU1@@@UAEXAAVCArchive@@@Z 0040b5d0 f i ControlCenter.obj
 0001:0000a780       ?Dump@?$CMap@GGPAUClient_Info@@PAU1@@@UBEXAAVCDumpContext@@@Z 0040b780 f i ControlCenter.obj
 0001:0000a8b0       ?AssertValid@?$CMap@GGPAUClient_Info@@PAU1@@@UBEXXZ 0040b8b0 f i ControlCenter.obj
 0001:0000a940       ??_G?$CMap@GGPAUClient_Info@@PAU1@@@UAEPAXI@Z 0040b940 f i ControlCenter.obj
 0001:0000a940       ??_E?$CMap@GGPAUClient_Info@@PAU1@@@UAEPAXI@Z 0040b940 f i ControlCenter.obj
 0001:0000a9a0       ??A?$CMap@GGPAUClient_Info@@PAU1@@@QAEAAPAUClient_Info@@G@Z 0040b9a0 f i ControlCenter.obj
 0001:0000aaf0       ?RemoveAll@?$CMap@GGPAUClient_Info@@PAU1@@@QAEXXZ 0040baf0 f i ControlCenter.obj
 0001:0000abe0       ?FreeAssoc@?$CMap@GGPAUClient_Info@@PAU1@@@IAEXPAVCAssoc@1@@Z 0040bbe0 f i ControlCenter.obj
 0001:0000ac70       ?GetAssocAt@?$CMap@GGPAUClient_Info@@PAU1@@@IBEPAVCAssoc@1@GAAI0@Z 0040bc70 f i ControlCenter.obj
 0001:0000ad20       ??$HashKey@G@@YGIG@Z       0040bd20 f i ControlCenter.obj
 0001:0000ad50       ??$CompareElements@GG@@YGHPBG0@Z 0040bd50 f i ControlCenter.obj
 0001:0000ae40       ??$SerializeElements@G@@YGXAAVCArchive@@PAGH@Z 0040be40 f i ControlCenter.obj
 0001:0000afd0       ??$SerializeElements@PAUClient_Info@@@@YGXAAVCArchive@@PAPAUClient_Info@@H@Z 0040bfd0 f i ControlCenter.obj
 0001:0000b160       ??$DumpElements@G@@YGXAAVCDumpContext@@PBGH@Z 0040c160 f i ControlCenter.obj
 0001:0000b220       ??$DumpElements@PAUClient_Info@@@@YGXAAVCDumpContext@@PBQAUClient_Info@@H@Z 0040c220 f i ControlCenter.obj
 0001:0000b2e0       ?InitHashTable@?$CMap@GGPAUClient_Info@@PAU1@@@QAEXIH@Z 0040c2e0 f i ControlCenter.obj
 0001:0000b420       ?NewAssoc@?$CMap@GGPAUClient_Info@@PAU1@@@IAEPAVCAssoc@1@G@Z 0040c420 f i ControlCenter.obj
 0001:0000b600       ??2@YAPAXIPAX@Z            0040c600 f i ControlCenter.obj
 0001:0000b630       ??3@YAXPAX0@Z              0040c630 f i ControlCenter.obj
 0001:0000b660       ??0CAssoc@?$CMap@GGPAUClient_Info@@PAU1@@@QAE@G@Z 0040c660 f i ControlCenter.obj
 0001:0000b6b0       ??0CPair@?$CMap@GGPAUClient_Info@@PAU1@@@IAE@G@Z 0040c6b0 f i ControlCenter.obj
 0001:0000b6f0       ?data@CPlex@@QAEPAXXZ      0040c6f0 f i ControlCenter.obj
 0001:0000b720       ??0CDlgFileConfig@@QAE@PAVCWnd@@@Z 0040c720 f   DlgFileConfig.obj
 0001:0000b8b0       ??_GCDlgFileConfig@@UAEPAXI@Z 0040c8b0 f i DlgFileConfig.obj
 0001:0000b8b0       ??_ECDlgFileConfig@@UAEPAXI@Z 0040c8b0 f i DlgFileConfig.obj
 0001:0000b910       ?DoDataExchange@CDlgFileConfig@@MAEXPAVCDataExchange@@@Z 0040c910 f   DlgFileConfig.obj
 0001:0000b980       ?GetMessageMap@CDlgFileConfig@@MBEPBUAFX_MSGMAP@@XZ 0040c980 f   DlgFileConfig.obj
 0001:0000b9c0       ?GetThisMessageMap@CDlgFileConfig@@KGPBUAFX_MSGMAP@@XZ 0040c9c0 f   DlgFileConfig.obj
 0001:0000b9f0       ?OnBtnBrw@CDlgFileConfig@@IAEXXZ 0040c9f0 f   DlgFileConfig.obj
 0001:0000bc50       ?LoadConfig@CDlgFileConfig@@QAEXPB_W@Z 0040cc50 f   DlgFileConfig.obj
 0001:0000bdd0       ?SaveConfig@CDlgFileConfig@@QAEXPB_W@Z 0040cdd0 f   DlgFileConfig.obj
 0001:0000bf30       ?CheckConfig@CDlgFileConfig@@QAEHXZ 0040cf30 f   DlgFileConfig.obj
 0001:0000bfb0       ?UpdateConfig@CDlgFileConfig@@QAEXXZ 0040cfb0 f   DlgFileConfig.obj
 0001:0000c020       ?OnInitDialog@CDlgFileConfig@@MAEHXZ 0040d020 f   DlgFileConfig.obj
 0001:0000c090       ?GetCurFile@CDlgFileConfig@@QAEPB_WH@Z 0040d090 f   DlgFileConfig.obj
 0001:0000c280       ?MergeChannelFiles@CDlgFileConfig@@QAEHXZ 0040d280 f   DlgFileConfig.obj
 0001:0000c590       ?DeleteMergedFile@CDlgFileConfig@@QAEXXZ 0040d590 f   DlgFileConfig.obj
 0001:0000c5f0       ?PreTranslateMessage@CDlgFileConfig@@UAEHPAUtagMSG@@@Z 0040d5f0 f   DlgFileConfig.obj
 0001:0000c660       ?ChangeDialogFont@CDlgFileConfig@@QAEXPAVCFont@@@Z 0040d660 f   DlgFileConfig.obj
 0001:0000cc60       ?GetFlowType@CDlgFileConfig@@QAEHXZ 0040dc60 f   DlgFileConfig.obj
 0001:0000d090       ??Y?$CStringT@_WV?$StrTraitMFC@_WV?$ChTraitsCRT@_W@ATL@@@@@ATL@@QAEAAV01@ABV?$CSimpleStringT@_W$0A@@1@@Z 0040e090 f i DlgFileConfig.obj
 0001:0000d0e0       ??Y?$CStringT@_WV?$StrTraitMFC@_WV?$ChTraitsCRT@_W@ATL@@@@@ATL@@QAEAAV01@PB_W@Z 0040e0e0 f i DlgFileConfig.obj
 0001:0000d130       ?TrimLeft@?$CStringT@_WV?$StrTraitMFC@_WV?$ChTraitsCRT@_W@ATL@@@@@ATL@@QAEAAV12@XZ 0040e130 f i DlgFileConfig.obj
 0001:0000d220       ??Y?$CSimpleStringT@_W$0A@@ATL@@QAEAAV01@ABV01@@Z 0040e220 f i DlgFileConfig.obj
 0001:0000d270       ??Y?$CSimpleStringT@_W$0A@@ATL@@QAEAAV01@PB_W@Z 0040e270 f i DlgFileConfig.obj
 0001:0000d2c0       ?Append@?$CSimpleStringT@_W$0A@@ATL@@QAEXPB_W@Z 0040e2c0 f i DlgFileConfig.obj
 0001:0000d320       ?Append@?$CSimpleStringT@_W$0A@@ATL@@QAEXABV12@@Z 0040e320 f i DlgFileConfig.obj
 0001:0000d380       ?Append@?$CSimpleStringT@_W$0A@@ATL@@QAEXPB_WH@Z 0040e380 f i DlgFileConfig.obj
 0001:0000d4f0       ?memmove_s@Checked@ATL@@YAXPAXIPBXI@Z 0040e4f0 f i DlgFileConfig.obj
 0001:0000d550       ?ReleaseBuffer@?$CSimpleStringT@_W$0A@@ATL@@QAEXH@Z 0040e550 f i DlgFileConfig.obj
 0001:0000d5c0       ?StringLengthN@?$CSimpleStringT@_W$0A@@ATL@@SAHPB_WI@Z 0040e5c0 f i DlgFileConfig.obj
 0001:0000d610       ??0CDlgSocketConfig@@QAE@PAVCWnd@@@Z 0040e610 f   DlgSocketConfig.obj
 0001:0000d720       ??_GCDlgSocketConfig@@UAEPAXI@Z 0040e720 f i DlgSocketConfig.obj
 0001:0000d720       ??_ECDlgSocketConfig@@UAEPAXI@Z 0040e720 f i DlgSocketConfig.obj
 0001:0000d780       ?DoDataExchange@CDlgSocketConfig@@MAEXPAVCDataExchange@@@Z 0040e780 f   DlgSocketConfig.obj
 0001:0000d810       ?GetMessageMap@CDlgSocketConfig@@MBEPBUAFX_MSGMAP@@XZ 0040e810 f   DlgSocketConfig.obj
 0001:0000d850       ?GetThisMessageMap@CDlgSocketConfig@@KGPBUAFX_MSGMAP@@XZ 0040e850 f   DlgSocketConfig.obj
 0001:0000d880       ?CheckPort@CDlgSocketConfig@@QAEHXZ 0040e880 f   DlgSocketConfig.obj
 0001:0000d920       ?CheckIP@CDlgSocketConfig@@QAEHXZ 0040e920 f   DlgSocketConfig.obj
 0001:0000d9d0       ?CheckConfig@CDlgSocketConfig@@QAEHXZ 0040e9d0 f   DlgSocketConfig.obj
 0001:0000da30       ?OnInitDialog@CDlgSocketConfig@@MAEHXZ 0040ea30 f   DlgSocketConfig.obj
 0001:0000dac0       ?LoadConfig@CDlgSocketConfig@@QAEXPB_W@Z 0040eac0 f   DlgSocketConfig.obj
 0001:0000dda0       ?SaveConfig@CDlgSocketConfig@@QAEXPB_W@Z 0040eda0 f   DlgSocketConfig.obj
 0001:0000df40       ?UpdateConfig@CDlgSocketConfig@@QAEXXZ 0040ef40 f   DlgSocketConfig.obj
 0001:0000dfc0       ?PreTranslateMessage@CDlgSocketConfig@@UAEHPAUtagMSG@@@Z 0040efc0 f   DlgSocketConfig.obj
 0001:0000e030       ?ChangeDialogFont@CDlgSocketConfig@@QAEXPAVCFont@@@Z 0040f030 f   DlgSocketConfig.obj
 0001:0000e630       ??0CDlgUartConfig@@QAE@PAVCWnd@@@Z 0040f630 f   DlgUartConfig.obj
 0001:0000e7c0       ??_ECDlgUartConfig@@UAEPAXI@Z 0040f7c0 f i DlgUartConfig.obj
 0001:0000e7c0       ??_GCDlgUartConfig@@UAEPAXI@Z 0040f7c0 f i DlgUartConfig.obj
 0001:0000e820       ?DoDataExchange@CDlgUartConfig@@MAEXPAVCDataExchange@@@Z 0040f820 f   DlgUartConfig.obj
 0001:0000e8c0       ?GetMessageMap@CDlgUartConfig@@MBEPBUAFX_MSGMAP@@XZ 0040f8c0 f   DlgUartConfig.obj
 0001:0000e900       ?GetThisMessageMap@CDlgUartConfig@@KGPBUAFX_MSGMAP@@XZ 0040f900 f   DlgUartConfig.obj
 0001:0000e930       ?OnInitDialog@CDlgUartConfig@@MAEHXZ 0040f930 f   DlgUartConfig.obj
 0001:0000e9c0       ?RecreatePortCtrl@CDlgUartConfig@@QAEHHH@Z 0040f9c0 f   DlgUartConfig.obj
 0001:0000eb00       ?GetUartInfo@CDlgUartConfig@@QAEXXZ 0040fb00 f   DlgUartConfig.obj
 0001:0000ec60       ?UpdateControls@CDlgUartConfig@@QAEXH@Z 0040fc60 f   DlgUartConfig.obj
 0001:0000eeb0       ?UpdatePorts@CDlgUartConfig@@QAEXH@Z 0040feb0 f   DlgUartConfig.obj
 0001:0000ef90       ?IsRightPort@CDlgUartConfig@@QAEHKPB_WH@Z 0040ff90 f   DlgUartConfig.obj
 0001:0000f2c0       ?LoadPortFilters@CDlgUartConfig@@QAEXPB_W@Z 004102c0 f   DlgUartConfig.obj
 0001:0000f400       ?LoadConfig@CDlgUartConfig@@QAEXPB_W@Z 00410400 f   DlgUartConfig.obj
 0001:0000f710       ?SaveConfig@CDlgUartConfig@@QAEXPB_W@Z 00410710 f   DlgUartConfig.obj
 0001:0000f9f0       ?CheckConfig@CDlgUartConfig@@QAEHXZ 004109f0 f   DlgUartConfig.obj
 0001:0000fc50       ?UpdateConfig@CDlgUartConfig@@QAEXXZ 00410c50 f   DlgUartConfig.obj
 0001:0000fcf0       ?_GetPortInfo@CDlgUartConfig@@IAEXPAVCComboBox@@AAIAAV?$CStringT@_WV?$StrTraitMFC@_WV?$ChTraitsCRT@_W@ATL@@@@@ATL@@@Z 00410cf0 f   DlgUartConfig.obj
 0001:0000feb0       ?PreTranslateMessage@CDlgUartConfig@@UAEHPAUtagMSG@@@Z 00410eb0 f   DlgUartConfig.obj
 0001:0000ff20       ?ChangeDialogFont@CDlgUartConfig@@QAEXPAVCFont@@@Z 00410f20 f   DlgUartConfig.obj
 0001:00010590       ?CompareNoCase@?$CStringT@_WV?$StrTraitMFC@_WV?$ChTraitsCRT@_W@ATL@@@@@ATL@@QBEHPB_W@Z 00411590 f i DlgUartConfig.obj
 0001:00010640       ??0?$vector@UDEV_INFO@@V?$allocator@UDEV_INFO@@@std@@@std@@QAE@XZ 00411640 f i DlgUartConfig.obj
 0001:000106e0       ?size@?$vector@UDEV_INFO@@V?$allocator@UDEV_INFO@@@std@@@std@@QBEIXZ 004116e0 f i DlgUartConfig.obj
 0001:00010720       ??A?$vector@UDEV_INFO@@V?$allocator@UDEV_INFO@@@std@@@std@@QAEAAUDEV_INFO@@I@Z 00411720 f i DlgUartConfig.obj
 0001:00010830       ?push_back@?$vector@UDEV_INFO@@V?$allocator@UDEV_INFO@@@std@@@std@@QAEXABUDEV_INFO@@@Z 00411830 f i DlgUartConfig.obj
 0001:00010960       ?clear@?$vector@UDEV_INFO@@V?$allocator@UDEV_INFO@@@std@@@std@@QAEXXZ 00411960 f i DlgUartConfig.obj
 0001:00010aa0       ??1?$_Vector_iterator@UDEV_INFO@@V?$allocator@UDEV_INFO@@@std@@@std@@QAE@XZ 00411aa0 f i DlgUartConfig.obj
 0001:00010ae0       ??0?$_Vector_const_iterator@UDEV_INFO@@V?$allocator@UDEV_INFO@@@std@@@std@@QAE@ABV01@@Z 00411ae0 f i DlgUartConfig.obj
 0001:00010b40       ??1?$_Vector_const_iterator@UDEV_INFO@@V?$allocator@UDEV_INFO@@@std@@@std@@QAE@XZ 00411b40 f i DlgUartConfig.obj
 0001:00010b80       ??0?$_Ranit@UDEV_INFO@@HPBU1@ABU1@@std@@QAE@ABU01@@Z 00411b80 f i DlgUartConfig.obj
 0001:00010bd0       ??1?$_Ranit@UDEV_INFO@@HPBU1@ABU1@@std@@QAE@XZ 00411bd0 f i DlgUartConfig.obj
 0001:00010c10       ??0?$_Iterator_with_base@Urandom_access_iterator_tag@std@@UDEV_INFO@@HPBU3@ABU3@V_Iterator_base@2@@std@@QAE@ABU01@@Z 00411c10 f i DlgUartConfig.obj
 0001:00010c60       ??0_Iterator_base@std@@QAE@ABV01@@Z 00411c60 f i DlgUartConfig.obj
 0001:00010cc0       ??4_Iterator_base@std@@QAEAAV01@ABV01@@Z 00411cc0 f i DlgUartConfig.obj
 0001:00010da0       ?_Adopt@_Iterator_base@std@@QAEXPBV_Container_base_secure@2@@Z 00411da0 f i DlgUartConfig.obj
 0001:00010e90       ?_Orphan_me@_Iterator_base@std@@QAEXXZ 00411e90 f i DlgUartConfig.obj
 0001:00010f40       ??1?$_Iterator_with_base@Urandom_access_iterator_tag@std@@UDEV_INFO@@HPBU3@ABU3@V_Iterator_base@2@@std@@QAE@XZ 00411f40 f i DlgUartConfig.obj
 0001:00010f80       ??1_Iterator_base@std@@QAE@XZ 00411f80 f i DlgUartConfig.obj
 0001:00011040       ?capacity@?$vector@UDEV_INFO@@V?$allocator@UDEV_INFO@@@std@@@std@@QBEIXZ 00412040 f i DlgUartConfig.obj
 0001:000110a0       ?begin@?$vector@UDEV_INFO@@V?$allocator@UDEV_INFO@@@std@@@std@@QAE?AV?$_Vector_iterator@UDEV_INFO@@V?$allocator@UDEV_INFO@@@std@@@2@XZ 004120a0 f i DlgUartConfig.obj
 0001:00011110       ?end@?$vector@UDEV_INFO@@V?$allocator@UDEV_INFO@@@std@@@std@@QAE?AV?$_Vector_iterator@UDEV_INFO@@V?$allocator@UDEV_INFO@@@std@@@2@XZ 00412110 f i DlgUartConfig.obj
 0001:00011180       ?insert@?$vector@UDEV_INFO@@V?$allocator@UDEV_INFO@@@std@@@std@@QAE?AV?$_Vector_iterator@UDEV_INFO@@V?$allocator@UDEV_INFO@@@std@@@2@V?$_Vector_const_iterator@UDEV_INFO@@V?$allocator@UDEV_INFO@@@std@@@2@ABUDEV_INFO@@@Z 00412180 f i DlgUartConfig.obj
 0001:00011310       ?erase@?$vector@UDEV_INFO@@V?$allocator@UDEV_INFO@@@std@@@std@@QAE?AV?$_Vector_iterator@UDEV_INFO@@V?$allocator@UDEV_INFO@@@std@@@2@V?$_Vector_const_iterator@UDEV_INFO@@V?$allocator@UDEV_INFO@@@std@@@2@0@Z 00412310 f i DlgUartConfig.obj
 0001:00011520       ?_Buy@?$vector@UDEV_INFO@@V?$allocator@UDEV_INFO@@@std@@@std@@IAE_NI@Z 00412520 f i DlgUartConfig.obj
 0001:000115d0       ?_Ufill@?$vector@UDEV_INFO@@V?$allocator@UDEV_INFO@@@std@@@std@@IAEPAUDEV_INFO@@PAU3@IABU3@@Z 004125d0 f i DlgUartConfig.obj
 0001:00011630       ?_Orphan_range@?$vector@UDEV_INFO@@V?$allocator@UDEV_INFO@@@std@@@std@@IBEXPAUDEV_INFO@@0@Z 00412630 f i DlgUartConfig.obj
 0001:00011700       ??0?$_Vector_val@UDEV_INFO@@V?$allocator@UDEV_INFO@@@std@@@std@@IAE@V?$allocator@UDEV_INFO@@@1@@Z 00412700 f i DlgUartConfig.obj
 0001:00011770       ??0?$allocator@UDEV_INFO@@@std@@QAE@XZ 00412770 f i DlgUartConfig.obj
 0001:000117a0       ?_Make_iter@?$vector@UDEV_INFO@@V?$allocator@UDEV_INFO@@@std@@@std@@QBE?AV?$_Vector_iterator@UDEV_INFO@@V?$allocator@UDEV_INFO@@@std@@@2@V?$_Vector_const_iterator@UDEV_INFO@@V?$allocator@UDEV_INFO@@@std@@@2@@Z 004127a0 f i DlgUartConfig.obj
 0001:00011850       ?max_size@?$vector@UDEV_INFO@@V?$allocator@UDEV_INFO@@@std@@@std@@QBEIXZ 00412850 f i DlgUartConfig.obj
 0001:000118a0       ?_Insert_n@?$vector@UDEV_INFO@@V?$allocator@UDEV_INFO@@@std@@@std@@IAEXV?$_Vector_const_iterator@UDEV_INFO@@V?$allocator@UDEV_INFO@@@std@@@2@IABUDEV_INFO@@@Z 004128a0 f i DlgUartConfig.obj
 0001:00011da0       ?_Xlen@?$vector@UDEV_INFO@@V?$allocator@UDEV_INFO@@@std@@@std@@KAXXZ 00412da0 f i DlgUartConfig.obj
 0001:00011e50       ??0length_error@std@@QAE@ABV?$basic_string@DU?$char_traits@D@std@@V?$allocator@D@2@@1@@Z 00412e50 f i DlgUartConfig.obj
 0001:00011eb0       ??0logic_error@std@@QAE@ABV?$basic_string@DU?$char_traits@D@std@@V?$allocator@D@2@@1@@Z 00412eb0 f i DlgUartConfig.obj
 0001:00011f50       ?what@logic_error@std@@UBEPBDXZ 00412f50 f i DlgUartConfig.obj
 0001:00011fa0       ??_Glogic_error@std@@UAEPAXI@Z 00412fa0 f i DlgUartConfig.obj
 0001:00011fa0       ??_Elogic_error@std@@UAEPAXI@Z 00412fa0 f i DlgUartConfig.obj
 0001:00012000       ??1logic_error@std@@UAE@XZ 00413000 f i DlgUartConfig.obj
 0001:00012060       ??1length_error@std@@UAE@XZ 00413060 f i DlgUartConfig.obj
 0001:000120b0       ??_Elength_error@std@@UAEPAXI@Z 004130b0 f i DlgUartConfig.obj
 0001:000120b0       ??_Glength_error@std@@UAEPAXI@Z 004130b0 f i DlgUartConfig.obj
 0001:00012110       ??0?$basic_string@DU?$char_traits@D@std@@V?$allocator@D@2@@std@@QAE@ABV01@@Z 00413110 f i DlgUartConfig.obj
 0001:000121b0       ??1?$basic_string@DU?$char_traits@D@std@@V?$allocator@D@2@@std@@QAE@XZ 004131b0 f i DlgUartConfig.obj
 0001:00012240       ?c_str@?$basic_string@DU?$char_traits@D@std@@V?$allocator@D@2@@std@@QBEPBDXZ 00413240 f i DlgUartConfig.obj
 0001:00012280       ??1?$_String_val@DV?$allocator@D@std@@@std@@QAE@XZ 00413280 f i DlgUartConfig.obj
 0001:000122c0       ??1_String_base@std@@QAE@XZ 004132c0 f i DlgUartConfig.obj
 0001:00012300       ?assign@?$basic_string@DU?$char_traits@D@std@@V?$allocator@D@2@@std@@QAEAAV12@ABV12@II@Z 00413300 f i DlgUartConfig.obj
 0001:000123e0       ?_Tidy@?$basic_string@DU?$char_traits@D@std@@V?$allocator@D@2@@std@@IAEX_NI@Z 004133e0 f i DlgUartConfig.obj
 0001:00012490       ?_Myptr@?$basic_string@DU?$char_traits@D@std@@V?$allocator@D@2@@std@@IBEPBDXZ 00413490 f i DlgUartConfig.obj
 0001:000124f0       ??0?$_String_val@DV?$allocator@D@std@@@std@@QAE@ABV01@@Z 004134f0 f i DlgUartConfig.obj
 0001:00012560       ??0_String_base@std@@QAE@XZ 00413560 f i DlgUartConfig.obj
 0001:000125b0       ??0_Container_base_secure@std@@QAE@XZ 004135b0 f i DlgUartConfig.obj
 0001:000125f0       ?erase@?$basic_string@DU?$char_traits@D@std@@V?$allocator@D@2@@std@@QAEAAV12@II@Z 004135f0 f i DlgUartConfig.obj
 0001:000126b0       ?size@?$basic_string@DU?$char_traits@D@std@@V?$allocator@D@2@@std@@QBEIXZ 004136b0 f i DlgUartConfig.obj
 0001:000126e0       ?_Eos@?$basic_string@DU?$char_traits@D@std@@V?$allocator@D@2@@std@@IAEXI@Z 004136e0 f i DlgUartConfig.obj
 0001:00012750       ?assign@?$char_traits@D@std@@SAXAADABD@Z 00413750 f i DlgUartConfig.obj
 0001:00012780       ?_Grow@?$basic_string@DU?$char_traits@D@std@@V?$allocator@D@2@@std@@IAE_NI_N@Z 00413780 f i DlgUartConfig.obj
 0001:00012850       ?_Myptr@?$basic_string@DU?$char_traits@D@std@@V?$allocator@D@2@@std@@IAEPADXZ 00413850 f i DlgUartConfig.obj
 0001:000128b0       ??0?$allocator@D@std@@QAE@ABV01@@Z 004138b0 f i DlgUartConfig.obj
 0001:000128e0       ?deallocate@?$allocator@D@std@@QAEXPADI@Z 004138e0 f i DlgUartConfig.obj
 0001:00012930       ??0?$_Container_base_aux_alloc_empty@V?$allocator@UDEV_INFO@@@std@@@std@@IAE@V?$allocator@UDEV_INFO@@@1@@Z 00413930 f i DlgUartConfig.obj
 0001:00012980       ??0?$allocator@UDEV_INFO@@@std@@QAE@ABV01@@Z 00413980 f i DlgUartConfig.obj
 0001:000129b0       ?allocate@?$allocator@UDEV_INFO@@@std@@QAEPAUDEV_INFO@@I@Z 004139b0 f i DlgUartConfig.obj
 0001:00012a00       ??0?$_Vector_iterator@UDEV_INFO@@V?$allocator@UDEV_INFO@@@std@@@std@@QAE@PAUDEV_INFO@@PBV_Container_base_secure@1@@Z 00413a00 f i DlgUartConfig.obj
 0001:00012a50       ??H?$_Vector_iterator@UDEV_INFO@@V?$allocator@UDEV_INFO@@@std@@@std@@QBE?AV01@H@Z 00413a50 f i DlgUartConfig.obj
 0001:00012b30       ??G?$_Vector_const_iterator@UDEV_INFO@@V?$allocator@UDEV_INFO@@@std@@@std@@QBEHABV01@@Z 00413b30 f i DlgUartConfig.obj
 0001:00012b90       ??9?$_Vector_const_iterator@UDEV_INFO@@V?$allocator@UDEV_INFO@@@std@@@std@@QBE_NABV01@@Z 00413b90 f i DlgUartConfig.obj
 0001:00012be0       ??M?$_Vector_const_iterator@UDEV_INFO@@V?$allocator@UDEV_INFO@@@std@@@std@@QBE_NABV01@@Z 00413be0 f i DlgUartConfig.obj
 0001:00012c40       ??0length_error@std@@QAE@ABV01@@Z 00413c40 f i DlgUartConfig.obj
 0001:00012ca0       ??0logic_error@std@@QAE@ABV01@@Z 00413ca0 f i DlgUartConfig.obj
 0001:00012d40       ??0?$_Vector_iterator@UDEV_INFO@@V?$allocator@UDEV_INFO@@@std@@@std@@QAE@ABV01@@Z 00413d40 f i DlgUartConfig.obj
 0001:00012d90       ??0?$basic_string@DU?$char_traits@D@std@@V?$allocator@D@2@@std@@QAE@PBD@Z 00413d90 f i DlgUartConfig.obj
 0001:00012e40       ?max_size@?$basic_string@DU?$char_traits@D@std@@V?$allocator@D@2@@std@@QBEIXZ 00413e40 f i DlgUartConfig.obj
 0001:00012eb0       ?_Copy@?$basic_string@DU?$char_traits@D@std@@V?$allocator@D@2@@std@@IAEXII@Z 00413eb0 f i DlgUartConfig.obj
 0001:00013070       ?max_size@?$allocator@UDEV_INFO@@@std@@QBEIXZ 00414070 f i DlgUartConfig.obj
 0001:000130d0       ??Y?$_Vector_iterator@UDEV_INFO@@V?$allocator@UDEV_INFO@@@std@@@std@@QAEAAV01@H@Z 004140d0 f i DlgUartConfig.obj
 0001:00013120       ??0?$_Vector_const_iterator@UDEV_INFO@@V?$allocator@UDEV_INFO@@@std@@@std@@QAE@PAUDEV_INFO@@PBV_Container_base_secure@1@@Z 00414120 f i DlgUartConfig.obj
 0001:00013210       ??8?$_Vector_const_iterator@UDEV_INFO@@V?$allocator@UDEV_INFO@@@std@@@std@@QBE_NABV01@@Z 00414210 f i DlgUartConfig.obj
 0001:00013270       ?_Compat@?$_Vector_const_iterator@UDEV_INFO@@V?$allocator@UDEV_INFO@@@std@@@std@@QBEXABV12@@Z 00414270 f i DlgUartConfig.obj
 0001:00013320       ??0?$_Ranit@UDEV_INFO@@HPBU1@ABU1@@std@@QAE@XZ 00414320 f i DlgUartConfig.obj
 0001:00013370       ??0?$_Iterator_with_base@Urandom_access_iterator_tag@std@@UDEV_INFO@@HPBU3@ABU3@V_Iterator_base@2@@std@@QAE@XZ 00414370 f i DlgUartConfig.obj
 0001:000133c0       ??0_Iterator_base@std@@QAE@XZ 004143c0 f i DlgUartConfig.obj
 0001:00013400       ?assign@?$basic_string@DU?$char_traits@D@std@@V?$allocator@D@2@@std@@QAEAAV12@PBD@Z 00414400 f i DlgUartConfig.obj
 0001:00013470       ?length@?$char_traits@D@std@@SAIPBD@Z 00414470 f i DlgUartConfig.obj
 0001:000134b0       ??0?$_String_val@DV?$allocator@D@std@@@std@@IAE@V?$allocator@D@1@@Z 004144b0 f i DlgUartConfig.obj
 0001:00013510       ??0?$allocator@D@std@@QAE@XZ 00414510 f i DlgUartConfig.obj
 0001:00013540       ?allocate@?$allocator@D@std@@QAEPADI@Z 00414540 f i DlgUartConfig.obj
 0001:00013590       ?max_size@?$allocator@D@std@@QBEIXZ 00414590 f i DlgUartConfig.obj
 0001:000135f0       ??Y?$_Vector_const_iterator@UDEV_INFO@@V?$allocator@UDEV_INFO@@@std@@@std@@QAEAAV01@H@Z 004145f0 f i DlgUartConfig.obj
 0001:00013720       ?_Getmycont@_Iterator_base@std@@QBEPBV_Container_base_secure@2@XZ 00414720 f i DlgUartConfig.obj
 0001:00013750       ?_Has_container@_Iterator_base@std@@QBE_NXZ 00414750 f i DlgUartConfig.obj
 0001:00013790       ?assign@?$basic_string@DU?$char_traits@D@std@@V?$allocator@D@2@@std@@QAEAAV12@PBDI@Z 00414790 f i DlgUartConfig.obj
 0001:00013860       ?_Inside@?$basic_string@DU?$char_traits@D@std@@V?$allocator@D@2@@std@@IAE_NPBD@Z 00414860 f i DlgUartConfig.obj
 0001:000138d0       ??$_Debug_pointer@D@std@@YAXPBDPB_WI@Z 004148d0 f i DlgUartConfig.obj
 0001:00013920       ??$copy_s@U?$char_traits@D@std@@@_Traits_helper@std@@YAPADPADIPBDI@Z 00414920 f i DlgUartConfig.obj
 0001:00013980       ??$unchecked_copy@PAUDEV_INFO@@PAU1@@stdext@@YAPAUDEV_INFO@@PAU1@00@Z 00414980 f i DlgUartConfig.obj
 0001:00013a30       ??$unchecked_uninitialized_fill_n@PAUDEV_INFO@@IU1@V?$allocator@UDEV_INFO@@@std@@@stdext@@YAXPAUDEV_INFO@@IABU1@AAV?$allocator@UDEV_INFO@@@std@@@Z 00414a30 f i DlgUartConfig.obj
 0001:00013ab0       ??$move_s@U?$char_traits@D@std@@@_Traits_helper@std@@YAPADPADIPBDI@Z 00414ab0 f i DlgUartConfig.obj
 0001:00013b10       ??$_Umove@PAUDEV_INFO@@@?$vector@UDEV_INFO@@V?$allocator@UDEV_INFO@@@std@@@std@@IAEPAUDEV_INFO@@PAU2@00@Z 00414b10 f i DlgUartConfig.obj
 0001:00013b70       ??$fill@PAUDEV_INFO@@U1@@std@@YAXPAUDEV_INFO@@0ABU1@@Z 00414b70 f i DlgUartConfig.obj
 0001:00013bd0       ??$_Unchecked_move_backward@PAUDEV_INFO@@PAU1@@stdext@@YAPAUDEV_INFO@@PAU1@00@Z 00414bd0 f i DlgUartConfig.obj
 0001:00013c70       ??$_Allocate@UDEV_INFO@@@std@@YAPAUDEV_INFO@@IPAU1@@Z 00414c70 f i DlgUartConfig.obj
 0001:00013cf0       ??0bad_alloc@std@@QAE@PBD@Z 00414cf0 f i DlgUartConfig.obj
 0001:00013d50       ??1bad_alloc@std@@UAE@XZ   00414d50 f i DlgUartConfig.obj
 0001:00013da0       ??_Gbad_alloc@std@@UAEPAXI@Z 00414da0 f i DlgUartConfig.obj
 0001:00013da0       ??_Ebad_alloc@std@@UAEPAXI@Z 00414da0 f i DlgUartConfig.obj
 0001:00013e00       ??$_Allocate@D@std@@YAPADIPAD@Z 00414e00 f i DlgUartConfig.obj
 0001:00013e80       ??0bad_alloc@std@@QAE@ABV01@@Z 00414e80 f i DlgUartConfig.obj
 0001:00013ee0       ??$_Char_traits_cat@U?$char_traits@D@std@@@std@@YA?AU_Secure_char_traits_tag@0@XZ 00414ee0 f i DlgUartConfig.obj
 0001:00013f40       ??$copy_s@U?$char_traits@D@std@@@_Traits_helper@std@@YAPADPADIPBDIU_Secure_char_traits_tag@1@@Z 00414f40 f i DlgUartConfig.obj
 0001:00013f90       ?_Copy_s@?$char_traits@D@std@@SAPADPADIPBDI@Z 00414f90 f i DlgUartConfig.obj
 0001:00013fe0       ??$_Checked_base@PAUDEV_INFO@@@std@@YAPAUDEV_INFO@@AAPAU1@@Z 00414fe0 f i DlgUartConfig.obj
 0001:00014060       ??$_Iter_random@PAUDEV_INFO@@PAU1@@std@@YA?AUrandom_access_iterator_tag@0@ABQAUDEV_INFO@@0@Z 00415060 f i DlgUartConfig.obj
 0001:000140c0       ??$_Copy_opt@PAUDEV_INFO@@PAU1@@std@@YAPAUDEV_INFO@@PAU1@00Urandom_access_iterator_tag@0@U_Nonscalar_ptr_iterator_tag@0@U_Range_checked_iterator_tag@0@@Z 004150c0 f i DlgUartConfig.obj
 0001:00014160       ??$_Uninit_fill_n@PAUDEV_INFO@@IU1@V?$allocator@UDEV_INFO@@@std@@@std@@YAXPAUDEV_INFO@@IABU1@AAV?$allocator@UDEV_INFO@@@0@U_Nonscalar_ptr_iterator_tag@0@U_Range_checked_iterator_tag@0@@Z 00415160 f i DlgUartConfig.obj
 0001:00014240       ??$move_s@U?$char_traits@D@std@@@_Traits_helper@std@@YAPADPADIPBDIU_Secure_char_traits_tag@1@@Z 00415240 f i DlgUartConfig.obj
 0001:00014290       ?_Move_s@?$char_traits@D@std@@SAPADPADIPBDI@Z 00415290 f i DlgUartConfig.obj
 0001:000142e0       ??$_Unchecked_uninitialized_move@PAUDEV_INFO@@PAU1@V?$allocator@UDEV_INFO@@@std@@@stdext@@YAPAUDEV_INFO@@PAU1@00AAV?$allocator@UDEV_INFO@@@std@@@Z 004152e0 f i DlgUartConfig.obj
 0001:00014370       ??$_Fill@PAUDEV_INFO@@U1@@std@@YAXPAUDEV_INFO@@0ABU1@@Z 00415370 f i DlgUartConfig.obj
 0001:000143e0       ??$_Move_cat@PAUDEV_INFO@@@std@@YA?AU_Undefined_move_tag@0@ABQAUDEV_INFO@@@Z 004153e0 f i DlgUartConfig.obj
 0001:00014440       ??$_Move_backward_opt@PAUDEV_INFO@@PAU1@Urandom_access_iterator_tag@std@@U_Undefined_move_tag@3@@std@@YAPAUDEV_INFO@@PAU1@00Urandom_access_iterator_tag@0@U_Undefined_move_tag@0@U_Range_checked_iterator_tag@0@@Z 00415440 f i DlgUartConfig.obj
 0001:000144c0       ?construct@?$allocator@UDEV_INFO@@@std@@QAEXPAUDEV_INFO@@ABU3@@Z 004154c0 f i DlgUartConfig.obj
 0001:00014510       ??$_Checked_base@PAUDEV_INFO@@@std@@YAPAUDEV_INFO@@AAPAU1@U_Unchanged_checked_iterator_base_type_tag@0@@Z 00415510 f i DlgUartConfig.obj
 0001:00014540       ??$_Copy_opt@PAUDEV_INFO@@PAU1@Uforward_iterator_tag@std@@@std@@YAPAUDEV_INFO@@PAU1@00Uforward_iterator_tag@0@U_Nonscalar_ptr_iterator_tag@0@U_Range_checked_iterator_tag@0@@Z 00415540 f i DlgUartConfig.obj
 0001:000145c0       ??$_Uninit_move@PAUDEV_INFO@@PAU1@V?$allocator@UDEV_INFO@@@std@@U_Undefined_move_tag@3@@std@@YAPAUDEV_INFO@@PAU1@00AAV?$allocator@UDEV_INFO@@@0@U_Undefined_move_tag@0@U_Range_checked_iterator_tag@0@@Z 004155c0 f i DlgUartConfig.obj
 0001:00014610       ??$_Debug_range@PAUDEV_INFO@@@std@@YAXPAUDEV_INFO@@0PB_WI@Z 00415610 f i DlgUartConfig.obj
 0001:00014680       ??$_Copy_backward_opt@PAUDEV_INFO@@PAU1@@std@@YAPAUDEV_INFO@@PAU1@00Urandom_access_iterator_tag@0@U_Nonscalar_ptr_iterator_tag@0@U_Range_checked_iterator_tag@0@@Z 00415680 f i DlgUartConfig.obj
 0001:00014720       ??$_Construct@UDEV_INFO@@U1@@std@@YAXPAUDEV_INFO@@ABU1@@Z 00415720 f i DlgUartConfig.obj
 0001:000147a0       ??$unchecked_uninitialized_copy@PAUDEV_INFO@@PAU1@V?$allocator@UDEV_INFO@@@std@@@stdext@@YAPAUDEV_INFO@@PAU1@00AAV?$allocator@UDEV_INFO@@@std@@@Z 004157a0 f i DlgUartConfig.obj
 0001:00014830       ??$_Iter_cat@PAUDEV_INFO@@@std@@YA?AUrandom_access_iterator_tag@0@ABQAUDEV_INFO@@@Z 00415830 f i DlgUartConfig.obj
 0001:00014890       ??$_Debug_range2@PAUDEV_INFO@@@std@@YAXPAUDEV_INFO@@0PB_WIUrandom_access_iterator_tag@0@@Z 00415890 f i DlgUartConfig.obj
 0001:00014910       ??$_Copy_backward_opt@PAUDEV_INFO@@PAU1@Uforward_iterator_tag@std@@@std@@YAPAUDEV_INFO@@PAU1@00Uforward_iterator_tag@0@U_Nonscalar_ptr_iterator_tag@0@U_Range_checked_iterator_tag@0@@Z 00415910 f i DlgUartConfig.obj
 0001:00014990       ??$_Uninit_copy@PAUDEV_INFO@@PAU1@V?$allocator@UDEV_INFO@@@std@@@std@@YAPAUDEV_INFO@@PAU1@00AAV?$allocator@UDEV_INFO@@@0@U_Nonscalar_ptr_iterator_tag@0@U_Range_checked_iterator_tag@0@@Z 00415990 f i DlgUartConfig.obj
 0001:00014aa0       ??$_Debug_pointer@UDEV_INFO@@@std@@YAXPAUDEV_INFO@@PB_WI@Z 00415aa0 f i DlgUartConfig.obj
 0001:00014af0       ?StringCompareIgnore@?$ChTraitsCRT@_W@ATL@@SAHPB_W0@Z 00415af0 f i DlgUartConfig.obj
 0001:00014b40       _dlmalloc                  00415b40 f   dlmalloc.obj
 0001:00017d80       _dlfree                    00418d80 f   dlmalloc.obj
 0001:00019590       _dlcalloc                  0041a590 f   dlmalloc.obj
 0001:00019630       _dlrealloc                 0041a630 f   dlmalloc.obj
 0001:00019b20       _dlmemalign                0041ab20 f   dlmalloc.obj
 0001:00019ec0       _dlindependent_calloc      0041aec0 f   dlmalloc.obj
 0001:0001a280       _dlindependent_comalloc    0041b280 f   dlmalloc.obj
 0001:0001a2d0       _dlvalloc                  0041b2d0 f   dlmalloc.obj
 0001:0001a330       _dlpvalloc                 0041b330 f   dlmalloc.obj
 0001:0001a3a0       _dlmalloc_trim             0041b3a0 f   dlmalloc.obj
 0001:0001a450       _dlmalloc_footprint        0041b450 f   dlmalloc.obj
 0001:0001a480       _dlmalloc_max_footprint    0041b480 f   dlmalloc.obj
 0001:0001a4b0       _dlmallinfo                0041b4b0 f   dlmalloc.obj
 0001:0001a7b0       _dlmalloc_stats            0041b7b0 f   dlmalloc.obj
 0001:0001aa20       _dlmallopt                 0041ba20 f   dlmalloc.obj
 0001:0001ab50       _dlmalloc_usable_size      0041bb50 f   dlmalloc.obj
 0001:0001abc0       ?GetAppPath@@YAXPA_W@Z     0041bbc0 f   Function.obj
 0001:0001acd0       ?wcschr@@YAPA_WPA_W_W@Z    0041bcd0 f i Function.obj
 0001:0001ad20       ?HiLvlRcvThread@@YAIPAX@Z  0041bd20 f   MainFrm.obj
 0001:0001add0       ?CreateObject@CMainFrame@@SGPAVCObject@@XZ 0041bdd0 f   MainFrm.obj
 0001:0001ae90       ?GetRuntimeClass@CMainFrame@@UBEPAUCRuntimeClass@@XZ 0041be90 f   MainFrm.obj
 0001:0001aec0       ?GetMessageMap@CMainFrame@@MBEPBUAFX_MSGMAP@@XZ 0041bec0 f   MainFrm.obj
 0001:0001af00       ?GetThisMessageMap@CMainFrame@@KGPBUAFX_MSGMAP@@XZ 0041bf00 f   MainFrm.obj
 0001:0001af30       ??0CMainFrame@@IAE@XZ      0041bf30 f   MainFrm.obj
 0001:0001b300       ??_GCMainFrame@@UAEPAXI@Z  0041c300 f i MainFrm.obj
 0001:0001b300       ??_ECMainFrame@@UAEPAXI@Z  0041c300 f i MainFrm.obj
 0001:0001b360       ??1CMainFrame@@UAE@XZ      0041c360 f   MainFrm.obj
 0001:0001b530       ?PreCreateWindow@CMainFrame@@UAEHAAUtagCREATESTRUCTW@@@Z 0041c530 f   MainFrm.obj
 0001:0001b5a0       ?CrashCallBack@@YAHPAU_EXCEPTION_POINTERS@@@Z 0041c5a0 f   MainFrm.obj
 0001:0001b5d0       ?AssertValid@CMainFrame@@UBEXXZ 0041c5d0 f   MainFrm.obj
 0001:0001b610       ?Dump@CMainFrame@@UBEXAAVCDumpContext@@@Z 0041c610 f   MainFrm.obj
 0001:0001b660       ?OnCreate@CMainFrame@@IAEHPAUtagCREATESTRUCTW@@@Z 0041c660 f   MainFrm.obj
 0001:0001bb20       ?OnNifChanSvr@CMainFrame@@IAEJIJ@Z 0041cb20 f   MainFrm.obj
 0001:0001bc40       ?OnChansvrConfig@CMainFrame@@IAEXXZ 0041cc40 f   MainFrm.obj
 0001:0001be70       ?OnClose@CMainFrame@@IAEXXZ 0041ce70 f   MainFrm.obj
 0001:0001c030       ?OnTimer@CMainFrame@@IAEXI@Z 0041d030 f   MainFrm.obj
 0001:0001c2e0       ?OnCommSockData@CMainFrame@@IAEJIJ@Z 0041d2e0 f   MainFrm.obj
 0001:0001c340       ?OpenServer@CMainFrame@@QAEHXZ 0041d340 f   MainFrm.obj
 0001:0001c4b0       ?CloseServer@CMainFrame@@QAEHXZ 0041d4b0 f   MainFrm.obj
 0001:0001c530       ?OnUpdateChansvrConfig@CMainFrame@@IAEXPAVCCmdUI@@@Z 0041d530 f   MainFrm.obj
 0001:0001c590       ?OnConnectMssim@CMainFrame@@IAEXXZ 0041d590 f   MainFrm.obj
 0001:0001cbc0       ?OnUpdateConnectMssim@CMainFrame@@IAEXPAVCCmdUI@@@Z 0041dbc0 f   MainFrm.obj
 0001:0001cc50       ?OnDisconnectMssim@CMainFrame@@IAEXXZ 0041dc50 f   MainFrm.obj
 0001:0001ce30       ?OnDisconnectMssim2@CMainFrame@@IAEJIJ@Z 0041de30 f   MainFrm.obj
 0001:0001cf30       ?OnFileReadOver@CMainFrame@@IAEJIJ@Z 0041df30 f   MainFrm.obj
 0001:0001cf80       ?OnUpdateDisconnectMssim@CMainFrame@@IAEXPAVCCmdUI@@@Z 0041df80 f   MainFrm.obj
 0001:0001d010       ?OnLogData@CMainFrame@@IAEXXZ 0041e010 f   MainFrm.obj
 0001:0001d090       ?OnUpdateLogData@CMainFrame@@IAEXPAVCCmdUI@@@Z 0041e090 f   MainFrm.obj
 0001:0001d0f0       ?OnAssert@CMainFrame@@IAEJIJ@Z 0041e0f0 f   MainFrm.obj
 0001:0001d140       ?OnUpdateAssert@CMainFrame@@IAEXPAVCCmdUI@@@Z 0041e140 f   MainFrm.obj
 0001:0001d1d0       ?WindowProc@CMainFrame@@MAEJIIJ@Z 0041e1d0 f   MainFrm.obj
 0001:0001d220       ?ChangeIcon@CMainFrame@@IAEXXZ 0041e220 f   MainFrm.obj
 0001:0001d3a0       ?OnEndianEvent@CMainFrame@@IAEJIJ@Z 0041e3a0 f   MainFrm.obj
 0001:0001d3e0       ?OnRecvDeviceChange@CMainFrame@@IAEJIJ@Z 0041e3e0 f   MainFrm.obj
 0001:0001d7c0       ?OnPortReset@CMainFrame@@IAEJIJ@Z 0041e7c0 f   MainFrm.obj
 0001:0001d910       ?GetThreadFunc@CMainFrame@@SGKPAX@Z 0041e910 f   MainFrm.obj
 0001:0001d960       ?SocketMonitorFunc@CMainFrame@@QAEKXZ 0041e960 f   MainFrm.obj
 0001:0001d9f0       ?StartSocketMonitor@CMainFrame@@QAEXXZ 0041e9f0 f   MainFrm.obj
 0001:0001db70       ?StopSocketMonitor@CMainFrame@@QAEXXZ 0041eb70 f   MainFrm.obj
 0001:0001dca0       ?TryToOpen@CMainFrame@@QAEHPAVIProtocolChannel@@AAU_CHANNEL_ATTRIBUTE@@@Z 0041eca0 f   MainFrm.obj
 0001:0001de10       ?OnNotify2Client@CMainFrame@@QAEXH@Z 0041ee10 f   MainFrm.obj
 0001:0001df10       ?Log@CMainFrame@@QAEXAAV?$CStringT@_WV?$StrTraitMFC@_WV?$ChTraitsCRT@_W@ATL@@@@@ATL@@@Z 0041ef10 f   MainFrm.obj
 0001:0001df90       ??0CSpLog@@QAE@XZ          0041ef90 f   SpLog.obj
 0001:0001e2d0       ??1ISpLog@@UAE@XZ          0041f2d0 f i SpLog.obj
 0001:0001e310       ??_EISpLog@@UAEPAXI@Z      0041f310 f i SpLog.obj
 0001:0001e310       ??_GISpLog@@UAEPAXI@Z      0041f310 f i SpLog.obj
 0001:0001e370       ?Release@CSpLog@@UAEXXZ    0041f370 f i SpLog.obj
 0001:0001e400       ??_GCSpLog@@UAEPAXI@Z      0041f400 f i SpLog.obj
 0001:0001e400       ??_ECSpLog@@UAEPAXI@Z      0041f400 f i SpLog.obj
 0001:0001e460       ??0ISpLog@@QAE@XZ          0041f460 f i SpLog.obj
 0001:0001e4a0       ??1CSpLog@@UAE@XZ          0041f4a0 f   SpLog.obj
 0001:0001e590       ?Open@CSpLog@@UAEHPB_WIII@Z 0041f590 f   SpLog.obj
 0001:0001e850       ?Close@CSpLog@@UAEHXZ      0041f850 f   SpLog.obj
 0001:0001e9a0       ?SetProperty@CSpLog@@UAEHJJPBX@Z 0041f9a0 f   SpLog.obj
 0001:0001ee10       ?GetProperty@CSpLog@@UAEHJJPAX@Z 0041fe10 f   SpLog.obj
 0001:0001f0e0       ?WriteLog@CSpLog@@IAEHAAPAXPB_WAAIPBXK@Z 004200e0 f   SpLog.obj
 0001:0001f2c0       ?LogString@CSpLog@@IAEHPBD@Z 004202c0 f   SpLog.obj
 0001:0001f440       ?GetLocalTime@CSpLog@@IBEPBDXZ 00420440 f i SpLog.obj
 0001:0001f500       ?WriteConsoleWindow@CSpLog@@IAEXPBXK@Z 00420500 f   SpLog.obj
 0001:0001f5c0       ?LogHexData@CSpLog@@UAEHPBEKI@Z 004205c0 f   SpLog.obj
 0001:0001f670       ?LogRawStrA@CSpLog@@UAEHIPBD@Z 00420670 f   SpLog.obj
 0001:0001f710       ?LogRawStrW@CSpLog@@UAEHIPB_W@Z 00420710 f   SpLog.obj
 0001:0001f840       ?LogFmtStrA@CSpLog@@UAAHIPBDZZ 00420840 f   SpLog.obj
 0001:0001f970       ?LogFmtStrW@CSpLog@@UAAHIPB_WZZ 00420970 f   SpLog.obj
 0001:0001fb00       ?LogBufData@CSpLog@@UAEHIPBEKIPBK@Z 00420b00 f   SpLog.obj
 0001:00020180       ?AllocConsoleWindow@CSpLog@@IAEXXZ 00421180 f   SpLog.obj
 0001:00020330       ?CreateMultiDirectory@CSpLog@@IAEHPB_W@Z 00421330 f   SpLog.obj
 0001:00020560       ?GetLogExtension@CSpLog@@IAEXPB_WPA_WH@Z 00421560 f   SpLog.obj
 0001:00020710       ?GetLogFilePath@CSpLog@@IAEXPB_WPA_WH@Z 00421710 f   SpLog.obj
 0001:00020ab0       ?GetBinFilePath@CSpLog@@IAEXPB_WPA_WH@Z 00421ab0 f   SpLog.obj
 0001:00020c80       ?GetNextPartLog@CSpLog@@IAEXPB_WPA_WI@Z 00421c80 f   SpLog.obj
 0001:00020e20       ?OpenFile@CSpLog@@IAEPAXPB_W@Z 00421e20 f   SpLog.obj
 0001:00020ee0       ?FlushBuff@CSpLog@@QAEXXZ  00421ee0 f   SpLog.obj
 0001:00020f40       ??0CFnLog@@QAA@PAVISpLog@@PBD1ZZ 00421f40 f   SpLog.obj
 0001:000210f0       ??_ECFnLog@@UAEPAXI@Z      004220f0 f i SpLog.obj
 0001:000210f0       ??_GCFnLog@@UAEPAXI@Z      004220f0 f i SpLog.obj
 0001:00021150       ??0CFnLog@@QAA@PAVISpLog@@PB_W1ZZ 00422150 f   SpLog.obj
 0001:00021370       ??1CFnLog@@UAE@XZ          00422370 f   SpLog.obj
 0001:00021400       ?XX_MulDiv@@YAJJJJ@Z       00422400 f   StdAfx.obj
 0001:00021500       ?SplitStr@@YAHPB_WAAVCStringArray@@_W@Z 00422500 f   StdAfx.obj
 0001:00021700       ?_AfxInitManaged@@YAHXZ    00422700 f i StdAfx.obj
 0001:00021730       ??0Thank_you@Define_the_symbol__ATL_MIXED@@QAE@XZ 00422730 f i StdAfx.obj
 0001:00021770       ?one@Thank_you@Define_the_symbol__ATL_MIXED@@UAEXXZ 00422770 f i StdAfx.obj
 0001:000217a0       ??0CXAboutDlg@@QAE@PB_WPAVCWnd@@@Z 004227a0 f   XAboutDlg.obj
 0001:000219e0       ??_GCXAboutDlg@@UAEPAXI@Z  004229e0 f i XAboutDlg.obj
 0001:000219e0       ??_ECXAboutDlg@@UAEPAXI@Z  004229e0 f i XAboutDlg.obj
 0001:00021a40       ??1CXAboutDlg@@UAE@XZ      00422a40 f   XAboutDlg.obj
 0001:00021bc0       ?DoDataExchange@CXAboutDlg@@MAEXPAVCDataExchange@@@Z 00422bc0 f   XAboutDlg.obj
 0001:00021c10       ?GetMessageMap@CXAboutDlg@@MBEPBUAFX_MSGMAP@@XZ 00422c10 f   XAboutDlg.obj
 0001:00021c50       ?GetThisMessageMap@CXAboutDlg@@KGPBUAFX_MSGMAP@@XZ 00422c50 f   XAboutDlg.obj
 0001:00021c80       ?OnInitDialog@CXAboutDlg@@MAEHXZ 00422c80 f   XAboutDlg.obj
 0001:00022130       ?OnCreate@CXAboutDlg@@IAEHPAUtagCREATESTRUCTW@@@Z 00423130 f   XAboutDlg.obj
 0001:000221b0       ?OnEraseBkgnd@CXAboutDlg@@IAEHPAVCDC@@@Z 004231b0 f   XAboutDlg.obj
 0001:000226a0       ?OnLButtonDown@CXAboutDlg@@IAEXIVCPoint@@@Z 004236a0 f   XAboutDlg.obj
 0001:000226f0       ?OnRButtonDown@CXAboutDlg@@IAEXIVCPoint@@@Z 004236f0 f   XAboutDlg.obj
 0001:00022810       ?SetProductName@CXAboutDlg@@QAEXPB_W@Z 00423810 f   XAboutDlg.obj
 0001:00022870       ??0CXVerInfo@@QAE@XZ       00423870 f   XAboutDlg.obj
 0001:00022900       ??1CXVerInfo@@QAE@XZ       00423900 f   XAboutDlg.obj
 0001:00022960       ?Init@CXVerInfo@@QAEHPB_W@Z 00423960 f   XAboutDlg.obj
 0001:00022bc0       ?GetAllLangCodePage@CXVerInfo@@QAEHAAPAU_LANGANDCODEPAGE_T@@AAI@Z 00423bc0 f   XAboutDlg.obj
 0001:00022c70       ?SetCurLangCodePage@CXVerInfo@@QAEXPAU_LANGANDCODEPAGE_T@@@Z 00423c70 f   XAboutDlg.obj
 0001:00022cf0       ?GetComments@CXVerInfo@@QAEPB_WXZ 00423cf0 f   XAboutDlg.obj
 0001:00022e50       ?GetCompanyName@CXVerInfo@@QAEPB_WXZ 00423e50 f   XAboutDlg.obj
 0001:00022fb0       ?GetLegalCopyright@CXVerInfo@@QAEPB_WXZ 00423fb0 f   XAboutDlg.obj
 0001:00023110       ?GetLegalTrademarks@CXVerInfo@@QAEPB_WXZ 00424110 f   XAboutDlg.obj
 0001:00023270       ?GetProductName@CXVerInfo@@QAEPB_WXZ 00424270 f   XAboutDlg.obj
 0001:000233d0       ?GetProductVersion@CXVerInfo@@QAEPB_WXZ 004243d0 f   XAboutDlg.obj
 0001:00023530       ?GetPrivateBuild@CXVerInfo@@QAEPB_WXZ 00424530 f   XAboutDlg.obj
 0001:00023690       ?GetSpecialBuild@CXVerInfo@@QAEPB_WXZ 00424690 f   XAboutDlg.obj
 0001:000237f0       ?GetSPRDVersionString@CXVerInfo@@QAEPB_WXZ 004247f0 f   XAboutDlg.obj
 0001:00023a80       ?Replace@?$CStringT@_WV?$StrTraitMFC@_WV?$ChTraitsCRT@_W@ATL@@@@@ATL@@QAEHPB_W0@Z 00424a80 f i XAboutDlg.obj
 0001:00023cf0       ?Remove@?$CStringT@_WV?$StrTraitMFC@_WV?$ChTraitsCRT@_W@ATL@@@@@ATL@@QAEH_W@Z 00424cf0 f i XAboutDlg.obj
 0001:00023e20       ?ReverseFind@?$CStringT@_WV?$StrTraitMFC@_WV?$ChTraitsCRT@_W@ATL@@@@@ATL@@QBEH_W@Z 00424e20 f i XAboutDlg.obj
 0001:00023ea0       ?Right@?$CStringT@_WV?$StrTraitMFC@_WV?$ChTraitsCRT@_W@ATL@@@@@ATL@@QBE?AV12@H@Z 00424ea0 f i XAboutDlg.obj
 0001:00023f60       ?memcpy_s@Checked@ATL@@YAXPAXIPBXI@Z 00424f60 f i XAboutDlg.obj
 0001:00023fc0       ?StringFindString@?$ChTraitsCRT@_W@ATL@@SAPA_WPA_WPB_W@Z 00424fc0 f i XAboutDlg.obj
 0001:00024010       ?StringFindCharRev@?$ChTraitsCRT@_W@ATL@@SAPB_WPB_W_W@Z 00425010 f i XAboutDlg.obj
 0001:00024060       ?SafeStringLen@?$ChTraitsCRT@_W@ATL@@SAHPB_W@Z 00425060 f i XAboutDlg.obj
 0001:000240bc       _ReleaseChannel            004250bc f   Channel9D:Channel9D.dll
 0001:000240c2       _CreateChannel             004250c2 f   Channel9D:Channel9D.dll
 0001:000240c8       _CreateDiagPackage         004250c8 f   DiagChan9d:DiagChan9d.dll
 0001:000240ce       _ReleaseDiagPackage        004250ce f   DiagChan9d:DiagChan9d.dll
 0001:000240d4       _ReleaseProtoPackage       004250d4 f   DiagChan9d:DiagChan9d.dll
 0001:000240da       _CreateProtoPackage        004250da f   DiagChan9d:DiagChan9d.dll
 0001:000240e0       _ReleaseProtoChannel       004250e0 f   DiagChan9d:DiagChan9d.dll
 0001:000240e6       _CreateProtoChannel        004250e6 f   DiagChan9d:DiagChan9d.dll
 0001:000240ec       _VerQueryValueW@16         004250ec f   version:VERSION.dll
 0001:000240f2       _GetFileVersionInfoW@16    004250f2 f   version:VERSION.dll
 0001:000240f8       _GetFileVersionInfoSizeW@8 004250f8 f   version:VERSION.dll
 0001:000240fe       _htonl@4                   004250fe f   Ws2_32:WS2_32.dll
 0001:00024104       _inet_addr@4               00425104 f   Ws2_32:WS2_32.dll
 0001:0002410a       _gethostbyaddr@12          0042510a f   Ws2_32:WS2_32.dll
 0001:00024110       _CreateDevHound            00425110 f   porthoundd:PortHoundd.dll
 0001:00024116       _ReleaseDevHound           00425116 f   porthoundd:PortHoundd.dll
 0001:00024120       ??2CObject@@SGPAXI@Z       00425120 f   uafxcwd:afxmem.obj
 0001:00024140       ??3CObject@@SGXPAX@Z       00425140 f   uafxcwd:afxmem.obj
 0001:00024160       ??3CObject@@SGXPAX0@Z      00425160 f   uafxcwd:afxmem.obj
 0001:00024180       ??2@YAPAXIPBDH@Z           00425180 f   uafxcwd:afxmem.obj
 0001:000241a0       ??_U@YAPAXIPBDH@Z          004251a0 f   uafxcwd:afxmem.obj
 0001:000241c0       ??3@YAXPAXPBDH@Z           004251c0 f   uafxcwd:afxmem.obj
 0001:000241e0       ??_V@YAXPAXPBDH@Z          004251e0 f   uafxcwd:afxmem.obj
 0001:00024200       ??2CObject@@SGPAXIPBDH@Z   00425200 f   uafxcwd:afxmem.obj
 0001:00024230       ??3CObject@@SGXPAXPBDH@Z   00425230 f   uafxcwd:afxmem.obj
 0001:00024250       ?AfxAllocMemoryDebug@@YGPAXIHPBDH@Z 00425250 f   uafxcwd:afxmem.obj
 0001:00024280       ?AfxFreeMemoryDebug@@YGXPAXH@Z 00425280 f   uafxcwd:afxmem.obj
 0001:000242b0       ?_AfxDefaultAllocHook@@YGHIHJ@Z 004252b0 f   uafxcwd:afxmem.obj
 0001:000242c0       ?_AfxAllocHookProxy@@YAHHPAXIHJPBEH@Z 004252c0 f   uafxcwd:afxmem.obj
 0001:00024350       ?AfxSetAllocHook@@YGP6GHIHJ@ZP6GHIHJ@Z@Z 00425350 f   uafxcwd:afxmem.obj
 0001:00024390       ?AfxEnableMemoryLeakOverride@@YGHH@Z 00425390 f   uafxcwd:afxmem.obj
 0001:000243b0       ?AfxEnableMemoryTracking@@YGHH@Z 004253b0 f   uafxcwd:afxmem.obj
 0001:00024410       ?AfxSetAllocStop@@YGXJ@Z   00425410 f   uafxcwd:afxmem.obj
 0001:00024430       ?AfxCheckMemory@@YGHXZ     00425430 f   uafxcwd:afxmem.obj
 0001:00024440       ?AfxIsMemoryBlock@@YGHPBXIPAJ@Z 00425440 f   uafxcwd:afxmem.obj
 0001:00024470       ??0CMemoryState@@QAE@XZ    00425470 f   uafxcwd:afxmem.obj
 0001:00024490       ?UpdateData@CMemoryState@@QAEXXZ 00425490 f   uafxcwd:afxmem.obj
 0001:00024500       ?Difference@CMemoryState@@QAEHABU1@0@Z 00425500 f   uafxcwd:afxmem.obj
 0001:00024540       ?DumpStatistics@CMemoryState@@QBEXXZ 00425540 f   uafxcwd:afxmem.obj
 0001:00024560       ?Checkpoint@CMemoryState@@QAEXXZ 00425560 f   uafxcwd:afxmem.obj
 0001:00024590       ?DumpAllObjectsSince@CMemoryState@@QBEXXZ 00425590 f   uafxcwd:afxmem.obj
 0001:000245b0       ?_AfxDoForAllObjectsProxy@@YAXPAX0@Z 004255b0 f   uafxcwd:afxmem.obj
 0001:000245e0       ?AfxDoForAllObjects@@YGXP6AXPAVCObject@@PAX@Z1@Z 004255e0 f   uafxcwd:afxmem.obj
 0001:00024620       ?AfxDumpMemoryLeaks@@YGHXZ 00425620 f   uafxcwd:afxmem.obj
 0001:00024630       ?AfxNewHandler@@YAHI@Z     00425630 f   uafxcwd:afxmem.obj
 0001:00024640       ?AfxGetNewHandler@@YGP6AHI@ZXZ 00425640 f   uafxcwd:afxmem.obj
 0001:00024650       ?AfxSetNewHandler@@YGP6AHI@ZP6AHI@Z@Z 00425650 f   uafxcwd:afxmem.obj
 0001:00024670       ??2@YAPAXI@Z               00425670 f   uafxcwd:afxmem.obj
 0001:000246c0       ??3@YAXPAX@Z               004256c0 f   uafxcwd:afxmem.obj
 0001:000246e0       ??_U@YAPAXI@Z              004256e0 f   uafxcwd:afxmem.obj
 0001:00024700       ??_V@YAXPAX@Z              00425700 f   uafxcwd:afxmem.obj
 0001:00024720       ??2@YAPAXIHPBDH@Z          00425720 f   uafxcwd:afxmem.obj
 0001:00024780       ??3@YAXPAXHPBDH@Z          00425780 f   uafxcwd:afxmem.obj
 0001:000247a0       ??_U@YAPAXIHPBDH@Z         004257a0 f   uafxcwd:afxmem.obj
 0001:000247c0       ??_V@YAXPAXHPBDH@Z         004257c0 f   uafxcwd:afxmem.obj
 0001:000247e0       ?AfxPropPageCallback@@YGIPAUHWND__@@IPAU_PROPSHEETPAGEW@@@Z 004257e0 f   uafxcwd:dlgprop.obj
 0001:00024900       ?GetMessageMap@CPropertyPage@@MBEPBUAFX_MSGMAP@@XZ 00425900 f   uafxcwd:dlgprop.obj
 0001:00024920       ?GetThisMessageMap@CPropertyPage@@KGPBUAFX_MSGMAP@@XZ 00425920 f   uafxcwd:dlgprop.obj
 0001:00024930       ?GetPSP@CPropertyPage@@QBEABU_PROPSHEETPAGEW@@XZ 00425930 f   uafxcwd:dlgprop.obj
 0001:00024950       ?GetPSP@CPropertyPage@@QAEAAU_PROPSHEETPAGEW@@XZ 00425950 f   uafxcwd:dlgprop.obj
 0001:00024970       ?AllocPSP@CPropertyPage@@IAEXK@Z 00425970 f   uafxcwd:dlgprop.obj
 0001:00024a00       ??0CPropertyPage@@QAE@IIK@Z 00425a00 f   uafxcwd:dlgprop.obj
 0001:00024ad0       ??_GCPropertyPage@@UAEPAXI@Z 00425ad0 f i uafxcwd:dlgprop.obj
 0001:00024ad0       ??_ECPropertyPage@@UAEPAXI@Z 00425ad0 f i uafxcwd:dlgprop.obj
 0001:00024b00       ??0CPropertyPage@@QAE@PB_WIK@Z 00425b00 f   uafxcwd:dlgprop.obj
 0001:00024bf0       ?Construct@CPropertyPage@@QAEXII@Z 00425bf0 f   uafxcwd:dlgprop.obj
 0001:00024c30       ?Construct@CPropertyPage@@QAEXPB_WI@Z 00425c30 f   uafxcwd:dlgprop.obj
 0001:00024cb0       ??0CPropertyPage@@QAE@XZ   00425cb0 f   uafxcwd:dlgprop.obj
 0001:00024d60       ?CommonConstruct@CPropertyPage@@IAEXPB_WI@Z 00425d60 f   uafxcwd:dlgprop.obj
 0001:00024eb0       ??0CPropertyPage@@QAE@IIIIK@Z 00425eb0 f   uafxcwd:dlgprop.obj
 0001:00024f80       ??0CPropertyPage@@QAE@PB_WIIIK@Z 00425f80 f   uafxcwd:dlgprop.obj
 0001:00025060       ?Construct@CPropertyPage@@QAEXIIII@Z 00426060 f   uafxcwd:dlgprop.obj
 0001:000250b0       ?Construct@CPropertyPage@@QAEXPB_WIII@Z 004260b0 f   uafxcwd:dlgprop.obj
 0001:00025140       ?CommonConstruct@CPropertyPage@@IAEXPB_WIII@Z 00426140 f   uafxcwd:dlgprop.obj
 0001:000251f0       ??1CPropertyPage@@UAE@XZ   004261f0 f   uafxcwd:dlgprop.obj
 0001:000252b0       ?Cleanup@CPropertyPage@@IAEXXZ 004262b0 f   uafxcwd:dlgprop.obj
 0001:00025310       ?_AfxChangePropPageFont@@YGPAUDLGTEMPLATE@@PBU1@H@Z 00426310 f   uafxcwd:dlgprop.obj
 0001:00025460       ?InitDialogInfo@CPropertyPage@@IAEPBUDLGTEMPLATE@@PBU2@@Z 00426460 f   uafxcwd:dlgprop.obj
 0001:000254b0       ?PreProcessPageTemplate@CPropertyPage@@IAEXAAU_PROPSHEETPAGEW@@H@Z 004264b0 f   uafxcwd:dlgprop.obj
 0001:000255b0       ?CancelToClose@CPropertyPage@@QAEXXZ 004265b0 f   uafxcwd:dlgprop.obj
 0001:00025620       ?SetModified@CPropertyPage@@QAEXH@Z 00426620 f   uafxcwd:dlgprop.obj
 0001:000256d0       ?QuerySiblings@CPropertyPage@@QAEJIJ@Z 004266d0 f   uafxcwd:dlgprop.obj
 0001:00025740       ?OnApply@CPropertyPage@@UAEHXZ 00426740 f   uafxcwd:dlgprop.obj
 0001:00025780       ?OnReset@CPropertyPage@@UAEXXZ 00426780 f   uafxcwd:dlgprop.obj
 0001:000257b0       ?OnOK@CPropertyPage@@UAEXXZ 004267b0 f   uafxcwd:dlgprop.obj
 0001:000257d0       ?OnCancel@CPropertyPage@@UAEXXZ 004267d0 f   uafxcwd:dlgprop.obj
 0001:000257f0       ?OnSetActive@CPropertyPage@@UAEHXZ 004267f0 f   uafxcwd:dlgprop.obj
 0001:00025840       ?OnKillActive@CPropertyPage@@UAEHXZ 00426840 f   uafxcwd:dlgprop.obj
 0001:000258b0       ??RCTraceFileAndLineInfo@ATL@@QBAXKIPBDZZ 004268b0 f i uafxcwd:dlgprop.obj
 0001:00025900       ?TraceV@CTrace@ATL@@QBAXPBDHKI0PAD@Z 00426900 f i uafxcwd:dlgprop.obj
 0001:00025930       ?OnQueryCancel@CPropertyPage@@UAEHXZ 00426930 f   uafxcwd:dlgprop.obj
 0001:00025950       ?OnWizardBack@CPropertyPage@@UAEJXZ 00426950 f   uafxcwd:dlgprop.obj
 0001:00025960       ?OnWizardNext@CPropertyPage@@UAEJXZ 00426960 f   uafxcwd:dlgprop.obj
 0001:00025970       ?OnWizardFinishEx@CPropertyPage@@UAEPAUHWND__@@XZ 00426970 f   uafxcwd:dlgprop.obj
 0001:000259a0       ?OnWizardFinish@CPropertyPage@@UAEHXZ 004269a0 f   uafxcwd:dlgprop.obj
 0001:00025a20       ?MapWizardResult@CPropertyPage@@IAEJJ@Z 00426a20 f   uafxcwd:dlgprop.obj
 0001:00025ad0       ?IsButtonEnabled@CPropertyPage@@IAEHH@Z 00426ad0 f   uafxcwd:dlgprop.obj
 0001:00025b10       ?OnNotify@CPropertyPage@@MAEHIJPAJ@Z 00426b10 f   uafxcwd:dlgprop.obj
 0001:00025d30       ?PreTranslateMessage@CPropertyPage@@MAEHPAUtagMSG@@@Z 00426d30 f   uafxcwd:dlgprop.obj
 0001:00025d70       ?OnCtlColor@CPropertyPage@@IAEPAUHBRUSH__@@PAVCDC@@PAVCWnd@@I@Z 00426d70 f   uafxcwd:dlgprop.obj
 0001:00025db0       ?AssertValid@CPropertyPage@@UBEXXZ 00426db0 f   uafxcwd:dlgprop.obj
 0001:00025e40       ?Dump@CPropertyPage@@UBEXAAVCDumpContext@@@Z 00426e40 f   uafxcwd:dlgprop.obj
 0001:00025eb0       ?EndDialog@CPropertyPage@@QAEXH@Z 00426eb0 f   uafxcwd:dlgprop.obj
 0001:00025ef0       ?GetMessageMap@CPropertySheet@@MBEPBUAFX_MSGMAP@@XZ 00426ef0 f   uafxcwd:dlgprop.obj
 0001:00025f10       ?GetThisMessageMap@CPropertySheet@@KGPBUAFX_MSGMAP@@XZ 00426f10 f   uafxcwd:dlgprop.obj
 0001:00025f20       ?OnSetDefID@CPropertySheet@@IAEJIJ@Z 00426f20 f   uafxcwd:dlgprop.obj
 0001:00026030       ??0CPropertySheet@@QAE@XZ  00427030 f   uafxcwd:dlgprop.obj
 0001:000260c0       ??_GCPropertySheet@@UAEPAXI@Z 004270c0 f i uafxcwd:dlgprop.obj
 0001:000260c0       ??_ECPropertySheet@@UAEPAXI@Z 004270c0 f i uafxcwd:dlgprop.obj
 0001:000260f0       ??0CPropertySheet@@QAE@IPAVCWnd@@I@Z 004270f0 f   uafxcwd:dlgprop.obj
 0001:000261e0       ??0CPropertySheet@@QAE@PB_WPAVCWnd@@I@Z 004271e0 f   uafxcwd:dlgprop.obj
 0001:000262c0       ?Construct@CPropertySheet@@QAEXIPAVCWnd@@I@Z 004272c0 f   uafxcwd:dlgprop.obj
 0001:00026340       ?Construct@CPropertySheet@@QAEXPB_WPAVCWnd@@I@Z 00427340 f   uafxcwd:dlgprop.obj
 0001:000263b0       ?CommonConstruct@CPropertySheet@@QAEXPAVCWnd@@I@Z 004273b0 f   uafxcwd:dlgprop.obj
 0001:00026450       ??0CPropertySheet@@QAE@IPAVCWnd@@IPAUHBITMAP__@@PAUHPALETTE__@@1@Z 00427450 f   uafxcwd:dlgprop.obj
 0001:00026550       ??0CPropertySheet@@QAE@PB_WPAVCWnd@@IPAUHBITMAP__@@PAUHPALETTE__@@2@Z 00427550 f   uafxcwd:dlgprop.obj
 0001:00026640       ?Construct@CPropertySheet@@QAEXIPAVCWnd@@IPAUHBITMAP__@@PAUHPALETTE__@@1@Z 00427640 f   uafxcwd:dlgprop.obj
 0001:000266d0       ?Construct@CPropertySheet@@QAEXPB_WPAVCWnd@@IPAUHBITMAP__@@PAUHPALETTE__@@2@Z 004276d0 f   uafxcwd:dlgprop.obj
 0001:00026750       ?CommonConstruct@CPropertySheet@@QAEXPAVCWnd@@IPAUHBITMAP__@@PAUHPALETTE__@@1@Z 00427750 f   uafxcwd:dlgprop.obj
 0001:00026800       ?EnableStackedTabs@CPropertySheet@@QAEXH@Z 00427800 f   uafxcwd:dlgprop.obj
 0001:00026820       ?SetTitle@CPropertySheet@@QAEXPB_WI@Z 00427820 f   uafxcwd:dlgprop.obj
 0001:000268e0       ??1CPropertySheet@@UAE@XZ  004278e0 f   uafxcwd:dlgprop.obj
 0001:00026970       ?PreTranslateMessage@CPropertySheet@@UAEHPAUtagMSG@@@Z 00427970 f   uafxcwd:dlgprop.obj
 0001:00026ab0       ?OnCmdMsg@CPropertySheet@@UAEHIHPAXPAUAFX_CMDHANDLERINFO@@@Z 00427ab0 f   uafxcwd:dlgprop.obj
 0001:00026c40       ?GetActivePage@CPropertySheet@@QBEPAVCPropertyPage@@XZ 00427c40 f   uafxcwd:dlgprop.obj
 0001:00026cc0       ?ContinueModal@CPropertySheet@@UAEHXZ 00427cc0 f   uafxcwd:dlgprop.obj
 0001:00026d30       ?DoModal@CPropertySheet@@UAEHXZ 00427d30 f   uafxcwd:dlgprop.obj
 0001:00027010       ?AfxPropSheetCallback@@YGHPAUHWND__@@IJ@Z 00428010 f   uafxcwd:dlgprop.obj
 0001:000270b0       ?Create@CPropertySheet@@UAEHPAVCWnd@@KK@Z 004280b0 f   uafxcwd:dlgprop.obj
 0001:00027310       ?BuildPropPageArray@CPropertySheet@@UAEXXZ 00428310 f   uafxcwd:dlgprop.obj
 0001:00027560       ?GetPageCount@CPropertySheet@@QBEHXZ 00428560 f   uafxcwd:dlgprop.obj
 0001:000275f0       ?GetActiveIndex@CPropertySheet@@QBEHXZ 004285f0 f   uafxcwd:dlgprop.obj
 0001:00027660       ?SetActivePage@CPropertySheet@@QAEHH@Z 00428660 f   uafxcwd:dlgprop.obj
 0001:000276a0       ?GetPageIndex@CPropertySheet@@QAEHPAVCPropertyPage@@@Z 004286a0 f   uafxcwd:dlgprop.obj
 0001:000276f0       ?SetActivePage@CPropertySheet@@QAEHPAVCPropertyPage@@@Z 004286f0 f   uafxcwd:dlgprop.obj
 0001:00027790       ?AddPage@CPropertySheet@@QAEXPAVCPropertyPage@@@Z 00428790 f   uafxcwd:dlgprop.obj
 0001:000279e0       ?RemovePage@CPropertySheet@@QAEXPAVCPropertyPage@@@Z 004289e0 f   uafxcwd:dlgprop.obj
 0001:00027a80       ?RemovePage@CPropertySheet@@QAEXH@Z 00428a80 f   uafxcwd:dlgprop.obj
 0001:00027ae0       ?EndDialog@CPropertySheet@@QAEXH@Z 00428ae0 f   uafxcwd:dlgprop.obj
 0001:00027b30       ?OnClose@CPropertySheet@@IAEXXZ 00428b30 f   uafxcwd:dlgprop.obj
 0001:00027b80       ?OnKickIdle@CPropertySheet@@IAEJIJ@Z 00428b80 f   uafxcwd:dlgprop.obj
 0001:00027bf0       ?OnSysCommand@CPropertySheet@@IAEXIJ@Z 00428bf0 f   uafxcwd:dlgprop.obj
 0001:00027c50       ?OnInitDialog@CPropertySheet@@UAEHXZ 00428c50 f   uafxcwd:dlgprop.obj
 0001:00027f10       ?OnNcCreate@CPropertySheet@@IAEHPAUtagCREATESTRUCTW@@@Z 00428f10 f   uafxcwd:dlgprop.obj
 0001:00027f40       ?HandleInitDialog@CPropertySheet@@IAEJIJ@Z 00428f40 f   uafxcwd:dlgprop.obj
 0001:00027f70       ?OnCommand@CPropertySheet@@UAEHIJ@Z 00428f70 f   uafxcwd:dlgprop.obj
 0001:00028020       ?OnCommandHelp@CPropertySheet@@IAEJIJ@Z 00429020 f   uafxcwd:dlgprop.obj
 0001:00028080       ?OnCtlColor@CPropertySheet@@IAEPAUHBRUSH__@@PAVCDC@@PAVCWnd@@I@Z 00429080 f   uafxcwd:dlgprop.obj
 0001:000280f0       ?AssertValid@CPropertySheet@@UBEXXZ 004290f0 f   uafxcwd:dlgprop.obj
 0001:00028160       ?Dump@CPropertySheet@@UBEXAAVCDumpContext@@@Z 00429160 f   uafxcwd:dlgprop.obj
 0001:00028230       ?GetRuntimeClass@CPropertyPage@@UBEPAUCRuntimeClass@@XZ 00429230 f   uafxcwd:dlgprop.obj
 0001:00028250       ?GetRuntimeClass@CPropertySheet@@UBEPAUCRuntimeClass@@XZ 00429250 f   uafxcwd:dlgprop.obj
 0001:00028270       ??9ATL@@YA_NABV?$CStringT@_WV?$StrTraitMFC@_WV?$ChTraitsCRT@_W@ATL@@@@@0@0@Z 00429270 f i uafxcwd:dlgprop.obj
 0001:00028290       ??$?6_WV?$StrTraitMFC@_WV?$ChTraitsCRT@_W@ATL@@@@@CDumpContext@@QAEAAV0@ABV?$CStringT@_WV?$StrTraitMFC@_WV?$ChTraitsCRT@_W@ATL@@@@@ATL@@@Z 00429290 f i uafxcwd:dlgprop.obj
 0001:000282c0       ?AfxCreatePropertySheetPageW@@YGPAU_PSP@@PBU_PROPSHEETPAGEW@@@Z 004292c0 f i uafxcwd:dlgprop.obj
 0001:000282e0       ?_CreatePropertySheetPageW@CComCtlWrapper@@QAEPAU_PSP@@PBU_PROPSHEETPAGEW@@@Z 004292e0 f i uafxcwd:dlgprop.obj
 0001:00028420       ??BCreatePropertySheetPageW_Type@CComCtlWrapper@@QAEP6GPAU_PSP@@PBU_PROPSHEETPAGEW@@@ZXZ 00429420 f i uafxcwd:dlgprop.obj
 0001:00028440       ?GetProcAddress_CreatePropertySheetPageW@CComCtlWrapper@@QAE?AUCreatePropertySheetPageW_Type@1@XZ 00429440 f i uafxcwd:dlgprop.obj
 0001:000284a0       ?GetModuleHandleW@CDllIsolationWrapperBase@@QAEPAUHINSTANCE__@@XZ 004294a0 f i uafxcwd:dlgprop.obj
 0001:00028510       ??4CreatePropertySheetPageW_Type@CComCtlWrapper@@QAEXP6GPAU_PSP@@PBU_PROPSHEETPAGEW@@@Z@Z 00429510 f i uafxcwd:dlgprop.obj
 0001:00028530       ??7CreatePropertySheetPageW_Type@CComCtlWrapper@@QBE_NXZ 00429530 f i uafxcwd:dlgprop.obj
 0001:00028550       ?AfxDestroyPropertySheetPage@@YGHPAU_PSP@@@Z 00429550 f i uafxcwd:dlgprop.obj
 0001:00028570       ?_DestroyPropertySheetPage@CComCtlWrapper@@QAEHPAU_PSP@@@Z 00429570 f i uafxcwd:dlgprop.obj
 0001:000286b0       ??BDestroyPropertySheetPage_Type@CComCtlWrapper@@QAEP6GHPAU_PSP@@@ZXZ 004296b0 f i uafxcwd:dlgprop.obj
 0001:000286d0       ?GetProcAddress_DestroyPropertySheetPage@CComCtlWrapper@@QAE?AUDestroyPropertySheetPage_Type@1@XZ 004296d0 f i uafxcwd:dlgprop.obj
 0001:00028730       ??4DestroyPropertySheetPage_Type@CComCtlWrapper@@QAEXP6GHPAU_PSP@@@Z@Z 00429730 f i uafxcwd:dlgprop.obj
 0001:00028750       ??7DestroyPropertySheetPage_Type@CComCtlWrapper@@QBE_NXZ 00429750 f i uafxcwd:dlgprop.obj
 0001:00028770       ?AfxPropertySheetW@@YGHPBU_PROPSHEETHEADERW_V2@@@Z 00429770 f i uafxcwd:dlgprop.obj
 0001:00028790       ?_PropertySheetW@CComCtlWrapper@@QAEHPBU_PROPSHEETHEADERW_V2@@@Z 00429790 f i uafxcwd:dlgprop.obj
 0001:000288d0       ??BPropertySheetW_Type@CComCtlWrapper@@QAEP6GHPBU_PROPSHEETHEADERW_V2@@@ZXZ 004298d0 f i uafxcwd:dlgprop.obj
 0001:000288f0       ?GetProcAddress_PropertySheetW@CComCtlWrapper@@QAE?AUPropertySheetW_Type@1@XZ 004298f0 f i uafxcwd:dlgprop.obj
 0001:00028950       ??4PropertySheetW_Type@CComCtlWrapper@@QAEXP6GHPBU_PROPSHEETHEADERW_V2@@@Z@Z 00429950 f i uafxcwd:dlgprop.obj
 0001:00028970       ??7PropertySheetW_Type@CComCtlWrapper@@QBE_NXZ 00429970 f i uafxcwd:dlgprop.obj
 0001:00028990       ?AfxGetApp@@YGPAVCWinApp@@XZ 00429990 f   uafxcwd:afxinl2.obj
 0001:000289a0       ?AfxGetInstanceHandle@@YGPAUHINSTANCE__@@XZ 004299a0 f   uafxcwd:afxinl2.obj
 0001:000289d0       ?AfxGetResourceHandle@@YGPAUHINSTANCE__@@XZ 004299d0 f   uafxcwd:afxinl2.obj
 0001:00028a00       ?AfxSetResourceHandle@@YGXPAUHINSTANCE__@@@Z 00429a00 f   uafxcwd:afxinl2.obj
 0001:00028a30       ?AfxGetAppName@@YGPB_WXZ   00429a30 f   uafxcwd:afxinl2.obj
 0001:00028a60       ?AfxOleGetMessageFilter@@YGPAVCOleMessageFilter@@XZ 00429a60 f   uafxcwd:afxinl2.obj
 0001:00028a90       ?AfxGetMainWnd@@YGPAVCWnd@@XZ 00429a90 f   uafxcwd:afxinl2.obj
 0001:00028ad0       ?AfxGetAmbientActCtx@@YGHXZ 00429ad0 f   uafxcwd:afxinl2.obj
 0001:00028ae0       ?AfxSetAmbientActCtx@@YGXH@Z 00429ae0 f   uafxcwd:afxinl2.obj
 0001:00028b00       ??1AFX_MAINTAIN_STATE2@@QAE@XZ 00429b00 f   uafxcwd:afxinl2.obj
 0001:00028b40       ??6@YGAAVCArchive@@AAV0@UtagSIZE@@@Z 00429b40 f   uafxcwd:afxinl2.obj
 0001:00028b60       ??6@YGAAVCArchive@@AAV0@UtagPOINT@@@Z 00429b60 f   uafxcwd:afxinl2.obj
 0001:00028b80       ??6@YGAAVCArchive@@AAV0@ABUtagRECT@@@Z 00429b80 f   uafxcwd:afxinl2.obj
 0001:00028ba0       ??5@YGAAVCArchive@@AAV0@AAUtagSIZE@@@Z 00429ba0 f   uafxcwd:afxinl2.obj
 0001:00028bc0       ??5@YGAAVCArchive@@AAV0@AAUtagPOINT@@@Z 00429bc0 f   uafxcwd:afxinl2.obj
 0001:00028be0       ??5@YGAAVCArchive@@AAV0@AAUtagRECT@@@Z 00429be0 f   uafxcwd:afxinl2.obj
 0001:00028c00       ??0CResourceException@@QAE@XZ 00429c00 f   uafxcwd:afxinl2.obj
 0001:00028c30       ??_ECResourceException@@UAEPAXI@Z 00429c30 f i uafxcwd:afxinl2.obj
 0001:00028c30       ??_GCResourceException@@UAEPAXI@Z 00429c30 f i uafxcwd:afxinl2.obj
 0001:00028c60       ??0CResourceException@@QAE@HI@Z 00429c60 f   uafxcwd:afxinl2.obj
 0001:00028ca0       ??1CResourceException@@UAE@XZ 00429ca0 f   uafxcwd:afxinl2.obj
 0001:00028cc0       ??0CUserException@@QAE@XZ  00429cc0 f   uafxcwd:afxinl2.obj
 0001:00028cf0       ??_ECUserException@@UAEPAXI@Z 00429cf0 f i uafxcwd:afxinl2.obj
 0001:00028cf0       ??_GCUserException@@UAEPAXI@Z 00429cf0 f i uafxcwd:afxinl2.obj
 0001:00028d20       ??0CUserException@@QAE@HI@Z 00429d20 f   uafxcwd:afxinl2.obj
 0001:00028d60       ??1CUserException@@UAE@XZ  00429d60 f   uafxcwd:afxinl2.obj
 0001:00028d80       ??BCGdiObject@@QBEPAXXZ    00429d80 f   uafxcwd:afxinl2.obj
 0001:00028db0       ?GetSafeHandle@CGdiObject@@QBEPAXXZ 00429db0 f   uafxcwd:afxinl2.obj
 0001:00028de0       ??0CGdiObject@@QAE@XZ      00429de0 f   uafxcwd:afxinl2.obj
 0001:00028e10       ??_GCGdiObject@@UAEPAXI@Z  00429e10 f i uafxcwd:afxinl2.obj
 0001:00028e10       ??_ECGdiObject@@UAEPAXI@Z  00429e10 f i uafxcwd:afxinl2.obj
 0001:00028e40       ??1CGdiObject@@UAE@XZ      00429e40 f   uafxcwd:afxinl2.obj
 0001:00028ff0       ?GetObjectW@CGdiObject@@QBEHHPAX@Z 00429ff0 f   uafxcwd:afxinl2.obj
 0001:00029030       ?GetObject@CGdiObject@@QBEHHPAX@Z 0042a030 f   uafxcwd:afxinl2.obj
 0001:00029050       ?CreateStockObject@CGdiObject@@QAEHH@Z 0042a050 f   uafxcwd:afxinl2.obj
 0001:00029080       ?UnrealizeObject@CGdiObject@@QAEHXZ 0042a080 f   uafxcwd:afxinl2.obj
 0001:000290c0       ?GetObjectType@CGdiObject@@QBEIXZ 0042a0c0 f   uafxcwd:afxinl2.obj
 0001:000290e0       ??8CGdiObject@@QBEHABV0@@Z 0042a0e0 f   uafxcwd:afxinl2.obj
 0001:00029110       ??9CGdiObject@@QBEHABV0@@Z 0042a110 f   uafxcwd:afxinl2.obj
 0001:00029140       ??BCPen@@QBEPAUHPEN__@@XZ  0042a140 f   uafxcwd:afxinl2.obj
 0001:00029170       ?FromHandle@CPen@@SGPAV1@PAUHPEN__@@@Z 0042a170 f   uafxcwd:afxinl2.obj
 0001:00029190       ??0CPen@@QAE@XZ            0042a190 f   uafxcwd:afxinl2.obj
 0001:000291c0       ??_GCPen@@UAEPAXI@Z        0042a1c0 f i uafxcwd:afxinl2.obj
 0001:000291c0       ??_ECPen@@UAEPAXI@Z        0042a1c0 f i uafxcwd:afxinl2.obj
 0001:000291f0       ??1CPen@@UAE@XZ            0042a1f0 f   uafxcwd:afxinl2.obj
 0001:00029210       ?CreatePen@CPen@@QAEHHHK@Z 0042a210 f   uafxcwd:afxinl2.obj
 0001:00029240       ?CreatePenIndirect@CPen@@QAEHPAUtagLOGPEN@@@Z 0042a240 f   uafxcwd:afxinl2.obj
 0001:00029270       ?CreatePen@CPen@@QAEHHHPBUtagLOGBRUSH@@HPBK@Z 0042a270 f   uafxcwd:afxinl2.obj
 0001:000292b0       ?GetExtLogPen@CPen@@QAEHPAUtagEXTLOGPEN@@@Z 0042a2b0 f   uafxcwd:afxinl2.obj
 0001:000292f0       ?GetLogPen@CPen@@QAEHPAUtagLOGPEN@@@Z 0042a2f0 f   uafxcwd:afxinl2.obj
 0001:00029330       ??BCBrush@@QBEPAUHBRUSH__@@XZ 0042a330 f   uafxcwd:afxinl2.obj
 0001:00029360       ?FromHandle@CBrush@@SGPAV1@PAUHBRUSH__@@@Z 0042a360 f   uafxcwd:afxinl2.obj
 0001:00029380       ??0CBrush@@QAE@XZ          0042a380 f   uafxcwd:afxinl2.obj
 0001:000293b0       ??_GCBrush@@UAEPAXI@Z      0042a3b0 f i uafxcwd:afxinl2.obj
 0001:000293b0       ??_ECBrush@@UAEPAXI@Z      0042a3b0 f i uafxcwd:afxinl2.obj
 0001:000293e0       ??1CBrush@@UAE@XZ          0042a3e0 f   uafxcwd:afxinl2.obj
 0001:00029400       ?CreateSolidBrush@CBrush@@QAEHK@Z 0042a400 f   uafxcwd:afxinl2.obj
 0001:00029430       ?CreateHatchBrush@CBrush@@QAEHHK@Z 0042a430 f   uafxcwd:afxinl2.obj
 0001:00029460       ?CreateBrushIndirect@CBrush@@QAEHPBUtagLOGBRUSH@@@Z 0042a460 f   uafxcwd:afxinl2.obj
 0001:00029490       ?CreatePatternBrush@CBrush@@QAEHPAVCBitmap@@@Z 0042a490 f   uafxcwd:afxinl2.obj
 0001:000294c0       ?CreateDIBPatternBrush@CBrush@@QAEHPBXI@Z 0042a4c0 f   uafxcwd:afxinl2.obj
 0001:000294f0       ?CreateSysColorBrush@CBrush@@QAEHH@Z 0042a4f0 f   uafxcwd:afxinl2.obj
 0001:00029520       ?GetLogBrush@CBrush@@QAEHPAUtagLOGBRUSH@@@Z 0042a520 f   uafxcwd:afxinl2.obj
 0001:00029560       ??BCFont@@QBEPAUHFONT__@@XZ 0042a560 f   uafxcwd:afxinl2.obj
 0001:00029590       ?FromHandle@CFont@@SGPAV1@PAUHFONT__@@@Z 0042a590 f   uafxcwd:afxinl2.obj
 0001:000295b0       ??0CFont@@QAE@XZ           0042a5b0 f   uafxcwd:afxinl2.obj
 0001:000295e0       ??_GCFont@@UAEPAXI@Z       0042a5e0 f i uafxcwd:afxinl2.obj
 0001:000295e0       ??_ECFont@@UAEPAXI@Z       0042a5e0 f i uafxcwd:afxinl2.obj
 0001:00029610       ??1CFont@@UAE@XZ           0042a610 f   uafxcwd:afxinl2.obj
 0001:00029630       ?CreateFontIndirectW@CFont@@QAEHPBUtagLOGFONTW@@@Z 0042a630 f   uafxcwd:afxinl2.obj
 0001:00029660       ?CreateFontW@CFont@@QAEHHHHHHEEEEEEEEPB_W@Z 0042a660 f   uafxcwd:afxinl2.obj
 0001:000296c0       ?GetLogFont@CFont@@QAEHPAUtagLOGFONTW@@@Z 0042a6c0 f   uafxcwd:afxinl2.obj
 0001:00029700       ??BCBitmap@@QBEPAUHBITMAP__@@XZ 0042a700 f   uafxcwd:afxinl2.obj
 0001:00029730       ?FromHandle@CBitmap@@SGPAV1@PAUHBITMAP__@@@Z 0042a730 f   uafxcwd:afxinl2.obj
 0001:00029750       ??0CBitmap@@QAE@XZ         0042a750 f   uafxcwd:afxinl2.obj
 0001:00029780       ??_GCBitmap@@UAEPAXI@Z     0042a780 f i uafxcwd:afxinl2.obj
 0001:00029780       ??_ECBitmap@@UAEPAXI@Z     0042a780 f i uafxcwd:afxinl2.obj
 0001:000297b0       ??1CBitmap@@UAE@XZ         0042a7b0 f   uafxcwd:afxinl2.obj
 0001:000297d0       ?CreateBitmap@CBitmap@@QAEHHHIIPBX@Z 0042a7d0 f   uafxcwd:afxinl2.obj
 0001:00029810       ?CreateBitmapIndirect@CBitmap@@QAEHPAUtagBITMAP@@@Z 0042a810 f   uafxcwd:afxinl2.obj
 0001:00029840       ?SetBitmapBits@CBitmap@@QAEKKPBX@Z 0042a840 f   uafxcwd:afxinl2.obj
 0001:00029870       ?GetBitmapBits@CBitmap@@QBEKKPAX@Z 0042a870 f   uafxcwd:afxinl2.obj
 0001:000298a0       ?LoadBitmapW@CBitmap@@QAEHPB_W@Z 0042a8a0 f   uafxcwd:afxinl2.obj
 0001:000298d0       ?LoadMappedBitmap@CBitmap@@QAEHIIPAU_COLORMAP@@H@Z 0042a8d0 f   uafxcwd:afxinl2.obj
 0001:00029910       ?SetBitmapDimension@CBitmap@@QAE?AVCSize@@HH@Z 0042a910 f   uafxcwd:afxinl2.obj
 0001:00029970       ?GetBitmapDimension@CBitmap@@QBE?AVCSize@@XZ 0042a970 f   uafxcwd:afxinl2.obj
 0001:000299c0       ?LoadBitmapW@CBitmap@@QAEHI@Z 0042a9c0 f   uafxcwd:afxinl2.obj
 0001:000299f0       ?LoadOEMBitmap@CBitmap@@QAEHI@Z 0042a9f0 f   uafxcwd:afxinl2.obj
 0001:00029a20       ?CreateCompatibleBitmap@CBitmap@@QAEHPAVCDC@@HH@Z 0042aa20 f   uafxcwd:afxinl2.obj
 0001:00029a50       ?CreateDiscardableBitmap@CBitmap@@QAEHPAVCDC@@HH@Z 0042aa50 f   uafxcwd:afxinl2.obj
 0001:00029a80       ?GetBitmap@CBitmap@@QAEHPAUtagBITMAP@@@Z 0042aa80 f   uafxcwd:afxinl2.obj
 0001:00029ac0       ??BCPalette@@QBEPAUHPALETTE__@@XZ 0042aac0 f   uafxcwd:afxinl2.obj
 0001:00029af0       ?FromHandle@CPalette@@SGPAV1@PAUHPALETTE__@@@Z 0042aaf0 f   uafxcwd:afxinl2.obj
 0001:00029b10       ??0CPalette@@QAE@XZ        0042ab10 f   uafxcwd:afxinl2.obj
 0001:00029b40       ??_ECPalette@@UAEPAXI@Z    0042ab40 f i uafxcwd:afxinl2.obj
 0001:00029b40       ??_GCPalette@@UAEPAXI@Z    0042ab40 f i uafxcwd:afxinl2.obj
 0001:00029b70       ??1CPalette@@UAE@XZ        0042ab70 f   uafxcwd:afxinl2.obj
 0001:00029b90       ?CreatePalette@CPalette@@QAEHPAUtagLOGPALETTE@@@Z 0042ab90 f   uafxcwd:afxinl2.obj
 0001:00029bc0       ?CreateHalftonePalette@CPalette@@QAEHPAVCDC@@@Z 0042abc0 f   uafxcwd:afxinl2.obj
 0001:00029c10       ?GetPaletteEntries@CPalette@@QBEIIIPAUtagPALETTEENTRY@@@Z 0042ac10 f   uafxcwd:afxinl2.obj
 0001:00029c60       ?SetPaletteEntries@CPalette@@QAEIIIPAUtagPALETTEENTRY@@@Z 0042ac60 f   uafxcwd:afxinl2.obj
 0001:00029cb0       ?AnimatePalette@CPalette@@QAEXIIPAUtagPALETTEENTRY@@@Z 0042acb0 f   uafxcwd:afxinl2.obj
 0001:00029d00       ?GetNearestPaletteIndex@CPalette@@QBEIK@Z 0042ad00 f   uafxcwd:afxinl2.obj
 0001:00029d40       ?ResizePalette@CPalette@@QAEHI@Z 0042ad40 f   uafxcwd:afxinl2.obj
 0001:00029d80       ?GetEntryCount@CPalette@@QAEHXZ 0042ad80 f   uafxcwd:afxinl2.obj
 0001:00029dd0       ??BCRgn@@QBEPAUHRGN__@@XZ  0042add0 f   uafxcwd:afxinl2.obj
 0001:00029e00       ?FromHandle@CRgn@@SGPAV1@PAUHRGN__@@@Z 0042ae00 f   uafxcwd:afxinl2.obj
 0001:00029e20       ??0CRgn@@QAE@XZ            0042ae20 f   uafxcwd:afxinl2.obj
 0001:00029e50       ??_GCRgn@@UAEPAXI@Z        0042ae50 f i uafxcwd:afxinl2.obj
 0001:00029e50       ??_ECRgn@@UAEPAXI@Z        0042ae50 f i uafxcwd:afxinl2.obj
 0001:00029e80       ??1CRgn@@UAE@XZ            0042ae80 f   uafxcwd:afxinl2.obj
 0001:00029ea0       ?CreateRectRgn@CRgn@@QAEHHHHH@Z 0042aea0 f   uafxcwd:afxinl2.obj
 0001:00029ed0       ?CreateRectRgnIndirect@CRgn@@QAEHPBUtagRECT@@@Z 0042aed0 f   uafxcwd:afxinl2.obj
 0001:00029f00       ?CreateEllipticRgn@CRgn@@QAEHHHHH@Z 0042af00 f   uafxcwd:afxinl2.obj
 0001:00029f30       ?CreateEllipticRgnIndirect@CRgn@@QAEHPBUtagRECT@@@Z 0042af30 f   uafxcwd:afxinl2.obj
 0001:00029f60       ?CreatePolygonRgn@CRgn@@QAEHPAUtagPOINT@@HH@Z 0042af60 f   uafxcwd:afxinl2.obj
 0001:00029f90       ?CreatePolyPolygonRgn@CRgn@@QAEHPAUtagPOINT@@PAHHH@Z 0042af90 f   uafxcwd:afxinl2.obj
 0001:00029fc0       ?CreateRoundRectRgn@CRgn@@QAEHHHHHHH@Z 0042afc0 f   uafxcwd:afxinl2.obj
 0001:0002a000       ?CreateFromPath@CRgn@@QAEHPAVCDC@@@Z 0042b000 f   uafxcwd:afxinl2.obj
 0001:0002a040       ?CreateFromData@CRgn@@QAEHPBUtagXFORM@@HPBU_RGNDATA@@@Z 0042b040 f   uafxcwd:afxinl2.obj
 0001:0002a070       ?GetRegionData@CRgn@@QBEHPAU_RGNDATA@@H@Z 0042b070 f   uafxcwd:afxinl2.obj
 0001:0002a0c0       ?SetRectRgn@CRgn@@QAEXHHHH@Z 0042b0c0 f   uafxcwd:afxinl2.obj
 0001:0002a110       ?SetRectRgn@CRgn@@QAEXPBUtagRECT@@@Z 0042b110 f   uafxcwd:afxinl2.obj
 0001:0002a170       ?CombineRgn@CRgn@@QAEHPBV1@0H@Z 0042b170 f   uafxcwd:afxinl2.obj
 0001:0002a1c0       ?CopyRgn@CRgn@@QAEHPBV1@@Z 0042b1c0 f   uafxcwd:afxinl2.obj
 0001:0002a210       ?EqualRgn@CRgn@@QBEHPBV1@@Z 0042b210 f   uafxcwd:afxinl2.obj
 0001:0002a260       ?OffsetRgn@CRgn@@QAEHHH@Z  0042b260 f   uafxcwd:afxinl2.obj
 0001:0002a2b0       ?OffsetRgn@CRgn@@QAEHUtagPOINT@@@Z 0042b2b0 f   uafxcwd:afxinl2.obj
 0001:0002a300       ?GetRgnBox@CRgn@@QBEHPAUtagRECT@@@Z 0042b300 f   uafxcwd:afxinl2.obj
 0001:0002a340       ?PtInRegion@CRgn@@QBEHHH@Z 0042b340 f   uafxcwd:afxinl2.obj
 0001:0002a390       ?PtInRegion@CRgn@@QBEHUtagPOINT@@@Z 0042b390 f   uafxcwd:afxinl2.obj
 0001:0002a3e0       ?RectInRegion@CRgn@@QBEHPBUtagRECT@@@Z 0042b3e0 f   uafxcwd:afxinl2.obj
 0001:0002a420       ??BCDC@@QBEPAUHDC__@@XZ    0042b420 f   uafxcwd:afxinl2.obj
 0001:0002a450       ?GetSafeHdc@CDC@@QBEPAUHDC__@@XZ 0042b450 f   uafxcwd:afxinl2.obj
 0001:0002a480       ?GetWindow@CDC@@QBEPAVCWnd@@XZ 0042b480 f   uafxcwd:afxinl2.obj
 0001:0002a4c0       ?IsPrinting@CDC@@QBEHXZ    0042b4c0 f   uafxcwd:afxinl2.obj
 0001:0002a4e0       ?CreateDCW@CDC@@QAEHPB_W00PBX@Z 0042b4e0 f   uafxcwd:afxinl2.obj
 0001:0002a510       ?CreateICW@CDC@@QAEHPB_W00PBX@Z 0042b510 f   uafxcwd:afxinl2.obj
 0001:0002a540       ?CreateCompatibleDC@CDC@@QAEHPAV1@@Z 0042b540 f   uafxcwd:afxinl2.obj
 0001:0002a570       ?ExcludeUpdateRgn@CDC@@QAEHPAVCWnd@@@Z 0042b570 f   uafxcwd:afxinl2.obj
 0001:0002a5b0       ?GetDeviceCaps@CDC@@QBEHH@Z 0042b5b0 f   uafxcwd:afxinl2.obj
 0001:0002a5f0       ?GetBrushOrg@CDC@@QBE?AVCPoint@@XZ 0042b5f0 f   uafxcwd:afxinl2.obj
 0001:0002a660       ?SetBrushOrg@CDC@@QAE?AVCPoint@@HH@Z 0042b660 f   uafxcwd:afxinl2.obj
 0001:0002a6e0       ?SetBrushOrg@CDC@@QAE?AVCPoint@@UtagPOINT@@@Z 0042b6e0 f   uafxcwd:afxinl2.obj
 0001:0002a750       ?EnumObjects@CDC@@QAEHHP6GHPAXJ@ZJ@Z 0042b750 f   uafxcwd:afxinl2.obj
 0001:0002a7a0       ?SelectObject@CDC@@QAEPAVCBitmap@@PAV2@@Z 0042b7a0 f   uafxcwd:afxinl2.obj
 0001:0002a7f0       ?SelectObject@CDC@@QAEPAVCGdiObject@@PAV2@@Z 0042b7f0 f   uafxcwd:afxinl2.obj
 0001:0002a840       ?SelectObject@CDC@@QAEPAXPAX@Z 0042b840 f   uafxcwd:afxinl2.obj
 0001:0002a8a0       ?GetNearestColor@CDC@@QBEKK@Z 0042b8a0 f   uafxcwd:afxinl2.obj
 0001:0002a8e0       ?RealizePalette@CDC@@QAEIXZ 0042b8e0 f   uafxcwd:afxinl2.obj
 0001:0002a920       ?UpdateColors@CDC@@QAEXXZ  0042b920 f   uafxcwd:afxinl2.obj
 0001:0002a960       ?GetBkColor@CDC@@QBEKXZ    0042b960 f   uafxcwd:afxinl2.obj
 0001:0002a9a0       ?GetBkMode@CDC@@QBEHXZ     0042b9a0 f   uafxcwd:afxinl2.obj
 0001:0002a9e0       ?GetPolyFillMode@CDC@@QBEHXZ 0042b9e0 f   uafxcwd:afxinl2.obj
 0001:0002aa20       ?GetROP2@CDC@@QBEHXZ       0042ba20 f   uafxcwd:afxinl2.obj
 0001:0002aa60       ?GetStretchBltMode@CDC@@QBEHXZ 0042ba60 f   uafxcwd:afxinl2.obj
 0001:0002aaa0       ?GetTextColor@CDC@@QBEKXZ  0042baa0 f   uafxcwd:afxinl2.obj
 0001:0002aae0       ?GetMapMode@CDC@@QBEHXZ    0042bae0 f   uafxcwd:afxinl2.obj
 0001:0002ab20       ?GetGraphicsMode@CDC@@QBEHXZ 0042bb20 f   uafxcwd:afxinl2.obj
 0001:0002ab60       ?GetWorldTransform@CDC@@QBEHPAUtagXFORM@@@Z 0042bb60 f   uafxcwd:afxinl2.obj
 0001:0002aba0       ?GetViewportOrg@CDC@@QBE?AVCPoint@@XZ 0042bba0 f   uafxcwd:afxinl2.obj
 0001:0002ac10       ?GetViewportExt@CDC@@QBE?AVCSize@@XZ 0042bc10 f   uafxcwd:afxinl2.obj
 0001:0002ac80       ?GetWindowOrg@CDC@@QBE?AVCPoint@@XZ 0042bc80 f   uafxcwd:afxinl2.obj
 0001:0002acf0       ?GetWindowExt@CDC@@QBE?AVCSize@@XZ 0042bcf0 f   uafxcwd:afxinl2.obj
 0001:0002ad60       ?SetViewportOrg@CDC@@QAE?AVCPoint@@UtagPOINT@@@Z 0042bd60 f   uafxcwd:afxinl2.obj
 0001:0002adb0       ?SetViewportExt@CDC@@QAE?AVCSize@@UtagSIZE@@@Z 0042bdb0 f   uafxcwd:afxinl2.obj
 0001:0002ae00       ?SetWindowOrg@CDC@@QAE?AVCPoint@@UtagPOINT@@@Z 0042be00 f   uafxcwd:afxinl2.obj
 0001:0002ae50       ?SetWindowExt@CDC@@QAE?AVCSize@@UtagSIZE@@@Z 0042be50 f   uafxcwd:afxinl2.obj
 0001:0002aea0       ?DPtoLP@CDC@@QBEXPAUtagPOINT@@H@Z 0042bea0 f   uafxcwd:afxinl2.obj
 0001:0002af00       ?DPtoLP@CDC@@QBEXPAUtagRECT@@@Z 0042bf00 f   uafxcwd:afxinl2.obj
 0001:0002af60       ?LPtoDP@CDC@@QBEXPAUtagPOINT@@H@Z 0042bf60 f   uafxcwd:afxinl2.obj
 0001:0002afc0       ?LPtoDP@CDC@@QBEXPAUtagRECT@@@Z 0042bfc0 f   uafxcwd:afxinl2.obj
 0001:0002b020       ?FillRgn@CDC@@QAEHPAVCRgn@@PAVCBrush@@@Z 0042c020 f   uafxcwd:afxinl2.obj
 0001:0002b070       ?FrameRgn@CDC@@QAEHPAVCRgn@@PAVCBrush@@HH@Z 0042c070 f   uafxcwd:afxinl2.obj
 0001:0002b0d0       ?InvertRgn@CDC@@QAEHPAVCRgn@@@Z 0042c0d0 f   uafxcwd:afxinl2.obj
 0001:0002b120       ?PaintRgn@CDC@@QAEHPAVCRgn@@@Z 0042c120 f   uafxcwd:afxinl2.obj
 0001:0002b170       ?PtVisible@CDC@@UBEHHH@Z   0042c170 f   uafxcwd:afxinl2.obj
 0001:0002b1c0       ?PtVisible@CDC@@QBEHUtagPOINT@@@Z 0042c1c0 f   uafxcwd:afxinl2.obj
 0001:0002b210       ?RectVisible@CDC@@UBEHPBUtagRECT@@@Z 0042c210 f   uafxcwd:afxinl2.obj
 0001:0002b250       ?GetCurrentPosition@CDC@@QBE?AVCPoint@@XZ 0042c250 f   uafxcwd:afxinl2.obj
 0001:0002b2c0       ?MoveTo@CDC@@QAE?AVCPoint@@UtagPOINT@@@Z 0042c2c0 f   uafxcwd:afxinl2.obj
 0001:0002b310       ?LineTo@CDC@@QAEHUtagPOINT@@@Z 0042c310 f   uafxcwd:afxinl2.obj
 0001:0002b350       ?Arc@CDC@@QAEHHHHHHHHH@Z   0042c350 f   uafxcwd:afxinl2.obj
 0001:0002b3b0       ?Arc@CDC@@QAEHPBUtagRECT@@UtagPOINT@@1@Z 0042c3b0 f   uafxcwd:afxinl2.obj
 0001:0002b420       ?Polyline@CDC@@QAEHPBUtagPOINT@@H@Z 0042c420 f   uafxcwd:afxinl2.obj
 0001:0002b470       ?FillRect@CDC@@QAEXPBUtagRECT@@PAVCBrush@@@Z 0042c470 f   uafxcwd:afxinl2.obj
 0001:0002b4c0       ?FrameRect@CDC@@QAEXPBUtagRECT@@PAVCBrush@@@Z 0042c4c0 f   uafxcwd:afxinl2.obj
 0001:0002b510       ?InvertRect@CDC@@QAEXPBUtagRECT@@@Z 0042c510 f   uafxcwd:afxinl2.obj
 0001:0002b550       ?DrawIcon@CDC@@QAEHHHPAUHICON__@@@Z 0042c550 f   uafxcwd:afxinl2.obj
 0001:0002b5a0       ?DrawIcon@CDC@@QAEHUtagPOINT@@PAUHICON__@@@Z 0042c5a0 f   uafxcwd:afxinl2.obj
 0001:0002b5f0       ?DrawState@CDC@@QAEHVCPoint@@VCSize@@PAUHBITMAP__@@IPAUHBRUSH__@@@Z 0042c5f0 f   uafxcwd:afxinl2.obj
 0001:0002b650       ?DrawState@@YGHPAUHDC__@@PAUHBRUSH__@@P6GH0JIHH@ZJIHHHHI@Z 0042c650 f i uafxcwd:afxinl2.obj
 0001:0002b690       ?DrawState@CDC@@QAEHVCPoint@@VCSize@@PAVCBitmap@@IPAVCBrush@@@Z 0042c690 f   uafxcwd:afxinl2.obj
 0001:0002b700       ?DrawState@CDC@@QAEHVCPoint@@VCSize@@PAUHICON__@@IPAUHBRUSH__@@@Z 0042c700 f   uafxcwd:afxinl2.obj
 0001:0002b760       ?DrawState@CDC@@QAEHVCPoint@@VCSize@@PAUHICON__@@IPAVCBrush@@@Z 0042c760 f   uafxcwd:afxinl2.obj
 0001:0002b7c0       ?DrawState@CDC@@QAEHVCPoint@@VCSize@@PB_WIHHPAUHBRUSH__@@@Z 0042c7c0 f   uafxcwd:afxinl2.obj
 0001:0002b830       ?DrawState@CDC@@QAEHVCPoint@@VCSize@@PB_WIHHPAVCBrush@@@Z 0042c830 f   uafxcwd:afxinl2.obj
 0001:0002b8a0       ?DrawState@CDC@@QAEHVCPoint@@VCSize@@P6GHPAUHDC__@@JIHH@ZJIPAUHBRUSH__@@@Z 0042c8a0 f   uafxcwd:afxinl2.obj
 0001:0002b900       ?DrawState@CDC@@QAEHVCPoint@@VCSize@@P6GHPAUHDC__@@JIHH@ZJIPAVCBrush@@@Z 0042c900 f   uafxcwd:afxinl2.obj
 0001:0002b960       ?DrawEdge@CDC@@QAEHPAUtagRECT@@II@Z 0042c960 f   uafxcwd:afxinl2.obj
 0001:0002b9b0       ?DrawFrameControl@CDC@@QAEHPAUtagRECT@@II@Z 0042c9b0 f   uafxcwd:afxinl2.obj
 0001:0002ba00       ?Chord@CDC@@QAEHHHHHHHHH@Z 0042ca00 f   uafxcwd:afxinl2.obj
 0001:0002ba60       ?Chord@CDC@@QAEHPBUtagRECT@@UtagPOINT@@1@Z 0042ca60 f   uafxcwd:afxinl2.obj
 0001:0002bad0       ?DrawFocusRect@CDC@@QAEXPBUtagRECT@@@Z 0042cad0 f   uafxcwd:afxinl2.obj
 0001:0002bb10       ?Ellipse@CDC@@QAEHHHHH@Z   0042cb10 f   uafxcwd:afxinl2.obj
 0001:0002bb60       ?Ellipse@CDC@@QAEHPBUtagRECT@@@Z 0042cb60 f   uafxcwd:afxinl2.obj
 0001:0002bbc0       ?Pie@CDC@@QAEHHHHHHHHH@Z   0042cbc0 f   uafxcwd:afxinl2.obj
 0001:0002bc20       ?Pie@CDC@@QAEHPBUtagRECT@@UtagPOINT@@1@Z 0042cc20 f   uafxcwd:afxinl2.obj
 0001:0002bc90       ?Polygon@CDC@@QAEHPBUtagPOINT@@H@Z 0042cc90 f   uafxcwd:afxinl2.obj
 0001:0002bce0       ?PolyPolygon@CDC@@QAEHPBUtagPOINT@@PBHH@Z 0042cce0 f   uafxcwd:afxinl2.obj
 0001:0002bd30       ?Rectangle@CDC@@QAEHHHHH@Z 0042cd30 f   uafxcwd:afxinl2.obj
 0001:0002bd80       ?Rectangle@CDC@@QAEHPBUtagRECT@@@Z 0042cd80 f   uafxcwd:afxinl2.obj
 0001:0002bde0       ?RoundRect@CDC@@QAEHHHHHHH@Z 0042cde0 f   uafxcwd:afxinl2.obj
 0001:0002be40       ?RoundRect@CDC@@QAEHPBUtagRECT@@UtagPOINT@@@Z 0042ce40 f   uafxcwd:afxinl2.obj
 0001:0002bea0       ?PatBlt@CDC@@QAEHHHHHK@Z   0042cea0 f   uafxcwd:afxinl2.obj
 0001:0002bef0       ?BitBlt@CDC@@QAEHHHHHPAV1@HHK@Z 0042cef0 f   uafxcwd:afxinl2.obj
 0001:0002bf50       ?StretchBlt@CDC@@QAEHHHHHPAV1@HHHHK@Z 0042cf50 f   uafxcwd:afxinl2.obj
 0001:0002bfc0       ?GetPixel@CDC@@QBEKHH@Z    0042cfc0 f   uafxcwd:afxinl2.obj
 0001:0002c010       ?GetPixel@CDC@@QBEKUtagPOINT@@@Z 0042d010 f   uafxcwd:afxinl2.obj
 0001:0002c060       ?SetPixel@CDC@@QAEKHHK@Z   0042d060 f   uafxcwd:afxinl2.obj
 0001:0002c0b0       ?SetPixel@CDC@@QAEKUtagPOINT@@K@Z 0042d0b0 f   uafxcwd:afxinl2.obj
 0001:0002c100       ?FloodFill@CDC@@QAEHHHK@Z  0042d100 f   uafxcwd:afxinl2.obj
 0001:0002c150       ?ExtFloodFill@CDC@@QAEHHHKI@Z 0042d150 f   uafxcwd:afxinl2.obj
 0001:0002c1a0       ?TextOutW@CDC@@UAEHHHPB_WH@Z 0042d1a0 f   uafxcwd:afxinl2.obj
 0001:0002c1f0       ?TextOutW@CDC@@QAEHHHABV?$CStringT@_WV?$StrTraitMFC@_WV?$ChTraitsCRT@_W@ATL@@@@@ATL@@@Z 0042d1f0 f   uafxcwd:afxinl2.obj
 0001:0002c250       ?ExtTextOutW@CDC@@UAEHHHIPBUtagRECT@@PB_WIPAH@Z 0042d250 f   uafxcwd:afxinl2.obj
 0001:0002c2b0       ?ExtTextOutW@CDC@@QAEHHHIPBUtagRECT@@ABV?$CStringT@_WV?$StrTraitMFC@_WV?$ChTraitsCRT@_W@ATL@@@@@ATL@@PAH@Z 0042d2b0 f   uafxcwd:afxinl2.obj
 0001:0002c310       ?TabbedTextOutW@CDC@@UAE?AVCSize@@HHPB_WHHPAHH@Z 0042d310 f   uafxcwd:afxinl2.obj
 0001:0002c380       ?TabbedTextOutW@CDC@@QAE?AVCSize@@HHABV?$CStringT@_WV?$StrTraitMFC@_WV?$ChTraitsCRT@_W@ATL@@@@@ATL@@HPAHH@Z 0042d380 f   uafxcwd:afxinl2.obj
 0001:0002c3f0       ?DrawTextW@CDC@@UAEHPB_WHPAUtagRECT@@I@Z 0042d3f0 f   uafxcwd:afxinl2.obj
 0001:0002c440       ?DrawTextW@CDC@@QAEHABV?$CStringT@_WV?$StrTraitMFC@_WV?$ChTraitsCRT@_W@ATL@@@@@ATL@@PAUtagRECT@@I@Z 0042d440 f   uafxcwd:afxinl2.obj
 0001:0002c4e0       ?DrawTextExW@CDC@@UAEHPA_WHPAUtagRECT@@IPAUtagDRAWTEXTPARAMS@@@Z 0042d4e0 f   uafxcwd:afxinl2.obj
 0001:0002c530       ?DrawTextExW@CDC@@QAEHABV?$CStringT@_WV?$StrTraitMFC@_WV?$ChTraitsCRT@_W@ATL@@@@@ATL@@PAUtagRECT@@IPAUtagDRAWTEXTPARAMS@@@Z 0042d530 f   uafxcwd:afxinl2.obj
 0001:0002c5e0       ?DrawText@CDC@@QAEHPB_WHPAUtagRECT@@I@Z 0042d5e0 f   uafxcwd:afxinl2.obj
 0001:0002c610       ?DrawText@CDC@@QAEHABV?$CStringT@_WV?$StrTraitMFC@_WV?$ChTraitsCRT@_W@ATL@@@@@ATL@@PAUtagRECT@@I@Z 0042d610 f   uafxcwd:afxinl2.obj
 0001:0002c640       ?DrawTextEx@CDC@@QAEHPA_WHPAUtagRECT@@IPAUtagDRAWTEXTPARAMS@@@Z 0042d640 f   uafxcwd:afxinl2.obj
 0001:0002c670       ?DrawTextEx@CDC@@QAEHABV?$CStringT@_WV?$StrTraitMFC@_WV?$ChTraitsCRT@_W@ATL@@@@@ATL@@PAUtagRECT@@IPAUtagDRAWTEXTPARAMS@@@Z 0042d670 f   uafxcwd:afxinl2.obj
 0001:0002c6a0       ?GetTextExtent@CDC@@QBE?AVCSize@@PB_WH@Z 0042d6a0 f   uafxcwd:afxinl2.obj
 0001:0002c720       ?GetTextExtent@CDC@@QBE?AVCSize@@ABV?$CStringT@_WV?$StrTraitMFC@_WV?$ChTraitsCRT@_W@ATL@@@@@ATL@@@Z 0042d720 f   uafxcwd:afxinl2.obj
 0001:0002c7a0       ?GetOutputTextExtent@CDC@@QBE?AVCSize@@PB_WH@Z 0042d7a0 f   uafxcwd:afxinl2.obj
 0001:0002c820       ?GetOutputTextExtent@CDC@@QBE?AVCSize@@ABV?$CStringT@_WV?$StrTraitMFC@_WV?$ChTraitsCRT@_W@ATL@@@@@ATL@@@Z 0042d820 f   uafxcwd:afxinl2.obj
 0001:0002c8a0       ?GetTabbedTextExtentW@CDC@@QBE?AVCSize@@PB_WHHPAH@Z 0042d8a0 f   uafxcwd:afxinl2.obj
 0001:0002c900       ?GetTabbedTextExtentW@CDC@@QBE?AVCSize@@ABV?$CStringT@_WV?$StrTraitMFC@_WV?$ChTraitsCRT@_W@ATL@@@@@ATL@@HPAH@Z 0042d900 f   uafxcwd:afxinl2.obj
 0001:0002c960       ?GetOutputTabbedTextExtent@CDC@@QBE?AVCSize@@PB_WHHPAH@Z 0042d960 f   uafxcwd:afxinl2.obj
 0001:0002c9c0       ?GetOutputTabbedTextExtent@CDC@@QBE?AVCSize@@ABV?$CStringT@_WV?$StrTraitMFC@_WV?$ChTraitsCRT@_W@ATL@@@@@ATL@@HPAH@Z 0042d9c0 f   uafxcwd:afxinl2.obj
 0001:0002ca20       ?GrayStringW@CDC@@UAEHPAVCBrush@@P6GHPAUHDC__@@JH@ZJHHHHH@Z 0042da20 f   uafxcwd:afxinl2.obj
 0001:0002ca80       ?GetTextAlign@CDC@@QBEIXZ  0042da80 f   uafxcwd:afxinl2.obj
 0001:0002cac0       ?GetTextFaceW@CDC@@QBEHHPA_W@Z 0042dac0 f   uafxcwd:afxinl2.obj
 0001:0002cb10       ?GetTextFaceW@CDC@@QBEHAAV?$CStringT@_WV?$StrTraitMFC@_WV?$ChTraitsCRT@_W@ATL@@@@@ATL@@@Z 0042db10 f   uafxcwd:afxinl2.obj
 0001:0002cb70       ?GetTextMetricsW@CDC@@QBEHPAUtagTEXTMETRICW@@@Z 0042db70 f   uafxcwd:afxinl2.obj
 0001:0002cbb0       ?GetTextMetrics@CDC@@QBEHPAUtagTEXTMETRICW@@@Z 0042dbb0 f   uafxcwd:afxinl2.obj
 0001:0002cbd0       ?GetOutputTextMetrics@CDC@@QBEHPAUtagTEXTMETRICW@@@Z 0042dbd0 f   uafxcwd:afxinl2.obj
 0001:0002cc10       ?GetTextCharacterExtra@CDC@@QBEHXZ 0042dc10 f   uafxcwd:afxinl2.obj
 0001:0002cc50       ?GetCharWidthW@CDC@@QBEHIIPAH@Z 0042dc50 f   uafxcwd:afxinl2.obj
 0001:0002cca0       ?GetOutputCharWidth@CDC@@QBEHIIPAH@Z 0042dca0 f   uafxcwd:afxinl2.obj
 0001:0002ccf0       ?GetFontLanguageInfo@CDC@@QBEKXZ 0042dcf0 f   uafxcwd:afxinl2.obj
 0001:0002cd30       ?GetCharacterPlacementW@CDC@@QBEKPB_WHHPAUtagGCP_RESULTSW@@K@Z 0042dd30 f   uafxcwd:afxinl2.obj
 0001:0002cd80       ?GetCharacterPlacementW@CDC@@QBEKAAV?$CStringT@_WV?$StrTraitMFC@_WV?$ChTraitsCRT@_W@ATL@@@@@ATL@@HPAUtagGCP_RESULTSW@@K@Z 0042dd80 f   uafxcwd:afxinl2.obj
 0001:0002cde0       ?GetAspectRatioFilter@CDC@@QBE?AVCSize@@XZ 0042dde0 f   uafxcwd:afxinl2.obj
 0001:0002ce50       ?ScrollDC@CDC@@QAEHHHPBUtagRECT@@0PAVCRgn@@PAU2@@Z 0042de50 f   uafxcwd:afxinl2.obj
 0001:0002ceb0       ?Escape@CDC@@UAEHHHPBDPAX@Z 0042deb0 f   uafxcwd:afxinl2.obj
 0001:0002cf00       ?SetBoundsRect@CDC@@QAEIPBUtagRECT@@I@Z 0042df00 f   uafxcwd:afxinl2.obj
 0001:0002cf50       ?GetBoundsRect@CDC@@QAEIPAUtagRECT@@I@Z 0042df50 f   uafxcwd:afxinl2.obj
 0001:0002cfa0       ?ResetDCW@CDC@@QAEHPBU_devicemodeW@@@Z 0042dfa0 f   uafxcwd:afxinl2.obj
 0001:0002cff0       ?GetOutlineTextMetricsW@CDC@@QBEIIPAU_OUTLINETEXTMETRICW@@@Z 0042dff0 f   uafxcwd:afxinl2.obj
 0001:0002d040       ?GetCharABCWidthsW@CDC@@QBEHIIPAU_ABC@@@Z 0042e040 f   uafxcwd:afxinl2.obj
 0001:0002d090       ?GetFontData@CDC@@QBEKKKPAXK@Z 0042e090 f   uafxcwd:afxinl2.obj
 0001:0002d0e0       ?GetKerningPairsW@CDC@@QBEHHPAUtagKERNINGPAIR@@@Z 0042e0e0 f   uafxcwd:afxinl2.obj
 0001:0002d130       ?GetGlyphOutlineW@CDC@@QBEKIIPAU_GLYPHMETRICS@@KPAXPBU_MAT2@@@Z 0042e130 f   uafxcwd:afxinl2.obj
 0001:0002d190       ?StartDocW@CDC@@QAEHPAU_DOCINFOW@@@Z 0042e190 f   uafxcwd:afxinl2.obj
 0001:0002d1d0       ?StartPage@CDC@@QAEHXZ     0042e1d0 f   uafxcwd:afxinl2.obj
 0001:0002d210       ?EndPage@CDC@@QAEHXZ       0042e210 f   uafxcwd:afxinl2.obj
 0001:0002d250       ?SetAbortProc@CDC@@QAEHP6GHPAUHDC__@@H@Z@Z 0042e250 f   uafxcwd:afxinl2.obj
 0001:0002d290       ?AbortDoc@CDC@@QAEHXZ      0042e290 f   uafxcwd:afxinl2.obj
 0001:0002d2d0       ?EndDoc@CDC@@QAEHXZ        0042e2d0 f   uafxcwd:afxinl2.obj
 0001:0002d310       ?MaskBlt@CDC@@QAEHHHHHPAV1@HHAAVCBitmap@@HHK@Z 0042e310 f   uafxcwd:afxinl2.obj
 0001:0002d380       ?PlgBlt@CDC@@QAEHPAUtagPOINT@@PAV1@HHHHAAVCBitmap@@HH@Z 0042e380 f   uafxcwd:afxinl2.obj
 0001:0002d3f0       ?SetPixelV@CDC@@QAEHHHK@Z  0042e3f0 f   uafxcwd:afxinl2.obj
 0001:0002d440       ?SetPixelV@CDC@@QAEHUtagPOINT@@K@Z 0042e440 f   uafxcwd:afxinl2.obj
 0001:0002d490       ?AngleArc@CDC@@QAEHHHHMM@Z 0042e490 f   uafxcwd:afxinl2.obj
 0001:0002d4f0       ?ArcTo@CDC@@QAEHPBUtagRECT@@UtagPOINT@@1@Z 0042e4f0 f   uafxcwd:afxinl2.obj
 0001:0002d550       ?GetArcDirection@CDC@@QBEHXZ 0042e550 f   uafxcwd:afxinl2.obj
 0001:0002d590       ?PolyPolyline@CDC@@QAEHPBUtagPOINT@@PBKH@Z 0042e590 f   uafxcwd:afxinl2.obj
 0001:0002d5e0       ?GetColorAdjustment@CDC@@QBEHPAUtagCOLORADJUSTMENT@@@Z 0042e5e0 f   uafxcwd:afxinl2.obj
 0001:0002d620       ?GetCurrentPen@CDC@@QBEPAVCPen@@XZ 0042e620 f   uafxcwd:afxinl2.obj
 0001:0002d660       ?GetCurrentBrush@CDC@@QBEPAVCBrush@@XZ 0042e660 f   uafxcwd:afxinl2.obj
 0001:0002d6a0       ?GetCurrentPalette@CDC@@QBEPAVCPalette@@XZ 0042e6a0 f   uafxcwd:afxinl2.obj
 0001:0002d6e0       ?GetCurrentFont@CDC@@QBEPAVCFont@@XZ 0042e6e0 f   uafxcwd:afxinl2.obj
 0001:0002d720       ?GetCurrentBitmap@CDC@@QBEPAVCBitmap@@XZ 0042e720 f   uafxcwd:afxinl2.obj
 0001:0002d760       ?PolyBezier@CDC@@QAEHPBUtagPOINT@@H@Z 0042e760 f   uafxcwd:afxinl2.obj
 0001:0002d7b0       ?DrawEscape@CDC@@QAEHHHPBD@Z 0042e7b0 f   uafxcwd:afxinl2.obj
 0001:0002d800       ?Escape@CDC@@QAEHHHPBDHPAD@Z 0042e800 f   uafxcwd:afxinl2.obj
 0001:0002d850       ?GetCharABCWidthsW@CDC@@QBEHIIPAU_ABCFLOAT@@@Z 0042e850 f   uafxcwd:afxinl2.obj
 0001:0002d8a0       ?GetCharWidthW@CDC@@QBEHIIPAM@Z 0042e8a0 f   uafxcwd:afxinl2.obj
 0001:0002d8f0       ?AbortPath@CDC@@QAEHXZ     0042e8f0 f   uafxcwd:afxinl2.obj
 0001:0002d930       ?BeginPath@CDC@@QAEHXZ     0042e930 f   uafxcwd:afxinl2.obj
 0001:0002d970       ?CloseFigure@CDC@@QAEHXZ   0042e970 f   uafxcwd:afxinl2.obj
 0001:0002d9b0       ?EndPath@CDC@@QAEHXZ       0042e9b0 f   uafxcwd:afxinl2.obj
 0001:0002d9f0       ?FillPath@CDC@@QAEHXZ      0042e9f0 f   uafxcwd:afxinl2.obj
 0001:0002da30       ?FlattenPath@CDC@@QAEHXZ   0042ea30 f   uafxcwd:afxinl2.obj
 0001:0002da70       ?GetMiterLimit@CDC@@QBEMXZ 0042ea70 f   uafxcwd:afxinl2.obj
 0001:0002dad0       ?GetPath@CDC@@QBEHPAUtagPOINT@@PAEH@Z 0042ead0 f   uafxcwd:afxinl2.obj
 0001:0002db20       ?SetMiterLimit@CDC@@QAEHM@Z 0042eb20 f   uafxcwd:afxinl2.obj
 0001:0002db70       ?StrokeAndFillPath@CDC@@QAEHXZ 0042eb70 f   uafxcwd:afxinl2.obj
 0001:0002dbb0       ?StrokePath@CDC@@QAEHXZ    0042ebb0 f   uafxcwd:afxinl2.obj
 0001:0002dbf0       ?WidenPath@CDC@@QAEHXZ     0042ebf0 f   uafxcwd:afxinl2.obj
 0001:0002dc30       ?AddMetaFileComment@CDC@@QAEHIPBE@Z 0042ec30 f   uafxcwd:afxinl2.obj
 0001:0002dc80       ?PlayMetaFile@CDC@@QAEHPAUHENHMETAFILE__@@PBUtagRECT@@@Z 0042ec80 f   uafxcwd:afxinl2.obj
 0001:0002dcd0       ??BCImageList@@QBEPAU_IMAGELIST@@XZ 0042ecd0 f   uafxcwd:afxinl2.obj
 0001:0002dcf0       ?GetSafeHandle@CImageList@@QBEPAU_IMAGELIST@@XZ 0042ecf0 f   uafxcwd:afxinl2.obj
 0001:0002dd20       ?GetImageCount@CImageList@@QBEHXZ 0042ed20 f   uafxcwd:afxinl2.obj
 0001:0002dd60       ?Add@CImageList@@QAEHPAVCBitmap@@0@Z 0042ed60 f   uafxcwd:afxinl2.obj
 0001:0002ddb0       ?Add@CImageList@@QAEHPAVCBitmap@@K@Z 0042edb0 f   uafxcwd:afxinl2.obj
 0001:0002de00       ?Remove@CImageList@@QAEHH@Z 0042ee00 f   uafxcwd:afxinl2.obj
 0001:0002de40       ?Replace@CImageList@@QAEHHPAVCBitmap@@0@Z 0042ee40 f   uafxcwd:afxinl2.obj
 0001:0002de90       ?Add@CImageList@@QAEHPAUHICON__@@@Z 0042ee90 f   uafxcwd:afxinl2.obj
 0001:0002ded0       ?Replace@CImageList@@QAEHHPAUHICON__@@@Z 0042eed0 f   uafxcwd:afxinl2.obj
 0001:0002df10       ?ExtractIconW@CImageList@@QAEPAUHICON__@@H@Z 0042ef10 f   uafxcwd:afxinl2.obj
 0001:0002df50       ?Draw@CImageList@@QAEHPAVCDC@@HUtagPOINT@@I@Z 0042ef50 f   uafxcwd:afxinl2.obj
 0001:0002dfc0       ?DrawEx@CImageList@@QAEHPAVCDC@@HUtagPOINT@@UtagSIZE@@KKI@Z 0042efc0 f   uafxcwd:afxinl2.obj
 0001:0002e040       ?SetBkColor@CImageList@@QAEKK@Z 0042f040 f   uafxcwd:afxinl2.obj
 0001:0002e080       ?GetBkColor@CImageList@@QBEKXZ 0042f080 f   uafxcwd:afxinl2.obj
 0001:0002e0c0       ?SetOverlayImage@CImageList@@QAEHHH@Z 0042f0c0 f   uafxcwd:afxinl2.obj
 0001:0002e100       ?GetImageInfo@CImageList@@QBEHHPAU_IMAGEINFO@@@Z 0042f100 f   uafxcwd:afxinl2.obj
 0001:0002e140       ?BeginDrag@CImageList@@QAEHHVCPoint@@@Z 0042f140 f   uafxcwd:afxinl2.obj
 0001:0002e190       ?EndDrag@CImageList@@SGXXZ 0042f190 f   uafxcwd:afxinl2.obj
 0001:0002e1a0       ?DragMove@CImageList@@SGHVCPoint@@@Z 0042f1a0 f   uafxcwd:afxinl2.obj
 0001:0002e1c0       ?SetDragCursorImage@CImageList@@QAEHHVCPoint@@@Z 0042f1c0 f   uafxcwd:afxinl2.obj
 0001:0002e210       ?DragShowNolock@CImageList@@SGHH@Z 0042f210 f   uafxcwd:afxinl2.obj
 0001:0002e230       ?GetDragImage@CImageList@@SGPAV1@PAUtagPOINT@@0@Z 0042f230 f   uafxcwd:afxinl2.obj
 0001:0002e250       ?DragEnter@CImageList@@SGHPAVCWnd@@VCPoint@@@Z 0042f250 f   uafxcwd:afxinl2.obj
 0001:0002e270       ?DragLeave@CImageList@@SGHPAVCWnd@@@Z 0042f270 f   uafxcwd:afxinl2.obj
 0001:0002e290       ??0CMenu@@QAE@XZ           0042f290 f   uafxcwd:afxinl2.obj
 0001:0002e2c0       ??_GCMenu@@UAEPAXI@Z       0042f2c0 f i uafxcwd:afxinl2.obj
 0001:0002e2c0       ??_ECMenu@@UAEPAXI@Z       0042f2c0 f i uafxcwd:afxinl2.obj
 0001:0002e2f0       ??1CMenu@@UAE@XZ           0042f2f0 f   uafxcwd:afxinl2.obj
 0001:0002e350       ?CreateMenu@CMenu@@QAEHXZ  0042f350 f   uafxcwd:afxinl2.obj
 0001:0002e370       ?CreatePopupMenu@CMenu@@QAEHXZ 0042f370 f   uafxcwd:afxinl2.obj
 0001:0002e390       ??BCMenu@@QBEPAUHMENU__@@XZ 0042f390 f   uafxcwd:afxinl2.obj
 0001:0002e3f0       ??8CMenu@@QBEHABV0@@Z      0042f3f0 f   uafxcwd:afxinl2.obj
 0001:0002e420       ??9CMenu@@QBEHABV0@@Z      0042f420 f   uafxcwd:afxinl2.obj
 0001:0002e450       ?GetSafeHmenu@CMenu@@QBEPAUHMENU__@@XZ 0042f450 f   uafxcwd:afxinl2.obj
 0001:0002e4b0       ?DeleteMenu@CMenu@@QAEHII@Z 0042f4b0 f   uafxcwd:afxinl2.obj
 0001:0002e500       ?AppendMenuW@CMenu@@QAEHIIPB_W@Z 0042f500 f   uafxcwd:afxinl2.obj
 0001:0002e550       ?AppendMenuW@CMenu@@QAEHIIPBVCBitmap@@@Z 0042f550 f   uafxcwd:afxinl2.obj
 0001:0002e5b0       ?CheckMenuItem@CMenu@@QAEIII@Z 0042f5b0 f   uafxcwd:afxinl2.obj
 0001:0002e600       ?EnableMenuItem@CMenu@@QAEIII@Z 0042f600 f   uafxcwd:afxinl2.obj
 0001:0002e650       ?SetDefaultItem@CMenu@@QAEHIH@Z 0042f650 f   uafxcwd:afxinl2.obj
 0001:0002e6a0       ?GetDefaultItem@CMenu@@QAEIIH@Z 0042f6a0 f   uafxcwd:afxinl2.obj
 0001:0002e6f0       ?GetMenuItemCount@CMenu@@QBEIXZ 0042f6f0 f   uafxcwd:afxinl2.obj
 0001:0002e730       ?GetMenuItemID@CMenu@@QBEIH@Z 0042f730 f   uafxcwd:afxinl2.obj
 0001:0002e780       ?GetMenuState@CMenu@@QBEIII@Z 0042f780 f   uafxcwd:afxinl2.obj
 0001:0002e7d0       ?GetMenuStringW@CMenu@@QBEHIPA_WHI@Z 0042f7d0 f   uafxcwd:afxinl2.obj
 0001:0002e830       ?GetMenuItemInfoW@CMenu@@QAEHIPAUtagMENUITEMINFOW@@H@Z 0042f830 f   uafxcwd:afxinl2.obj
 0001:0002e8b0       ?SetMenuItemInfoW@CMenu@@QAEHIPAUtagMENUITEMINFOW@@H@Z 0042f8b0 f   uafxcwd:afxinl2.obj
 0001:0002e930       ?GetSubMenu@CMenu@@QBEPAV1@H@Z 0042f930 f   uafxcwd:afxinl2.obj
 0001:0002e980       ?InsertMenuW@CMenu@@QAEHIIIPB_W@Z 0042f980 f   uafxcwd:afxinl2.obj
 0001:0002e9e0       ?InsertMenuW@CMenu@@QAEHIIIPBVCBitmap@@@Z 0042f9e0 f   uafxcwd:afxinl2.obj
 0001:0002ea40       ?InsertMenuItemW@CMenu@@QAEHIPAUtagMENUITEMINFOW@@H@Z 0042fa40 f   uafxcwd:afxinl2.obj
 0001:0002eac0       ?ModifyMenuW@CMenu@@QAEHIIIPB_W@Z 0042fac0 f   uafxcwd:afxinl2.obj
 0001:0002eb20       ?ModifyMenuW@CMenu@@QAEHIIIPBVCBitmap@@@Z 0042fb20 f   uafxcwd:afxinl2.obj
 0001:0002eb80       ?RemoveMenu@CMenu@@QAEHII@Z 0042fb80 f   uafxcwd:afxinl2.obj
 0001:0002ebd0       ?SetMenuItemBitmaps@CMenu@@QAEHIIPBVCBitmap@@0@Z 0042fbd0 f   uafxcwd:afxinl2.obj
 0001:0002ec30       ?LoadMenuW@CMenu@@QAEHPB_W@Z 0042fc30 f   uafxcwd:afxinl2.obj
 0001:0002ec60       ?LoadMenuW@CMenu@@QAEHI@Z  0042fc60 f   uafxcwd:afxinl2.obj
 0001:0002ec90       ?LoadMenuIndirectW@CMenu@@QAEHPBX@Z 0042fc90 f   uafxcwd:afxinl2.obj
 0001:0002ecc0       ?SetMenuContextHelpId@CMenu@@QAEHK@Z 0042fcc0 f   uafxcwd:afxinl2.obj
 0001:0002ece0       ?GetMenuContextHelpId@CMenu@@QBEKXZ 0042fce0 f   uafxcwd:afxinl2.obj
 0001:0002ed00       ?CheckMenuRadioItem@CMenu@@QAEHIIII@Z 0042fd00 f   uafxcwd:afxinl2.obj
 0001:0002ed30       ?ContinueRouting@CCmdUI@@QAEXXZ 0042fd30 f   uafxcwd:afxinl2.obj
 0001:0002ed50       ?AfxImageList_GetImageCount@@YGHPAU_IMAGELIST@@@Z 0042fd50 f i uafxcwd:afxinl2.obj
 0001:0002ed70       ?_ImageList_GetImageCount@CComCtlWrapper@@QAEHPAU_IMAGELIST@@@Z 0042fd70 f i uafxcwd:afxinl2.obj
 0001:0002eeb0       ??BImageList_GetImageCount_Type@CComCtlWrapper@@QAEP6GHPAU_IMAGELIST@@@ZXZ 0042feb0 f i uafxcwd:afxinl2.obj
 0001:0002eed0       ?GetProcAddress_ImageList_GetImageCount@CComCtlWrapper@@QAE?AUImageList_GetImageCount_Type@1@XZ 0042fed0 f i uafxcwd:afxinl2.obj
 0001:0002ef20       ??4ImageList_GetImageCount_Type@CComCtlWrapper@@QAEXP6GHPAU_IMAGELIST@@@Z@Z 0042ff20 f i uafxcwd:afxinl2.obj
 0001:0002ef40       ??7ImageList_GetImageCount_Type@CComCtlWrapper@@QBE_NXZ 0042ff40 f i uafxcwd:afxinl2.obj
 0001:0002ef60       ?AfxImageList_Add@@YGHPAU_IMAGELIST@@PAUHBITMAP__@@1@Z 0042ff60 f i uafxcwd:afxinl2.obj
 0001:0002ef90       ?_ImageList_Add@CComCtlWrapper@@QAEHPAU_IMAGELIST@@PAUHBITMAP__@@1@Z 0042ff90 f i uafxcwd:afxinl2.obj
 0001:0002f0e0       ??BImageList_Add_Type@CComCtlWrapper@@QAEP6GHPAU_IMAGELIST@@PAUHBITMAP__@@1@ZXZ 004300e0 f i uafxcwd:afxinl2.obj
 0001:0002f100       ?GetProcAddress_ImageList_Add@CComCtlWrapper@@QAE?AUImageList_Add_Type@1@XZ 00430100 f i uafxcwd:afxinl2.obj
 0001:0002f150       ??4ImageList_Add_Type@CComCtlWrapper@@QAEXP6GHPAU_IMAGELIST@@PAUHBITMAP__@@1@Z@Z 00430150 f i uafxcwd:afxinl2.obj
 0001:0002f170       ??7ImageList_Add_Type@CComCtlWrapper@@QBE_NXZ 00430170 f i uafxcwd:afxinl2.obj
 0001:0002f190       ?AfxImageList_ReplaceIcon@@YGHPAU_IMAGELIST@@HPAUHICON__@@@Z 00430190 f i uafxcwd:afxinl2.obj
 0001:0002f1c0       ?_ImageList_ReplaceIcon@CComCtlWrapper@@QAEHPAU_IMAGELIST@@HPAUHICON__@@@Z 004301c0 f i uafxcwd:afxinl2.obj
 0001:0002f310       ??BImageList_ReplaceIcon_Type@CComCtlWrapper@@QAEP6GHPAU_IMAGELIST@@HPAUHICON__@@@ZXZ 00430310 f i uafxcwd:afxinl2.obj
 0001:0002f330       ?GetProcAddress_ImageList_ReplaceIcon@CComCtlWrapper@@QAE?AUImageList_ReplaceIcon_Type@1@XZ 00430330 f i uafxcwd:afxinl2.obj
 0001:0002f380       ??4ImageList_ReplaceIcon_Type@CComCtlWrapper@@QAEXP6GHPAU_IMAGELIST@@HPAUHICON__@@@Z@Z 00430380 f i uafxcwd:afxinl2.obj
 0001:0002f3a0       ??7ImageList_ReplaceIcon_Type@CComCtlWrapper@@QBE_NXZ 004303a0 f i uafxcwd:afxinl2.obj
 0001:0002f3c0       ?AfxImageList_SetBkColor@@YGKPAU_IMAGELIST@@K@Z 004303c0 f i uafxcwd:afxinl2.obj
 0001:0002f3e0       ?_ImageList_SetBkColor@CComCtlWrapper@@QAEKPAU_IMAGELIST@@K@Z 004303e0 f i uafxcwd:afxinl2.obj
 0001:0002f520       ??BImageList_SetBkColor_Type@CComCtlWrapper@@QAEP6GKPAU_IMAGELIST@@K@ZXZ 00430520 f i uafxcwd:afxinl2.obj
 0001:0002f540       ?GetProcAddress_ImageList_SetBkColor@CComCtlWrapper@@QAE?AUImageList_SetBkColor_Type@1@XZ 00430540 f i uafxcwd:afxinl2.obj
 0001:0002f590       ??4ImageList_SetBkColor_Type@CComCtlWrapper@@QAEXP6GKPAU_IMAGELIST@@K@Z@Z 00430590 f i uafxcwd:afxinl2.obj
 0001:0002f5b0       ??7ImageList_SetBkColor_Type@CComCtlWrapper@@QBE_NXZ 004305b0 f i uafxcwd:afxinl2.obj
 0001:0002f5d0       ?AfxImageList_GetBkColor@@YGKPAU_IMAGELIST@@@Z 004305d0 f i uafxcwd:afxinl2.obj
 0001:0002f5f0       ?_ImageList_GetBkColor@CComCtlWrapper@@QAEKPAU_IMAGELIST@@@Z 004305f0 f i uafxcwd:afxinl2.obj
 0001:0002f730       ??BImageList_GetBkColor_Type@CComCtlWrapper@@QAEP6GKPAU_IMAGELIST@@@ZXZ 00430730 f i uafxcwd:afxinl2.obj
 0001:0002f750       ?GetProcAddress_ImageList_GetBkColor@CComCtlWrapper@@QAE?AUImageList_GetBkColor_Type@1@XZ 00430750 f i uafxcwd:afxinl2.obj
 0001:0002f7a0       ??4ImageList_GetBkColor_Type@CComCtlWrapper@@QAEXP6GKPAU_IMAGELIST@@@Z@Z 004307a0 f i uafxcwd:afxinl2.obj
 0001:0002f7c0       ??7ImageList_GetBkColor_Type@CComCtlWrapper@@QBE_NXZ 004307c0 f i uafxcwd:afxinl2.obj
 0001:0002f7e0       ?AfxImageList_SetOverlayImage@@YGHPAU_IMAGELIST@@HH@Z 004307e0 f i uafxcwd:afxinl2.obj
 0001:0002f810       ?_ImageList_SetOverlayImage@CComCtlWrapper@@QAEHPAU_IMAGELIST@@HH@Z 00430810 f i uafxcwd:afxinl2.obj
 0001:0002f960       ??BImageList_SetOverlayImage_Type@CComCtlWrapper@@QAEP6GHPAU_IMAGELIST@@HH@ZXZ 00430960 f i uafxcwd:afxinl2.obj
 0001:0002f980       ?GetProcAddress_ImageList_SetOverlayImage@CComCtlWrapper@@QAE?AUImageList_SetOverlayImage_Type@1@XZ 00430980 f i uafxcwd:afxinl2.obj
 0001:0002f9d0       ??4ImageList_SetOverlayImage_Type@CComCtlWrapper@@QAEXP6GHPAU_IMAGELIST@@HH@Z@Z 004309d0 f i uafxcwd:afxinl2.obj
 0001:0002f9f0       ??7ImageList_SetOverlayImage_Type@CComCtlWrapper@@QBE_NXZ 004309f0 f i uafxcwd:afxinl2.obj
 0001:0002fa10       ?AfxImageList_Draw@@YGHPAU_IMAGELIST@@HPAUHDC__@@HHI@Z 00430a10 f i uafxcwd:afxinl2.obj
 0001:0002fa40       ?_ImageList_Draw@CComCtlWrapper@@QAEHPAU_IMAGELIST@@HPAUHDC__@@HHI@Z 00430a40 f i uafxcwd:afxinl2.obj
 0001:0002fb90       ??BImageList_Draw_Type@CComCtlWrapper@@QAEP6GHPAU_IMAGELIST@@HPAUHDC__@@HHI@ZXZ 00430b90 f i uafxcwd:afxinl2.obj
 0001:0002fbb0       ?GetProcAddress_ImageList_Draw@CComCtlWrapper@@QAE?AUImageList_Draw_Type@1@XZ 00430bb0 f i uafxcwd:afxinl2.obj
 0001:0002fc00       ??4ImageList_Draw_Type@CComCtlWrapper@@QAEXP6GHPAU_IMAGELIST@@HPAUHDC__@@HHI@Z@Z 00430c00 f i uafxcwd:afxinl2.obj
 0001:0002fc20       ??7ImageList_Draw_Type@CComCtlWrapper@@QBE_NXZ 00430c20 f i uafxcwd:afxinl2.obj
 0001:0002fc40       ?AfxImageList_Replace@@YGHPAU_IMAGELIST@@HPAUHBITMAP__@@1@Z 00430c40 f i uafxcwd:afxinl2.obj
 0001:0002fc70       ?_ImageList_Replace@CComCtlWrapper@@QAEHPAU_IMAGELIST@@HPAUHBITMAP__@@1@Z 00430c70 f i uafxcwd:afxinl2.obj
 0001:0002fdc0       ??BImageList_Replace_Type@CComCtlWrapper@@QAEP6GHPAU_IMAGELIST@@HPAUHBITMAP__@@1@ZXZ 00430dc0 f i uafxcwd:afxinl2.obj
 0001:0002fde0       ?GetProcAddress_ImageList_Replace@CComCtlWrapper@@QAE?AUImageList_Replace_Type@1@XZ 00430de0 f i uafxcwd:afxinl2.obj
 0001:0002fe30       ??4ImageList_Replace_Type@CComCtlWrapper@@QAEXP6GHPAU_IMAGELIST@@HPAUHBITMAP__@@1@Z@Z 00430e30 f i uafxcwd:afxinl2.obj
 0001:0002fe50       ??7ImageList_Replace_Type@CComCtlWrapper@@QBE_NXZ 00430e50 f i uafxcwd:afxinl2.obj
 0001:0002fe70       ?AfxImageList_AddMasked@@YGHPAU_IMAGELIST@@PAUHBITMAP__@@K@Z 00430e70 f i uafxcwd:afxinl2.obj
 0001:0002fea0       ?_ImageList_AddMasked@CComCtlWrapper@@QAEHPAU_IMAGELIST@@PAUHBITMAP__@@K@Z 00430ea0 f i uafxcwd:afxinl2.obj
 0001:0002fff0       ??BImageList_AddMasked_Type@CComCtlWrapper@@QAEP6GHPAU_IMAGELIST@@PAUHBITMAP__@@K@ZXZ 00430ff0 f i uafxcwd:afxinl2.obj
 0001:00030010       ?GetProcAddress_ImageList_AddMasked@CComCtlWrapper@@QAE?AUImageList_AddMasked_Type@1@XZ 00431010 f i uafxcwd:afxinl2.obj
 0001:00030060       ??4ImageList_AddMasked_Type@CComCtlWrapper@@QAEXP6GHPAU_IMAGELIST@@PAUHBITMAP__@@K@Z@Z 00431060 f i uafxcwd:afxinl2.obj
 0001:00030080       ??7ImageList_AddMasked_Type@CComCtlWrapper@@QBE_NXZ 00431080 f i uafxcwd:afxinl2.obj
 0001:000300a0       ?AfxImageList_DrawEx@@YGHPAU_IMAGELIST@@HPAUHDC__@@HHHHKKI@Z 004310a0 f i uafxcwd:afxinl2.obj
 0001:000300e0       ?_ImageList_DrawEx@CComCtlWrapper@@QAEHPAU_IMAGELIST@@HPAUHDC__@@HHHHKKI@Z 004310e0 f i uafxcwd:afxinl2.obj
 0001:00030240       ??BImageList_DrawEx_Type@CComCtlWrapper@@QAEP6GHPAU_IMAGELIST@@HPAUHDC__@@HHHHKKI@ZXZ 00431240 f i uafxcwd:afxinl2.obj
 0001:00030260       ?GetProcAddress_ImageList_DrawEx@CComCtlWrapper@@QAE?AUImageList_DrawEx_Type@1@XZ 00431260 f i uafxcwd:afxinl2.obj
 0001:000302b0       ??4ImageList_DrawEx_Type@CComCtlWrapper@@QAEXP6GHPAU_IMAGELIST@@HPAUHDC__@@HHHHKKI@Z@Z 004312b0 f i uafxcwd:afxinl2.obj
 0001:000302d0       ??7ImageList_DrawEx_Type@CComCtlWrapper@@QBE_NXZ 004312d0 f i uafxcwd:afxinl2.obj
 0001:000302f0       ?AfxImageList_Remove@@YGHPAU_IMAGELIST@@H@Z 004312f0 f i uafxcwd:afxinl2.obj
 0001:00030310       ?_ImageList_Remove@CComCtlWrapper@@QAEHPAU_IMAGELIST@@H@Z 00431310 f i uafxcwd:afxinl2.obj
 0001:00030450       ??BImageList_Remove_Type@CComCtlWrapper@@QAEP6GHPAU_IMAGELIST@@H@ZXZ 00431450 f i uafxcwd:afxinl2.obj
 0001:00030470       ?GetProcAddress_ImageList_Remove@CComCtlWrapper@@QAE?AUImageList_Remove_Type@1@XZ 00431470 f i uafxcwd:afxinl2.obj
 0001:000304c0       ??4ImageList_Remove_Type@CComCtlWrapper@@QAEXP6GHPAU_IMAGELIST@@H@Z@Z 004314c0 f i uafxcwd:afxinl2.obj
 0001:000304e0       ??7ImageList_Remove_Type@CComCtlWrapper@@QBE_NXZ 004314e0 f i uafxcwd:afxinl2.obj
 0001:00030500       ?AfxImageList_GetIcon@@YGPAUHICON__@@PAU_IMAGELIST@@HI@Z 00431500 f i uafxcwd:afxinl2.obj
 0001:00030530       ?_ImageList_GetIcon@CComCtlWrapper@@QAEPAUHICON__@@PAU_IMAGELIST@@HI@Z 00431530 f i uafxcwd:afxinl2.obj
 0001:00030680       ??BImageList_GetIcon_Type@CComCtlWrapper@@QAEP6GPAUHICON__@@PAU_IMAGELIST@@HI@ZXZ 00431680 f i uafxcwd:afxinl2.obj
 0001:000306a0       ?GetProcAddress_ImageList_GetIcon@CComCtlWrapper@@QAE?AUImageList_GetIcon_Type@1@XZ 004316a0 f i uafxcwd:afxinl2.obj
 0001:000306f0       ??4ImageList_GetIcon_Type@CComCtlWrapper@@QAEXP6GPAUHICON__@@PAU_IMAGELIST@@HI@Z@Z 004316f0 f i uafxcwd:afxinl2.obj
 0001:00030710       ??7ImageList_GetIcon_Type@CComCtlWrapper@@QBE_NXZ 00431710 f i uafxcwd:afxinl2.obj
 0001:00030730       ?AfxImageList_BeginDrag@@YGHPAU_IMAGELIST@@HHH@Z 00431730 f i uafxcwd:afxinl2.obj
 0001:00030760       ?_ImageList_BeginDrag@CComCtlWrapper@@QAEHPAU_IMAGELIST@@HHH@Z 00431760 f i uafxcwd:afxinl2.obj
 0001:000308b0       ??BImageList_BeginDrag_Type@CComCtlWrapper@@QAEP6GHPAU_IMAGELIST@@HHH@ZXZ 004318b0 f i uafxcwd:afxinl2.obj
 0001:000308d0       ?GetProcAddress_ImageList_BeginDrag@CComCtlWrapper@@QAE?AUImageList_BeginDrag_Type@1@XZ 004318d0 f i uafxcwd:afxinl2.obj
 0001:00030920       ??4ImageList_BeginDrag_Type@CComCtlWrapper@@QAEXP6GHPAU_IMAGELIST@@HHH@Z@Z 00431920 f i uafxcwd:afxinl2.obj
 0001:00030940       ??7ImageList_BeginDrag_Type@CComCtlWrapper@@QBE_NXZ 00431940 f i uafxcwd:afxinl2.obj
 0001:00030960       ?AfxImageList_EndDrag@@YGXXZ 00431960 f i uafxcwd:afxinl2.obj
 0001:00030980       ?_ImageList_EndDrag@CComCtlWrapper@@QAEXXZ 00431980 f i uafxcwd:afxinl2.obj
 0001:00030a70       ??BImageList_EndDrag_Type@CComCtlWrapper@@QAEP6GXXZXZ 00431a70 f i uafxcwd:afxinl2.obj
 0001:00030a90       ?GetProcAddress_ImageList_EndDrag@CComCtlWrapper@@QAE?AUImageList_EndDrag_Type@1@XZ 00431a90 f i uafxcwd:afxinl2.obj
 0001:00030ae0       ??4ImageList_EndDrag_Type@CComCtlWrapper@@QAEXP6GXXZ@Z 00431ae0 f i uafxcwd:afxinl2.obj
 0001:00030b00       ??7ImageList_EndDrag_Type@CComCtlWrapper@@QBE_NXZ 00431b00 f i uafxcwd:afxinl2.obj
 0001:00030b20       ?AfxImageList_DragEnter@@YGHPAUHWND__@@HH@Z 00431b20 f i uafxcwd:afxinl2.obj
 0001:00030b50       ?_ImageList_DragEnter@CComCtlWrapper@@QAEHPAUHWND__@@HH@Z 00431b50 f i uafxcwd:afxinl2.obj
 0001:00030ca0       ??BImageList_DragEnter_Type@CComCtlWrapper@@QAEP6GHPAUHWND__@@HH@ZXZ 00431ca0 f i uafxcwd:afxinl2.obj
 0001:00030cc0       ?GetProcAddress_ImageList_DragEnter@CComCtlWrapper@@QAE?AUImageList_DragEnter_Type@1@XZ 00431cc0 f i uafxcwd:afxinl2.obj
 0001:00030d10       ??4ImageList_DragEnter_Type@CComCtlWrapper@@QAEXP6GHPAUHWND__@@HH@Z@Z 00431d10 f i uafxcwd:afxinl2.obj
 0001:00030d30       ??7ImageList_DragEnter_Type@CComCtlWrapper@@QBE_NXZ 00431d30 f i uafxcwd:afxinl2.obj
 0001:00030d50       ?AfxImageList_DragLeave@@YGHPAUHWND__@@@Z 00431d50 f i uafxcwd:afxinl2.obj
 0001:00030d70       ?_ImageList_DragLeave@CComCtlWrapper@@QAEHPAUHWND__@@@Z 00431d70 f i uafxcwd:afxinl2.obj
 0001:00030eb0       ??BImageList_DragLeave_Type@CComCtlWrapper@@QAEP6GHPAUHWND__@@@ZXZ 00431eb0 f i uafxcwd:afxinl2.obj
 0001:00030ed0       ?GetProcAddress_ImageList_DragLeave@CComCtlWrapper@@QAE?AUImageList_DragLeave_Type@1@XZ 00431ed0 f i uafxcwd:afxinl2.obj
 0001:00030f20       ??4ImageList_DragLeave_Type@CComCtlWrapper@@QAEXP6GHPAUHWND__@@@Z@Z 00431f20 f i uafxcwd:afxinl2.obj
 0001:00030f40       ??7ImageList_DragLeave_Type@CComCtlWrapper@@QBE_NXZ 00431f40 f i uafxcwd:afxinl2.obj
 0001:00030f60       ?AfxImageList_DragMove@@YGHHH@Z 00431f60 f i uafxcwd:afxinl2.obj
 0001:00030f80       ?_ImageList_DragMove@CComCtlWrapper@@QAEHHH@Z 00431f80 f i uafxcwd:afxinl2.obj
 0001:000310c0       ??BImageList_DragMove_Type@CComCtlWrapper@@QAEP6GHHH@ZXZ 004320c0 f i uafxcwd:afxinl2.obj
 0001:000310e0       ?GetProcAddress_ImageList_DragMove@CComCtlWrapper@@QAE?AUImageList_DragMove_Type@1@XZ 004320e0 f i uafxcwd:afxinl2.obj
 0001:00031130       ??4ImageList_DragMove_Type@CComCtlWrapper@@QAEXP6GHHH@Z@Z 00432130 f i uafxcwd:afxinl2.obj
 0001:00031150       ??7ImageList_DragMove_Type@CComCtlWrapper@@QBE_NXZ 00432150 f i uafxcwd:afxinl2.obj
 0001:00031170       ?AfxImageList_SetDragCursorImage@@YGHPAU_IMAGELIST@@HHH@Z 00432170 f i uafxcwd:afxinl2.obj
 0001:000311a0       ?_ImageList_SetDragCursorImage@CComCtlWrapper@@QAEHPAU_IMAGELIST@@HHH@Z 004321a0 f i uafxcwd:afxinl2.obj
 0001:000312f0       ??BImageList_SetDragCursorImage_Type@CComCtlWrapper@@QAEP6GHPAU_IMAGELIST@@HHH@ZXZ 004322f0 f i uafxcwd:afxinl2.obj
 0001:00031310       ?GetProcAddress_ImageList_SetDragCursorImage@CComCtlWrapper@@QAE?AUImageList_SetDragCursorImage_Type@1@XZ 00432310 f i uafxcwd:afxinl2.obj
 0001:00031360       ??4ImageList_SetDragCursorImage_Type@CComCtlWrapper@@QAEXP6GHPAU_IMAGELIST@@HHH@Z@Z 00432360 f i uafxcwd:afxinl2.obj
 0001:00031380       ??7ImageList_SetDragCursorImage_Type@CComCtlWrapper@@QBE_NXZ 00432380 f i uafxcwd:afxinl2.obj
 0001:000313a0       ?AfxImageList_DragShowNolock@@YGHH@Z 004323a0 f i uafxcwd:afxinl2.obj
 0001:000313c0       ?_ImageList_DragShowNolock@CComCtlWrapper@@QAEHH@Z 004323c0 f i uafxcwd:afxinl2.obj
 0001:00031500       ??BImageList_DragShowNolock_Type@CComCtlWrapper@@QAEP6GHH@ZXZ 00432500 f i uafxcwd:afxinl2.obj
 0001:00031520       ?GetProcAddress_ImageList_DragShowNolock@CComCtlWrapper@@QAE?AUImageList_DragShowNolock_Type@1@XZ 00432520 f i uafxcwd:afxinl2.obj
 0001:00031570       ??4ImageList_DragShowNolock_Type@CComCtlWrapper@@QAEXP6GHH@Z@Z 00432570 f i uafxcwd:afxinl2.obj
 0001:00031590       ??7ImageList_DragShowNolock_Type@CComCtlWrapper@@QBE_NXZ 00432590 f i uafxcwd:afxinl2.obj
 0001:000315b0       ?AfxImageList_GetDragImage@@YGPAU_IMAGELIST@@PAUtagPOINT@@0@Z 004325b0 f i uafxcwd:afxinl2.obj
 0001:000315d0       ?_ImageList_GetDragImage@CComCtlWrapper@@QAEPAU_IMAGELIST@@PAUtagPOINT@@0@Z 004325d0 f i uafxcwd:afxinl2.obj
 0001:00031720       ??BImageList_GetDragImage_Type@CComCtlWrapper@@QAEP6GPAU_IMAGELIST@@PAUtagPOINT@@0@ZXZ 00432720 f i uafxcwd:afxinl2.obj
 0001:00031740       ?GetProcAddress_ImageList_GetDragImage@CComCtlWrapper@@QAE?AUImageList_GetDragImage_Type@1@XZ 00432740 f i uafxcwd:afxinl2.obj
 0001:000317a0       ??4ImageList_GetDragImage_Type@CComCtlWrapper@@QAEXP6GPAU_IMAGELIST@@PAUtagPOINT@@0@Z@Z 004327a0 f i uafxcwd:afxinl2.obj
 0001:000317c0       ??7ImageList_GetDragImage_Type@CComCtlWrapper@@QBE_NXZ 004327c0 f i uafxcwd:afxinl2.obj
 0001:000317e0       ?AfxImageList_GetImageInfo@@YGHPAU_IMAGELIST@@HPAU_IMAGEINFO@@@Z 004327e0 f i uafxcwd:afxinl2.obj
 0001:00031810       ?_ImageList_GetImageInfo@CComCtlWrapper@@QAEHPAU_IMAGELIST@@HPAU_IMAGEINFO@@@Z 00432810 f i uafxcwd:afxinl2.obj
 0001:00031960       ??BImageList_GetImageInfo_Type@CComCtlWrapper@@QAEP6GHPAU_IMAGELIST@@HPAU_IMAGEINFO@@@ZXZ 00432960 f i uafxcwd:afxinl2.obj
 0001:00031980       ?GetProcAddress_ImageList_GetImageInfo@CComCtlWrapper@@QAE?AUImageList_GetImageInfo_Type@1@XZ 00432980 f i uafxcwd:afxinl2.obj
 0001:000319e0       ??4ImageList_GetImageInfo_Type@CComCtlWrapper@@QAEXP6GHPAU_IMAGELIST@@HPAU_IMAGEINFO@@@Z@Z 004329e0 f i uafxcwd:afxinl2.obj
 0001:00031a00       ??7ImageList_GetImageInfo_Type@CComCtlWrapper@@QBE_NXZ 00432a00 f i uafxcwd:afxinl2.obj
 0001:00031a20       ?AfxCreateMappedBitmap@@YGPAUHBITMAP__@@PAUHINSTANCE__@@HIPAU_COLORMAP@@H@Z 00432a20 f i uafxcwd:afxinl2.obj
 0001:00031a50       ?_CreateMappedBitmap@CComCtlWrapper@@QAEPAUHBITMAP__@@PAUHINSTANCE__@@HIPAU_COLORMAP@@H@Z 00432a50 f i uafxcwd:afxinl2.obj
 0001:00031ba0       ??BCreateMappedBitmap_Type@CComCtlWrapper@@QAEP6GPAUHBITMAP__@@PAUHINSTANCE__@@HIPAU_COLORMAP@@H@ZXZ 00432ba0 f i uafxcwd:afxinl2.obj
 0001:00031bc0       ?GetProcAddress_CreateMappedBitmap@CComCtlWrapper@@QAE?AUCreateMappedBitmap_Type@1@XZ 00432bc0 f i uafxcwd:afxinl2.obj
 0001:00031c20       ??4CreateMappedBitmap_Type@CComCtlWrapper@@QAEXP6GPAUHBITMAP__@@PAUHINSTANCE__@@HIPAU_COLORMAP@@H@Z@Z 00432c20 f i uafxcwd:afxinl2.obj
 0001:00031c40       ??7CreateMappedBitmap_Type@CComCtlWrapper@@QBE_NXZ 00432c40 f i uafxcwd:afxinl2.obj
 0001:00031c60       ??0CObject@@IAE@XZ         00432c60 f   uafxcwd:afxinl1.obj
 0001:00031c80       ??1CObject@@UAE@XZ         00432c80 f   uafxcwd:afxinl1.obj
 0001:00031ca0       ?Serialize@CObject@@UAEXAAVCArchive@@@Z 00432ca0 f   uafxcwd:afxinl1.obj
 0001:00031cb0       ??2CObject@@SGPAXIPAX@Z    00432cb0 f   uafxcwd:afxinl1.obj
 0001:00031cc0       ?AfxDynamicDownCast@@YAPBVCObject@@PAUCRuntimeClass@@PBV1@@Z 00432cc0 f   uafxcwd:afxinl1.obj
 0001:00031ce0       ?AfxStaticDownCast@@YAPBVCObject@@PAUCRuntimeClass@@PBV1@@Z 00432ce0 f   uafxcwd:afxinl1.obj
 0001:00031d00       ??1CException@@UAE@XZ      00432d00 f   uafxcwd:afxinl1.obj
 0001:00031d20       ??0CSimpleException@@QAE@XZ 00432d20 f   uafxcwd:afxinl1.obj
 0001:00031d60       ??0CSimpleException@@QAE@H@Z 00432d60 f   uafxcwd:afxinl1.obj
 0001:00031da0       ??1CSimpleException@@UAE@XZ 00432da0 f   uafxcwd:afxinl1.obj
 0001:00031dc0       ??0CMemoryException@@QAE@XZ 00432dc0 f   uafxcwd:afxinl1.obj
 0001:00031df0       ??_GCMemoryException@@UAEPAXI@Z 00432df0 f i uafxcwd:afxinl1.obj
 0001:00031df0       ??_ECMemoryException@@UAEPAXI@Z 00432df0 f i uafxcwd:afxinl1.obj
 0001:00031e20       ??0CMemoryException@@QAE@HI@Z 00432e20 f   uafxcwd:afxinl1.obj
 0001:00031e60       ??1CMemoryException@@UAE@XZ 00432e60 f   uafxcwd:afxinl1.obj
 0001:00031e80       ??0CNotSupportedException@@QAE@XZ 00432e80 f   uafxcwd:afxinl1.obj
 0001:00031eb0       ??_ECNotSupportedException@@UAEPAXI@Z 00432eb0 f i uafxcwd:afxinl1.obj
 0001:00031eb0       ??_GCNotSupportedException@@UAEPAXI@Z 00432eb0 f i uafxcwd:afxinl1.obj
 0001:00031ee0       ??0CNotSupportedException@@QAE@HI@Z 00432ee0 f   uafxcwd:afxinl1.obj
 0001:00031f20       ??1CNotSupportedException@@UAE@XZ 00432f20 f   uafxcwd:afxinl1.obj
 0001:00031f40       ??0CInvalidArgException@@QAE@XZ 00432f40 f   uafxcwd:afxinl1.obj
 0001:00031f70       ??_ECInvalidArgException@@UAEPAXI@Z 00432f70 f i uafxcwd:afxinl1.obj
 0001:00031f70       ??_GCInvalidArgException@@UAEPAXI@Z 00432f70 f i uafxcwd:afxinl1.obj
 0001:00031fa0       ??0CInvalidArgException@@QAE@HI@Z 00432fa0 f   uafxcwd:afxinl1.obj
 0001:00031fe0       ??1CInvalidArgException@@UAE@XZ 00432fe0 f   uafxcwd:afxinl1.obj
 0001:00032000       ??0CArchiveException@@QAE@HPB_W@Z 00433000 f   uafxcwd:afxinl1.obj
 0001:00032090       ??_GCArchiveException@@UAEPAXI@Z 00433090 f i uafxcwd:afxinl1.obj
 0001:00032090       ??_ECArchiveException@@UAEPAXI@Z 00433090 f i uafxcwd:afxinl1.obj
 0001:000320c0       ??1CArchiveException@@UAE@XZ 004330c0 f   uafxcwd:afxinl1.obj
 0001:000320f0       ??0CFileException@@QAE@HJPB_W@Z 004330f0 f   uafxcwd:afxinl1.obj
 0001:00032180       ??_ECFileException@@UAEPAXI@Z 00433180 f i uafxcwd:afxinl1.obj
 0001:00032180       ??_GCFileException@@UAEPAXI@Z 00433180 f i uafxcwd:afxinl1.obj
 0001:000321b0       ??1CFileException@@UAE@XZ  004331b0 f   uafxcwd:afxinl1.obj
 0001:000321e0       ??BCFile@@QBEPAXXZ         004331e0 f   uafxcwd:afxinl1.obj
 0001:00032200       ?SeekToEnd@CFile@@QAE_KXZ  00433200 f   uafxcwd:afxinl1.obj
 0001:00032220       ?SeekToBegin@CFile@@QAEXXZ 00433220 f   uafxcwd:afxinl1.obj
 0001:00032240       ?SetFilePath@CFile@@UAEXPB_W@Z 00433240 f   uafxcwd:afxinl1.obj
 0001:000322b0       ?IsReadOnly@CFileFind@@QBEHXZ 004332b0 f   uafxcwd:afxinl1.obj
 0001:000322d0       ?IsDirectory@CFileFind@@QBEHXZ 004332d0 f   uafxcwd:afxinl1.obj
 0001:000322f0       ?IsCompressed@CFileFind@@QBEHXZ 004332f0 f   uafxcwd:afxinl1.obj
 0001:00032310       ?IsSystem@CFileFind@@QBEHXZ 00433310 f   uafxcwd:afxinl1.obj
 0001:00032330       ?IsHidden@CFileFind@@QBEHXZ 00433330 f   uafxcwd:afxinl1.obj
 0001:00032350       ?IsTemporary@CFileFind@@QBEHXZ 00433350 f   uafxcwd:afxinl1.obj
 0001:00032370       ?IsNormal@CFileFind@@QBEHXZ 00433370 f   uafxcwd:afxinl1.obj
 0001:00032390       ?IsArchived@CFileFind@@QBEHXZ 00433390 f   uafxcwd:afxinl1.obj
 0001:000323b0       ?IsLoading@CArchive@@QBEHXZ 004333b0 f   uafxcwd:afxinl1.obj
 0001:000323d0       ?IsStoring@CArchive@@QBEHXZ 004333d0 f   uafxcwd:afxinl1.obj
 0001:000323f0       ?IsByteSwapping@CArchive@@QBEHXZ 004333f0 f   uafxcwd:afxinl1.obj
 0001:00032400       ?IsBufferEmpty@CArchive@@QBEHXZ 00433400 f   uafxcwd:afxinl1.obj
 0001:00032420       ?GetFile@CArchive@@QBEPAVCFile@@XZ 00433420 f   uafxcwd:afxinl1.obj
 0001:00032440       ?SetObjectSchema@CArchive@@QAEXI@Z 00433440 f   uafxcwd:afxinl1.obj
 0001:00032460       ?SetStoreParams@CArchive@@QAEXII@Z 00433460 f   uafxcwd:afxinl1.obj
 0001:000324c0       ?SetLoadParams@CArchive@@QAEXI@Z 004334c0 f   uafxcwd:afxinl1.obj
 0001:00032520       ??6CArchive@@QAEAAV0@H@Z   00433520 f   uafxcwd:afxinl1.obj
 0001:00032540       ??6CArchive@@QAEAAV0@I@Z   00433540 f   uafxcwd:afxinl1.obj
 0001:00032560       ??6CArchive@@QAEAAV0@F@Z   00433560 f   uafxcwd:afxinl1.obj
 0001:00032580       ??6CArchive@@QAEAAV0@D@Z   00433580 f   uafxcwd:afxinl1.obj
 0001:000325a0       ??6CArchive@@QAEAAV0@_W@Z  004335a0 f   uafxcwd:afxinl1.obj
 0001:000325c0       ??6CArchive@@QAEAAV0@_N@Z  004335c0 f   uafxcwd:afxinl1.obj
 0001:000325f0       ??6CArchive@@QAEAAV0@E@Z   004335f0 f   uafxcwd:afxinl1.obj
 0001:00032660       ??6CArchive@@QAEAAV0@_J@Z  00433660 f   uafxcwd:afxinl1.obj
 0001:000326d0       ??6CArchive@@QAEAAV0@_K@Z  004336d0 f   uafxcwd:afxinl1.obj
 0001:00032740       ??6CArchive@@QAEAAV0@G@Z   00433740 f   uafxcwd:afxinl1.obj
 0001:000327b0       ??6CArchive@@QAEAAV0@J@Z   004337b0 f   uafxcwd:afxinl1.obj
 0001:00032820       ??6CArchive@@QAEAAV0@K@Z   00433820 f   uafxcwd:afxinl1.obj
 0001:00032890       ??6CArchive@@QAEAAV0@M@Z   00433890 f   uafxcwd:afxinl1.obj
 0001:00032900       ??6CArchive@@QAEAAV0@N@Z   00433900 f   uafxcwd:afxinl1.obj
 0001:00032970       ??5CArchive@@QAEAAV0@AAH@Z 00433970 f   uafxcwd:afxinl1.obj
 0001:00032990       ??5CArchive@@QAEAAV0@AAI@Z 00433990 f   uafxcwd:afxinl1.obj
 0001:000329b0       ??5CArchive@@QAEAAV0@AAF@Z 004339b0 f   uafxcwd:afxinl1.obj
 0001:000329d0       ??5CArchive@@QAEAAV0@AAD@Z 004339d0 f   uafxcwd:afxinl1.obj
 0001:000329f0       ??5CArchive@@QAEAAV0@AA_W@Z 004339f0 f   uafxcwd:afxinl1.obj
 0001:00032a10       ??5CArchive@@QAEAAV0@AA_N@Z 00433a10 f   uafxcwd:afxinl1.obj
 0001:00032a50       ??5CArchive@@QAEAAV0@AAE@Z 00433a50 f   uafxcwd:afxinl1.obj
 0001:00032ad0       ??5CArchive@@QAEAAV0@AA_J@Z 00433ad0 f   uafxcwd:afxinl1.obj
 0001:00032b50       ??5CArchive@@QAEAAV0@AA_K@Z 00433b50 f   uafxcwd:afxinl1.obj
 0001:00032bd0       ??5CArchive@@QAEAAV0@AAG@Z 00433bd0 f   uafxcwd:afxinl1.obj
 0001:00032c50       ??5CArchive@@QAEAAV0@AAK@Z 00433c50 f   uafxcwd:afxinl1.obj
 0001:00032cd0       ??5CArchive@@QAEAAV0@AAM@Z 00433cd0 f   uafxcwd:afxinl1.obj
 0001:00032d50       ??5CArchive@@QAEAAV0@AAN@Z 00433d50 f   uafxcwd:afxinl1.obj
 0001:00032dd0       ??5CArchive@@QAEAAV0@AAJ@Z 00433dd0 f   uafxcwd:afxinl1.obj
 0001:00032e50       ??0CArchive@@IAE@ABV0@@Z   00433e50 f   uafxcwd:afxinl1.obj
 0001:00032e70       ??4CArchive@@IAEXABV0@@Z   00433e70 f   uafxcwd:afxinl1.obj
 0001:00032e80       ??6@YGAAVCArchive@@AAV0@PBVCObject@@@Z 00433e80 f   uafxcwd:afxinl1.obj
 0001:00032ea0       ??5@YGAAVCArchive@@AAV0@AAPAVCObject@@@Z 00433ea0 f   uafxcwd:afxinl1.obj
 0001:00032ec0       ??5@YGAAVCArchive@@AAV0@AAPBVCObject@@@Z 00433ec0 f   uafxcwd:afxinl1.obj
 0001:00032ee0       ?EnsureRead@CArchive@@QAEXPAXI@Z 00433ee0 f   uafxcwd:afxinl1.obj
 0001:00032f20       ?GetDepth@CDumpContext@@QBEHXZ 00433f20 f   uafxcwd:afxinl1.obj
 0001:00032f40       ?SetDepth@CDumpContext@@QAEXH@Z 00433f40 f   uafxcwd:afxinl1.obj
 0001:00032f60       ??0CDumpContext@@IAE@ABV0@@Z 00433f60 f   uafxcwd:afxinl1.obj
 0001:00032f80       ??4CDumpContext@@IAEXABV0@@Z 00433f80 f   uafxcwd:afxinl1.obj
 0001:00032f90       ?GetSize@CByteArray@@QBEHXZ 00433f90 f   uafxcwd:afxinl1.obj
 0001:00032fb0       ?GetCount@CByteArray@@QBEHXZ 00433fb0 f   uafxcwd:afxinl1.obj
 0001:00032fd0       ?IsEmpty@CByteArray@@QBEHXZ 00433fd0 f   uafxcwd:afxinl1.obj
 0001:00032ff0       ?GetUpperBound@CByteArray@@QBEHXZ 00433ff0 f   uafxcwd:afxinl1.obj
 0001:00033010       ?RemoveAll@CByteArray@@QAEXXZ 00434010 f   uafxcwd:afxinl1.obj
 0001:00033030       ?GetAt@CByteArray@@QBEEH@Z 00434030 f   uafxcwd:afxinl1.obj
 0001:00033090       ?SetAt@CByteArray@@QAEXHE@Z 00434090 f   uafxcwd:afxinl1.obj
 0001:000330f0       ?ElementAt@CByteArray@@QAEAAEH@Z 004340f0 f   uafxcwd:afxinl1.obj
 0001:00033140       ?GetData@CByteArray@@QBEPBEXZ 00434140 f   uafxcwd:afxinl1.obj
 0001:00033160       ?GetData@CByteArray@@QAEPAEXZ 00434160 f   uafxcwd:afxinl1.obj
 0001:00033180       ?Add@CByteArray@@QAEHE@Z   00434180 f   uafxcwd:afxinl1.obj
 0001:000331b0       ??ACByteArray@@QBEEH@Z     004341b0 f   uafxcwd:afxinl1.obj
 0001:000331d0       ??ACByteArray@@QAEAAEH@Z   004341d0 f   uafxcwd:afxinl1.obj
 0001:000331f0       ?GetSize@CWordArray@@QBEHXZ 004341f0 f   uafxcwd:afxinl1.obj
 0001:00033210       ?GetCount@CWordArray@@QBEHXZ 00434210 f   uafxcwd:afxinl1.obj
 0001:00033230       ?IsEmpty@CWordArray@@QBEHXZ 00434230 f   uafxcwd:afxinl1.obj
 0001:00033250       ?GetUpperBound@CWordArray@@QBEHXZ 00434250 f   uafxcwd:afxinl1.obj
 0001:00033270       ?RemoveAll@CWordArray@@QAEXXZ 00434270 f   uafxcwd:afxinl1.obj
 0001:00033290       ?GetAt@CWordArray@@QBEGH@Z 00434290 f   uafxcwd:afxinl1.obj
 0001:000332f0       ?SetAt@CWordArray@@QAEXHG@Z 004342f0 f   uafxcwd:afxinl1.obj
 0001:00033350       ?ElementAt@CWordArray@@QAEAAGH@Z 00434350 f   uafxcwd:afxinl1.obj
 0001:000333b0       ?GetData@CWordArray@@QBEPBGXZ 004343b0 f   uafxcwd:afxinl1.obj
 0001:000333d0       ?GetData@CWordArray@@QAEPAGXZ 004343d0 f   uafxcwd:afxinl1.obj
 0001:000333f0       ?Add@CWordArray@@QAEHG@Z   004343f0 f   uafxcwd:afxinl1.obj
 0001:00033420       ??ACWordArray@@QBEGH@Z     00434420 f   uafxcwd:afxinl1.obj
 0001:00033440       ??ACWordArray@@QAEAAGH@Z   00434440 f   uafxcwd:afxinl1.obj
 0001:00033460       ?GetSize@CDWordArray@@QBEHXZ 00434460 f   uafxcwd:afxinl1.obj
 0001:00033480       ?GetCount@CDWordArray@@QBEHXZ 00434480 f   uafxcwd:afxinl1.obj
 0001:000334a0       ?IsEmpty@CDWordArray@@QBEHXZ 004344a0 f   uafxcwd:afxinl1.obj
 0001:000334c0       ?GetUpperBound@CDWordArray@@QBEHXZ 004344c0 f   uafxcwd:afxinl1.obj
 0001:000334e0       ?RemoveAll@CDWordArray@@QAEXXZ 004344e0 f   uafxcwd:afxinl1.obj
 0001:00033500       ?GetAt@CDWordArray@@QBEKH@Z 00434500 f   uafxcwd:afxinl1.obj
 0001:00033560       ?SetAt@CDWordArray@@QAEXHK@Z 00434560 f   uafxcwd:afxinl1.obj
 0001:000335c0       ?ElementAt@CDWordArray@@QAEAAKH@Z 004345c0 f   uafxcwd:afxinl1.obj
 0001:00033620       ?GetData@CDWordArray@@QBEPBKXZ 00434620 f   uafxcwd:afxinl1.obj
 0001:00033640       ?GetData@CDWordArray@@QAEPAKXZ 00434640 f   uafxcwd:afxinl1.obj
 0001:00033660       ?Add@CDWordArray@@QAEHK@Z  00434660 f   uafxcwd:afxinl1.obj
 0001:00033690       ??ACDWordArray@@QBEKH@Z    00434690 f   uafxcwd:afxinl1.obj
 0001:000336b0       ??ACDWordArray@@QAEAAKH@Z  004346b0 f   uafxcwd:afxinl1.obj
 0001:000336d0       ?GetSize@CUIntArray@@QBEHXZ 004346d0 f   uafxcwd:afxinl1.obj
 0001:000336f0       ?GetCount@CUIntArray@@QBEHXZ 004346f0 f   uafxcwd:afxinl1.obj
 0001:00033710       ?IsEmpty@CUIntArray@@QBEHXZ 00434710 f   uafxcwd:afxinl1.obj
 0001:00033730       ?GetUpperBound@CUIntArray@@QBEHXZ 00434730 f   uafxcwd:afxinl1.obj
 0001:00033750       ?RemoveAll@CUIntArray@@QAEXXZ 00434750 f   uafxcwd:afxinl1.obj
 0001:00033770       ?GetAt@CUIntArray@@QBEIH@Z 00434770 f   uafxcwd:afxinl1.obj
 0001:000337d0       ?SetAt@CUIntArray@@QAEXHI@Z 004347d0 f   uafxcwd:afxinl1.obj
 0001:00033830       ?ElementAt@CUIntArray@@QAEAAIH@Z 00434830 f   uafxcwd:afxinl1.obj
 0001:00033890       ?GetData@CUIntArray@@QBEPBIXZ 00434890 f   uafxcwd:afxinl1.obj
 0001:000338b0       ?GetData@CUIntArray@@QAEPAIXZ 004348b0 f   uafxcwd:afxinl1.obj
 0001:000338d0       ?Add@CUIntArray@@QAEHI@Z   004348d0 f   uafxcwd:afxinl1.obj
 0001:00033900       ??ACUIntArray@@QBEIH@Z     00434900 f   uafxcwd:afxinl1.obj
 0001:00033920       ??ACUIntArray@@QAEAAIH@Z   00434920 f   uafxcwd:afxinl1.obj
 0001:00033940       ?GetSize@CPtrArray@@QBEHXZ 00434940 f   uafxcwd:afxinl1.obj
 0001:00033960       ?GetCount@CPtrArray@@QBEHXZ 00434960 f   uafxcwd:afxinl1.obj
 0001:00033980       ?IsEmpty@CPtrArray@@QBEHXZ 00434980 f   uafxcwd:afxinl1.obj
 0001:000339a0       ?GetUpperBound@CPtrArray@@QBEHXZ 004349a0 f   uafxcwd:afxinl1.obj
 0001:000339c0       ?RemoveAll@CPtrArray@@QAEXXZ 004349c0 f   uafxcwd:afxinl1.obj
 0001:000339e0       ?GetAt@CPtrArray@@QBEPAXH@Z 004349e0 f   uafxcwd:afxinl1.obj
 0001:00033a40       ?SetAt@CPtrArray@@QAEXHPAX@Z 00434a40 f   uafxcwd:afxinl1.obj
 0001:00033aa0       ?ElementAt@CPtrArray@@QAEAAPAXH@Z 00434aa0 f   uafxcwd:afxinl1.obj
 0001:00033b00       ?GetData@CPtrArray@@QBEPAPBXXZ 00434b00 f   uafxcwd:afxinl1.obj
 0001:00033b20       ?GetData@CPtrArray@@QAEPAPAXXZ 00434b20 f   uafxcwd:afxinl1.obj
 0001:00033b40       ?Add@CPtrArray@@QAEHPAX@Z  00434b40 f   uafxcwd:afxinl1.obj
 0001:00033b70       ??ACPtrArray@@QBEPAXH@Z    00434b70 f   uafxcwd:afxinl1.obj
 0001:00033b90       ??ACPtrArray@@QAEAAPAXH@Z  00434b90 f   uafxcwd:afxinl1.obj
 0001:00033bb0       ?GetSize@CObArray@@QBEHXZ  00434bb0 f   uafxcwd:afxinl1.obj
 0001:00033bd0       ?GetCount@CObArray@@QBEHXZ 00434bd0 f   uafxcwd:afxinl1.obj
 0001:00033bf0       ?IsEmpty@CObArray@@QBEHXZ  00434bf0 f   uafxcwd:afxinl1.obj
 0001:00033c10       ?GetUpperBound@CObArray@@QBEHXZ 00434c10 f   uafxcwd:afxinl1.obj
 0001:00033c30       ?RemoveAll@CObArray@@QAEXXZ 00434c30 f   uafxcwd:afxinl1.obj
 0001:00033c50       ?GetAt@CObArray@@QBEPAVCObject@@H@Z 00434c50 f   uafxcwd:afxinl1.obj
 0001:00033cb0       ?SetAt@CObArray@@QAEXHPAVCObject@@@Z 00434cb0 f   uafxcwd:afxinl1.obj
 0001:00033d10       ?ElementAt@CObArray@@QAEAAPAVCObject@@H@Z 00434d10 f   uafxcwd:afxinl1.obj
 0001:00033d70       ?GetData@CObArray@@QBEPAPBVCObject@@XZ 00434d70 f   uafxcwd:afxinl1.obj
 0001:00033d90       ?GetData@CObArray@@QAEPAPAVCObject@@XZ 00434d90 f   uafxcwd:afxinl1.obj
 0001:00033db0       ?Add@CObArray@@QAEHPAVCObject@@@Z 00434db0 f   uafxcwd:afxinl1.obj
 0001:00033de0       ??ACObArray@@QBEPAVCObject@@H@Z 00434de0 f   uafxcwd:afxinl1.obj
 0001:00033e00       ??ACObArray@@QAEAAPAVCObject@@H@Z 00434e00 f   uafxcwd:afxinl1.obj
 0001:00033e20       ?GetSize@CStringArray@@QBEHXZ 00434e20 f   uafxcwd:afxinl1.obj
 0001:00033e40       ?GetCount@CStringArray@@QBEHXZ 00434e40 f   uafxcwd:afxinl1.obj
 0001:00033e60       ?IsEmpty@CStringArray@@QBEHXZ 00434e60 f   uafxcwd:afxinl1.obj
 0001:00033e80       ?GetUpperBound@CStringArray@@QBEHXZ 00434e80 f   uafxcwd:afxinl1.obj
 0001:00033ea0       ?RemoveAll@CStringArray@@QAEXXZ 00434ea0 f   uafxcwd:afxinl1.obj
 0001:00033ec0       ?GetAt@CStringArray@@QBEABV?$CStringT@_WV?$StrTraitMFC@_WV?$ChTraitsCRT@_W@ATL@@@@@ATL@@H@Z 00434ec0 f   uafxcwd:afxinl1.obj
 0001:00033f20       ?SetAt@CStringArray@@QAEXHPB_W@Z 00434f20 f   uafxcwd:afxinl1.obj
 0001:00033f80       ?SetAt@CStringArray@@QAEXHABV?$CStringT@_WV?$StrTraitMFC@_WV?$ChTraitsCRT@_W@ATL@@@@@ATL@@@Z 00434f80 f   uafxcwd:afxinl1.obj
 0001:00033fe0       ?ElementAt@CStringArray@@QAEAAV?$CStringT@_WV?$StrTraitMFC@_WV?$ChTraitsCRT@_W@ATL@@@@@ATL@@H@Z 00434fe0 f   uafxcwd:afxinl1.obj
 0001:00034040       ?GetData@CStringArray@@QBEPBV?$CStringT@_WV?$StrTraitMFC@_WV?$ChTraitsCRT@_W@ATL@@@@@ATL@@XZ 00435040 f   uafxcwd:afxinl1.obj
 0001:00034060       ?GetData@CStringArray@@QAEPAV?$CStringT@_WV?$StrTraitMFC@_WV?$ChTraitsCRT@_W@ATL@@@@@ATL@@XZ 00435060 f   uafxcwd:afxinl1.obj
 0001:00034080       ?Add@CStringArray@@QAEHPB_W@Z 00435080 f   uafxcwd:afxinl1.obj
 0001:000340b0       ?Add@CStringArray@@QAEHABV?$CStringT@_WV?$StrTraitMFC@_WV?$ChTraitsCRT@_W@ATL@@@@@ATL@@@Z 004350b0 f   uafxcwd:afxinl1.obj
 0001:000340e0       ??ACStringArray@@QBEABV?$CStringT@_WV?$StrTraitMFC@_WV?$ChTraitsCRT@_W@ATL@@@@@ATL@@H@Z 004350e0 f   uafxcwd:afxinl1.obj
 0001:00034100       ??ACStringArray@@QAEAAV?$CStringT@_WV?$StrTraitMFC@_WV?$ChTraitsCRT@_W@ATL@@@@@ATL@@H@Z 00435100 f   uafxcwd:afxinl1.obj
 0001:00034120       ?GetCount@CPtrList@@QBEHXZ 00435120 f   uafxcwd:afxinl1.obj
 0001:00034140       ?GetSize@CPtrList@@QBEHXZ  00435140 f   uafxcwd:afxinl1.obj
 0001:00034160       ?IsEmpty@CPtrList@@QBEHXZ  00435160 f   uafxcwd:afxinl1.obj
 0001:00034180       ?GetHead@CPtrList@@QAEAAPAXXZ 00435180 f   uafxcwd:afxinl1.obj
 0001:000341c0       ?GetHead@CPtrList@@QBEPBXXZ 004351c0 f   uafxcwd:afxinl1.obj
 0001:00034200       ?GetTail@CPtrList@@QAEAAPAXXZ 00435200 f   uafxcwd:afxinl1.obj
 0001:00034240       ?GetTail@CPtrList@@QBEPBXXZ 00435240 f   uafxcwd:afxinl1.obj
 0001:00034280       ?GetHeadPosition@CPtrList@@QBEPAU__POSITION@@XZ 00435280 f   uafxcwd:afxinl1.obj
 0001:000342a0       ?GetTailPosition@CPtrList@@QBEPAU__POSITION@@XZ 004352a0 f   uafxcwd:afxinl1.obj
 0001:000342c0       ?GetNext@CPtrList@@QAEAAPAXAAPAU__POSITION@@@Z 004352c0 f   uafxcwd:afxinl1.obj
 0001:00034320       ?GetNext@CPtrList@@QBEPBXAAPAU__POSITION@@@Z 00435320 f   uafxcwd:afxinl1.obj
 0001:00034380       ?GetPrev@CPtrList@@QAEAAPAXAAPAU__POSITION@@@Z 00435380 f   uafxcwd:afxinl1.obj
 0001:000343e0       ?GetPrev@CPtrList@@QBEPBXAAPAU__POSITION@@@Z 004353e0 f   uafxcwd:afxinl1.obj
 0001:00034440       ?GetAt@CPtrList@@QAEAAPAXPAU__POSITION@@@Z 00435440 f   uafxcwd:afxinl1.obj
 0001:00034490       ?GetAt@CPtrList@@QBEPBXPAU__POSITION@@@Z 00435490 f   uafxcwd:afxinl1.obj
 0001:000344e0       ?SetAt@CPtrList@@QAEXPAU__POSITION@@PAX@Z 004354e0 f   uafxcwd:afxinl1.obj
 0001:00034530       ?GetCount@CObList@@QBEHXZ  00435530 f   uafxcwd:afxinl1.obj
 0001:00034550       ?GetSize@CObList@@QBEHXZ   00435550 f   uafxcwd:afxinl1.obj
 0001:00034570       ?IsEmpty@CObList@@QBEHXZ   00435570 f   uafxcwd:afxinl1.obj
 0001:00034590       ?GetHead@CObList@@QAEAAPAVCObject@@XZ 00435590 f   uafxcwd:afxinl1.obj
 0001:000345d0       ?GetHead@CObList@@QBEPBVCObject@@XZ 004355d0 f   uafxcwd:afxinl1.obj
 0001:00034610       ?GetTail@CObList@@QAEAAPAVCObject@@XZ 00435610 f   uafxcwd:afxinl1.obj
 0001:00034650       ?GetTail@CObList@@QBEPBVCObject@@XZ 00435650 f   uafxcwd:afxinl1.obj
 0001:00034690       ?GetHeadPosition@CObList@@QBEPAU__POSITION@@XZ 00435690 f   uafxcwd:afxinl1.obj
 0001:000346b0       ?GetTailPosition@CObList@@QBEPAU__POSITION@@XZ 004356b0 f   uafxcwd:afxinl1.obj
 0001:000346d0       ?GetNext@CObList@@QAEAAPAVCObject@@AAPAU__POSITION@@@Z 004356d0 f   uafxcwd:afxinl1.obj
 0001:00034730       ?GetNext@CObList@@QBEPBVCObject@@AAPAU__POSITION@@@Z 00435730 f   uafxcwd:afxinl1.obj
 0001:00034790       ?GetPrev@CObList@@QAEAAPAVCObject@@AAPAU__POSITION@@@Z 00435790 f   uafxcwd:afxinl1.obj
 0001:000347f0       ?GetPrev@CObList@@QBEPBVCObject@@AAPAU__POSITION@@@Z 004357f0 f   uafxcwd:afxinl1.obj
 0001:00034850       ?GetAt@CObList@@QAEAAPAVCObject@@PAU__POSITION@@@Z 00435850 f   uafxcwd:afxinl1.obj
 0001:000348a0       ?GetAt@CObList@@QBEPBVCObject@@PAU__POSITION@@@Z 004358a0 f   uafxcwd:afxinl1.obj
 0001:000348f0       ?SetAt@CObList@@QAEXPAU__POSITION@@PAVCObject@@@Z 004358f0 f   uafxcwd:afxinl1.obj
 0001:00034940       ?GetCount@CStringList@@QBEHXZ 00435940 f   uafxcwd:afxinl1.obj
 0001:00034960       ?GetSize@CStringList@@QBEHXZ 00435960 f   uafxcwd:afxinl1.obj
 0001:00034980       ?IsEmpty@CStringList@@QBEHXZ 00435980 f   uafxcwd:afxinl1.obj
 0001:000349a0       ?GetHead@CStringList@@QAEAAV?$CStringT@_WV?$StrTraitMFC@_WV?$ChTraitsCRT@_W@ATL@@@@@ATL@@XZ 004359a0 f   uafxcwd:afxinl1.obj
 0001:000349e0       ?GetHead@CStringList@@QBEABV?$CStringT@_WV?$StrTraitMFC@_WV?$ChTraitsCRT@_W@ATL@@@@@ATL@@XZ 004359e0 f   uafxcwd:afxinl1.obj
 0001:00034a20       ?GetTail@CStringList@@QAEAAV?$CStringT@_WV?$StrTraitMFC@_WV?$ChTraitsCRT@_W@ATL@@@@@ATL@@XZ 00435a20 f   uafxcwd:afxinl1.obj
 0001:00034a60       ?GetTail@CStringList@@QBEABV?$CStringT@_WV?$StrTraitMFC@_WV?$ChTraitsCRT@_W@ATL@@@@@ATL@@XZ 00435a60 f   uafxcwd:afxinl1.obj
 0001:00034aa0       ?GetHeadPosition@CStringList@@QBEPAU__POSITION@@XZ 00435aa0 f   uafxcwd:afxinl1.obj
 0001:00034ac0       ?GetTailPosition@CStringList@@QBEPAU__POSITION@@XZ 00435ac0 f   uafxcwd:afxinl1.obj
 0001:00034ae0       ?GetNext@CStringList@@QAEAAV?$CStringT@_WV?$StrTraitMFC@_WV?$ChTraitsCRT@_W@ATL@@@@@ATL@@AAPAU__POSITION@@@Z 00435ae0 f   uafxcwd:afxinl1.obj
 0001:00034b40       ?GetNext@CStringList@@QBEABV?$CStringT@_WV?$StrTraitMFC@_WV?$ChTraitsCRT@_W@ATL@@@@@ATL@@AAPAU__POSITION@@@Z 00435b40 f   uafxcwd:afxinl1.obj
 0001:00034ba0       ?GetPrev@CStringList@@QAEAAV?$CStringT@_WV?$StrTraitMFC@_WV?$ChTraitsCRT@_W@ATL@@@@@ATL@@AAPAU__POSITION@@@Z 00435ba0 f   uafxcwd:afxinl1.obj
 0001:00034c00       ?GetPrev@CStringList@@QBEABV?$CStringT@_WV?$StrTraitMFC@_WV?$ChTraitsCRT@_W@ATL@@@@@ATL@@AAPAU__POSITION@@@Z 00435c00 f   uafxcwd:afxinl1.obj
 0001:00034c60       ?GetAt@CStringList@@QAEAAV?$CStringT@_WV?$StrTraitMFC@_WV?$ChTraitsCRT@_W@ATL@@@@@ATL@@PAU__POSITION@@@Z 00435c60 f   uafxcwd:afxinl1.obj
 0001:00034cb0       ?GetAt@CStringList@@QBEABV?$CStringT@_WV?$StrTraitMFC@_WV?$ChTraitsCRT@_W@ATL@@@@@ATL@@PAU__POSITION@@@Z 00435cb0 f   uafxcwd:afxinl1.obj
 0001:00034d00       ?SetAt@CStringList@@QAEXPAU__POSITION@@PB_W@Z 00435d00 f   uafxcwd:afxinl1.obj
 0001:00034d60       ?SetAt@CStringList@@QAEXPAU__POSITION@@ABV?$CStringT@_WV?$StrTraitMFC@_WV?$ChTraitsCRT@_W@ATL@@@@@ATL@@@Z 00435d60 f   uafxcwd:afxinl1.obj
 0001:00034dc0       ?GetCount@CMapWordToPtr@@QBEHXZ 00435dc0 f   uafxcwd:afxinl1.obj
 0001:00034de0       ?GetSize@CMapWordToPtr@@QBEHXZ 00435de0 f   uafxcwd:afxinl1.obj
 0001:00034e00       ?IsEmpty@CMapWordToPtr@@QBEHXZ 00435e00 f   uafxcwd:afxinl1.obj
 0001:00034e20       ?SetAt@CMapWordToPtr@@QAEXGPAX@Z 00435e20 f   uafxcwd:afxinl1.obj
 0001:00034e50       ?GetStartPosition@CMapWordToPtr@@QBEPAU__POSITION@@XZ 00435e50 f   uafxcwd:afxinl1.obj
 0001:00034e70       ?GetHashTableSize@CMapWordToPtr@@QBEIXZ 00435e70 f   uafxcwd:afxinl1.obj
 0001:00034e90       ?GetCount@CMapPtrToWord@@QBEHXZ 00435e90 f   uafxcwd:afxinl1.obj
 0001:00034eb0       ?GetSize@CMapPtrToWord@@QBEHXZ 00435eb0 f   uafxcwd:afxinl1.obj
 0001:00034ed0       ?IsEmpty@CMapPtrToWord@@QBEHXZ 00435ed0 f   uafxcwd:afxinl1.obj
 0001:00034ef0       ?SetAt@CMapPtrToWord@@QAEXPAXG@Z 00435ef0 f   uafxcwd:afxinl1.obj
 0001:00034f20       ?GetStartPosition@CMapPtrToWord@@QBEPAU__POSITION@@XZ 00435f20 f   uafxcwd:afxinl1.obj
 0001:00034f40       ?GetHashTableSize@CMapPtrToWord@@QBEIXZ 00435f40 f   uafxcwd:afxinl1.obj
 0001:00034f60       ?GetCount@CMapPtrToPtr@@QBEHXZ 00435f60 f   uafxcwd:afxinl1.obj
 0001:00034f80       ?GetSize@CMapPtrToPtr@@QBEHXZ 00435f80 f   uafxcwd:afxinl1.obj
 0001:00034fa0       ?IsEmpty@CMapPtrToPtr@@QBEHXZ 00435fa0 f   uafxcwd:afxinl1.obj
 0001:00034fc0       ?SetAt@CMapPtrToPtr@@QAEXPAX0@Z 00435fc0 f   uafxcwd:afxinl1.obj
 0001:00034fe0       ?GetStartPosition@CMapPtrToPtr@@QBEPAU__POSITION@@XZ 00435fe0 f   uafxcwd:afxinl1.obj
 0001:00035000       ?GetHashTableSize@CMapPtrToPtr@@QBEIXZ 00436000 f   uafxcwd:afxinl1.obj
 0001:00035020       ?GetCount@CMapWordToOb@@QBEHXZ 00436020 f   uafxcwd:afxinl1.obj
 0001:00035040       ?GetSize@CMapWordToOb@@QBEHXZ 00436040 f   uafxcwd:afxinl1.obj
 0001:00035060       ?IsEmpty@CMapWordToOb@@QBEHXZ 00436060 f   uafxcwd:afxinl1.obj
 0001:00035080       ?SetAt@CMapWordToOb@@QAEXGPAVCObject@@@Z 00436080 f   uafxcwd:afxinl1.obj
 0001:000350b0       ?GetStartPosition@CMapWordToOb@@QBEPAU__POSITION@@XZ 004360b0 f   uafxcwd:afxinl1.obj
 0001:000350d0       ?GetHashTableSize@CMapWordToOb@@QBEIXZ 004360d0 f   uafxcwd:afxinl1.obj
 0001:000350f0       ?GetCount@CMapStringToPtr@@QBEHXZ 004360f0 f   uafxcwd:afxinl1.obj
 0001:00035110       ?GetSize@CMapStringToPtr@@QBEHXZ 00436110 f   uafxcwd:afxinl1.obj
 0001:00035130       ?IsEmpty@CMapStringToPtr@@QBEHXZ 00436130 f   uafxcwd:afxinl1.obj
 0001:00035150       ?SetAt@CMapStringToPtr@@QAEXPB_WPAX@Z 00436150 f   uafxcwd:afxinl1.obj
 0001:00035170       ?GetStartPosition@CMapStringToPtr@@QBEPAU__POSITION@@XZ 00436170 f   uafxcwd:afxinl1.obj
 0001:00035190       ?GetHashTableSize@CMapStringToPtr@@QBEIXZ 00436190 f   uafxcwd:afxinl1.obj
 0001:000351b0       ?GetCount@CMapStringToOb@@QBEHXZ 004361b0 f   uafxcwd:afxinl1.obj
 0001:000351d0       ?GetSize@CMapStringToOb@@QBEHXZ 004361d0 f   uafxcwd:afxinl1.obj
 0001:000351f0       ?IsEmpty@CMapStringToOb@@QBEHXZ 004361f0 f   uafxcwd:afxinl1.obj
 0001:00035210       ?SetAt@CMapStringToOb@@QAEXPB_WPAVCObject@@@Z 00436210 f   uafxcwd:afxinl1.obj
 0001:00035230       ?GetStartPosition@CMapStringToOb@@QBEPAU__POSITION@@XZ 00436230 f   uafxcwd:afxinl1.obj
 0001:00035250       ?GetHashTableSize@CMapStringToOb@@QBEIXZ 00436250 f   uafxcwd:afxinl1.obj
 0001:00035270       ?GetCount@CMapStringToString@@QBEHXZ 00436270 f   uafxcwd:afxinl1.obj
 0001:00035290       ?GetSize@CMapStringToString@@QBEHXZ 00436290 f   uafxcwd:afxinl1.obj
 0001:000352b0       ?IsEmpty@CMapStringToString@@QBEHXZ 004362b0 f   uafxcwd:afxinl1.obj
 0001:000352d0       ?SetAt@CMapStringToString@@QAEXPB_W0@Z 004362d0 f   uafxcwd:afxinl1.obj
 0001:00035300       ?GetStartPosition@CMapStringToString@@QBEPAU__POSITION@@XZ 00436300 f   uafxcwd:afxinl1.obj
 0001:00035320       ?GetHashTableSize@CMapStringToString@@QBEIXZ 00436320 f   uafxcwd:afxinl1.obj
 0001:00035340       ??0CCommonDialog@@QAE@PAVCWnd@@@Z 00436340 f   uafxcwd:afxinl1.obj
 0001:00035370       ?GetReadOnlyPref@CFileDialog@@QBEHXZ 00436370 f   uafxcwd:afxinl1.obj
 0001:000353a0       ?SetTemplate@CFileDialog@@QAEXII@Z 004363a0 f   uafxcwd:afxinl1.obj
 0001:000353d0       ?GetStartPosition@CFileDialog@@QBEPAU__POSITION@@XZ 004363d0 f   uafxcwd:afxinl1.obj
 0001:000353f0       ?GetFaceName@CFontDialog@@QBE?AV?$CStringT@_WV?$StrTraitMFC@_WV?$ChTraitsCRT@_W@ATL@@@@@ATL@@XZ 004363f0 f   uafxcwd:afxinl1.obj
 0001:00035430       ?GetStyleName@CFontDialog@@QBE?AV?$CStringT@_WV?$StrTraitMFC@_WV?$ChTraitsCRT@_W@ATL@@@@@ATL@@XZ 00436430 f   uafxcwd:afxinl1.obj
 0001:00035470       ?GetSize@CFontDialog@@QBEHXZ 00436470 f   uafxcwd:afxinl1.obj
 0001:00035490       ?GetWeight@CFontDialog@@QBEHXZ 00436490 f   uafxcwd:afxinl1.obj
 0001:000354b0       ?IsItalic@CFontDialog@@QBEHXZ 004364b0 f   uafxcwd:afxinl1.obj
 0001:000354d0       ?IsStrikeOut@CFontDialog@@QBEHXZ 004364d0 f   uafxcwd:afxinl1.obj
 0001:000354f0       ?IsBold@CFontDialog@@QBEHXZ 004364f0 f   uafxcwd:afxinl1.obj
 0001:00035520       ?IsUnderline@CFontDialog@@QBEHXZ 00436520 f   uafxcwd:afxinl1.obj
 0001:00035540       ?GetColor@CFontDialog@@QBEKXZ 00436540 f   uafxcwd:afxinl1.obj
 0001:00035560       ?GetColor@CColorDialog@@QBEKXZ 00436560 f   uafxcwd:afxinl1.obj
 0001:00035580       ?PrintSelection@CPrintDialog@@QBEHXZ 00436580 f   uafxcwd:afxinl1.obj
 0001:000355a0       ?PrintRange@CPrintDialog@@QBEHXZ 004365a0 f   uafxcwd:afxinl1.obj
 0001:000355c0       ?PrintAll@CPrintDialog@@QBEHXZ 004365c0 f   uafxcwd:afxinl1.obj
 0001:00035600       ?PrintCollate@CPrintDialog@@QBEHXZ 00436600 f   uafxcwd:afxinl1.obj
 0001:00035620       ?GetFromPage@CPrintDialog@@QBEHXZ 00436620 f   uafxcwd:afxinl1.obj
 0001:00035660       ?GetToPage@CPrintDialog@@QBEHXZ 00436660 f   uafxcwd:afxinl1.obj
 0001:000356a0       ?GetPrinterDC@CPrintDialog@@QBEPAUHDC__@@XZ 004366a0 f   uafxcwd:afxinl1.obj
 0001:000356f0       ?PrintSelection@CPrintDialogEx@@QBEHXZ 004366f0 f   uafxcwd:afxinl1.obj
 0001:00035710       ?PrintRange@CPrintDialogEx@@QBEHXZ 00436710 f   uafxcwd:afxinl1.obj
 0001:00035730       ?PrintCurrentPage@CPrintDialogEx@@QBEHXZ 00436730 f   uafxcwd:afxinl1.obj
 0001:00035760       ?PrintAll@CPrintDialogEx@@QBEHXZ 00436760 f   uafxcwd:afxinl1.obj
 0001:000357b0       ?PrintCollate@CPrintDialogEx@@QBEHXZ 004367b0 f   uafxcwd:afxinl1.obj
 0001:000357d0       ?GetPrinterDC@CPrintDialogEx@@QBEPAUHDC__@@XZ 004367d0 f   uafxcwd:afxinl1.obj
 0001:00035820       ?IsTerminating@CFindReplaceDialog@@QBEHXZ 00436820 f   uafxcwd:afxinl1.obj
 0001:00035840       ?GetReplaceString@CFindReplaceDialog@@QBE?AV?$CStringT@_WV?$StrTraitMFC@_WV?$ChTraitsCRT@_W@ATL@@@@@ATL@@XZ 00436840 f   uafxcwd:afxinl1.obj
 0001:00035880       ?GetFindString@CFindReplaceDialog@@QBE?AV?$CStringT@_WV?$StrTraitMFC@_WV?$ChTraitsCRT@_W@ATL@@@@@ATL@@XZ 00436880 f   uafxcwd:afxinl1.obj
 0001:000358c0       ?SearchDown@CFindReplaceDialog@@QBEHXZ 004368c0 f   uafxcwd:afxinl1.obj
 0001:000358e0       ?FindNext@CFindReplaceDialog@@QBEHXZ 004368e0 f   uafxcwd:afxinl1.obj
 0001:00035900       ?MatchCase@CFindReplaceDialog@@QBEHXZ 00436900 f   uafxcwd:afxinl1.obj
 0001:00035920       ?MatchWholeWord@CFindReplaceDialog@@QBEHXZ 00436920 f   uafxcwd:afxinl1.obj
 0001:00035940       ?ReplaceCurrent@CFindReplaceDialog@@QBEHXZ 00436940 f   uafxcwd:afxinl1.obj
 0001:00035960       ?ReplaceAll@CFindReplaceDialog@@QBEHXZ 00436960 f   uafxcwd:afxinl1.obj
 0001:00035980       ?MapDialogRect@CPropertySheet@@QBEXPAUtagRECT@@@Z 00436980 f   uafxcwd:afxinl1.obj
 0001:000359d0       ?GetPage@CPropertySheet@@QBEPAVCPropertyPage@@H@Z 004369d0 f   uafxcwd:afxinl1.obj
 0001:00035a40       ?SetWizardMode@CPropertySheet@@QAEXXZ 00436a40 f   uafxcwd:afxinl1.obj
 0001:00035a60       ?SetFinishText@CPropertySheet@@QAEXPB_W@Z 00436a60 f   uafxcwd:afxinl1.obj
 0001:00035ab0       ?SetWizardButtons@CPropertySheet@@QAEXK@Z 00436ab0 f   uafxcwd:afxinl1.obj
 0001:00035b00       ?GetTabControl@CPropertySheet@@QBEPAVCTabCtrl@@XZ 00436b00 f   uafxcwd:afxinl1.obj
 0001:00035b50       ?PressButton@CPropertySheet@@QAEXH@Z 00436b50 f   uafxcwd:afxinl1.obj
 0001:00035bb0       ?IsWizard@CPropertySheet@@QBEHXZ 00436bb0 f   uafxcwd:afxinl1.obj
 0001:00035bd0       ?IsModeless@CPropertySheet@@QBEHXZ 00436bd0 f   uafxcwd:afxinl1.obj
 0001:00035bf0       ?GetPaperSize@CPageSetupDialog@@QBE?AVCSize@@XZ 00436bf0 f   uafxcwd:afxinl1.obj
 0001:00035c20       ??0CCreateContext@@QAE@XZ  00436c20 f   uafxcwd:afxinl1.obj
 0001:00035c40       ?Create@CMetaFileDC@@QAEHPB_W@Z 00436c40 f   uafxcwd:afxinl1.obj
 0001:00035c70       ?Close@CMetaFileDC@@QAEPAUHMETAFILE__@@XZ 00436c70 f   uafxcwd:afxinl1.obj
 0001:00035c90       ?CreateEnhanced@CMetaFileDC@@QAEHPAVCDC@@PB_WPBUtagRECT@@1@Z 00436c90 f   uafxcwd:afxinl1.obj
 0001:00035cd0       ?CloseEnhanced@CMetaFileDC@@QAEPAUHENHMETAFILE__@@XZ 00436cd0 f   uafxcwd:afxinl1.obj
 0001:00035cf0       ?SetViewportOrg@CMetaFileDC@@QAE?AVCPoint@@UtagPOINT@@@Z 00436cf0 f   uafxcwd:afxinl1.obj
 0001:00035d40       ?SetViewportExt@CMetaFileDC@@QAE?AVCSize@@UtagSIZE@@@Z 00436d40 f   uafxcwd:afxinl1.obj
 0001:00035d90       ?TextOutW@CMetaFileDC@@QAEHHHABV?$CStringT@_WV?$StrTraitMFC@_WV?$ChTraitsCRT@_W@ATL@@@@@ATL@@@Z 00436d90 f   uafxcwd:afxinl1.obj
 0001:00035de0       ?ExtTextOutW@CMetaFileDC@@QAEHHHIPBUtagRECT@@ABV?$CStringT@_WV?$StrTraitMFC@_WV?$ChTraitsCRT@_W@ATL@@@@@ATL@@PAH@Z 00436de0 f   uafxcwd:afxinl1.obj
 0001:00035e40       ?TabbedTextOutW@CMetaFileDC@@QAE?AVCSize@@HHABV?$CStringT@_WV?$StrTraitMFC@_WV?$ChTraitsCRT@_W@ATL@@@@@ATL@@HPAHH@Z 00436e40 f   uafxcwd:afxinl1.obj
 0001:00035eb0       ?DrawTextW@CMetaFileDC@@QAEHABV?$CStringT@_WV?$StrTraitMFC@_WV?$ChTraitsCRT@_W@ATL@@@@@ATL@@PAUtagRECT@@I@Z 00436eb0 f   uafxcwd:afxinl1.obj
 0001:00035f00       ?DrawTextExW@CMetaFileDC@@QAEHABV?$CStringT@_WV?$StrTraitMFC@_WV?$ChTraitsCRT@_W@ATL@@@@@ATL@@PAUtagRECT@@IPAUtagDRAWTEXTPARAMS@@@Z 00436f00 f   uafxcwd:afxinl1.obj
 0001:00035f60       ?DrawText@CMetaFileDC@@QAEHPB_WHPAUtagRECT@@I@Z 00436f60 f   uafxcwd:afxinl1.obj
 0001:00035f90       ?DrawText@CMetaFileDC@@QAEHABV?$CStringT@_WV?$StrTraitMFC@_WV?$ChTraitsCRT@_W@ATL@@@@@ATL@@PAUtagRECT@@I@Z 00436f90 f   uafxcwd:afxinl1.obj
 0001:00035fc0       ?DrawTextEx@CMetaFileDC@@QAEHPA_WHPAUtagRECT@@IPAUtagDRAWTEXTPARAMS@@@Z 00436fc0 f   uafxcwd:afxinl1.obj
 0001:00035ff0       ?DrawTextEx@CMetaFileDC@@QAEHABV?$CStringT@_WV?$StrTraitMFC@_WV?$ChTraitsCRT@_W@ATL@@@@@ATL@@PAUtagRECT@@IPAUtagDRAWTEXTPARAMS@@@Z 00436ff0 f   uafxcwd:afxinl1.obj
 0001:00036020       ?PtVisible@CMetaFileDC@@QBEHUtagPOINT@@@Z 00437020 f   uafxcwd:afxinl1.obj
 0001:00036060       ?GetRowCount@CSplitterWnd@@QBEHXZ 00437060 f   uafxcwd:afxinl1.obj
 0001:00036080       ?GetColumnCount@CSplitterWnd@@QBEHXZ 00437080 f   uafxcwd:afxinl1.obj
 0001:000360a0       ?IsChildPane@CSplitterWnd@@QAEHPAVCWnd@@AAH1@Z 004370a0 f   uafxcwd:afxinl1.obj
 0001:000360d0       ?GetActivePane@CSplitterWnd@@IAEPAVCWnd@@AAH0@Z 004370d0 f   uafxcwd:afxinl1.obj
 0001:00036100       ?IsTracking@CSplitterWnd@@QAEHXZ 00437100 f   uafxcwd:afxinl1.obj
 0001:00036120       ?GetCount@CControlBar@@QBEHXZ 00437120 f   uafxcwd:afxinl1.obj
 0001:00036140       ?GetBarStyle@CControlBar@@QAEKXZ 00437140 f   uafxcwd:afxinl1.obj
 0001:00036160       ?SetBorders@CControlBar@@QAEXPBUtagRECT@@@Z 00437160 f   uafxcwd:afxinl1.obj
 0001:000361a0       ?GetBorders@CControlBar@@QBE?AVCRect@@XZ 004371a0 f   uafxcwd:afxinl1.obj
 0001:000361e0       ?LoadToolBar@CToolBar@@QAEHI@Z 004371e0 f   uafxcwd:afxinl1.obj
 0001:00036200       ?LoadBitmapW@CToolBar@@QAEHI@Z 00437200 f   uafxcwd:afxinl1.obj
 0001:00036220       ?GetToolBarCtrl@CToolBar@@QBEAAVCToolBarCtrl@@XZ 00437220 f   uafxcwd:afxinl1.obj
 0001:00036230       ?Create@CDialogBar@@UAEHPAVCWnd@@III@Z 00437230 f   uafxcwd:afxinl1.obj
 0001:00036260       ?GetStatusBarCtrl@CStatusBar@@QBEAAVCStatusBarCtrl@@XZ 00437260 f   uafxcwd:afxinl1.obj
 0001:00036270       ?SetBorders@CStatusBar@@QAEXPBUtagRECT@@@Z 00437270 f   uafxcwd:afxinl1.obj
 0001:000362b0       ?SetBorders@CStatusBar@@QAEXHHHH@Z 004372b0 f   uafxcwd:afxinl1.obj
 0001:000362f0       ?EnableDocking@CStatusBar@@QAEXK@Z 004372f0 f   uafxcwd:afxinl1.obj
 0001:00036320       ?GetReBarCtrl@CReBar@@QBEAAVCReBarCtrl@@XZ 00437320 f   uafxcwd:afxinl1.obj
 0001:00036330       ?GetReBarBandInfoSize@CReBar@@QBEIXZ 00437330 f   uafxcwd:afxinl1.obj
 0001:00036350       ?EnableDocking@CReBar@@QAEXK@Z 00437350 f   uafxcwd:afxinl1.obj
 0001:00036380       ??0CRectTracker@@QAE@XZ    00437380 f   uafxcwd:afxinl1.obj
 0001:000363d0       ??_GCRectTracker@@UAEPAXI@Z 004373d0 f i uafxcwd:afxinl1.obj
 0001:000363d0       ??_ECRectTracker@@UAEPAXI@Z 004373d0 f i uafxcwd:afxinl1.obj
 0001:00036400       ??0CBitmapButton@@QAE@XZ   00437400 f   uafxcwd:afxinl1.obj
 0001:000364a0       ??_GCBitmapButton@@UAEPAXI@Z 004374a0 f i uafxcwd:afxinl1.obj
 0001:000364a0       ??_ECBitmapButton@@UAEPAXI@Z 004374a0 f i uafxcwd:afxinl1.obj
 0001:000364d0       ??1CBitmapButton@@UAE@XZ   004374d0 f i uafxcwd:afxinl1.obj
 0001:00036560       ?LoadBitmaps@CBitmapButton@@QAEHIIII@Z 00437560 f   uafxcwd:afxinl1.obj
 0001:00036590       ?SetMinPage@CPrintInfo@@QAEXI@Z 00437590 f   uafxcwd:afxinl1.obj
 0001:000365b0       ?SetMaxPage@CPrintInfo@@QAEXI@Z 004375b0 f   uafxcwd:afxinl1.obj
 0001:000365d0       ?GetMinPage@CPrintInfo@@QBEIXZ 004375d0 f   uafxcwd:afxinl1.obj
 0001:000365f0       ?GetMaxPage@CPrintInfo@@QBEIXZ 004375f0 f   uafxcwd:afxinl1.obj
 0001:00036610       ?GetFromPage@CPrintInfo@@QBEIXZ 00437610 f   uafxcwd:afxinl1.obj
 0001:00036630       ?GetToPage@CPrintInfo@@QBEIXZ 00437630 f   uafxcwd:afxinl1.obj
 0001:00036650       ?GetEditCtrl@CEditView@@QBEAAVCEdit@@XZ 00437650 f   uafxcwd:afxinl1.obj
 0001:00036660       ??_ECCommonDialog@@UAEPAXI@Z 00437660 f i uafxcwd:afxinl1.obj
 0001:00036660       ??_GCCommonDialog@@UAEPAXI@Z 00437660 f i uafxcwd:afxinl1.obj
 0001:00036690       ??1CCommonDialog@@UAE@XZ   00437690 f i uafxcwd:afxinl1.obj
 0001:000366b0       _IsPlatformNT              004376b0 f   uafxcwd:wincore.obj
 0001:00036720       _InitMultipleMonitorStubs  00437720 f   uafxcwd:wincore.obj
 0001:000368d0       _xGetSystemMetrics@4       004378d0 f   uafxcwd:wincore.obj
 0001:00036950       _xMonitorFromPoint@12      00437950 f   uafxcwd:wincore.obj
 0001:000369b0       _xMonitorFromRect@8        004379b0 f   uafxcwd:wincore.obj
 0001:00036a20       _xMonitorFromWindow@8      00437a20 f   uafxcwd:wincore.obj
 0001:00036aa0       _xGetMonitorInfo@8         00437aa0 f   uafxcwd:wincore.obj
 0001:00036bc0       _xEnumDisplayMonitors@16   00437bc0 f   uafxcwd:wincore.obj
 0001:00036d00       _xEnumDisplayDevices@16    00437d00 f   uafxcwd:wincore.obj
 0001:00036da0       ??0CWnd@@QAE@XZ            00437da0 f   uafxcwd:wincore.obj
 0001:00036e50       ??_ECWnd@@UAEPAXI@Z        00437e50 f i uafxcwd:wincore.obj
 0001:00036e50       ??_GCWnd@@UAEPAXI@Z        00437e50 f i uafxcwd:wincore.obj
 0001:00036e80       ??0XAccessible@CWnd@@QAE@XZ 00437e80 f i uafxcwd:wincore.obj
 0001:00036ea0       ??0XAccessibleServer@CWnd@@QAE@XZ 00437ea0 f i uafxcwd:wincore.obj
 0001:00036ec0       ??0CWnd@@AAE@PAUHWND__@@@Z 00437ec0 f   uafxcwd:wincore.obj
 0001:00036f60       ?_AfxModifyStyle@@YGHPAUHWND__@@HKKI@Z 00437f60 f   uafxcwd:wincore.obj
 0001:00036ff0       ?ModifyStyle@CWnd@@SGHPAUHWND__@@KKI@Z 00437ff0 f   uafxcwd:wincore.obj
 0001:00037010       ?ModifyStyleEx@CWnd@@SGHPAUHWND__@@KKI@Z 00438010 f   uafxcwd:wincore.obj
 0001:00037030       ?_AfxPreInitDialog@@YGXPAVCWnd@@PAUtagRECT@@PAK@Z 00438030 f   uafxcwd:wincore.obj
 0001:00037080       ?_AfxPostInitDialog@@YGXPAVCWnd@@ABUtagRECT@@K@Z 00438080 f   uafxcwd:wincore.obj
 0001:00037120       ?_AfxHandleActivate@@YGXPAVCWnd@@I0@Z 00438120 f   uafxcwd:wincore.obj
 0001:000371c0       ?_AfxHandleSetCursor@@YGHPAVCWnd@@II@Z 004381c0 f   uafxcwd:wincore.obj
 0001:00037240       ?AfxCallWndProc@@YGJPAVCWnd@@PAUHWND__@@IIJ@Z 00438240 f   uafxcwd:wincore.obj
 0001:00037410       ?GetCurrentMessage@CWnd@@KGPBUtagMSG@@XZ 00438410 f   uafxcwd:wincore.obj
 0001:00037460       ?Default@CWnd@@IAEJXZ      00438460 f   uafxcwd:wincore.obj
 0001:000374b0       ?afxMapHWND@@YGPAVCHandleMap@@H@Z 004384b0 f   uafxcwd:wincore.obj
 0001:000375a0       ?FromHandle@CWnd@@SGPAV1@PAUHWND__@@@Z 004385a0 f   uafxcwd:wincore.obj
 0001:00037620       ?FromHandlePermanent@CWnd@@SGPAV1@PAUHWND__@@@Z 00438620 f   uafxcwd:wincore.obj
 0001:00037680       ?Attach@CWnd@@QAEHPAUHWND__@@@Z 00438680 f   uafxcwd:wincore.obj
 0001:00037730       ?Detach@CWnd@@QAEPAUHWND__@@XZ 00438730 f   uafxcwd:wincore.obj
 0001:00037790       ?PreSubclassWindow@CWnd@@UAEXXZ 00438790 f   uafxcwd:wincore.obj
 0001:000377a0       ?GetMenu@CWnd@@UBEPAVCMenu@@XZ 004387a0 f   uafxcwd:wincore.obj
 0001:000377f0       ?SetMenu@CWnd@@UAEHPAVCMenu@@@Z 004387f0 f   uafxcwd:wincore.obj
 0001:00037840       ?AfxWndProc@@YGJPAUHWND__@@IIJ@Z 00438840 f   uafxcwd:wincore.obj
 0001:000378f0       ?AfxGetAfxWndProc@@YGP6GJPAUHWND__@@IIJ@ZXZ 004388f0 f   uafxcwd:wincore.obj
 0001:00037900       ?_AfxActivationWndProc@@YGJPAUHWND__@@IIJ@Z 00438900 f   uafxcwd:wincore.obj
 0001:00037ba0       ?_AfxCbtFilterHook@@YGJHIJ@Z 00438ba0 f   uafxcwd:wincore.obj
 0001:00037fb0       ?AfxHookWindowCreate@@YGXPAVCWnd@@@Z 00438fb0 f   uafxcwd:wincore.obj
 0001:00038090       ?AfxUnhookWindowCreate@@YGHXZ 00439090 f   uafxcwd:wincore.obj
 0001:000380f0       ?CreateEx@CWnd@@UAEHKPB_W0KABUtagRECT@@PAV1@IPAX@Z 004390f0 f   uafxcwd:wincore.obj
 0001:00038160       ?CreateEx@CWnd@@UAEHKPB_W0KHHHHPAUHWND__@@PAUHMENU__@@PAX@Z 00439160 f   uafxcwd:wincore.obj
 0001:00038340       ?PreCreateWindow@CWnd@@UAEHAAUtagCREATESTRUCTW@@@Z 00439340 f   uafxcwd:wincore.obj
 0001:000383b0       ?Create@CWnd@@UAEHPB_W0KABUtagRECT@@PAV1@IPAUCCreateContext@@@Z 004393b0 f   uafxcwd:wincore.obj
 0001:00038450       ??1CWnd@@UAE@XZ            00439450 f   uafxcwd:wincore.obj
 0001:00038560       ?OnDestroy@CWnd@@IAEXXZ    00439560 f   uafxcwd:wincore.obj
 0001:000385f0       ?OnNcDestroy@CWnd@@IAEXXZ  004395f0 f   uafxcwd:wincore.obj
 0001:000387c0       ?PostNcDestroy@CWnd@@MAEXXZ 004397c0 f   uafxcwd:wincore.obj
 0001:000387d0       ?OnFinalRelease@CWnd@@UAEXXZ 004397d0 f   uafxcwd:wincore.obj
 0001:00038810       ?AssertValid@CWnd@@UBEXXZ  00439810 f   uafxcwd:wincore.obj
 0001:00038970       ?Dump@CWnd@@UBEXAAVCDumpContext@@@Z 00439970 f   uafxcwd:wincore.obj
 0001:00038bf0       ?DestroyWindow@CWnd@@UAEHXZ 00439bf0 f   uafxcwd:wincore.obj
 0001:00038d40       ?DefWindowProcW@CWnd@@MAEJIIJ@Z 00439d40 f   uafxcwd:wincore.obj
 0001:00038de0       ?GetSuperWndProcAddr@CWnd@@MAEPAP6GJPAUHWND__@@IIJ@ZXZ 00439de0 f   uafxcwd:wincore.obj
 0001:00038e00       ?PreTranslateMessage@CWnd@@UAEHPAUtagMSG@@@Z 00439e00 f   uafxcwd:wincore.obj
 0001:00038e40       ?CancelToolTips@CWnd@@SGXH@Z 00439e40 f   uafxcwd:wincore.obj
 0001:00038ec0       ?OnToolHitTest@CWnd@@UBEHVCPoint@@PAUtagTOOLINFOW@@@Z 00439ec0 f   uafxcwd:wincore.obj
 0001:00038f80       ?GetWindowTextW@CWnd@@QBEXAAV?$CStringT@_WV?$StrTraitMFC@_WV?$ChTraitsCRT@_W@ATL@@@@@ATL@@@Z 00439f80 f   uafxcwd:wincore.obj
 0001:00039020       ?GetDlgItemTextW@CWnd@@QBEHHAAV?$CStringT@_WV?$StrTraitMFC@_WV?$ChTraitsCRT@_W@ATL@@@@@ATL@@@Z 0043a020 f   uafxcwd:wincore.obj
 0001:000390f0       ?GetWindowPlacement@CWnd@@QBEHPAUtagWINDOWPLACEMENT@@@Z 0043a0f0 f   uafxcwd:wincore.obj
 0001:00039140       ?SetWindowPlacement@CWnd@@QAEHPBUtagWINDOWPLACEMENT@@@Z 0043a140 f   uafxcwd:wincore.obj
 0001:00039190       ?OnDrawItem@CWnd@@IAEXHPAUtagDRAWITEMSTRUCT@@@Z 0043a190 f   uafxcwd:wincore.obj
 0001:000391f0       ?OnCompareItem@CWnd@@IAEHHPAUtagCOMPAREITEMSTRUCT@@@Z 0043a1f0 f   uafxcwd:wincore.obj
 0001:00039230       ?OnDeleteItem@CWnd@@IAEXHPAUtagDELETEITEMSTRUCT@@@Z 0043a230 f   uafxcwd:wincore.obj
 0001:00039260       ?OnCharToItem@CWnd@@IAEHIPAVCListBox@@I@Z 0043a260 f   uafxcwd:wincore.obj
 0001:000392a0       ?OnVKeyToItem@CWnd@@IAEHIPAVCListBox@@I@Z 0043a2a0 f   uafxcwd:wincore.obj
 0001:000392e0       ?TrackPopupMenu@CMenu@@QAEHIHHPAVCWnd@@PBUtagRECT@@@Z 0043a2e0 f   uafxcwd:wincore.obj
 0001:00039380       ?TrackPopupMenuEx@CMenu@@QAEHIHHPAVCWnd@@PAUtagTPMPARAMS@@@Z 0043a380 f   uafxcwd:wincore.obj
 0001:00039420       ?_AfxFindPopupMenuFromID@@YGPAVCMenu@@PAV1@I@Z 0043a420 f   uafxcwd:wincore.obj
 0001:00039500       ?OnMeasureItem@CWnd@@IAEXHPAUtagMEASUREITEMSTRUCT@@@Z 0043a500 f   uafxcwd:wincore.obj
 0001:00039650       ?AfxRegisterClass@@YGHPAUtagWNDCLASSW@@@Z 0043a650 f   uafxcwd:wincore.obj
 0001:000397b0       ?AfxRegisterWndClass@@YGPB_WIPAUHICON__@@PAUHBRUSH__@@0@Z 0043a7b0 f   uafxcwd:wincore.obj
 0001:00039940       ?AtlCrtErrorCheck@ATL@@YAHH@Z 0043a940 f i uafxcwd:wincore.obj
 0001:00039a00       ?OnNTCtlColor@CWnd@@IAEJIJ@Z 0043aa00 f   uafxcwd:wincore.obj
 0001:00039a70       ?WinHelpW@CWnd@@UAEXKI@Z   0043aa70 f   uafxcwd:wincore.obj
 0001:00039ba0       ?HtmlHelpW@CWnd@@UAEXKI@Z  0043aba0 f   uafxcwd:wincore.obj
 0001:00039cd0       ?PrepareForHelp@CWnd@@QAEXXZ 0043acd0 f   uafxcwd:wincore.obj
 0001:00039d80       ??1_AFX_HTMLHELP_STATE@@UAE@XZ 0043ad80 f   uafxcwd:wincore.obj
 0001:00039dc0       ??1CNoTrackObject@@UAE@XZ  0043adc0 f i uafxcwd:wincore.obj
 0001:00039de0       ??_GCNoTrackObject@@UAEPAXI@Z 0043ade0 f i uafxcwd:wincore.obj
 0001:00039de0       ??_ECNoTrackObject@@UAEPAXI@Z 0043ade0 f i uafxcwd:wincore.obj
 0001:00039e10       ??_E_AFX_HTMLHELP_STATE@@UAEPAXI@Z 0043ae10 f i uafxcwd:wincore.obj
 0001:00039e10       ??_G_AFX_HTMLHELP_STATE@@UAEPAXI@Z 0043ae10 f i uafxcwd:wincore.obj
 0001:00039e40       ?AfxHtmlHelp@@YGPAUHWND__@@PAU1@PB_WIK@Z 0043ae40 f   uafxcwd:wincore.obj
 0001:00039f10       ?WinHelpInternal@CWnd@@UAEXKI@Z 0043af10 f   uafxcwd:wincore.obj
 0001:00039fd0       ?GetMessageMap@CWnd@@MBEPBUAFX_MSGMAP@@XZ 0043afd0 f   uafxcwd:wincore.obj
 0001:00039ff0       ?GetThisMessageMap@CWnd@@KGPBUAFX_MSGMAP@@XZ 0043aff0 f   uafxcwd:wincore.obj
 0001:0003a000       ?AfxFindMessageEntry@@YGPBUAFX_MSGMAP_ENTRY@@PBU1@III@Z 0043b000 f   uafxcwd:wincore.obj
 0001:0003a050       ?AfxResetMsgCache@@YGXXZ   0043b050 f   uafxcwd:wincore.obj
 0001:0003a070       ?WindowProc@CWnd@@MAEJIIJ@Z 0043b070 f   uafxcwd:wincore.obj
 0001:0003a0d0       ?OnWndMsg@CWnd@@MAEHIIJPAJ@Z 0043b0d0 f   uafxcwd:wincore.obj
 0001:0003b2f0       ??0CTestCmdUI@@QAE@XZ      0043c2f0 f   uafxcwd:wincore.obj
 0001:0003b320       ?Enable@CTestCmdUI@@UAEXH@Z 0043c320 f   uafxcwd:wincore.obj
 0001:0003b350       ?SetCheck@CTestCmdUI@@UAEXH@Z 0043c350 f   uafxcwd:wincore.obj
 0001:0003b360       ?SetRadio@CTestCmdUI@@UAEXH@Z 0043c360 f   uafxcwd:wincore.obj
 0001:0003b370       ?SetText@CTestCmdUI@@UAEXPB_W@Z 0043c370 f   uafxcwd:wincore.obj
 0001:0003b380       ?OnCommand@CWnd@@MAEHIJ@Z  0043c380 f   uafxcwd:wincore.obj
 0001:0003b500       ?OnNotify@CWnd@@MAEHIJPAJ@Z 0043c500 f   uafxcwd:wincore.obj
 0001:0003b600       ?GetParentFrame@CWnd@@QBEPAVCFrameWnd@@XZ 0043c600 f   uafxcwd:wincore.obj
 0001:0003b670       ?AfxGetParentOwner@@YGPAUHWND__@@PAU1@@Z 0043c670 f   uafxcwd:wincore.obj
 0001:0003b6e0       ?GetTopLevelParent@CWnd@@QBEPAV1@XZ 0043c6e0 f   uafxcwd:wincore.obj
 0001:0003b740       ?GetTopLevelOwner@CWnd@@QBEPAV1@XZ 0043c740 f   uafxcwd:wincore.obj
 0001:0003b7b0       ?GetParentOwner@CWnd@@QBEPAV1@XZ 0043c7b0 f   uafxcwd:wincore.obj
 0001:0003b830       ?IsTopParentActive@CWnd@@QBEHXZ 0043c830 f   uafxcwd:wincore.obj
 0001:0003b8a0       ?ActivateTopParent@CWnd@@QAEXXZ 0043c8a0 f   uafxcwd:wincore.obj
 0001:0003b900       ?GetTopLevelFrame@CWnd@@QBEPAVCFrameWnd@@XZ 0043c900 f   uafxcwd:wincore.obj
 0001:0003b980       ?GetSafeOwner@CWnd@@SGPAV1@PAV1@PAPAUHWND__@@@Z 0043c980 f   uafxcwd:wincore.obj
 0001:0003b9b0       ?MessageBoxW@CWnd@@QAEHPB_W0I@Z 0043c9b0 f   uafxcwd:wincore.obj
 0001:0003ba00       ?GetDescendantWindow@CWnd@@SGPAV1@PAUHWND__@@HH@Z 0043ca00 f   uafxcwd:wincore.obj
 0001:0003bad0       ?GetNextWindow@@YAPAUHWND__@@PAU1@I@Z 0043cad0 f i uafxcwd:wincore.obj
 0001:0003baf0       ?SendMessageToDescendants@CWnd@@SGXPAUHWND__@@IIJHH@Z 0043caf0 f   uafxcwd:wincore.obj
 0001:0003bbb0       ?GetScrollBarCtrl@CWnd@@UBEPAVCScrollBar@@H@Z 0043cbb0 f   uafxcwd:wincore.obj
 0001:0003bbd0       ?SetScrollPos@CWnd@@QAEHHHH@Z 0043cbd0 f   uafxcwd:wincore.obj
 0001:0003bc30       ?GetScrollPos@CWnd@@QBEHH@Z 0043cc30 f   uafxcwd:wincore.obj
 0001:0003bc80       ?SetScrollRange@CWnd@@QAEXHHHH@Z 0043cc80 f   uafxcwd:wincore.obj
 0001:0003bcf0       ?GetScrollRange@CWnd@@QBEXHPAH0@Z 0043ccf0 f   uafxcwd:wincore.obj
 0001:0003bd50       ?EnableScrollBarCtrl@CWnd@@QAEXHH@Z 0043cd50 f   uafxcwd:wincore.obj
 0001:0003bdc0       ?SetScrollInfo@CWnd@@QAEHHPAUtagSCROLLINFO@@H@Z 0043cdc0 f   uafxcwd:wincore.obj
 0001:0003be50       ?GetScrollInfo@CWnd@@QAEHHPAUtagSCROLLINFO@@I@Z 0043ce50 f   uafxcwd:wincore.obj
 0001:0003bee0       ?GetScrollLimit@CWnd@@QAEHH@Z 0043cee0 f   uafxcwd:wincore.obj
 0001:0003bf50       ?ScrollWindow@CWnd@@QAEXHHPBUtagRECT@@0@Z 0043cf50 f   uafxcwd:wincore.obj
 0001:0003c060       ?RepositionBars@CWnd@@QAEXIIIIPAUtagRECT@@PBU2@H@Z 0043d060 f   uafxcwd:wincore.obj
 0001:0003c2e0       ?AfxRepositionWindow@@YGXPAUAFX_SIZEPARENTPARAMS@@PAUHWND__@@PBUtagRECT@@@Z 0043d2e0 f   uafxcwd:wincore.obj
 0001:0003c440       ?CalcWindowRect@CWnd@@UAEXPAUtagRECT@@I@Z 0043d440 f   uafxcwd:wincore.obj
 0001:0003c490       ?HandleFloatingSysCommand@CWnd@@QAEHIJ@Z 0043d490 f   uafxcwd:wincore.obj
 0001:0003c670       ?WalkPreTranslateTree@CWnd@@SGHPAUHWND__@@PAUtagMSG@@@Z 0043d670 f   uafxcwd:wincore.obj
 0001:0003c720       ?SendChildNotifyLastMsg@CWnd@@QAEHPAJ@Z 0043d720 f   uafxcwd:wincore.obj
 0001:0003c770       ?ReflectLastMsg@CWnd@@KGHPAUHWND__@@PAJ@Z 0043d770 f   uafxcwd:wincore.obj
 0001:0003c8c0       ?OnChildNotify@CWnd@@MAEHIIJPAJ@Z 0043d8c0 f   uafxcwd:wincore.obj
 0001:0003c940       ?ReflectChildNotify@CWnd@@IAEHIIJPAJ@Z 0043d940 f   uafxcwd:wincore.obj
 0001:0003cb10       ?OnParentNotify@CWnd@@IAEXIJ@Z 0043db10 f   uafxcwd:wincore.obj
 0001:0003cb60       ?OnSetFocus@CWnd@@IAEXPAV1@@Z 0043db60 f   uafxcwd:wincore.obj
 0001:0003cbb0       ?OnActivateTopLevel@CWnd@@IAEJIJ@Z 0043dbb0 f   uafxcwd:wincore.obj
 0001:0003cc00       ?OnSysColorChange@CWnd@@IAEXXZ 0043dc00 f   uafxcwd:wincore.obj
 0001:0003cc60       ?OnSettingChange@CWnd@@IAEXIPB_W@Z 0043dc60 f   uafxcwd:wincore.obj
 0001:0003ccb0       ?OnDevModeChange@CWnd@@IAEXPA_W@Z 0043dcb0 f   uafxcwd:wincore.obj
 0001:0003cd20       ?OnHelpInfo@CWnd@@IAEHPAUtagHELPINFO@@@Z 0043dd20 f   uafxcwd:wincore.obj
 0001:0003cdb0       ?OnDisplayChange@CWnd@@IAEJIJ@Z 0043ddb0 f   uafxcwd:wincore.obj
 0001:0003ce20       ?OnDragList@CWnd@@IAEJIJ@Z 0043de20 f   uafxcwd:wincore.obj
 0001:0003ce80       ?OnGetObject@CWnd@@IAEJIJ@Z 0043de80 f   uafxcwd:wincore.obj
 0001:0003cee0       ?GetInterfaceMap@CWnd@@MBEPBUAFX_INTERFACEMAP@@XZ 0043dee0 f   uafxcwd:wincore.obj
 0001:0003cf00       ?AddRef@XAccessible@CWnd@@UAGKXZ 0043df00 f   uafxcwd:wincore.obj
 0001:0003cf80       ?Release@XAccessible@CWnd@@UAGKXZ 0043df80 f   uafxcwd:wincore.obj
 0001:0003d000       ?QueryInterface@XAccessible@CWnd@@UAGJABU_GUID@@PAPAX@Z 0043e000 f   uafxcwd:wincore.obj
 0001:0003d090       ?Invoke@XAccessible@CWnd@@UAGJJABU_GUID@@KGPAUtagDISPPARAMS@@PAUtagVARIANT@@PAUtagEXCEPINFO@@PAI@Z 0043e090 f   uafxcwd:wincore.obj
 0001:0003d130       ?AtlIAccessibleInvokeHelper@ATL@@YGJPAUIAccessible@@JABU_GUID@@KGPAUtagDISPPARAMS@@PAUtagVARIANT@@PAUtagEXCEPINFO@@PAI@Z 0043e130 f i uafxcwd:wincore.obj
 0001:0003dfa0       ?GetIDsOfNames@XAccessible@CWnd@@UAGJABU_GUID@@PAPA_WIKPAJ@Z 0043efa0 f   uafxcwd:wincore.obj
 0001:0003dfd0       ?AtlIAccessibleGetIDsOfNamesHelper@ATL@@YGJABU_GUID@@PAPA_WIKPAJ@Z 0043efd0 f i uafxcwd:wincore.obj
 0001:0003e060       ?GetTypeInfoCount@XAccessible@CWnd@@UAGJPAI@Z 0043f060 f   uafxcwd:wincore.obj
 0001:0003e090       ?GetTypeInfo@XAccessible@CWnd@@UAGJIKPAPAUITypeInfo@@@Z 0043f090 f   uafxcwd:wincore.obj
 0001:0003e0a0       ?get_accParent@XAccessible@CWnd@@UAGJPAPAUIDispatch@@@Z 0043f0a0 f   uafxcwd:wincore.obj
 0001:0003e130       ?get_accChildCount@XAccessible@CWnd@@UAGJPAJ@Z 0043f130 f   uafxcwd:wincore.obj
 0001:0003e1c0       ?get_accChild@XAccessible@CWnd@@UAGJUtagVARIANT@@PAPAUIDispatch@@@Z 0043f1c0 f   uafxcwd:wincore.obj
 0001:0003e270       ?get_accName@XAccessible@CWnd@@UAGJUtagVARIANT@@PAPA_W@Z 0043f270 f   uafxcwd:wincore.obj
 0001:0003e320       ?get_accValue@XAccessible@CWnd@@UAGJUtagVARIANT@@PAPA_W@Z 0043f320 f   uafxcwd:wincore.obj
 0001:0003e3d0       ?get_accDescription@XAccessible@CWnd@@UAGJUtagVARIANT@@PAPA_W@Z 0043f3d0 f   uafxcwd:wincore.obj
 0001:0003e480       ?get_accRole@XAccessible@CWnd@@UAGJUtagVARIANT@@PAU3@@Z 0043f480 f   uafxcwd:wincore.obj
 0001:0003e530       ?get_accState@XAccessible@CWnd@@UAGJUtagVARIANT@@PAU3@@Z 0043f530 f   uafxcwd:wincore.obj
 0001:0003e5e0       ?get_accHelp@XAccessible@CWnd@@UAGJUtagVARIANT@@PAPA_W@Z 0043f5e0 f   uafxcwd:wincore.obj
 0001:0003e690       ?get_accHelpTopic@XAccessible@CWnd@@UAGJPAPA_WUtagVARIANT@@PAJ@Z 0043f690 f   uafxcwd:wincore.obj
 0001:0003e740       ?get_accKeyboardShortcut@XAccessible@CWnd@@UAGJUtagVARIANT@@PAPA_W@Z 0043f740 f   uafxcwd:wincore.obj
 0001:0003e7f0       ?get_accFocus@XAccessible@CWnd@@UAGJPAUtagVARIANT@@@Z 0043f7f0 f   uafxcwd:wincore.obj
 0001:0003e880       ?get_accSelection@XAccessible@CWnd@@UAGJPAUtagVARIANT@@@Z 0043f880 f   uafxcwd:wincore.obj
 0001:0003e910       ?get_accDefaultAction@XAccessible@CWnd@@UAGJUtagVARIANT@@PAPA_W@Z 0043f910 f   uafxcwd:wincore.obj
 0001:0003e9c0       ?accSelect@XAccessible@CWnd@@UAGJJUtagVARIANT@@@Z 0043f9c0 f   uafxcwd:wincore.obj
 0001:0003ea70       ?accLocation@XAccessible@CWnd@@UAGJPAJ000UtagVARIANT@@@Z 0043fa70 f   uafxcwd:wincore.obj
 0001:0003eb20       ?accNavigate@XAccessible@CWnd@@UAGJJUtagVARIANT@@PAU3@@Z 0043fb20 f   uafxcwd:wincore.obj
 0001:0003ebd0       ?accHitTest@XAccessible@CWnd@@UAGJJJPAUtagVARIANT@@@Z 0043fbd0 f   uafxcwd:wincore.obj
 0001:0003ec60       ?accDoDefaultAction@XAccessible@CWnd@@UAGJUtagVARIANT@@@Z 0043fc60 f   uafxcwd:wincore.obj
 0001:0003ed00       ?put_accName@XAccessible@CWnd@@UAGJUtagVARIANT@@PA_W@Z 0043fd00 f   uafxcwd:wincore.obj
 0001:0003edb0       ?put_accValue@XAccessible@CWnd@@UAGJUtagVARIANT@@PA_W@Z 0043fdb0 f   uafxcwd:wincore.obj
 0001:0003ee60       ?AddRef@XAccessibleServer@CWnd@@UAGKXZ 0043fe60 f   uafxcwd:wincore.obj
 0001:0003eee0       ?Release@XAccessibleServer@CWnd@@UAGKXZ 0043fee0 f   uafxcwd:wincore.obj
 0001:0003ef60       ?QueryInterface@XAccessibleServer@CWnd@@UAGJABU_GUID@@PAPAX@Z 0043ff60 f   uafxcwd:wincore.obj
 0001:0003eff0       ?SetProxy@XAccessibleServer@CWnd@@UAGJPAUIAccessibleProxy@@@Z 0043fff0 f   uafxcwd:wincore.obj
 0001:0003f080       ?GetHWND@XAccessibleServer@CWnd@@UAGJPAPAUHWND__@@@Z 00440080 f   uafxcwd:wincore.obj
 0001:0003f0e0       ?GetEnumVariant@XAccessibleServer@CWnd@@UAGJPAPAUIEnumVARIANT@@@Z 004400e0 f   uafxcwd:wincore.obj
 0001:0003f110       ?EnsureStdObj@CWnd@@UAEJXZ 00440110 f   uafxcwd:wincore.obj
 0001:0003f160       ?get_accParent@CWnd@@UAEJPAPAUIDispatch@@@Z 00440160 f   uafxcwd:wincore.obj
 0001:0003f1b0       ?get_accChildCount@CWnd@@UAEJPAJ@Z 004401b0 f   uafxcwd:wincore.obj
 0001:0003f200       ?get_accChild@CWnd@@UAEJUtagVARIANT@@PAPAUIDispatch@@@Z 00440200 f   uafxcwd:wincore.obj
 0001:0003f260       ?get_accName@CWnd@@UAEJUtagVARIANT@@PAPA_W@Z 00440260 f   uafxcwd:wincore.obj
 0001:0003f2c0       ?get_accValue@CWnd@@UAEJUtagVARIANT@@PAPA_W@Z 004402c0 f   uafxcwd:wincore.obj
 0001:0003f310       ?get_accDescription@CWnd@@UAEJUtagVARIANT@@PAPA_W@Z 00440310 f   uafxcwd:wincore.obj
 0001:0003f360       ?get_accRole@CWnd@@UAEJUtagVARIANT@@PAU2@@Z 00440360 f   uafxcwd:wincore.obj
 0001:0003f3c0       ?get_accState@CWnd@@UAEJUtagVARIANT@@PAU2@@Z 004403c0 f   uafxcwd:wincore.obj
 0001:0003f420       ?get_accHelp@CWnd@@UAEJUtagVARIANT@@PAPA_W@Z 00440420 f   uafxcwd:wincore.obj
 0001:0003f480       ?get_accHelpTopic@CWnd@@UAEJPAPA_WUtagVARIANT@@PAJ@Z 00440480 f   uafxcwd:wincore.obj
 0001:0003f4f0       ?get_accKeyboardShortcut@CWnd@@UAEJUtagVARIANT@@PAPA_W@Z 004404f0 f   uafxcwd:wincore.obj
 0001:0003f550       ?get_accFocus@CWnd@@UAEJPAUtagVARIANT@@@Z 00440550 f   uafxcwd:wincore.obj
 0001:0003f5a0       ?get_accSelection@CWnd@@UAEJPAUtagVARIANT@@@Z 004405a0 f   uafxcwd:wincore.obj
 0001:0003f5f0       ?get_accDefaultAction@CWnd@@UAEJUtagVARIANT@@PAPA_W@Z 004405f0 f   uafxcwd:wincore.obj
 0001:0003f650       ?accSelect@CWnd@@UAEJJUtagVARIANT@@@Z 00440650 f   uafxcwd:wincore.obj
 0001:0003f6b0       ?accLocation@CWnd@@UAEJPAJ000UtagVARIANT@@@Z 004406b0 f   uafxcwd:wincore.obj
 0001:0003f720       ?accNavigate@CWnd@@UAEJJUtagVARIANT@@PAU2@@Z 00440720 f   uafxcwd:wincore.obj
 0001:0003f790       ?accHitTest@CWnd@@UAEJJJPAUtagVARIANT@@@Z 00440790 f   uafxcwd:wincore.obj
 0001:0003f7e0       ?accDoDefaultAction@CWnd@@UAEJUtagVARIANT@@@Z 004407e0 f   uafxcwd:wincore.obj
 0001:0003f840       ?put_accName@CWnd@@UAEJUtagVARIANT@@PA_W@Z 00440840 f   uafxcwd:wincore.obj
 0001:0003f8a0       ?put_accValue@CWnd@@UAEJUtagVARIANT@@PA_W@Z 004408a0 f   uafxcwd:wincore.obj
 0001:0003f900       ?SetProxy@CWnd@@UAEJPAUIAccessibleProxy@@@Z 00440900 f   uafxcwd:wincore.obj
 0001:0003f920       ?CreateAccessibleProxy@CWnd@@UAEJIJPAJ@Z 00440920 f   uafxcwd:wincore.obj
 0001:0003fa90       ??1?$CComPtr@UIAccessibleProxy@@@ATL@@QAE@XZ 00440a90 f i uafxcwd:wincore.obj
 0001:0003fab0       ?GetWindowLessChildCount@CWnd@@QAEJXZ 00440ab0 f   uafxcwd:wincore.obj
 0001:0003fb40       ?GetWindowedChildCount@CWnd@@QAEJXZ 00440b40 f   uafxcwd:wincore.obj
 0001:0003fb90       ?GetAccessibleChildCount@CWnd@@QAEJXZ 00440b90 f   uafxcwd:wincore.obj
 0001:0003fbc0       ?GetAccessibleChild@CWnd@@QAEJUtagVARIANT@@PAPAUIDispatch@@@Z 00440bc0 f   uafxcwd:wincore.obj
 0001:0003fc60       ?GetAccessibleName@CWnd@@QAEJUtagVARIANT@@PAPA_W@Z 00440c60 f   uafxcwd:wincore.obj
 0001:0003fde0       ?GetAccessibilityLocation@CWnd@@QAEJUtagVARIANT@@PAJ111@Z 00440de0 f   uafxcwd:wincore.obj
 0001:0003ff30       ?GetAccessibilityHitTest@CWnd@@QAEJJJPAUtagVARIANT@@@Z 00440f30 f   uafxcwd:wincore.obj
 0001:00040050       ?OnHScroll@CWnd@@IAEXIIPAVCScrollBar@@@Z 00441050 f   uafxcwd:wincore.obj
 0001:00040080       ?OnVScroll@CWnd@@IAEXIIPAVCScrollBar@@@Z 00441080 f   uafxcwd:wincore.obj
 0001:000400b0       ?OnPaint@CWnd@@IAEXXZ      004410b0 f   uafxcwd:wincore.obj
 0001:00040150       ?OnEnterIdle@CWnd@@IAEXIPAV1@@Z 00441150 f   uafxcwd:wincore.obj
 0001:000401a0       ?OnCtlColor@CWnd@@IAEPAUHBRUSH__@@PAVCDC@@PAV1@I@Z 004411a0 f   uafxcwd:wincore.obj
 0001:00040200       ?GrayCtlColor@CWnd@@SGHPAUHDC__@@PAUHWND__@@IPAUHBRUSH__@@K@Z 00441200 f   uafxcwd:wincore.obj
 0001:000402e0       ?UpdateData@CWnd@@QAEHH@Z  004412e0 f   uafxcwd:wincore.obj
 0001:000404a0       ??0CDataExchange@@QAE@PAVCWnd@@H@Z 004414a0 f   uafxcwd:wincore.obj
 0001:000404e0       ?CenterWindow@CWnd@@QAEXPAV1@@Z 004414e0 f   uafxcwd:wincore.obj
 0001:000407b0       ?CheckAutoCenter@CWnd@@UAEHXZ 004417b0 f   uafxcwd:wincore.obj
 0001:000407d0       ?ExecuteDlgInit@CWnd@@QAEHPB_W@Z 004417d0 f   uafxcwd:wincore.obj
 0001:00040890       ?UnlockResource@@YGHPAX@Z  00441890 f i uafxcwd:wincore.obj
 0001:000408a0       ?ExecuteDlgInit@CWnd@@QAEHPAX@Z 004418a0 f   uafxcwd:wincore.obj
 0001:00040b00       ?UpdateDialogControls@CWnd@@QAEXPAVCCmdTarget@@H@Z 00441b00 f   uafxcwd:wincore.obj
 0001:00040cd0       ?PreTranslateInput@CWnd@@QAEHPAUtagMSG@@@Z 00441cd0 f   uafxcwd:wincore.obj
 0001:00040d50       ?RunModalLoop@CWnd@@QAEHK@Z 00441d50 f   uafxcwd:wincore.obj
 0001:00040ff0       ?ContinueModal@CWnd@@UAEHXZ 00441ff0 f   uafxcwd:wincore.obj
 0001:00041010       ?EndModalLoop@CWnd@@UAEXH@Z 00442010 f   uafxcwd:wincore.obj
 0001:00041080       ?SetOccDialogInfo@CWnd@@MAEHPAU_AFX_OCC_DIALOG_INFO@@@Z 00442080 f   uafxcwd:wincore.obj
 0001:000410b0       ?GetOccDialogInfo@CWnd@@MAEPAU_AFX_OCC_DIALOG_INFO@@XZ 004420b0 f   uafxcwd:wincore.obj
 0001:000410c0       ?_AfxRegisterWithIcon@@YGHPAUtagWNDCLASSW@@PB_WI@Z 004420c0 f   uafxcwd:wincore.obj
 0001:00041120       ?_AfxInitCommonControls@@YGJPAUtagINITCOMMONCONTROLSEX@@J@Z 00442120 f   uafxcwd:wincore.obj
 0001:000411a0       ??BInitCommonControlsEx_Type@CComCtlWrapper@@QAEP6GHPAUtagINITCOMMONCONTROLSEX@@@ZXZ 004421a0 f i uafxcwd:wincore.obj
 0001:000411c0       ?GetProcAddress_InitCommonControlsEx@CComCtlWrapper@@QAE?AUInitCommonControlsEx_Type@1@XZ 004421c0 f i uafxcwd:wincore.obj
 0001:00041210       ??4InitCommonControlsEx_Type@CComCtlWrapper@@QAEXP6GHPAUtagINITCOMMONCONTROLSEX@@@Z@Z 00442210 f i uafxcwd:wincore.obj
 0001:00041230       ??7InitCommonControlsEx_Type@CComCtlWrapper@@QBE_NXZ 00442230 f i uafxcwd:wincore.obj
 0001:00041250       ?AfxEndDeferRegisterClass@@YGHJ@Z 00442250 f   uafxcwd:wincore.obj
 0001:00041640       ?AfxInitNetworkAddressControl@@YGHXZ 00442640 f   uafxcwd:wincore.obj
 0001:00041760       ?IsFrameWnd@CWnd@@UBEHXZ   00442760 f   uafxcwd:wincore.obj
 0001:00041770       ?IsFrameWnd@CFrameWnd@@UBEHXZ 00442770 f   uafxcwd:wincore.obj
 0001:00041790       ?IsTracking@CFrameWnd@@QBEHXZ 00442790 f   uafxcwd:wincore.obj
 0001:000417e0       ?SubclassWindow@CWnd@@QAEHPAUHWND__@@@Z 004427e0 f   uafxcwd:wincore.obj
 0001:00041960       ?SubclassDlgItem@CWnd@@QAEHIPAV1@@Z 00442960 f   uafxcwd:wincore.obj
 0001:00041a80       ?UnsubclassWindow@CWnd@@QAEPAUHWND__@@XZ 00442a80 f   uafxcwd:wincore.obj
 0001:00041af0       ?CreateControlContainer@CWnd@@MAEHPAPAVCOleControlContainer@@@Z 00442af0 f   uafxcwd:wincore.obj
 0001:00041b50       ?CreateControlSite@CWnd@@MAEHPAVCOleControlContainer@@PAPAVCOleControlSite@@IABU_GUID@@@Z 00442b50 f   uafxcwd:wincore.obj
 0001:00041bb0       ?GetControlContainer@CWnd@@QAEPAVCOleControlContainer@@XZ 00442bb0 f   uafxcwd:wincore.obj
 0001:00041bd0       ?CreateObject@CWnd@@SGPAVCObject@@XZ 00442bd0 f   uafxcwd:wincore.obj
 0001:00041c50       ?GetRuntimeClass@CWnd@@UBEPAUCRuntimeClass@@XZ 00442c50 f   uafxcwd:wincore.obj
 0001:00041c70       ??Y?$CStringT@_WV?$StrTraitMFC@_WV?$ChTraitsCRT@_W@ATL@@@@@ATL@@QAEAAV01@D@Z 00442c70 f i uafxcwd:wincore.obj
 0001:00041c90       ?AllocSysString@?$CStringT@_WV?$StrTraitMFC@_WV?$ChTraitsCRT@_W@ATL@@@@@ATL@@QBEPA_WXZ 00442c90 f i uafxcwd:wincore.obj
 0001:00041cd0       ?AllocSysString@?$ChTraitsCRT@_W@ATL@@SAPA_WPB_WH@Z 00442cd0 f i uafxcwd:wincore.obj
 0001:00041cf0       ?GetData@?$CThreadLocal@V_AFX_THREAD_STATE@@@@QAEPAV_AFX_THREAD_STATE@@XZ 00442cf0 f i uafxcwd:wincore.obj
 0001:00041d50       ??C?$CThreadLocal@V_AFX_THREAD_STATE@@@@QAEPAV_AFX_THREAD_STATE@@XZ 00442d50 f i uafxcwd:wincore.obj
 0001:00041d70       ?GetNext@?$_CTypedPtrList@VCPtrList@@PAUCOleControlSiteOrWnd@@@@QAEAAPAUCOleControlSiteOrWnd@@AAPAU__POSITION@@@Z 00442d70 f i uafxcwd:wincore.obj
 0001:00041d90       ?GetData@?$CProcessLocal@V_AFX_HTMLHELP_STATE@@@@QAEPAV_AFX_HTMLHELP_STATE@@XZ 00442d90 f i uafxcwd:wincore.obj
 0001:00041df0       ?Construct@?$ConstructDestruct@VCWnd@@@@SGXPAVCObject@@@Z 00442df0 f i uafxcwd:wincore.obj
 0001:00041e70       ?Destruct@?$ConstructDestruct@VCWnd@@@@SGXPAVCObject@@@Z 00442e70 f i uafxcwd:wincore.obj
 0001:00041ea0       ?CreateInstance@?$CMFCComObject@VCAccessibleProxy@ATL@@@@SGJPAPAV1@@Z 00442ea0 f i uafxcwd:wincore.obj
 0001:00042050       ??0?$CComPtr@UIAccessibleProxy@@@ATL@@QAE@XZ 00443050 f i uafxcwd:wincore.obj
 0001:00042070       ??1?$CComPtrBase@UIAccessibleProxy@@@ATL@@QAE@XZ 00443070 f i uafxcwd:wincore.obj
 0001:000420a0       ??B?$CComPtrBase@UIAccessibleProxy@@@ATL@@QBEPAUIAccessibleProxy@@XZ 004430a0 f i uafxcwd:wincore.obj
 0001:000420c0       ??I?$CComPtrBase@UIAccessibleProxy@@@ATL@@QAEPAPAUIAccessibleProxy@@XZ 004430c0 f i uafxcwd:wincore.obj
 0001:00042100       ??C?$CComPtrBase@UIAccessibleProxy@@@ATL@@QBEPAV?$_NoAddRefReleaseOnCComPtr@UIAccessibleProxy@@@1@XZ 00443100 f i uafxcwd:wincore.obj
 0001:00042140       ??Y?$CSimpleStringT@_W$0A@@ATL@@QAEAAV01@D@Z 00443140 f i uafxcwd:wincore.obj
 0001:00042170       ?CreateObject@?$CThreadLocal@V_AFX_THREAD_STATE@@@@SGPAVCNoTrackObject@@XZ 00443170 f i uafxcwd:wincore.obj
 0001:000421f0       ?CreateObject@?$CProcessLocal@V_AFX_HTMLHELP_STATE@@@@SGPAVCNoTrackObject@@XZ 004431f0 f i uafxcwd:wincore.obj
 0001:00042230       ??0?$CMFCComObject@VCAccessibleProxy@ATL@@@@QAE@PAX@Z 00443230 f i uafxcwd:wincore.obj
 0001:000422b0       ??0CAccessibleProxy@ATL@@QAE@XZ 004432b0 f i uafxcwd:wincore.obj
 0001:00042320       ??1CAccessibleProxy@ATL@@UAE@XZ 00443320 f i uafxcwd:wincore.obj
 0001:00042340       ?GetWindow@CAccessibleProxy@ATL@@UAGJPAPAUHWND__@@@Z 00443340 f i uafxcwd:wincore.obj
 0001:00042350       ?ContextSensitiveHelp@CAccessibleProxy@ATL@@UAGJH@Z 00443350 f i uafxcwd:wincore.obj
 0001:00042360       ??0?$CComObjectRootEx@VCComSingleThreadModel@ATL@@@ATL@@QAE@XZ 00443360 f i uafxcwd:wincore.obj
 0001:00042380       ??0IOleWindow@@QAE@XZ      00443380 f i uafxcwd:wincore.obj
 0001:000423a0       ??0IUnknown@@QAE@XZ        004433a0 f i uafxcwd:wincore.obj
 0001:000423b0       ??0?$IAccessibleProxyImpl@VCAccessibleProxy@ATL@@@ATL@@QAE@XZ 004433b0 f i uafxcwd:wincore.obj
 0001:00042400       ?get_accParent@?$IAccessibleProxyImpl@VCAccessibleProxy@ATL@@@ATL@@UAGJPAPAUIDispatch@@@Z 00443400 f i uafxcwd:wincore.obj
 0001:00042440       ?get_accChildCount@?$IAccessibleProxyImpl@VCAccessibleProxy@ATL@@@ATL@@UAGJPAJ@Z 00443440 f i uafxcwd:wincore.obj
 0001:00042480       ?get_accChild@?$IAccessibleProxyImpl@VCAccessibleProxy@ATL@@@ATL@@UAGJUtagVARIANT@@PAPAUIDispatch@@@Z 00443480 f i uafxcwd:wincore.obj
 0001:000424e0       ?get_accName@?$IAccessibleProxyImpl@VCAccessibleProxy@ATL@@@ATL@@UAGJUtagVARIANT@@PAPA_W@Z 004434e0 f i uafxcwd:wincore.obj
 0001:00042540       ?get_accValue@?$IAccessibleProxyImpl@VCAccessibleProxy@ATL@@@ATL@@UAGJUtagVARIANT@@PAPA_W@Z 00443540 f i uafxcwd:wincore.obj
 0001:000425a0       ?get_accDescription@?$IAccessibleProxyImpl@VCAccessibleProxy@ATL@@@ATL@@UAGJUtagVARIANT@@PAPA_W@Z 004435a0 f i uafxcwd:wincore.obj
 0001:00042600       ?get_accRole@?$IAccessibleProxyImpl@VCAccessibleProxy@ATL@@@ATL@@UAGJUtagVARIANT@@PAU3@@Z 00443600 f i uafxcwd:wincore.obj
 0001:00042660       ?get_accState@?$IAccessibleProxyImpl@VCAccessibleProxy@ATL@@@ATL@@UAGJUtagVARIANT@@PAU3@@Z 00443660 f i uafxcwd:wincore.obj
 0001:000426c0       ?get_accHelp@?$IAccessibleProxyImpl@VCAccessibleProxy@ATL@@@ATL@@UAGJUtagVARIANT@@PAPA_W@Z 004436c0 f i uafxcwd:wincore.obj
 0001:00042720       ?get_accHelpTopic@?$IAccessibleProxyImpl@VCAccessibleProxy@ATL@@@ATL@@UAGJPAPA_WUtagVARIANT@@PAJ@Z 00443720 f i uafxcwd:wincore.obj
 0001:00042790       ?get_accKeyboardShortcut@?$IAccessibleProxyImpl@VCAccessibleProxy@ATL@@@ATL@@UAGJUtagVARIANT@@PAPA_W@Z 00443790 f i uafxcwd:wincore.obj
 0001:000427f0       ?get_accFocus@?$IAccessibleProxyImpl@VCAccessibleProxy@ATL@@@ATL@@UAGJPAUtagVARIANT@@@Z 004437f0 f i uafxcwd:wincore.obj
 0001:00042830       ?get_accSelection@?$IAccessibleProxyImpl@VCAccessibleProxy@ATL@@@ATL@@UAGJPAUtagVARIANT@@@Z 00443830 f i uafxcwd:wincore.obj
 0001:00042870       ?get_accDefaultAction@?$IAccessibleProxyImpl@VCAccessibleProxy@ATL@@@ATL@@UAGJUtagVARIANT@@PAPA_W@Z 00443870 f i uafxcwd:wincore.obj
 0001:000428d0       ?accSelect@?$IAccessibleProxyImpl@VCAccessibleProxy@ATL@@@ATL@@UAGJJUtagVARIANT@@@Z 004438d0 f i uafxcwd:wincore.obj
 0001:00042920       ?accLocation@?$IAccessibleProxyImpl@VCAccessibleProxy@ATL@@@ATL@@UAGJPAJ000UtagVARIANT@@@Z 00443920 f i uafxcwd:wincore.obj
 0001:000429b0       ?accNavigate@?$IAccessibleProxyImpl@VCAccessibleProxy@ATL@@@ATL@@UAGJJUtagVARIANT@@PAU3@@Z 004439b0 f i uafxcwd:wincore.obj
 0001:00042a10       ?accHitTest@?$IAccessibleProxyImpl@VCAccessibleProxy@ATL@@@ATL@@UAGJJJPAUtagVARIANT@@@Z 00443a10 f i uafxcwd:wincore.obj
 0001:00042a60       ?accDoDefaultAction@?$IAccessibleProxyImpl@VCAccessibleProxy@ATL@@@ATL@@UAGJUtagVARIANT@@@Z 00443a60 f i uafxcwd:wincore.obj
 0001:00042ab0       ?put_accName@?$IAccessibleProxyImpl@VCAccessibleProxy@ATL@@@ATL@@UAGJUtagVARIANT@@PA_W@Z 00443ab0 f i uafxcwd:wincore.obj
 0001:00042ad0       ?put_accValue@?$IAccessibleProxyImpl@VCAccessibleProxy@ATL@@@ATL@@UAGJUtagVARIANT@@PA_W@Z 00443ad0 f i uafxcwd:wincore.obj
 0001:00042af0       ?SetServer@?$IAccessibleProxyImpl@VCAccessibleProxy@ATL@@@ATL@@UAGJPAUIAccessible@@PAUIAccessibleServer@@@Z 00443af0 f i uafxcwd:wincore.obj
 0001:00042b10       ?Invoke@?$IAccessibleProxyImpl@VCAccessibleProxy@ATL@@@ATL@@UAGJJABU_GUID@@KGPAUtagDISPPARAMS@@PAUtagVARIANT@@PAUtagEXCEPINFO@@PAI@Z 00443b10 f i uafxcwd:wincore.obj
 0001:00042b60       ?GetIDsOfNames@?$IAccessibleProxyImpl@VCAccessibleProxy@ATL@@@ATL@@UAGJABU_GUID@@PAPA_WIKPAJ@Z 00443b60 f i uafxcwd:wincore.obj
 0001:00042bb0       ?GetTypeInfoCount@?$IAccessibleProxyImpl@VCAccessibleProxy@ATL@@@ATL@@UAGJPAI@Z 00443bb0 f i uafxcwd:wincore.obj
 0001:00042bf0       ?GetTypeInfo@?$IAccessibleProxyImpl@VCAccessibleProxy@ATL@@@ATL@@UAGJIKPAPAUITypeInfo@@@Z 00443bf0 f i uafxcwd:wincore.obj
 0001:00042c30       ?AddRef@?$CMFCComObject@VCAccessibleProxy@ATL@@@@UAGKXZ 00443c30 f i uafxcwd:wincore.obj
 0001:00042c50       ?Release@?$CMFCComObject@VCAccessibleProxy@ATL@@@@UAGKXZ 00443c50 f i uafxcwd:wincore.obj
 0001:00042cb0       ?QueryInterface@?$CMFCComObject@VCAccessibleProxy@ATL@@@@UAGJABU_GUID@@PAPAX@Z 00443cb0 f i uafxcwd:wincore.obj
 0001:00042cd0       ?_InternalQueryInterface@CAccessibleProxy@ATL@@QAEJABU_GUID@@PAPAX@Z 00443cd0 f i uafxcwd:wincore.obj
 0001:00042d00       ?_GetEntries@CAccessibleProxy@ATL@@SGPBU_ATL_INTMAP_ENTRY@2@XZ 00443d00 f i uafxcwd:wincore.obj
 0001:00042d10       ??0IAccessible@@QAE@XZ     00443d10 f i uafxcwd:wincore.obj
 0001:00042d30       ??0IAccessibleProxy@@QAE@XZ 00443d30 f i uafxcwd:wincore.obj
 0001:00042d50       ??_G?$CMFCComObject@VCAccessibleProxy@ATL@@@@UAEPAXI@Z 00443d50 f i uafxcwd:wincore.obj
 0001:00042d50       ??_E?$CMFCComObject@VCAccessibleProxy@ATL@@@@UAEPAXI@Z 00443d50 f i uafxcwd:wincore.obj
 0001:00042d80       ??1?$CMFCComObject@VCAccessibleProxy@ATL@@@@UAE@XZ 00443d80 f i uafxcwd:wincore.obj
 0001:00042e10       ?FinalRelease@CAccessibleProxy@ATL@@QAEJXZ 00443e10 f i uafxcwd:wincore.obj
 0001:00042e40       ??0IDispatch@@QAE@XZ       00443e40 f i uafxcwd:wincore.obj
 0001:00042e60       ??0?$CComPtrBase@UIAccessibleProxy@@@ATL@@IAE@XZ 00443e60 f i uafxcwd:wincore.obj
 0001:00042e80       ??0_AFX_HTMLHELP_STATE@@QAE@XZ 00443e80 f i uafxcwd:wincore.obj
 0001:00042eb0       ??0CNoTrackObject@@QAE@XZ  00443eb0 f i uafxcwd:wincore.obj
 0001:00042ed0       ??$QueryInterface@UIAccessibleProxy@@@?$CMFCComObject@VCAccessibleProxy@ATL@@@@QAGJPAPAUIAccessibleProxy@@@Z 00443ed0 f i uafxcwd:wincore.obj
 0001:00042ef0       ?Release@?$CMFCComObject@VCAccessibleProxy@ATL@@@@WBA@AGKXZ 00443ef0 f i uafxcwd:wincore.obj
 0001:00042f00       ?QueryInterface@?$CMFCComObject@VCAccessibleProxy@ATL@@@@W3AGJABU_GUID@@PAPAX@Z 00443f00 f i uafxcwd:wincore.obj
 0001:00042f10       ?AddRef@?$CMFCComObject@VCAccessibleProxy@ATL@@@@WBA@AGKXZ 00443f10 f i uafxcwd:wincore.obj
 0001:00042f20       ?QueryInterface@?$CMFCComObject@VCAccessibleProxy@ATL@@@@WBA@AGJABU_GUID@@PAPAX@Z 00443f20 f i uafxcwd:wincore.obj
 0001:00042f30       ?Release@?$CMFCComObject@VCAccessibleProxy@ATL@@@@W3AGKXZ 00443f30 f i uafxcwd:wincore.obj
 0001:00042f40       ?AddRef@?$CMFCComObject@VCAccessibleProxy@ATL@@@@W3AGKXZ 00443f40 f i uafxcwd:wincore.obj
 0001:00042f50       ?AfxCtxRegisterClassW@@YAGPBUtagWNDCLASSW@@@Z 00443f50 f i uafxcwd:wincore.obj
 0001:00043040       ?AfxCtxGetClassInfoW@@YAHPAUHINSTANCE__@@PB_WPAUtagWNDCLASSW@@@Z 00444040 f i uafxcwd:wincore.obj
 0001:00043130       ?AfxCtxGetClassInfoExW@@YAHPAUHINSTANCE__@@PB_WPAUtagWNDCLASSEXW@@@Z 00444130 f i uafxcwd:wincore.obj
 0001:00043220       ?AfxCtxCreateWindowExW@@YAPAUHWND__@@KPB_W0KHHHHPAU1@PAUHMENU__@@PAUHINSTANCE__@@PAX@Z 00444220 f i uafxcwd:wincore.obj
 0001:00043340       ?AfxCtxMessageBoxW@@YAHPAUHWND__@@PB_W1I@Z 00444340 f i uafxcwd:wincore.obj
 0001:00043440       ?AfxCtxLoadLibraryA@@YAPAUHINSTANCE__@@PBD@Z 00444440 f i uafxcwd:wincore.obj
 0001:00043530       ?AfxInitCommonControls@@YGXXZ 00444530 f i uafxcwd:wincore.obj
 0001:00043550       ?_InitCommonControls@CComCtlWrapper@@QAEXXZ 00444550 f i uafxcwd:wincore.obj
 0001:00043640       ??BInitCommonControls_Type@CComCtlWrapper@@QAEP6GXXZXZ 00444640 f i uafxcwd:wincore.obj
 0001:00043660       ?GetProcAddress_InitCommonControls@CComCtlWrapper@@QAE?AUInitCommonControls_Type@1@XZ 00444660 f i uafxcwd:wincore.obj
 0001:000436b0       ??4InitCommonControls_Type@CComCtlWrapper@@QAEXP6GXXZ@Z 004446b0 f i uafxcwd:wincore.obj
 0001:000436d0       ??7InitCommonControls_Type@CComCtlWrapper@@QBE_NXZ 004446d0 f i uafxcwd:wincore.obj
 0001:000436f0       ?AfxInitCommonControlsEx@@YGHPAUtagINITCOMMONCONTROLSEX@@@Z 004446f0 f i uafxcwd:wincore.obj
 0001:00043710       ?_InitCommonControlsEx@CComCtlWrapper@@QAEHPAUtagINITCOMMONCONTROLSEX@@@Z 00444710 f i uafxcwd:wincore.obj
 0001:00043850       ?AfxCtxInitNetworkAddressControl@@YGHXZ 00444850 f i uafxcwd:wincore.obj
 0001:00043870       ?_InitNetworkAddressControl@CShellWrapper@@QAEHXZ 00444870 f i uafxcwd:wincore.obj
 0001:000439b0       ??BInitNetworkAddressControl_Type@CShellWrapper@@QAEP6GHXZXZ 004449b0 f i uafxcwd:wincore.obj
 0001:000439d0       ?GetProcAddress_InitNetworkAddressControl@CShellWrapper@@QAE?AUInitNetworkAddressControl_Type@1@XZ 004449d0 f i uafxcwd:wincore.obj
 0001:00043a20       ??4InitNetworkAddressControl_Type@CShellWrapper@@QAEXP6GHXZ@Z 00444a20 f i uafxcwd:wincore.obj
 0001:00043a40       ??7InitNetworkAddressControl_Type@CShellWrapper@@QBE_NXZ 00444a40 f i uafxcwd:wincore.obj
 0001:00043a60       ?SetWindowLongPtrW@@YAJPAUHWND__@@HJ@Z 00444a60 f i uafxcwd:wincore.obj
 0001:00043a80       ?GetWindowLongPtrW@@YAJPAUHWND__@@H@Z 00444a80 f i uafxcwd:wincore.obj
 0001:00043aa0       ?AfxInvariantStrICmp@@YAHPB_W0@Z 00444aa0 f i uafxcwd:wincore.obj
 0001:00043ad0       ??0CInternalGlobalLock@@QAE@H@Z 00444ad0 f i uafxcwd:wincore.obj
 0001:00043b10       ??1CInternalGlobalLock@@QAE@XZ 00444b10 f i uafxcwd:wincore.obj
 0001:00043b30       ?Lock@CInternalGlobalLock@@QAEXH@Z 00444b30 f i uafxcwd:wincore.obj
 0001:00043bf0       ?Unlock@CInternalGlobalLock@@QAEXXZ 00444bf0 f i uafxcwd:wincore.obj
 0001:00043c20       ?LookupPermanent@CHandleMap@@QAEPAVCObject@@PAX@Z 00444c20 f i uafxcwd:wincore.obj
 0001:00043c40       ?LookupTemporary@CHandleMap@@QAEPAVCObject@@PAX@Z 00444c40 f i uafxcwd:wincore.obj
 0001:00043c60       ??0CComObjectRootBase@ATL@@QAE@XZ 00444c60 f i uafxcwd:wincore.obj
 0001:00043c80       ?FinalConstruct@CComObjectRootBase@ATL@@QAEJXZ 00444c80 f i uafxcwd:wincore.obj
 0001:00043c90       ?_AtlFinalConstruct@CComObjectRootBase@ATL@@QAEJXZ 00444c90 f i uafxcwd:wincore.obj
 0001:00043ca0       ?InternalQueryInterface@CComObjectRootBase@ATL@@SGJPAXPBU_ATL_INTMAP_ENTRY@2@ABU_GUID@@PAPAX@Z 00444ca0 f i uafxcwd:wincore.obj
 0001:00043d40       ?SetVoid@CComObjectRootBase@ATL@@QAEXPAX@Z 00444d40 f i uafxcwd:wincore.obj
 0001:00043d50       ?InternalFinalConstructAddRef@CComObjectRootBase@ATL@@QAEXXZ 00444d50 f i uafxcwd:wincore.obj
 0001:00043d60       ?InternalFinalConstructRelease@CComObjectRootBase@ATL@@QAEXXZ 00444d60 f i uafxcwd:wincore.obj
 0001:00043da0       ??1?$CComObjectRootEx@VCComSingleThreadModel@ATL@@@ATL@@QAE@XZ 00444da0 f i uafxcwd:wincore.obj
 0001:00043dc0       ??1CComObjectRootBase@ATL@@QAE@XZ 00444dc0 f i uafxcwd:wincore.obj
 0001:00043dd0       ?InternalAddRef@?$CComObjectRootEx@VCComSingleThreadModel@ATL@@@ATL@@QAEKXZ 00444dd0 f i uafxcwd:wincore.obj
 0001:00043e20       ?Increment@CComSingleThreadModel@ATL@@SGKPAJ@Z 00444e20 f i uafxcwd:wincore.obj
 0001:00043e40       ?InternalRelease@?$CComObjectRootEx@VCComSingleThreadModel@ATL@@@ATL@@QAEKXZ 00444e40 f i uafxcwd:wincore.obj
 0001:00043e90       ?Decrement@CComSingleThreadModel@ATL@@SGKPAJ@Z 00444e90 f i uafxcwd:wincore.obj
 0001:00043eb0       ?_AtlInitialConstruct@?$CComObjectRootEx@VCComSingleThreadModel@ATL@@@ATL@@QAEJXZ 00444eb0 f i uafxcwd:wincore.obj
 0001:00043ec0       ?AppendChar@?$CSimpleStringT@_W$0A@@ATL@@QAEX_W@Z 00444ec0 f i uafxcwd:wincore.obj
 0001:00043f10       ??1?$CProcessLocal@V_AFX_HTMLHELP_STATE@@@@QAE@XZ 00444f10 f i uafxcwd:wincore.obj
 0001:00043f30       ??0CCmdTarget@@QAE@XZ      00444f30 f   uafxcwd:cmdtarg.obj
 0001:00043ff0       ??1CCmdTarget@@UAE@XZ      00444ff0 f   uafxcwd:cmdtarg.obj
 0001:00044090       ?_AfxDispatchCmdMsg@@YGHPAVCCmdTarget@@IHP81@AEXXZPAXIPAUAFX_CMDHANDLERINFO@@@Z 00445090 f   uafxcwd:cmdtarg.obj
 0001:000445a0       ?OnCmdMsg@CCmdTarget@@UAEHIHPAXPAUAFX_CMDHANDLERINFO@@@Z 004455a0 f   uafxcwd:cmdtarg.obj
 0001:000448a0       _IsEqualGUID               004458a0 f i uafxcwd:cmdtarg.obj
 0001:000448c0       ?IsInvokeAllowed@CCmdTarget@@UAEHJ@Z 004458c0 f   uafxcwd:cmdtarg.obj
 0001:000448e0       ?GetDispatchIID@CCmdTarget@@UAEHPAU_GUID@@@Z 004458e0 f   uafxcwd:cmdtarg.obj
 0001:00044900       ?GetTypeInfoCount@CCmdTarget@@UAEIXZ 00445900 f   uafxcwd:cmdtarg.obj
 0001:00044910       ?GetTypeLibCache@CCmdTarget@@UAEPAVCTypeLibCache@@XZ 00445910 f   uafxcwd:cmdtarg.obj
 0001:00044920       ?GetTypeLib@CCmdTarget@@UAEJKPAPAUITypeLib@@@Z 00445920 f   uafxcwd:cmdtarg.obj
 0001:00044940       ?BeginWaitCursor@CCmdTarget@@QAEXXZ 00445940 f   uafxcwd:cmdtarg.obj
 0001:00044970       ?EndWaitCursor@CCmdTarget@@QAEXXZ 00445970 f   uafxcwd:cmdtarg.obj
 0001:000449a0       ?RestoreWaitCursor@CCmdTarget@@QAEXXZ 004459a0 f   uafxcwd:cmdtarg.obj
 0001:000449d0       ?GetMessageMap@CCmdTarget@@MBEPBUAFX_MSGMAP@@XZ 004459d0 f   uafxcwd:cmdtarg.obj
 0001:000449f0       ?GetThisMessageMap@CCmdTarget@@KGPBUAFX_MSGMAP@@XZ 004459f0 f   uafxcwd:cmdtarg.obj
 0001:00044a00       ?GetDispatchMap@CCmdTarget@@MBEPBUAFX_DISPMAP@@XZ 00445a00 f   uafxcwd:cmdtarg.obj
 0001:00044a20       ?GetEventSinkMap@CCmdTarget@@MBEPBUAFX_EVENTSINKMAP@@XZ 00445a20 f   uafxcwd:cmdtarg.obj
 0001:00044a40       ?GetInterfaceMap@CCmdTarget@@MBEPBUAFX_INTERFACEMAP@@XZ 00445a40 f   uafxcwd:cmdtarg.obj
 0001:00044a60       ?OnFinalRelease@CCmdTarget@@UAEXXZ 00445a60 f   uafxcwd:cmdtarg.obj
 0001:00044ad0       ?OnCreateAggregates@CCmdTarget@@UAEHXZ 00445ad0 f   uafxcwd:cmdtarg.obj
 0001:00044af0       ?GetInterfaceHook@CCmdTarget@@UAEPAUIUnknown@@PBX@Z 00445af0 f   uafxcwd:cmdtarg.obj
 0001:00044b10       ?GetConnectionMap@CCmdTarget@@MBEPBUAFX_CONNECTIONMAP@@XZ 00445b10 f   uafxcwd:cmdtarg.obj
 0001:00044b30       ?GetConnectionHook@CCmdTarget@@MAEPAUIConnectionPoint@@ABU_GUID@@@Z 00445b30 f   uafxcwd:cmdtarg.obj
 0001:00044b50       ?GetExtraConnectionPoints@CCmdTarget@@MAEHPAVCPtrArray@@@Z 00445b50 f   uafxcwd:cmdtarg.obj
 0001:00044b70       ?GetCommandMap@CCmdTarget@@MBEPBUAFX_OLECMDMAP@@XZ 00445b70 f   uafxcwd:cmdtarg.obj
 0001:00044b90       ?GetRoutingView@CCmdTarget@@IAEPAVCView@@XZ 00445b90 f   uafxcwd:cmdtarg.obj
 0001:00044bb0       ?GetRoutingFrame@CCmdTarget@@IAEPAVCFrameWnd@@XZ 00445bb0 f   uafxcwd:cmdtarg.obj
 0001:00044bd0       ??0CCmdUI@@QAE@XZ          00445bd0 f   uafxcwd:cmdtarg.obj
 0001:00044c50       ?Enable@CCmdUI@@UAEXH@Z    00445c50 f   uafxcwd:cmdtarg.obj
 0001:00044d60       ?SetCheck@CCmdUI@@UAEXH@Z  00445d60 f   uafxcwd:cmdtarg.obj
 0001:00044e50       ?SetRadio@CCmdUI@@UAEXH@Z  00445e50 f   uafxcwd:cmdtarg.obj
 0001:00044f00       ?SetText@CCmdUI@@UAEXPB_W@Z 00445f00 f   uafxcwd:cmdtarg.obj
 0001:00045070       ?DoUpdate@CCmdUI@@QAEHPAVCCmdTarget@@H@Z 00446070 f   uafxcwd:cmdtarg.obj
 0001:000451a0       ?_AfxLoadDotBitmap@@YGXXZ  004461a0 f   uafxcwd:cmdtarg.obj
 0001:000453f0       ?Dump@CCmdTarget@@UBEXAAVCDumpContext@@@Z 004463f0 f   uafxcwd:cmdtarg.obj
 0001:000454e0       ?AssertValid@CCmdTarget@@UBEXXZ 004464e0 f   uafxcwd:cmdtarg.obj
 0001:00045500       ?GetRuntimeClass@CCmdTarget@@UBEPAUCRuntimeClass@@XZ 00446500 f   uafxcwd:cmdtarg.obj
 0001:00045520       ??BCWnd@@QBEPAUHWND__@@XZ  00446520 f   uafxcwd:afxinl3.obj
 0001:00045550       ??8CWnd@@QBEHABV0@@Z       00446550 f   uafxcwd:afxinl3.obj
 0001:00045580       ??9CWnd@@QBEHABV0@@Z       00446580 f   uafxcwd:afxinl3.obj
 0001:000455b0       ?GetSafeHwnd@CWnd@@QBEPAUHWND__@@XZ 004465b0 f   uafxcwd:afxinl3.obj
 0001:000455e0       ?GetOwner@CWnd@@QBEPAV1@XZ 004465e0 f   uafxcwd:afxinl3.obj
 0001:00045620       ?SetOwner@CWnd@@QAEXPAV1@@Z 00446620 f   uafxcwd:afxinl3.obj
 0001:00045660       ?SendMessageW@CWnd@@QBEJIIJ@Z 00446660 f   uafxcwd:afxinl3.obj
 0001:000456b0       ?SendMessage@CWnd@@QBEJIIJ@Z 004466b0 f   uafxcwd:afxinl3.obj
 0001:000456e0       ?PostMessageW@CWnd@@QAEHIIJ@Z 004466e0 f   uafxcwd:afxinl3.obj
 0001:00045730       ?DragDetect@CWnd@@QBEHUtagPOINT@@@Z 00446730 f   uafxcwd:afxinl3.obj
 0001:00045780       ?SetFont@CWnd@@QAEXPAVCFont@@H@Z 00446780 f   uafxcwd:afxinl3.obj
 0001:000457d0       ?GetFont@CWnd@@QBEPAVCFont@@XZ 004467d0 f   uafxcwd:afxinl3.obj
 0001:00045820       ?DragAcceptFiles@CWnd@@QAEXH@Z 00446820 f   uafxcwd:afxinl3.obj
 0001:00045870       ?DrawMenuBar@CWnd@@QAEXXZ  00446870 f   uafxcwd:afxinl3.obj
 0001:000458b0       ?GetSystemMenu@CWnd@@QBEPAVCMenu@@H@Z 004468b0 f   uafxcwd:afxinl3.obj
 0001:00045900       ?HiliteMenuItem@CWnd@@QAEHPAVCMenu@@II@Z 00446900 f   uafxcwd:afxinl3.obj
 0001:00045950       ?EnsureParentFrame@CWnd@@QBEPAVCFrameWnd@@XZ 00446950 f   uafxcwd:afxinl3.obj
 0001:00045990       ?EnsureTopLevelParent@CWnd@@QBEPAV1@XZ 00446990 f   uafxcwd:afxinl3.obj
 0001:000459d0       ?IsIconic@CWnd@@QBEHXZ     004469d0 f   uafxcwd:afxinl3.obj
 0001:00045a10       ?IsZoomed@CWnd@@QBEHXZ     00446a10 f   uafxcwd:afxinl3.obj
 0001:00045a50       ?MoveWindow@CWnd@@QAEXPBUtagRECT@@H@Z 00446a50 f   uafxcwd:afxinl3.obj
 0001:00045aa0       ?ArrangeIconicWindows@CWnd@@QAEIXZ 00446aa0 f   uafxcwd:afxinl3.obj
 0001:00045ae0       ?SetWindowRgn@CWnd@@QAEHPAUHRGN__@@H@Z 00446ae0 f   uafxcwd:afxinl3.obj
 0001:00045b30       ?GetWindowRgn@CWnd@@QBEHPAUHRGN__@@@Z 00446b30 f   uafxcwd:afxinl3.obj
 0001:00045b80       ?BringWindowToTop@CWnd@@QAEXXZ 00446b80 f   uafxcwd:afxinl3.obj
 0001:00045bc0       ?GetWindowRect@CWnd@@QBEXPAUtagRECT@@@Z 00446bc0 f   uafxcwd:afxinl3.obj
 0001:00045c10       ?GetClientRect@CWnd@@QBEXPAUtagRECT@@@Z 00446c10 f   uafxcwd:afxinl3.obj
 0001:00045c60       ?MapWindowPoints@CWnd@@QBEXPAV1@PAUtagPOINT@@I@Z 00446c60 f   uafxcwd:afxinl3.obj
 0001:00045cb0       ?MapWindowPoints@CWnd@@QBEXPAV1@PAUtagRECT@@@Z 00446cb0 f   uafxcwd:afxinl3.obj
 0001:00045d00       ?ClientToScreen@CWnd@@QBEXPAUtagPOINT@@@Z 00446d00 f   uafxcwd:afxinl3.obj
 0001:00045d50       ?ScreenToClient@CWnd@@QBEXPAUtagPOINT@@@Z 00446d50 f   uafxcwd:afxinl3.obj
 0001:00045da0       ?BeginPaint@CWnd@@QAEPAVCDC@@PAUtagPAINTSTRUCT@@@Z 00446da0 f   uafxcwd:afxinl3.obj
 0001:00045df0       ?EndPaint@CWnd@@QAEXPAUtagPAINTSTRUCT@@@Z 00446df0 f   uafxcwd:afxinl3.obj
 0001:00045e40       ?GetDC@CWnd@@QAEPAVCDC@@XZ 00446e40 f   uafxcwd:afxinl3.obj
 0001:00045e90       ?GetWindowDC@CWnd@@QAEPAVCDC@@XZ 00446e90 f   uafxcwd:afxinl3.obj
 0001:00045ee0       ?ReleaseDC@CWnd@@QAEHPAVCDC@@@Z 00446ee0 f   uafxcwd:afxinl3.obj
 0001:00045f30       ?UpdateWindow@CWnd@@QAEXXZ 00446f30 f   uafxcwd:afxinl3.obj
 0001:00045f70       ?SetRedraw@CWnd@@QAEXH@Z   00446f70 f   uafxcwd:afxinl3.obj
 0001:00045fc0       ?GetUpdateRect@CWnd@@QAEHPAUtagRECT@@H@Z 00446fc0 f   uafxcwd:afxinl3.obj
 0001:00046010       ?GetUpdateRgn@CWnd@@QAEHPAVCRgn@@H@Z 00447010 f   uafxcwd:afxinl3.obj
 0001:00046060       ?Invalidate@CWnd@@QAEXH@Z  00447060 f   uafxcwd:afxinl3.obj
 0001:000460b0       ?InvalidateRect@CWnd@@QAEXPBUtagRECT@@H@Z 004470b0 f   uafxcwd:afxinl3.obj
 0001:00046100       ?InvalidateRgn@CWnd@@QAEXPAVCRgn@@H@Z 00447100 f   uafxcwd:afxinl3.obj
 0001:00046150       ?ValidateRect@CWnd@@QAEXPBUtagRECT@@@Z 00447150 f   uafxcwd:afxinl3.obj
 0001:000461a0       ?ValidateRgn@CWnd@@QAEXPAVCRgn@@@Z 004471a0 f   uafxcwd:afxinl3.obj
 0001:000461f0       ?IsWindowVisible@CWnd@@QBEHXZ 004471f0 f   uafxcwd:afxinl3.obj
 0001:00046230       ?ShowOwnedPopups@CWnd@@QAEXH@Z 00447230 f   uafxcwd:afxinl3.obj
 0001:00046280       ?SendMessageToDescendants@CWnd@@QAEXIIJHH@Z 00447280 f   uafxcwd:afxinl3.obj
 0001:000462e0       ?GetDescendantWindow@CWnd@@QBEPAV1@HH@Z 004472e0 f   uafxcwd:afxinl3.obj
 0001:00046330       ?GetDCEx@CWnd@@QAEPAVCDC@@PAVCRgn@@K@Z 00447330 f   uafxcwd:afxinl3.obj
 0001:00046390       ?LockWindowUpdate@CWnd@@QAEHXZ 00447390 f   uafxcwd:afxinl3.obj
 0001:000463d0       ?UnlockWindowUpdate@CWnd@@QAEXXZ 004473d0 f   uafxcwd:afxinl3.obj
 0001:00046410       ?RedrawWindow@CWnd@@QAEHPBUtagRECT@@PAVCRgn@@I@Z 00447410 f   uafxcwd:afxinl3.obj
 0001:00046470       ?EnableScrollBar@CWnd@@QAEHHI@Z 00447470 f   uafxcwd:afxinl3.obj
 0001:000464c0       ?DrawAnimatedRects@CWnd@@QAEHHPBUtagRECT@@0@Z 004474c0 f   uafxcwd:afxinl3.obj
 0001:00046510       ?DrawCaption@CWnd@@QAEHPAVCDC@@PBUtagRECT@@I@Z 00447510 f   uafxcwd:afxinl3.obj
 0001:00046570       ?SetTimer@CWnd@@QAEIIIP6GXPAUHWND__@@IIK@Z@Z 00447570 f   uafxcwd:afxinl3.obj
 0001:000465c0       ?KillTimer@CWnd@@QAEHI@Z   004475c0 f   uafxcwd:afxinl3.obj
 0001:00046610       ?GetActiveWindow@CWnd@@SGPAV1@XZ 00447610 f   uafxcwd:afxinl3.obj
 0001:00046630       ?SetActiveWindow@CWnd@@QAEPAV1@XZ 00447630 f   uafxcwd:afxinl3.obj
 0001:00046680       ?GetCapture@CWnd@@SGPAV1@XZ 00447680 f   uafxcwd:afxinl3.obj
 0001:000466a0       ?SetCapture@CWnd@@QAEPAV1@XZ 004476a0 f   uafxcwd:afxinl3.obj
 0001:000466f0       ?GetFocus@CWnd@@SGPAV1@XZ  004476f0 f   uafxcwd:afxinl3.obj
 0001:00046710       ?GetDesktopWindow@CWnd@@SGPAV1@XZ 00447710 f   uafxcwd:afxinl3.obj
 0001:00046730       ?DlgDirListW@CWnd@@QAEHPA_WHHI@Z 00447730 f   uafxcwd:afxinl3.obj
 0001:00046790       ?DlgDirListComboBoxW@CWnd@@QAEHPA_WHHI@Z 00447790 f   uafxcwd:afxinl3.obj
 0001:000467f0       ?DlgDirSelect@CWnd@@QAEHPA_WH@Z 004477f0 f   uafxcwd:afxinl3.obj
 0001:00046840       ?DlgDirSelect@CWnd@@QAEHPA_WHH@Z 00447840 f   uafxcwd:afxinl3.obj
 0001:00046890       ?DlgDirSelectComboBox@CWnd@@QAEHPA_WH@Z 00447890 f   uafxcwd:afxinl3.obj
 0001:000468e0       ?DlgDirSelectComboBox@CWnd@@QAEHPA_WHH@Z 004478e0 f   uafxcwd:afxinl3.obj
 0001:00046930       ?GetNextDlgGroupItem@CWnd@@QBEPAV1@PAV1@H@Z 00447930 f   uafxcwd:afxinl3.obj
 0001:00046990       ?GetNextDlgTabItem@CWnd@@QBEPAV1@PAV1@H@Z 00447990 f   uafxcwd:afxinl3.obj
 0001:000469f0       ?ShowScrollBar@CWnd@@QAEXIH@Z 004479f0 f   uafxcwd:afxinl3.obj
 0001:00046a40       ?ChildWindowFromPoint@CWnd@@QBEPAV1@UtagPOINT@@@Z 00447a40 f   uafxcwd:afxinl3.obj
 0001:00046a90       ?ChildWindowFromPoint@CWnd@@QBEPAV1@UtagPOINT@@I@Z 00447a90 f   uafxcwd:afxinl3.obj
 0001:00046af0       ?FindWindowW@CWnd@@SGPAV1@PB_W0@Z 00447af0 f   uafxcwd:afxinl3.obj
 0001:00046b10       ?FindWindowExW@CWnd@@SAPAV1@PAUHWND__@@0PB_W1@Z 00447b10 f   uafxcwd:afxinl3.obj
 0001:00046b40       ?GetNextWindow@CWnd@@QBEPAV1@I@Z 00447b40 f   uafxcwd:afxinl3.obj
 0001:00046b90       ?GetTopWindow@CWnd@@QBEPAV1@XZ 00447b90 f   uafxcwd:afxinl3.obj
 0001:00046be0       ?GetWindow@CWnd@@QBEPAV1@I@Z 00447be0 f   uafxcwd:afxinl3.obj
 0001:00046c30       ?GetLastActivePopup@CWnd@@QBEPAV1@XZ 00447c30 f   uafxcwd:afxinl3.obj
 0001:00046c80       ?IsChild@CWnd@@QBEHPBV1@@Z 00447c80 f   uafxcwd:afxinl3.obj
 0001:00046cd0       ?GetParent@CWnd@@QBEPAV1@XZ 00447cd0 f   uafxcwd:afxinl3.obj
 0001:00046d20       ?SetParent@CWnd@@QAEPAV1@PAV1@@Z 00447d20 f   uafxcwd:afxinl3.obj
 0001:00046d70       ?WindowFromPoint@CWnd@@SGPAV1@UtagPOINT@@@Z 00447d70 f   uafxcwd:afxinl3.obj
 0001:00046d90       ?MessageBox@CWnd@@QAEHPB_W0I@Z 00447d90 f   uafxcwd:afxinl3.obj
 0001:00046dc0       ?FlashWindow@CWnd@@QAEHH@Z 00447dc0 f   uafxcwd:afxinl3.obj
 0001:00046e10       ?ChangeClipboardChain@CWnd@@QAEHPAUHWND__@@@Z 00447e10 f   uafxcwd:afxinl3.obj
 0001:00046e60       ?SetClipboardViewer@CWnd@@QAEPAUHWND__@@XZ 00447e60 f   uafxcwd:afxinl3.obj
 0001:00046ea0       ?OpenClipboard@CWnd@@QAEHXZ 00447ea0 f   uafxcwd:afxinl3.obj
 0001:00046ee0       ?GetOpenClipboardWindow@CWnd@@SGPAV1@XZ 00447ee0 f   uafxcwd:afxinl3.obj
 0001:00046f00       ?GetClipboardOwner@CWnd@@SGPAV1@XZ 00447f00 f   uafxcwd:afxinl3.obj
 0001:00046f20       ?GetClipboardViewer@CWnd@@SGPAV1@XZ 00447f20 f   uafxcwd:afxinl3.obj
 0001:00046f40       ?CreateCaret@CWnd@@QAEXPAVCBitmap@@@Z 00447f40 f   uafxcwd:afxinl3.obj
 0001:00046f90       ?CreateSolidCaret@CWnd@@QAEXHH@Z 00447f90 f   uafxcwd:afxinl3.obj
 0001:00046fe0       ?CreateGrayCaret@CWnd@@QAEXHH@Z 00447fe0 f   uafxcwd:afxinl3.obj
 0001:00047030       ?GetCaretPos@CWnd@@SG?AVCPoint@@XZ 00448030 f   uafxcwd:afxinl3.obj
 0001:00047070       ?SetCaretPos@CWnd@@SGXUtagPOINT@@@Z 00448070 f   uafxcwd:afxinl3.obj
 0001:00047090       ?HideCaret@CWnd@@QAEXXZ    00448090 f   uafxcwd:afxinl3.obj
 0001:000470d0       ?ShowCaret@CWnd@@QAEXXZ    004480d0 f   uafxcwd:afxinl3.obj
 0001:00047110       ?SetForegroundWindow@CWnd@@QAEHXZ 00448110 f   uafxcwd:afxinl3.obj
 0001:00047150       ?GetForegroundWindow@CWnd@@SGPAV1@XZ 00448150 f   uafxcwd:afxinl3.obj
 0001:00047170       ?SendNotifyMessageW@CWnd@@QAEHIIJ@Z 00448170 f   uafxcwd:afxinl3.obj
 0001:000471c0       ?SetIcon@CWnd@@QAEPAUHICON__@@PAU2@H@Z 004481c0 f   uafxcwd:afxinl3.obj
 0001:00047210       ?GetIcon@CWnd@@QBEPAUHICON__@@H@Z 00448210 f   uafxcwd:afxinl3.obj
 0001:00047260       ?Print@CWnd@@QBEXPAVCDC@@K@Z 00448260 f   uafxcwd:afxinl3.obj
 0001:000472c0       ?PrintClient@CWnd@@QBEXPAVCDC@@K@Z 004482c0 f   uafxcwd:afxinl3.obj
 0001:00047320       ?SetWindowContextHelpId@CWnd@@QAEHK@Z 00448320 f   uafxcwd:afxinl3.obj
 0001:00047370       ?GetWindowContextHelpId@CWnd@@QBEKXZ 00448370 f   uafxcwd:afxinl3.obj
 0001:000473b0       ?EnableActiveAccessibility@CWnd@@QAEXXZ 004483b0 f   uafxcwd:afxinl3.obj
 0001:000473d0       ?NotifyWinEvent@CWnd@@QAEXKJJ@Z 004483d0 f   uafxcwd:afxinl3.obj
 0001:00047430       ?OnActivateApp@CWnd@@IAEXHK@Z 00448430 f   uafxcwd:afxinl3.obj
 0001:00047450       ?OnActivate@CWnd@@IAEXIPAV1@H@Z 00448450 f   uafxcwd:afxinl3.obj
 0001:00047470       ?OnCancelMode@CWnd@@IAEXXZ 00448470 f   uafxcwd:afxinl3.obj
 0001:00047490       ?OnChildActivate@CWnd@@IAEXXZ 00448490 f   uafxcwd:afxinl3.obj
 0001:000474b0       ?OnClose@CWnd@@IAEXXZ      004484b0 f   uafxcwd:afxinl3.obj
 0001:000474d0       ?OnContextMenu@CWnd@@IAEXPAV1@VCPoint@@@Z 004484d0 f   uafxcwd:afxinl3.obj
 0001:000474f0       ?OnCopyData@CWnd@@IAEHPAV1@PAUtagCOPYDATASTRUCT@@@Z 004484f0 f   uafxcwd:afxinl3.obj
 0001:00047510       ?OnCreate@CWnd@@IAEHPAUtagCREATESTRUCTW@@@Z 00448510 f   uafxcwd:afxinl3.obj
 0001:00047530       ?OnEnable@CWnd@@IAEXH@Z    00448530 f   uafxcwd:afxinl3.obj
 0001:00047550       ?OnEndSession@CWnd@@IAEXH@Z 00448550 f   uafxcwd:afxinl3.obj
 0001:00047570       ?OnEraseBkgnd@CWnd@@IAEHPAVCDC@@@Z 00448570 f   uafxcwd:afxinl3.obj
 0001:00047590       ?OnGetMinMaxInfo@CWnd@@IAEXPAUtagMINMAXINFO@@@Z 00448590 f   uafxcwd:afxinl3.obj
 0001:000475b0       ?OnIconEraseBkgnd@CWnd@@IAEXPAVCDC@@@Z 004485b0 f   uafxcwd:afxinl3.obj
 0001:000475d0       ?OnKillFocus@CWnd@@IAEXPAV1@@Z 004485d0 f   uafxcwd:afxinl3.obj
 0001:000475f0       ?OnMenuChar@CWnd@@IAEJIIPAVCMenu@@@Z 004485f0 f   uafxcwd:afxinl3.obj
 0001:00047610       ?OnMenuSelect@CWnd@@IAEXIIPAUHMENU__@@@Z 00448610 f   uafxcwd:afxinl3.obj
 0001:00047630       ?OnMove@CWnd@@IAEXHH@Z     00448630 f   uafxcwd:afxinl3.obj
 0001:00047650       ?OnSyncPaint@CWnd@@IAEXXZ  00448650 f   uafxcwd:afxinl3.obj
 0001:00047670       ?OnQueryDragIcon@CWnd@@IAEPAUHICON__@@XZ 00448670 f   uafxcwd:afxinl3.obj
 0001:00047690       ?OnQueryEndSession@CWnd@@IAEHXZ 00448690 f   uafxcwd:afxinl3.obj
 0001:000476b0       ?OnQueryNewPalette@CWnd@@IAEHXZ 004486b0 f   uafxcwd:afxinl3.obj
 0001:000476d0       ?OnQueryOpen@CWnd@@IAEHXZ  004486d0 f   uafxcwd:afxinl3.obj
 0001:000476f0       ?OnSetCursor@CWnd@@IAEHPAV1@II@Z 004486f0 f   uafxcwd:afxinl3.obj
 0001:00047710       ?OnShowWindow@CWnd@@IAEXHI@Z 00448710 f   uafxcwd:afxinl3.obj
 0001:00047730       ?OnSize@CWnd@@IAEXIHH@Z    00448730 f   uafxcwd:afxinl3.obj
 0001:00047750       ?OnTCard@CWnd@@IAEXIK@Z    00448750 f   uafxcwd:afxinl3.obj
 0001:00047770       ?OnWindowPosChanging@CWnd@@IAEXPAUtagWINDOWPOS@@@Z 00448770 f   uafxcwd:afxinl3.obj
 0001:00047790       ?OnWindowPosChanged@CWnd@@IAEXPAUtagWINDOWPOS@@@Z 00448790 f   uafxcwd:afxinl3.obj
 0001:000477b0       ?OnSessionChange@CWnd@@IAEXII@Z 004487b0 f   uafxcwd:afxinl3.obj
 0001:000477d0       ?OnDropFiles@CWnd@@IAEXPAUHDROP__@@@Z 004487d0 f   uafxcwd:afxinl3.obj
 0001:000477f0       ?OnPaletteIsChanging@CWnd@@IAEXPAV1@@Z 004487f0 f   uafxcwd:afxinl3.obj
 0001:00047810       ?OnNcActivate@CWnd@@IAEHH@Z 00448810 f   uafxcwd:afxinl3.obj
 0001:00047830       ?OnNcCalcSize@CWnd@@IAEXHPAUtagNCCALCSIZE_PARAMS@@@Z 00448830 f   uafxcwd:afxinl3.obj
 0001:00047850       ?OnNcCreate@CWnd@@IAEHPAUtagCREATESTRUCTW@@@Z 00448850 f   uafxcwd:afxinl3.obj
 0001:00047870       ?OnNcHitTest@CWnd@@IAEJVCPoint@@@Z 00448870 f   uafxcwd:afxinl3.obj
 0001:00047890       ?OnNcLButtonDblClk@CWnd@@IAEXIVCPoint@@@Z 00448890 f   uafxcwd:afxinl3.obj
 0001:000478b0       ?OnNcLButtonDown@CWnd@@IAEXIVCPoint@@@Z 004488b0 f   uafxcwd:afxinl3.obj
 0001:000478d0       ?OnNcLButtonUp@CWnd@@IAEXIVCPoint@@@Z 004488d0 f   uafxcwd:afxinl3.obj
 0001:000478f0       ?OnNcMButtonDblClk@CWnd@@IAEXIVCPoint@@@Z 004488f0 f   uafxcwd:afxinl3.obj
 0001:00047910       ?OnNcMButtonDown@CWnd@@IAEXIVCPoint@@@Z 00448910 f   uafxcwd:afxinl3.obj
 0001:00047930       ?OnNcMButtonUp@CWnd@@IAEXIVCPoint@@@Z 00448930 f   uafxcwd:afxinl3.obj
 0001:00047950       ?OnNcMouseHover@CWnd@@IAEXIVCPoint@@@Z 00448950 f   uafxcwd:afxinl3.obj
 0001:00047970       ?OnNcMouseLeave@CWnd@@IAEXXZ 00448970 f   uafxcwd:afxinl3.obj
 0001:00047990       ?OnNcMouseMove@CWnd@@IAEXIVCPoint@@@Z 00448990 f   uafxcwd:afxinl3.obj
 0001:000479b0       ?OnNcPaint@CWnd@@IAEXXZ    004489b0 f   uafxcwd:afxinl3.obj
 0001:000479d0       ?OnNcRButtonDblClk@CWnd@@IAEXIVCPoint@@@Z 004489d0 f   uafxcwd:afxinl3.obj
 0001:000479f0       ?OnNcRButtonDown@CWnd@@IAEXIVCPoint@@@Z 004489f0 f   uafxcwd:afxinl3.obj
 0001:00047a10       ?OnNcRButtonUp@CWnd@@IAEXIVCPoint@@@Z 00448a10 f   uafxcwd:afxinl3.obj
 0001:00047a30       ?OnNcXButtonDown@CWnd@@IAEXFIVCPoint@@@Z 00448a30 f   uafxcwd:afxinl3.obj
 0001:00047a50       ?OnNcXButtonUp@CWnd@@IAEXFIVCPoint@@@Z 00448a50 f   uafxcwd:afxinl3.obj
 0001:00047a70       ?OnNcXButtonDblClk@CWnd@@IAEXFIVCPoint@@@Z 00448a70 f   uafxcwd:afxinl3.obj
 0001:00047a90       ?OnSysChar@CWnd@@IAEXIII@Z 00448a90 f   uafxcwd:afxinl3.obj
 0001:00047ab0       ?OnSysCommand@CWnd@@IAEXIJ@Z 00448ab0 f   uafxcwd:afxinl3.obj
 0001:00047ad0       ?OnSysDeadChar@CWnd@@IAEXIII@Z 00448ad0 f   uafxcwd:afxinl3.obj
 0001:00047af0       ?OnSysKeyDown@CWnd@@IAEXIII@Z 00448af0 f   uafxcwd:afxinl3.obj
 0001:00047b10       ?OnSysKeyUp@CWnd@@IAEXIII@Z 00448b10 f   uafxcwd:afxinl3.obj
 0001:00047b30       ?OnAppCommand@CWnd@@IAEHPAV1@III@Z 00448b30 f   uafxcwd:afxinl3.obj
 0001:00047b50       ?OnRawInput@CWnd@@IAEXIPAUHRAWINPUT__@@@Z 00448b50 f   uafxcwd:afxinl3.obj
 0001:00047b70       ?OnCompacting@CWnd@@IAEXI@Z 00448b70 f   uafxcwd:afxinl3.obj
 0001:00047b90       ?OnFontChange@CWnd@@IAEXXZ 00448b90 f   uafxcwd:afxinl3.obj
 0001:00047bb0       ?OnPaletteChanged@CWnd@@IAEXPAV1@@Z 00448bb0 f   uafxcwd:afxinl3.obj
 0001:00047bd0       ?OnSpoolerStatus@CWnd@@IAEXII@Z 00448bd0 f   uafxcwd:afxinl3.obj
 0001:00047bf0       ?OnTimeChange@CWnd@@IAEXXZ 00448bf0 f   uafxcwd:afxinl3.obj
 0001:00047c10       ?OnPowerBroadcast@CWnd@@IAEIII@Z 00448c10 f   uafxcwd:afxinl3.obj
 0001:00047c30       ?OnUserChanged@CWnd@@IAEXXZ 00448c30 f   uafxcwd:afxinl3.obj
 0001:00047c50       ?OnInputLangChange@CWnd@@IAEXII@Z 00448c50 f   uafxcwd:afxinl3.obj
 0001:00047c70       ?OnInputLangChangeRequest@CWnd@@IAEXII@Z 00448c70 f   uafxcwd:afxinl3.obj
 0001:00047c90       ?OnInputDeviceChange@CWnd@@IAEXG@Z 00448c90 f   uafxcwd:afxinl3.obj
 0001:00047cb0       ?OnChar@CWnd@@IAEXIII@Z    00448cb0 f   uafxcwd:afxinl3.obj
 0001:00047cd0       ?OnDeadChar@CWnd@@IAEXIII@Z 00448cd0 f   uafxcwd:afxinl3.obj
 0001:00047cf0       ?OnUniChar@CWnd@@IAEXIII@Z 00448cf0 f   uafxcwd:afxinl3.obj
 0001:00047d10       ?OnKeyDown@CWnd@@IAEXIII@Z 00448d10 f   uafxcwd:afxinl3.obj
 0001:00047d30       ?OnKeyUp@CWnd@@IAEXIII@Z   00448d30 f   uafxcwd:afxinl3.obj
 0001:00047d50       ?OnHotKey@CWnd@@IAEXIII@Z  00448d50 f   uafxcwd:afxinl3.obj
 0001:00047d70       ?OnLButtonDblClk@CWnd@@IAEXIVCPoint@@@Z 00448d70 f   uafxcwd:afxinl3.obj
 0001:00047d90       ?OnLButtonDown@CWnd@@IAEXIVCPoint@@@Z 00448d90 f   uafxcwd:afxinl3.obj
 0001:00047db0       ?OnLButtonUp@CWnd@@IAEXIVCPoint@@@Z 00448db0 f   uafxcwd:afxinl3.obj
 0001:00047dd0       ?OnMButtonDblClk@CWnd@@IAEXIVCPoint@@@Z 00448dd0 f   uafxcwd:afxinl3.obj
 0001:00047df0       ?OnMButtonDown@CWnd@@IAEXIVCPoint@@@Z 00448df0 f   uafxcwd:afxinl3.obj
 0001:00047e10       ?OnMButtonUp@CWnd@@IAEXIVCPoint@@@Z 00448e10 f   uafxcwd:afxinl3.obj
 0001:00047e30       ?OnXButtonDblClk@CWnd@@IAEXIIVCPoint@@@Z 00448e30 f   uafxcwd:afxinl3.obj
 0001:00047e50       ?OnXButtonDown@CWnd@@IAEXIIVCPoint@@@Z 00448e50 f   uafxcwd:afxinl3.obj
 0001:00047e70       ?OnXButtonUp@CWnd@@IAEXIIVCPoint@@@Z 00448e70 f   uafxcwd:afxinl3.obj
 0001:00047e90       ?OnMouseActivate@CWnd@@IAEHPAV1@II@Z 00448e90 f   uafxcwd:afxinl3.obj
 0001:00047eb0       ?OnMouseHover@CWnd@@IAEXIVCPoint@@@Z 00448eb0 f   uafxcwd:afxinl3.obj
 0001:00047ed0       ?OnMouseLeave@CWnd@@IAEXXZ 00448ed0 f   uafxcwd:afxinl3.obj
 0001:00047ef0       ?OnMouseMove@CWnd@@IAEXIVCPoint@@@Z 00448ef0 f   uafxcwd:afxinl3.obj
 0001:00047f10       ?OnMouseHWheel@CWnd@@IAEXIFVCPoint@@@Z 00448f10 f   uafxcwd:afxinl3.obj
 0001:00047f30       ?OnMouseWheel@CWnd@@IAEHIFVCPoint@@@Z 00448f30 f   uafxcwd:afxinl3.obj
 0001:00047f50       ?OnRButtonDblClk@CWnd@@IAEXIVCPoint@@@Z 00448f50 f   uafxcwd:afxinl3.obj
 0001:00047f70       ?OnRButtonDown@CWnd@@IAEXIVCPoint@@@Z 00448f70 f   uafxcwd:afxinl3.obj
 0001:00047f90       ?OnRButtonUp@CWnd@@IAEXIVCPoint@@@Z 00448f90 f   uafxcwd:afxinl3.obj
 0001:00047fb0       ?OnTimer@CWnd@@IAEXI@Z     00448fb0 f   uafxcwd:afxinl3.obj
 0001:00047fd0       ?OnInitMenu@CWnd@@IAEXPAVCMenu@@@Z 00448fd0 f   uafxcwd:afxinl3.obj
 0001:00047ff0       ?OnInitMenuPopup@CWnd@@IAEXPAVCMenu@@IH@Z 00448ff0 f   uafxcwd:afxinl3.obj
 0001:00048010       ?OnUnInitMenuPopup@CWnd@@IAEXPAVCMenu@@I@Z 00449010 f   uafxcwd:afxinl3.obj
 0001:00048030       ?OnAskCbFormatName@CWnd@@IAEXIPA_W@Z 00449030 f   uafxcwd:afxinl3.obj
 0001:00048060       ?OnChangeCbChain@CWnd@@IAEXPAUHWND__@@0@Z 00449060 f   uafxcwd:afxinl3.obj
 0001:00048080       ?OnDestroyClipboard@CWnd@@IAEXXZ 00449080 f   uafxcwd:afxinl3.obj
 0001:000480a0       ?OnDrawClipboard@CWnd@@IAEXXZ 004490a0 f   uafxcwd:afxinl3.obj
 0001:000480c0       ?OnHScrollClipboard@CWnd@@IAEXPAV1@II@Z 004490c0 f   uafxcwd:afxinl3.obj
 0001:000480e0       ?OnPaintClipboard@CWnd@@IAEXPAV1@PAX@Z 004490e0 f   uafxcwd:afxinl3.obj
 0001:00048100       ?OnRenderAllFormats@CWnd@@IAEXXZ 00449100 f   uafxcwd:afxinl3.obj
 0001:00048120       ?OnRenderFormat@CWnd@@IAEXI@Z 00449120 f   uafxcwd:afxinl3.obj
 0001:00048140       ?OnSizeClipboard@CWnd@@IAEXPAV1@PAX@Z 00449140 f   uafxcwd:afxinl3.obj
 0001:00048160       ?OnVScrollClipboard@CWnd@@IAEXPAV1@II@Z 00449160 f   uafxcwd:afxinl3.obj
 0001:00048180       ?OnClipboardUpdate@CWnd@@IAEXXZ 00449180 f   uafxcwd:afxinl3.obj
 0001:000481a0       ?OnGetDlgCode@CWnd@@IAEIXZ 004491a0 f   uafxcwd:afxinl3.obj
 0001:000481c0       ?OnMDIActivate@CWnd@@IAEXHPAV1@0@Z 004491c0 f   uafxcwd:afxinl3.obj
 0001:000481e0       ?OnEnterMenuLoop@CWnd@@IAEXH@Z 004491e0 f   uafxcwd:afxinl3.obj
 0001:00048200       ?OnExitMenuLoop@CWnd@@IAEXH@Z 00449200 f   uafxcwd:afxinl3.obj
 0001:00048220       ?OnMenuRButtonUp@CWnd@@IAEXIPAVCMenu@@@Z 00449220 f   uafxcwd:afxinl3.obj
 0001:00048240       ?OnMenuDrag@CWnd@@IAEIIPAVCMenu@@@Z 00449240 f   uafxcwd:afxinl3.obj
 0001:00048260       ?OnMenuGetObject@CWnd@@IAEIPAUtagMENUGETOBJECTINFO@@@Z 00449260 f   uafxcwd:afxinl3.obj
 0001:00048280       ?OnMenuCommand@CWnd@@IAEXIPAVCMenu@@@Z 00449280 f   uafxcwd:afxinl3.obj
 0001:000482a0       ?OnNextMenu@CWnd@@IAEXIPAUtagMDINEXTMENU@@@Z 004492a0 f   uafxcwd:afxinl3.obj
 0001:000482c0       ?OnNotifyFormat@CWnd@@IAEIPAV1@I@Z 004492c0 f   uafxcwd:afxinl3.obj
 0001:000482e0       ?OnStyleChanged@CWnd@@IAEXHPAUtagSTYLESTRUCT@@@Z 004492e0 f   uafxcwd:afxinl3.obj
 0001:00048300       ?OnStyleChanging@CWnd@@IAEXHPAUtagSTYLESTRUCT@@@Z 00449300 f   uafxcwd:afxinl3.obj
 0001:00048320       ?OnSizing@CWnd@@IAEXIPAUtagRECT@@@Z 00449320 f   uafxcwd:afxinl3.obj
 0001:00048340       ?OnMoving@CWnd@@IAEXIPAUtagRECT@@@Z 00449340 f   uafxcwd:afxinl3.obj
 0001:00048360       ?OnEnterSizeMove@CWnd@@IAEXXZ 00449360 f   uafxcwd:afxinl3.obj
 0001:00048380       ?OnExitSizeMove@CWnd@@IAEXXZ 00449380 f   uafxcwd:afxinl3.obj
 0001:000483a0       ?OnCaptureChanged@CWnd@@IAEXPAV1@@Z 004493a0 f   uafxcwd:afxinl3.obj
 0001:000483c0       ?OnDeviceChange@CWnd@@IAEHIK@Z 004493c0 f   uafxcwd:afxinl3.obj
 0001:000483e0       ?OnWinIniChange@CWnd@@IAEXPB_W@Z 004493e0 f   uafxcwd:afxinl3.obj
 0001:00048400       ?OnChangeUIState@CWnd@@IAEXII@Z 00449400 f   uafxcwd:afxinl3.obj
 0001:00048420       ?OnUpdateUIState@CWnd@@IAEXII@Z 00449420 f   uafxcwd:afxinl3.obj
 0001:00048440       ?OnQueryUIState@CWnd@@IAEIXZ 00449440 f   uafxcwd:afxinl3.obj
 0001:00048460       ?OnCompositionChanged@CWnd@@IAEXXZ 00449460 f   uafxcwd:afxinl3.obj
 0001:00048480       ?OnNcRenderingChanged@CWnd@@IAEXH@Z 00449480 f   uafxcwd:afxinl3.obj
 0001:000484a0       ?OnColorizationColorChanged@CWnd@@IAEXKH@Z 004494a0 f   uafxcwd:afxinl3.obj
 0001:000484c0       ?OnWindowMaximizedChange@CWnd@@IAEXH@Z 004494c0 f   uafxcwd:afxinl3.obj
 0001:000484e0       ?DoDataExchange@CWnd@@MAEXPAVCDataExchange@@@Z 004494e0 f   uafxcwd:afxinl3.obj
 0001:000484f0       ?BeginModalState@CWnd@@UAEXXZ 004494f0 f   uafxcwd:afxinl3.obj
 0001:00048510       ?EndModalState@CWnd@@UAEXXZ 00449510 f   uafxcwd:afxinl3.obj
 0001:00048530       ?DelayUpdateFrameTitle@CFrameWnd@@QAEXXZ 00449530 f   uafxcwd:afxinl3.obj
 0001:00048560       ?DelayRecalcLayout@CFrameWnd@@QAEXH@Z 00449560 f   uafxcwd:afxinl3.obj
 0001:00048590       ?InModalState@CFrameWnd@@QBEHXZ 00449590 f   uafxcwd:afxinl3.obj
 0001:000485b0       ?AddControlBar@CFrameWnd@@QAEXPAVCControlBar@@@Z 004495b0 f   uafxcwd:afxinl3.obj
 0001:000485e0       ?SetTitle@CFrameWnd@@QAEXPB_W@Z 004495e0 f   uafxcwd:afxinl3.obj
 0001:00048610       ?GetTitle@CFrameWnd@@QBE?AV?$CStringT@_WV?$StrTraitMFC@_WV?$ChTraitsCRT@_W@ATL@@@@@ATL@@XZ 00449610 f   uafxcwd:afxinl3.obj
 0001:00048650       ?Create@CDialog@@UAEHIPAVCWnd@@@Z 00449650 f   uafxcwd:afxinl3.obj
 0001:00048670       ?MapDialogRect@CDialog@@QBEXPAUtagRECT@@@Z 00449670 f   uafxcwd:afxinl3.obj
 0001:000486c0       ?SetHelpID@CDialog@@QAEXI@Z 004496c0 f   uafxcwd:afxinl3.obj
 0001:000486e0       ?NextDlgCtrl@CDialog@@QBEXXZ 004496e0 f   uafxcwd:afxinl3.obj
 0001:00048730       ?PrevDlgCtrl@CDialog@@QBEXXZ 00449730 f   uafxcwd:afxinl3.obj
 0001:00048780       ?GotoDlgCtrl@CDialog@@QAEXPAVCWnd@@@Z 00449780 f   uafxcwd:afxinl3.obj
 0001:000487d0       ?SetDefID@CDialog@@QAEXI@Z 004497d0 f   uafxcwd:afxinl3.obj
 0001:00048820       ?GetDefID@CDialog@@QBEKXZ  00449820 f   uafxcwd:afxinl3.obj
 0001:00048870       ??0CStatic@@QAE@XZ         00449870 f   uafxcwd:afxinl3.obj
 0001:000488a0       ??_GCStatic@@UAEPAXI@Z     004498a0 f i uafxcwd:afxinl3.obj
 0001:000488a0       ??_ECStatic@@UAEPAXI@Z     004498a0 f i uafxcwd:afxinl3.obj
 0001:000488d0       ?SetIcon@CStatic@@QAEPAUHICON__@@PAU2@@Z 004498d0 f   uafxcwd:afxinl3.obj
 0001:00048920       ?GetIcon@CStatic@@QBEPAUHICON__@@XZ 00449920 f   uafxcwd:afxinl3.obj
 0001:00048970       ?SetEnhMetaFile@CStatic@@QAEPAUHENHMETAFILE__@@PAU2@@Z 00449970 f   uafxcwd:afxinl3.obj
 0001:000489c0       ?GetEnhMetaFileW@CStatic@@QBEPAUHENHMETAFILE__@@XZ 004499c0 f   uafxcwd:afxinl3.obj
 0001:00048a10       ?SetBitmap@CStatic@@QAEPAUHBITMAP__@@PAU2@@Z 00449a10 f   uafxcwd:afxinl3.obj
 0001:00048a60       ?GetBitmap@CStatic@@QBEPAUHBITMAP__@@XZ 00449a60 f   uafxcwd:afxinl3.obj
 0001:00048ab0       ?SetCursor@CStatic@@QAEPAUHICON__@@PAU2@@Z 00449ab0 f   uafxcwd:afxinl3.obj
 0001:00048b00       ?GetCursor@CStatic@@QAEPAUHICON__@@XZ 00449b00 f   uafxcwd:afxinl3.obj
 0001:00048b50       ??0CButton@@QAE@XZ         00449b50 f   uafxcwd:afxinl3.obj
 0001:00048b80       ??_ECButton@@UAEPAXI@Z     00449b80 f i uafxcwd:afxinl3.obj
 0001:00048b80       ??_GCButton@@UAEPAXI@Z     00449b80 f i uafxcwd:afxinl3.obj
 0001:00048bb0       ?GetState@CButton@@QBEIXZ  00449bb0 f   uafxcwd:afxinl3.obj
 0001:00048c00       ?SetState@CButton@@QAEXH@Z 00449c00 f   uafxcwd:afxinl3.obj
 0001:00048c30       ?GetCheck@CButton@@QBEHXZ  00449c30 f   uafxcwd:afxinl3.obj
 0001:00048c80       ?SetCheck@CButton@@QAEXH@Z 00449c80 f   uafxcwd:afxinl3.obj
 0001:00048cd0       ?GetButtonStyle@CButton@@QBEIXZ 00449cd0 f   uafxcwd:afxinl3.obj
 0001:00048d20       ?SetButtonStyle@CButton@@QAEXIH@Z 00449d20 f   uafxcwd:afxinl3.obj
 0001:00048d70       ?SetIcon@CButton@@QAEPAUHICON__@@PAU2@@Z 00449d70 f   uafxcwd:afxinl3.obj
 0001:00048dc0       ?GetIcon@CButton@@QBEPAUHICON__@@XZ 00449dc0 f   uafxcwd:afxinl3.obj
 0001:00048e10       ?SetBitmap@CButton@@QAEPAUHBITMAP__@@PAU2@@Z 00449e10 f   uafxcwd:afxinl3.obj
 0001:00048e60       ?GetBitmap@CButton@@QBEPAUHBITMAP__@@XZ 00449e60 f   uafxcwd:afxinl3.obj
 0001:00048eb0       ?SetCursor@CButton@@QAEPAUHICON__@@PAU2@@Z 00449eb0 f   uafxcwd:afxinl3.obj
 0001:00048f00       ?GetCursor@CButton@@QAEPAUHICON__@@XZ 00449f00 f   uafxcwd:afxinl3.obj
 0001:00048f50       ??0CSplitButton@@QAE@XZ    00449f50 f   uafxcwd:afxinl3.obj
 0001:00048f90       ??_ECSplitButton@@UAEPAXI@Z 00449f90 f i uafxcwd:afxinl3.obj
 0001:00048f90       ??_GCSplitButton@@UAEPAXI@Z 00449f90 f i uafxcwd:afxinl3.obj
 0001:00048fc0       ??0CSplitButton@@QAE@II@Z  00449fc0 f   uafxcwd:afxinl3.obj
 0001:00049000       ??0CSplitButton@@QAE@PAVCMenu@@@Z 0044a000 f   uafxcwd:afxinl3.obj
 0001:00049040       ??0CListBox@@QAE@XZ        0044a040 f   uafxcwd:afxinl3.obj
 0001:00049070       ??_ECListBox@@UAEPAXI@Z    0044a070 f i uafxcwd:afxinl3.obj
 0001:00049070       ??_GCListBox@@UAEPAXI@Z    0044a070 f i uafxcwd:afxinl3.obj
 0001:000490a0       ?GetCount@CListBox@@QBEHXZ 0044a0a0 f   uafxcwd:afxinl3.obj
 0001:000490f0       ?GetCurSel@CListBox@@QBEHXZ 0044a0f0 f   uafxcwd:afxinl3.obj
 0001:00049140       ?SetCurSel@CListBox@@QAEHH@Z 0044a140 f   uafxcwd:afxinl3.obj
 0001:00049190       ?GetHorizontalExtent@CListBox@@QBEHXZ 0044a190 f   uafxcwd:afxinl3.obj
 0001:000491e0       ?SetHorizontalExtent@CListBox@@QAEXH@Z 0044a1e0 f   uafxcwd:afxinl3.obj
 0001:00049230       ?GetSelCount@CListBox@@QBEHXZ 0044a230 f   uafxcwd:afxinl3.obj
 0001:00049280       ?GetSelItems@CListBox@@QBEHHPAH@Z 0044a280 f   uafxcwd:afxinl3.obj
 0001:000492d0       ?GetTopIndex@CListBox@@QBEHXZ 0044a2d0 f   uafxcwd:afxinl3.obj
 0001:00049320       ?SetTopIndex@CListBox@@QAEHH@Z 0044a320 f   uafxcwd:afxinl3.obj
 0001:00049370       ?GetItemData@CListBox@@QBEKH@Z 0044a370 f   uafxcwd:afxinl3.obj
 0001:000493c0       ?SetItemData@CListBox@@QAEHHK@Z 0044a3c0 f   uafxcwd:afxinl3.obj
 0001:00049410       ?GetItemDataPtr@CListBox@@QBEPAXH@Z 0044a410 f   uafxcwd:afxinl3.obj
 0001:00049460       ?SetItemDataPtr@CListBox@@QAEHHPAX@Z 0044a460 f   uafxcwd:afxinl3.obj
 0001:000494b0       ?GetItemRect@CListBox@@QBEHHPAUtagRECT@@@Z 0044a4b0 f   uafxcwd:afxinl3.obj
 0001:00049500       ?GetSel@CListBox@@QBEHH@Z  0044a500 f   uafxcwd:afxinl3.obj
 0001:00049550       ?SetSel@CListBox@@QAEHHH@Z 0044a550 f   uafxcwd:afxinl3.obj
 0001:000495a0       ?GetText@CListBox@@QBEHHPA_W@Z 0044a5a0 f   uafxcwd:afxinl3.obj
 0001:000495f0       ?GetTextLen@CListBox@@QBEHH@Z 0044a5f0 f   uafxcwd:afxinl3.obj
 0001:00049640       ?SetColumnWidth@CListBox@@QAEXH@Z 0044a640 f   uafxcwd:afxinl3.obj
 0001:00049690       ?SetTabStops@CListBox@@QAEHHPAH@Z 0044a690 f   uafxcwd:afxinl3.obj
 0001:000496e0       ?SetTabStops@CListBox@@QAEXXZ 0044a6e0 f   uafxcwd:afxinl3.obj
 0001:00049740       ?SetTabStops@CListBox@@QAEHABH@Z 0044a740 f   uafxcwd:afxinl3.obj
 0001:00049790       ?SetItemHeight@CListBox@@QAEHHI@Z 0044a790 f   uafxcwd:afxinl3.obj
 0001:000497f0       ?GetItemHeight@CListBox@@QBEHH@Z 0044a7f0 f   uafxcwd:afxinl3.obj
 0001:00049840       ?FindStringExact@CListBox@@QBEHHPB_W@Z 0044a840 f   uafxcwd:afxinl3.obj
 0001:00049890       ?GetCaretIndex@CListBox@@QBEHXZ 0044a890 f   uafxcwd:afxinl3.obj
 0001:000498e0       ?SetCaretIndex@CListBox@@QAEHHH@Z 0044a8e0 f   uafxcwd:afxinl3.obj
 0001:00049940       ?AddString@CListBox@@QAEHPB_W@Z 0044a940 f   uafxcwd:afxinl3.obj
 0001:00049990       ?DeleteString@CListBox@@QAEHI@Z 0044a990 f   uafxcwd:afxinl3.obj
 0001:000499e0       ?InsertString@CListBox@@QAEHHPB_W@Z 0044a9e0 f   uafxcwd:afxinl3.obj
 0001:00049a30       ?ResetContent@CListBox@@QAEXXZ 0044aa30 f   uafxcwd:afxinl3.obj
 0001:00049a80       ?Dir@CListBox@@QAEHIPB_W@Z 0044aa80 f   uafxcwd:afxinl3.obj
 0001:00049ad0       ?FindString@CListBox@@QBEHHPB_W@Z 0044aad0 f   uafxcwd:afxinl3.obj
 0001:00049b20       ?SelectString@CListBox@@QAEHHPB_W@Z 0044ab20 f   uafxcwd:afxinl3.obj
 0001:00049b70       ?SelItemRange@CListBox@@QAEHHHH@Z 0044ab70 f   uafxcwd:afxinl3.obj
 0001:00049bf0       ?SetAnchorIndex@CListBox@@QAEXH@Z 0044abf0 f   uafxcwd:afxinl3.obj
 0001:00049c40       ?GetAnchorIndex@CListBox@@QBEHXZ 0044ac40 f   uafxcwd:afxinl3.obj
 0001:00049c90       ?GetLocale@CListBox@@QBEKXZ 0044ac90 f   uafxcwd:afxinl3.obj
 0001:00049ce0       ?SetLocale@CListBox@@QAEKK@Z 0044ace0 f   uafxcwd:afxinl3.obj
 0001:00049d30       ?InitStorage@CListBox@@QAEHHI@Z 0044ad30 f   uafxcwd:afxinl3.obj
 0001:00049d80       ??0CCheckListBox@@QAE@XZ   0044ad80 f   uafxcwd:afxinl3.obj
 0001:00049e00       ??_GCCheckListBox@@UAEPAXI@Z 0044ae00 f i uafxcwd:afxinl3.obj
 0001:00049e00       ??_ECCheckListBox@@UAEPAXI@Z 0044ae00 f i uafxcwd:afxinl3.obj
 0001:00049e30       ??1CCheckListBox@@UAE@XZ   0044ae30 f i uafxcwd:afxinl3.obj
 0001:00049e50       ?GetCheckStyle@CCheckListBox@@QAEIXZ 0044ae50 f   uafxcwd:afxinl3.obj
 0001:00049e70       ??0CComboBox@@QAE@XZ       0044ae70 f   uafxcwd:afxinl3.obj
 0001:00049ea0       ??_ECComboBox@@UAEPAXI@Z   0044aea0 f i uafxcwd:afxinl3.obj
 0001:00049ea0       ??_GCComboBox@@UAEPAXI@Z   0044aea0 f i uafxcwd:afxinl3.obj
 0001:00049ed0       ?GetCount@CComboBox@@QBEHXZ 0044aed0 f   uafxcwd:afxinl3.obj
 0001:00049f20       ?GetCurSel@CComboBox@@QBEHXZ 0044af20 f   uafxcwd:afxinl3.obj
 0001:00049f70       ?SetCurSel@CComboBox@@QAEHH@Z 0044af70 f   uafxcwd:afxinl3.obj
 0001:00049fc0       ?GetEditSel@CComboBox@@QBEKXZ 0044afc0 f   uafxcwd:afxinl3.obj
 0001:0004a010       ?LimitText@CComboBox@@QAEHH@Z 0044b010 f   uafxcwd:afxinl3.obj
 0001:0004a060       ?SetEditSel@CComboBox@@QAEHHH@Z 0044b060 f   uafxcwd:afxinl3.obj
 0001:0004a0d0       ?GetItemData@CComboBox@@QBEKH@Z 0044b0d0 f   uafxcwd:afxinl3.obj
 0001:0004a120       ?SetItemData@CComboBox@@QAEHHK@Z 0044b120 f   uafxcwd:afxinl3.obj
 0001:0004a170       ?GetItemDataPtr@CComboBox@@QBEPAXH@Z 0044b170 f   uafxcwd:afxinl3.obj
 0001:0004a1b0       ?SetItemDataPtr@CComboBox@@QAEHHPAX@Z 0044b1b0 f   uafxcwd:afxinl3.obj
 0001:0004a200       ?GetLBText@CComboBox@@QBEHHPA_W@Z 0044b200 f   uafxcwd:afxinl3.obj
 0001:0004a250       ?GetLBTextLen@CComboBox@@QBEHH@Z 0044b250 f   uafxcwd:afxinl3.obj
 0001:0004a2a0       ?ShowDropDown@CComboBox@@QAEXH@Z 0044b2a0 f   uafxcwd:afxinl3.obj
 0001:0004a2f0       ?AddString@CComboBox@@QAEHPB_W@Z 0044b2f0 f   uafxcwd:afxinl3.obj
 0001:0004a340       ?DeleteString@CComboBox@@QAEHI@Z 0044b340 f   uafxcwd:afxinl3.obj
 0001:0004a390       ?InsertString@CComboBox@@QAEHHPB_W@Z 0044b390 f   uafxcwd:afxinl3.obj
 0001:0004a3e0       ?ResetContent@CComboBox@@QAEXXZ 0044b3e0 f   uafxcwd:afxinl3.obj
 0001:0004a430       ?Dir@CComboBox@@QAEHIPB_W@Z 0044b430 f   uafxcwd:afxinl3.obj
 0001:0004a480       ?FindString@CComboBox@@QBEHHPB_W@Z 0044b480 f   uafxcwd:afxinl3.obj
 0001:0004a4d0       ?SelectString@CComboBox@@QAEHHPB_W@Z 0044b4d0 f   uafxcwd:afxinl3.obj
 0001:0004a520       ?Clear@CComboBox@@QAEXXZ   0044b520 f   uafxcwd:afxinl3.obj
 0001:0004a570       ?Copy@CComboBox@@QAEXXZ    0044b570 f   uafxcwd:afxinl3.obj
 0001:0004a5c0       ?Cut@CComboBox@@QAEXXZ     0044b5c0 f   uafxcwd:afxinl3.obj
 0001:0004a610       ?Paste@CComboBox@@QAEXXZ   0044b610 f   uafxcwd:afxinl3.obj
 0001:0004a660       ?SetItemHeight@CComboBox@@QAEHHI@Z 0044b660 f   uafxcwd:afxinl3.obj
 0001:0004a6c0       ?GetItemHeight@CComboBox@@QBEHH@Z 0044b6c0 f   uafxcwd:afxinl3.obj
 0001:0004a710       ?FindStringExact@CComboBox@@QBEHHPB_W@Z 0044b710 f   uafxcwd:afxinl3.obj
 0001:0004a760       ?SetExtendedUI@CComboBox@@QAEHH@Z 0044b760 f   uafxcwd:afxinl3.obj
 0001:0004a7b0       ?GetExtendedUI@CComboBox@@QBEHXZ 0044b7b0 f   uafxcwd:afxinl3.obj
 0001:0004a800       ?GetDroppedControlRect@CComboBox@@QBEXPAUtagRECT@@@Z 0044b800 f   uafxcwd:afxinl3.obj
 0001:0004a850       ?GetDroppedState@CComboBox@@QBEHXZ 0044b850 f   uafxcwd:afxinl3.obj
 0001:0004a8a0       ?GetLocale@CComboBox@@QBEKXZ 0044b8a0 f   uafxcwd:afxinl3.obj
 0001:0004a8f0       ?SetLocale@CComboBox@@QAEKK@Z 0044b8f0 f   uafxcwd:afxinl3.obj
 0001:0004a940       ?GetTopIndex@CComboBox@@QBEHXZ 0044b940 f   uafxcwd:afxinl3.obj
 0001:0004a990       ?SetTopIndex@CComboBox@@QAEHH@Z 0044b990 f   uafxcwd:afxinl3.obj
 0001:0004a9e0       ?InitStorage@CComboBox@@QAEHHI@Z 0044b9e0 f   uafxcwd:afxinl3.obj
 0001:0004aa30       ?SetHorizontalExtent@CComboBox@@QAEXI@Z 0044ba30 f   uafxcwd:afxinl3.obj
 0001:0004aa80       ?GetHorizontalExtent@CComboBox@@QBEIXZ 0044ba80 f   uafxcwd:afxinl3.obj
 0001:0004aad0       ?SetDroppedWidth@CComboBox@@QAEHI@Z 0044bad0 f   uafxcwd:afxinl3.obj
 0001:0004ab20       ?GetDroppedWidth@CComboBox@@QBEHXZ 0044bb20 f   uafxcwd:afxinl3.obj
 0001:0004ab70       ??0CEdit@@QAE@XZ           0044bb70 f   uafxcwd:afxinl3.obj
 0001:0004aba0       ??_GCEdit@@UAEPAXI@Z       0044bba0 f i uafxcwd:afxinl3.obj
 0001:0004aba0       ??_ECEdit@@UAEPAXI@Z       0044bba0 f i uafxcwd:afxinl3.obj
 0001:0004abd0       ?CanUndo@CEdit@@QBEHXZ     0044bbd0 f   uafxcwd:afxinl3.obj
 0001:0004ac20       ?GetLineCount@CEdit@@QBEHXZ 0044bc20 f   uafxcwd:afxinl3.obj
 0001:0004ac70       ?GetModify@CEdit@@QBEHXZ   0044bc70 f   uafxcwd:afxinl3.obj
 0001:0004acc0       ?SetModify@CEdit@@QAEXH@Z  0044bcc0 f   uafxcwd:afxinl3.obj
 0001:0004ad10       ?GetRect@CEdit@@QBEXPAUtagRECT@@@Z 0044bd10 f   uafxcwd:afxinl3.obj
 0001:0004ad60       ?GetSel@CEdit@@QBEXAAH0@Z  0044bd60 f   uafxcwd:afxinl3.obj
 0001:0004adb0       ?GetSel@CEdit@@QBEKXZ      0044bdb0 f   uafxcwd:afxinl3.obj
 0001:0004ae00       ?GetHandle@CEdit@@QBEPAXXZ 0044be00 f   uafxcwd:afxinl3.obj
 0001:0004ae50       ?SetHandle@CEdit@@QAEXPAX@Z 0044be50 f   uafxcwd:afxinl3.obj
 0001:0004aea0       ?GetLine@CEdit@@QBEHHPA_W@Z 0044bea0 f   uafxcwd:afxinl3.obj
 0001:0004aef0       ?GetLine@CEdit@@QBEHHPA_WH@Z 0044bef0 f   uafxcwd:afxinl3.obj
 0001:0004af50       ?EmptyUndoBuffer@CEdit@@QAEXXZ 0044bf50 f   uafxcwd:afxinl3.obj
 0001:0004afa0       ?FmtLines@CEdit@@QAEHH@Z   0044bfa0 f   uafxcwd:afxinl3.obj
 0001:0004aff0       ?LimitText@CEdit@@QAEXH@Z  0044bff0 f   uafxcwd:afxinl3.obj
 0001:0004b040       ?LineFromChar@CEdit@@QBEHH@Z 0044c040 f   uafxcwd:afxinl3.obj
 0001:0004b090       ?LineIndex@CEdit@@QBEHH@Z  0044c090 f   uafxcwd:afxinl3.obj
 0001:0004b0e0       ?LineLength@CEdit@@QBEHH@Z 0044c0e0 f   uafxcwd:afxinl3.obj
 0001:0004b130       ?LineScroll@CEdit@@QAEXHH@Z 0044c130 f   uafxcwd:afxinl3.obj
 0001:0004b180       ?ReplaceSel@CEdit@@QAEXPB_WH@Z 0044c180 f   uafxcwd:afxinl3.obj
 0001:0004b1d0       ?SetPasswordChar@CEdit@@QAEX_W@Z 0044c1d0 f   uafxcwd:afxinl3.obj
 0001:0004b220       ?SetRect@CEdit@@QAEXPBUtagRECT@@@Z 0044c220 f   uafxcwd:afxinl3.obj
 0001:0004b270       ?SetRectNP@CEdit@@QAEXPBUtagRECT@@@Z 0044c270 f   uafxcwd:afxinl3.obj
 0001:0004b2c0       ?SetSel@CEdit@@QAEXKH@Z    0044c2c0 f   uafxcwd:afxinl3.obj
 0001:0004b340       ?SetSel@CEdit@@QAEXHHH@Z   0044c340 f   uafxcwd:afxinl3.obj
 0001:0004b3b0       ?SetTabStops@CEdit@@QAEHHPAH@Z 0044c3b0 f   uafxcwd:afxinl3.obj
 0001:0004b400       ?SetTabStops@CEdit@@QAEXXZ 0044c400 f   uafxcwd:afxinl3.obj
 0001:0004b460       ?SetTabStops@CEdit@@QAEHABH@Z 0044c460 f   uafxcwd:afxinl3.obj
 0001:0004b4b0       ?Undo@CEdit@@QAEHXZ        0044c4b0 f   uafxcwd:afxinl3.obj
 0001:0004b500       ?Clear@CEdit@@QAEXXZ       0044c500 f   uafxcwd:afxinl3.obj
 0001:0004b550       ?Copy@CEdit@@QAEXXZ        0044c550 f   uafxcwd:afxinl3.obj
 0001:0004b5a0       ?Cut@CEdit@@QAEXXZ         0044c5a0 f   uafxcwd:afxinl3.obj
 0001:0004b5f0       ?Paste@CEdit@@QAEXXZ       0044c5f0 f   uafxcwd:afxinl3.obj
 0001:0004b640       ?SetReadOnly@CEdit@@QAEHH@Z 0044c640 f   uafxcwd:afxinl3.obj
 0001:0004b690       ?GetFirstVisibleLine@CEdit@@QBEHXZ 0044c690 f   uafxcwd:afxinl3.obj
 0001:0004b6e0       ?GetPasswordChar@CEdit@@QBE_WXZ 0044c6e0 f   uafxcwd:afxinl3.obj
 0001:0004b730       ?SetMargins@CEdit@@QAEXII@Z 0044c730 f   uafxcwd:afxinl3.obj
 0001:0004b7a0       ?GetMargins@CEdit@@QBEKXZ  0044c7a0 f   uafxcwd:afxinl3.obj
 0001:0004b7f0       ?SetLimitText@CEdit@@QAEXI@Z 0044c7f0 f   uafxcwd:afxinl3.obj
 0001:0004b840       ?GetLimitText@CEdit@@QBEIXZ 0044c840 f   uafxcwd:afxinl3.obj
 0001:0004b890       ?PosFromChar@CEdit@@QBE?AVCPoint@@I@Z 0044c890 f   uafxcwd:afxinl3.obj
 0001:0004b8f0       ?CharFromPos@CEdit@@QBEHVCPoint@@@Z 0044c8f0 f   uafxcwd:afxinl3.obj
 0001:0004b960       ??0CScrollBar@@QAE@XZ      0044c960 f   uafxcwd:afxinl3.obj
 0001:0004b990       ??_GCScrollBar@@UAEPAXI@Z  0044c990 f i uafxcwd:afxinl3.obj
 0001:0004b990       ??_ECScrollBar@@UAEPAXI@Z  0044c990 f i uafxcwd:afxinl3.obj
 0001:0004b9c0       ?GetScrollPos@CScrollBar@@QBEHXZ 0044c9c0 f   uafxcwd:afxinl3.obj
 0001:0004ba10       ?SetScrollPos@CScrollBar@@QAEHHH@Z 0044ca10 f   uafxcwd:afxinl3.obj
 0001:0004ba60       ?GetScrollRange@CScrollBar@@QBEXPAH0@Z 0044ca60 f   uafxcwd:afxinl3.obj
 0001:0004bab0       ?SetScrollRange@CScrollBar@@QAEXHHH@Z 0044cab0 f   uafxcwd:afxinl3.obj
 0001:0004bb00       ?ShowScrollBar@CScrollBar@@QAEXH@Z 0044cb00 f   uafxcwd:afxinl3.obj
 0001:0004bb50       ?EnableScrollBar@CScrollBar@@QAEHI@Z 0044cb50 f   uafxcwd:afxinl3.obj
 0001:0004bba0       ?SetScrollInfo@CScrollBar@@QAEHPAUtagSCROLLINFO@@H@Z 0044cba0 f   uafxcwd:afxinl3.obj
 0001:0004bbd0       ?GetScrollInfo@CScrollBar@@QAEHPAUtagSCROLLINFO@@I@Z 0044cbd0 f   uafxcwd:afxinl3.obj
 0001:0004bc00       ?GetScrollLimit@CScrollBar@@QAEHXZ 0044cc00 f   uafxcwd:afxinl3.obj
 0001:0004bc20       ?MDIActivate@CMDIFrameWnd@@QAEXPAVCWnd@@@Z 0044cc20 f   uafxcwd:afxinl3.obj
 0001:0004bc80       ?MDIIconArrange@CMDIFrameWnd@@QAEXXZ 0044cc80 f   uafxcwd:afxinl3.obj
 0001:0004bcd0       ?MDIMaximize@CMDIFrameWnd@@QAEXPAVCWnd@@@Z 0044ccd0 f   uafxcwd:afxinl3.obj
 0001:0004bd30       ?MDIPrev@CMDIFrameWnd@@QAEXXZ 0044cd30 f   uafxcwd:afxinl3.obj
 0001:0004bd80       ?MDINext@CMDIFrameWnd@@QAEXXZ 0044cd80 f   uafxcwd:afxinl3.obj
 0001:0004bdd0       ?MDIRestore@CMDIFrameWnd@@QAEXPAVCWnd@@@Z 0044cdd0 f   uafxcwd:afxinl3.obj
 0001:0004be30       ?MDISetMenu@CMDIFrameWnd@@QAEPAVCMenu@@PAV2@0@Z 0044ce30 f   uafxcwd:afxinl3.obj
 0001:0004bea0       ?MDITile@CMDIFrameWnd@@QAEXXZ 0044cea0 f   uafxcwd:afxinl3.obj
 0001:0004bef0       ?MDICascade@CMDIFrameWnd@@QAEXXZ 0044cef0 f   uafxcwd:afxinl3.obj
 0001:0004bf40       ?MDICascade@CMDIFrameWnd@@QAEXH@Z 0044cf40 f   uafxcwd:afxinl3.obj
 0001:0004bf90       ?MDITile@CMDIFrameWnd@@QAEXH@Z 0044cf90 f   uafxcwd:afxinl3.obj
 0001:0004bfe0       ?MDIDestroy@CMDIChildWnd@@QAEXXZ 0044cfe0 f   uafxcwd:afxinl3.obj
 0001:0004c040       ?MDIActivate@CMDIChildWnd@@QAEXXZ 0044d040 f   uafxcwd:afxinl3.obj
 0001:0004c0a0       ?MDIMaximize@CMDIChildWnd@@QAEXXZ 0044d0a0 f   uafxcwd:afxinl3.obj
 0001:0004c100       ?MDIRestore@CMDIChildWnd@@QAEXXZ 0044d100 f   uafxcwd:afxinl3.obj
 0001:0004c160       ?GetDocument@CView@@QBEPAVCDocument@@XZ 0044d160 f   uafxcwd:afxinl3.obj
 0001:0004c190       ?GetTotalSize@CScrollView@@QBE?AVCSize@@XZ 0044d190 f   uafxcwd:afxinl3.obj
 0001:0004c1d0       ?GetTitle@CDocument@@QBEABV?$CStringT@_WV?$StrTraitMFC@_WV?$ChTraitsCRT@_W@ATL@@@@@ATL@@XZ 0044d1d0 f   uafxcwd:afxinl3.obj
 0001:0004c200       ?GetPathName@CDocument@@QBEABV?$CStringT@_WV?$StrTraitMFC@_WV?$ChTraitsCRT@_W@ATL@@@@@ATL@@XZ 0044d200 f   uafxcwd:afxinl3.obj
 0001:0004c230       ?GetDocTemplate@CDocument@@QBEPAVCDocTemplate@@XZ 0044d230 f   uafxcwd:afxinl3.obj
 0001:0004c260       ?IsModified@CDocument@@UAEHXZ 0044d260 f   uafxcwd:afxinl3.obj
 0001:0004c290       ?SetModifiedFlag@CDocument@@UAEXH@Z 0044d290 f   uafxcwd:afxinl3.obj
 0001:0004c2d0       ??BCWinThread@@QBEPAXXZ    0044d2d0 f   uafxcwd:afxinl3.obj
 0001:0004c300       ?SetThreadPriority@CWinThread@@QAEHH@Z 0044d300 f   uafxcwd:afxinl3.obj
 0001:0004c340       ?GetThreadPriority@CWinThread@@QAEHXZ 0044d340 f   uafxcwd:afxinl3.obj
 0001:0004c380       ?ResumeThread@CWinThread@@QAEKXZ 0044d380 f   uafxcwd:afxinl3.obj
 0001:0004c3c0       ?SuspendThread@CWinThread@@QAEKXZ 0044d3c0 f   uafxcwd:afxinl3.obj
 0001:0004c400       ?PostThreadMessageW@CWinThread@@QAEHIIJ@Z 0044d400 f   uafxcwd:afxinl3.obj
 0001:0004c450       ?LoadCursorW@CWinApp@@QBEPAUHICON__@@PB_W@Z 0044d450 f   uafxcwd:afxinl3.obj
 0001:0004c470       ?LoadCursorW@CWinApp@@QBEPAUHICON__@@I@Z 0044d470 f   uafxcwd:afxinl3.obj
 0001:0004c490       ?LoadStandardCursor@CWinApp@@QBEPAUHICON__@@PB_W@Z 0044d490 f   uafxcwd:afxinl3.obj
 0001:0004c4b0       ?LoadOEMCursor@CWinApp@@QBEPAUHICON__@@I@Z 0044d4b0 f   uafxcwd:afxinl3.obj
 0001:0004c4d0       ?LoadIconW@CWinApp@@QBEPAUHICON__@@PB_W@Z 0044d4d0 f   uafxcwd:afxinl3.obj
 0001:0004c4f0       ?LoadIconW@CWinApp@@QBEPAUHICON__@@I@Z 0044d4f0 f   uafxcwd:afxinl3.obj
 0001:0004c510       ?LoadStandardIcon@CWinApp@@QBEPAUHICON__@@PB_W@Z 0044d510 f   uafxcwd:afxinl3.obj
 0001:0004c530       ?LoadOEMIcon@CWinApp@@QBEPAUHICON__@@I@Z 0044d530 f   uafxcwd:afxinl3.obj
 0001:0004c550       ?EnableHtmlHelp@CWinApp@@QAEXXZ 0044d550 f   uafxcwd:afxinl3.obj
 0001:0004c570       ?GetHelpMode@CWinApp@@QAE?AW4AFX_HELP_TYPE@@XZ 0044d570 f   uafxcwd:afxinl3.obj
 0001:0004c590       ?SetHelpMode@CWinApp@@QAEXW4AFX_HELP_TYPE@@@Z 0044d590 f   uafxcwd:afxinl3.obj
 0001:0004c5d0       ?Enable3dControls@CWinApp@@IAEHXZ 0044d5d0 f   uafxcwd:afxinl3.obj
 0001:0004c5f0       ?Enable3dControlsStatic@CWinApp@@IAEHXZ 0044d5f0 f   uafxcwd:afxinl3.obj
 0001:0004c610       ?SetDialogBkColor@CWinApp@@IAEXKK@Z 0044d610 f   uafxcwd:afxinl3.obj
 0001:0004c620       ??0CWaitCursor@@QAE@XZ     0044d620 f   uafxcwd:afxinl3.obj
 0001:0004c640       ??1CWaitCursor@@QAE@XZ     0044d640 f   uafxcwd:afxinl3.obj
 0001:0004c7e0       ?Restore@CWaitCursor@@QAEXXZ 0044d7e0 f   uafxcwd:afxinl3.obj
 0001:0004c800       ?CloseWindow@CWnd@@QAEXXZ  0044d800 f   uafxcwd:afxinl3.obj
 0001:0004c840       ?OpenIcon@CWnd@@QAEHXZ     0044d840 f   uafxcwd:afxinl3.obj
 0001:0004c880       ?OnAmbientProperty@CWnd@@UAEHPAVCOleControlSite@@JPAUtagVARIANT@@@Z 0044d880 f   uafxcwd:winocc.obj
 0001:0004c8d0       ?GetControlUnknown@CWnd@@QAEPAUIUnknown@@XZ 0044d8d0 f   uafxcwd:winocc.obj
 0001:0004c900       ?PaintWindowlessControls@CWnd@@QAEHPAVCDC@@@Z 0044d900 f   uafxcwd:winocc.obj
 0001:0004c940       ?GetOleControlSite@CWnd@@QBEPAVCOleControlSite@@I@Z 0044d940 f   uafxcwd:winocc.obj
 0001:0004c980       ?CheckDlgButton@CWnd@@QAEXHI@Z 0044d980 f   uafxcwd:winocc.obj
 0001:0004c9f0       ?CheckRadioButton@CWnd@@QAEXHHH@Z 0044d9f0 f   uafxcwd:winocc.obj
 0001:0004ca70       ?GetDlgItem@CWnd@@QBEPAV1@H@Z 0044da70 f   uafxcwd:winocc.obj
 0001:0004cae0       ?GetDlgItem@CWnd@@QBEXHPAPAUHWND__@@@Z 0044dae0 f   uafxcwd:winocc.obj
 0001:0004cb70       ?GetDlgItemInt@CWnd@@QBEIHPAHH@Z 0044db70 f   uafxcwd:winocc.obj
 0001:0004cbf0       ?GetDlgItemTextW@CWnd@@QBEHHPA_WH@Z 0044dbf0 f   uafxcwd:winocc.obj
 0001:0004cc70       ?SendDlgItemMessageW@CWnd@@QAEJHIIJ@Z 0044dc70 f   uafxcwd:winocc.obj
 0001:0004cd00       ?SetDlgItemInt@CWnd@@QAEXHIH@Z 0044dd00 f   uafxcwd:winocc.obj
 0001:0004cd80       ?SetDlgItemTextW@CWnd@@QAEXHPB_W@Z 0044dd80 f   uafxcwd:winocc.obj
 0001:0004ce00       ?IsDlgButtonChecked@CWnd@@QBEIH@Z 0044de00 f   uafxcwd:winocc.obj
 0001:0004ce70       ?ScrollWindowEx@CWnd@@QAEHHHPBUtagRECT@@0PAVCRgn@@PAU2@I@Z 0044de70 f   uafxcwd:winocc.obj
 0001:0004cf10       ?IsDialogMessageW@CWnd@@QAEHPAUtagMSG@@@Z 0044df10 f   uafxcwd:winocc.obj
 0001:0004cf90       ?GetStyle@CWnd@@QBEKXZ     0044df90 f   uafxcwd:winocc.obj
 0001:0004d000       ?GetExStyle@CWnd@@QBEKXZ   0044e000 f   uafxcwd:winocc.obj
 0001:0004d070       ?ModifyStyle@CWnd@@QAEHKKI@Z 0044e070 f   uafxcwd:winocc.obj
 0001:0004d100       ?ModifyStyleEx@CWnd@@QAEHKKI@Z 0044e100 f   uafxcwd:winocc.obj
 0001:0004d190       ?SetWindowTextW@CWnd@@QAEXPB_W@Z 0044e190 f   uafxcwd:winocc.obj
 0001:0004d270       ?GetWindowTextW@CWnd@@QBEHPA_WH@Z 0044e270 f   uafxcwd:winocc.obj
 0001:0004d360       ?tcsncpy_s@Checked@ATL@@YAHPA_WIPB_WI@Z 0044e360 f i uafxcwd:winocc.obj
 0001:0004d390       ?GetWindowTextLengthW@CWnd@@QBEHXZ 0044e390 f   uafxcwd:winocc.obj
 0001:0004d460       ?GetDlgCtrlID@CWnd@@QBEHXZ 0044e460 f   uafxcwd:winocc.obj
 0001:0004d4d0       ?SetDlgCtrlID@CWnd@@QAEHH@Z 0044e4d0 f   uafxcwd:winocc.obj
 0001:0004d550       ?MoveWindow@CWnd@@QAEXHHHHH@Z 0044e550 f   uafxcwd:winocc.obj
 0001:0004d5e0       ?SetWindowPos@CWnd@@QAEHPBV1@HHHHI@Z 0044e5e0 f   uafxcwd:winocc.obj
 0001:0004d690       ?ShowWindow@CWnd@@QAEHH@Z  0044e690 f   uafxcwd:winocc.obj
 0001:0004d710       ?IsWindowEnabled@CWnd@@QBEHXZ 0044e710 f   uafxcwd:winocc.obj
 0001:0004d780       ?EnableWindow@CWnd@@QAEHH@Z 0044e780 f   uafxcwd:winocc.obj
 0001:0004d800       ?SetFocus@CWnd@@QAEPAV1@XZ 0044e800 f   uafxcwd:winocc.obj
 0001:0004d880       ?InvokeHelper@CWnd@@QAAXJGGPAXPBEZZ 0044e880 f   uafxcwd:winocc.obj
 0001:0004d8f0       ?GetProperty@CWnd@@QBEXJGPAX@Z 0044e8f0 f   uafxcwd:winocc.obj
 0001:0004d950       ?SetProperty@CWnd@@QAAXJGZZ 0044e950 f   uafxcwd:winocc.obj
 0001:0004d9b0       ?GetDSCCursor@CWnd@@QAEPAUIUnknown@@XZ 0044e9b0 f   uafxcwd:winocc.obj
 0001:0004da40       ?BindDefaultProperty@CWnd@@QAEXJGPB_WPAV1@@Z 0044ea40 f   uafxcwd:winocc.obj
 0001:0004daa0       ?BindProperty@CWnd@@QAEXJPAV1@@Z 0044eaa0 f   uafxcwd:winocc.obj
 0001:0004daf0       ?AttachControlSite@CWnd@@IAEXPAVCHandleMap@@@Z 0044eaf0 f   uafxcwd:winocc.obj
 0001:0004db60       ?AttachControlSite@CWnd@@QAEXPAV1@I@Z 0044eb60 f   uafxcwd:winocc.obj
 0001:0004dbe0       ?GetStyle@COleControlSiteOrWnd@@QBEKXZ 0044ebe0 f   uafxcwd:winocc.obj
 0001:0004dc20       ?GetNextDlgTabItem@CWnd@@QBEPAUCOleControlSiteOrWnd@@PAU2@H@Z 0044ec20 f   uafxcwd:winocc.obj
 0001:0004de10       ?FindSiteOrWnd@CWnd@@QBEPAU__POSITION@@PBUCOleControlSiteOrWnd@@@Z 0044ee10 f   uafxcwd:winocc.obj
 0001:0004de70       ??0CDlgControlIterator@@QAE@ABVCOleControlContainer@@@Z 0044ee70 f i uafxcwd:winocc.obj
 0001:0004dea0       ?FindSiteOrWndWithFocus@CWnd@@QBEPAU__POSITION@@XZ 0044eea0 f   uafxcwd:winocc.obj
 0001:0004df50       ?GetPrevDlgGroupItem@CWnd@@QBEPAUCOleControlSiteOrWnd@@PAU2@@Z 0044ef50 f   uafxcwd:winocc.obj
 0001:0004dfe0       ??0CDlgGroupRadioButtonIterator@@QAE@AAVCOleControlContainer@@PAU__POSITION@@@Z 0044efe0 f i uafxcwd:winocc.obj
 0001:0004e010       ??0CDlgControlIterator@@QAE@ABVCOleControlContainer@@PAU__POSITION@@@Z 0044f010 f i uafxcwd:winocc.obj
 0001:0004e040       ?IsEnd@CDlgGroupRadioButtonIterator@@QBE_NXZ 0044f040 f i uafxcwd:winocc.obj
 0001:0004e060       ?MovePrev@CDlgGroupRadioButtonIterator@@QAEXXZ 0044f060 f i uafxcwd:winocc.obj
 0001:0004e130       ??0CDlgControlIterator@@QAE@ABV0@@Z 0044f130 f i uafxcwd:winocc.obj
 0001:0004e150       ??BCDlgGroupRadioButtonIterator@@QBEPAUCOleControlSiteOrWnd@@XZ 0044f150 f i uafxcwd:winocc.obj
 0001:0004e1b0       ?IsDisabled@CDlgGroupRadioButtonIterator@@SA_NPBUCOleControlSiteOrWnd@@@Z 0044f1b0 f i uafxcwd:winocc.obj
 0001:0004e220       ?IsGroup@CDlgGroupRadioButtonIterator@@SA_NPBUCOleControlSiteOrWnd@@@Z 0044f220 f i uafxcwd:winocc.obj
 0001:0004e240       ?GetLastButton@CDlgGroupRadioButtonIterator@@QBE?AVCDlgControlIterator@@XZ 0044f240 f i uafxcwd:winocc.obj
 0001:0004e2c0       ?Skip@CDlgControlIterator@@QBE?AV1@H@Z 0044f2c0 f i uafxcwd:winocc.obj
 0001:0004e2f0       ??0CDlgControlIterator@@IAE@ABV?$CTypedPtrListIterator@VCPtrList@@PAUCOleControlSiteOrWnd@@@@@Z 0044f2f0 f i uafxcwd:winocc.obj
 0001:0004e310       ??4CDlgControlIterator@@QAEAAV0@ABV0@@Z 0044f310 f i uafxcwd:winocc.obj
 0001:0004e330       ?GetNextDlgGroupItem@CWnd@@QBEPAUCOleControlSiteOrWnd@@PAU2@@Z 0044f330 f   uafxcwd:winocc.obj
 0001:0004e3c0       ?MoveNext@CDlgGroupRadioButtonIterator@@QAEXXZ 0044f3c0 f i uafxcwd:winocc.obj
 0001:0004e480       ?GetFirstButton@CDlgGroupRadioButtonIterator@@QBE?AVCDlgControlIterator@@XZ 0044f480 f i uafxcwd:winocc.obj
 0001:0004e520       ?RemoveRadioCheckFromGroup@CWnd@@QBEXPBUCOleControlSiteOrWnd@@@Z 0044f520 f   uafxcwd:winocc.obj
 0001:0004e6a0       ?AttachControlSite@COleControlContainer@@UAEXPAVCWnd@@I@Z 0044f6a0 f   uafxcwd:winocc.obj
 0001:0004e760       ?GetPrev@?$_CTypedPtrList@VCPtrList@@PAUCOleControlSiteOrWnd@@@@QAEAAPAUCOleControlSiteOrWnd@@AAPAU__POSITION@@@Z 0044f760 f i uafxcwd:winocc.obj
 0001:0004e780       ??0?$CTypedPtrListIterator@VCPtrList@@PAUCOleControlSiteOrWnd@@@@QAE@ABV?$CTypedPtrList@VCPtrList@@PAUCOleControlSiteOrWnd@@@@@Z 0044f780 f i uafxcwd:winocc.obj
 0001:0004e7b0       ??0?$CTypedPtrListIterator@VCPtrList@@PAUCOleControlSiteOrWnd@@@@QAE@ABV?$CTypedPtrList@VCPtrList@@PAUCOleControlSiteOrWnd@@@@PAU__POSITION@@@Z 0044f7b0 f i uafxcwd:winocc.obj
 0001:0004e7e0       ??0?$CTypedPtrListIterator@VCPtrList@@PAUCOleControlSiteOrWnd@@@@QAE@ABV0@@Z 0044f7e0 f i uafxcwd:winocc.obj
 0001:0004e850       ??4?$CTypedPtrListIterator@VCPtrList@@PAUCOleControlSiteOrWnd@@@@QAEAAV0@ABV0@@Z 0044f850 f i uafxcwd:winocc.obj
 0001:0004e8b0       ?GetPosition@?$CTypedPtrListIterator@VCPtrList@@PAUCOleControlSiteOrWnd@@@@QBEPAU__POSITION@@XZ 0044f8b0 f i uafxcwd:winocc.obj
 0001:0004e8d0       ?IsEnd@?$CTypedPtrListIterator@VCPtrList@@PAUCOleControlSiteOrWnd@@@@QBE_NXZ 0044f8d0 f i uafxcwd:winocc.obj
 0001:0004e8f0       ??7?$CTypedPtrListIterator@VCPtrList@@PAUCOleControlSiteOrWnd@@@@QBE_NXZ 0044f8f0 f i uafxcwd:winocc.obj
 0001:0004e910       ?MoveNext@?$CTypedPtrListIterator@VCPtrList@@PAUCOleControlSiteOrWnd@@@@QAEXXZ 0044f910 f i uafxcwd:winocc.obj
 0001:0004e940       ?MovePrev@?$CTypedPtrListIterator@VCPtrList@@PAUCOleControlSiteOrWnd@@@@QAEXXZ 0044f940 f i uafxcwd:winocc.obj
 0001:0004e970       ?Skip@?$CTypedPtrListIterator@VCPtrList@@PAUCOleControlSiteOrWnd@@@@QBE?AV1@H@Z 0044f970 f i uafxcwd:winocc.obj
 0001:0004ea00       ??D?$CTypedPtrListIterator@VCPtrList@@PAUCOleControlSiteOrWnd@@@@QAEPAUCOleControlSiteOrWnd@@XZ 0044fa00 f i uafxcwd:winocc.obj
 0001:0004ea60       ??D?$CTypedPtrListIterator@VCPtrList@@PAUCOleControlSiteOrWnd@@@@QBEQAUCOleControlSiteOrWnd@@XZ 0044fa60 f i uafxcwd:winocc.obj
 0001:0004ea80       ?GetNext@?$_CTypedPtrList@VCPtrList@@PAUCOleControlSiteOrWnd@@@@QBEPAUCOleControlSiteOrWnd@@AAPAU__POSITION@@@Z 0044fa80 f i uafxcwd:winocc.obj
 0001:0004eaa0       ?GetPrev@?$_CTypedPtrList@VCPtrList@@PAUCOleControlSiteOrWnd@@@@QBEPAUCOleControlSiteOrWnd@@AAPAU__POSITION@@@Z 0044faa0 f i uafxcwd:winocc.obj
 0001:0004eac0       ?GetAt@?$_CTypedPtrList@VCPtrList@@PAUCOleControlSiteOrWnd@@@@QBEPAUCOleControlSiteOrWnd@@PAU__POSITION@@@Z 0044fac0 f i uafxcwd:winocc.obj
 0001:0004eae0       ??6@YGAAVCDumpContext@@AAV0@UtagSIZE@@@Z 0044fae0 f   uafxcwd:wingdi.obj
 0001:0004eb30       ??6@YGAAVCDumpContext@@AAV0@UtagPOINT@@@Z 0044fb30 f   uafxcwd:wingdi.obj
 0001:0004eb80       ??6@YGAAVCDumpContext@@AAV0@ABUtagRECT@@@Z 0044fb80 f   uafxcwd:wingdi.obj
 0001:0004ec00       ??0CDC@@QAE@XZ             0044fc00 f   uafxcwd:wingdi.obj
 0001:0004ec40       ??_GCDC@@UAEPAXI@Z         0044fc40 f i uafxcwd:wingdi.obj
 0001:0004ec40       ??_ECDC@@UAEPAXI@Z         0044fc40 f i uafxcwd:wingdi.obj
 0001:0004ec70       ?AssertValid@CDC@@UBEXXZ   0044fc70 f   uafxcwd:wingdi.obj
 0001:0004ec90       ?Dump@CDC@@UBEXAAVCDumpContext@@@Z 0044fc90 f   uafxcwd:wingdi.obj
 0001:0004ed10       ?afxMapHDC@@YGPAVCHandleMap@@H@Z 0044fd10 f   uafxcwd:wingdi.obj
 0001:0004edf0       ?FromHandle@CDC@@SGPAV1@PAUHDC__@@@Z 0044fdf0 f   uafxcwd:wingdi.obj
 0001:0004ee60       ?Attach@CDC@@QAEHPAUHDC__@@@Z 0044fe60 f   uafxcwd:wingdi.obj
 0001:0004ef10       ?Detach@CDC@@QAEPAUHDC__@@XZ 0044ff10 f   uafxcwd:wingdi.obj
 0001:0004ef70       ?DeleteDC@CDC@@QAEHXZ      0044ff70 f   uafxcwd:wingdi.obj
 0001:0004efa0       ??1CDC@@UAE@XZ             0044ffa0 f   uafxcwd:wingdi.obj
 0001:0004f010       ?SetAttribDC@CDC@@UAEXPAUHDC__@@@Z 00450010 f   uafxcwd:wingdi.obj
 0001:0004f030       ?SetOutputDC@CDC@@UAEXPAUHDC__@@@Z 00450030 f   uafxcwd:wingdi.obj
 0001:0004f0c0       ?ReleaseAttribDC@CDC@@UAEXXZ 004500c0 f   uafxcwd:wingdi.obj
 0001:0004f0e0       ?ReleaseOutputDC@CDC@@UAEXXZ 004500e0 f   uafxcwd:wingdi.obj
 0001:0004f170       ?StartDocW@CDC@@QAEHPB_W@Z 00450170 f   uafxcwd:wingdi.obj
 0001:0004f1b0       ?SaveDC@CDC@@UAEHXZ        004501b0 f   uafxcwd:wingdi.obj
 0001:0004f230       ?RestoreDC@CDC@@UAEHH@Z    00450230 f   uafxcwd:wingdi.obj
 0001:0004f2f0       ?SelectGdiObject@CDC@@KGPAVCGdiObject@@PAUHDC__@@PAX@Z 004502f0 f   uafxcwd:wingdi.obj
 0001:0004f310       ?SelectStockObject@CDC@@UAEPAVCGdiObject@@H@Z 00450310 f   uafxcwd:wingdi.obj
 0001:0004f3c0       ?SelectObject@CDC@@QAEPAVCPen@@PAV2@@Z 004503c0 f   uafxcwd:wingdi.obj
 0001:0004f450       ?SelectObject@CDC@@QAEPAVCBrush@@PAV2@@Z 00450450 f   uafxcwd:wingdi.obj
 0001:0004f4e0       ?SelectObject@CDC@@UAEPAVCFont@@PAV2@@Z 004504e0 f   uafxcwd:wingdi.obj
 0001:0004f570       ?SelectObject@CDC@@QAEHPAVCRgn@@@Z 00450570 f   uafxcwd:wingdi.obj
 0001:0004f600       ?SelectPalette@CDC@@QAEPAVCPalette@@PAV2@H@Z 00450600 f   uafxcwd:wingdi.obj
 0001:0004f650       ?SetBkColor@CDC@@UAEKK@Z   00450650 f   uafxcwd:wingdi.obj
 0001:0004f6d0       ?SetBkMode@CDC@@QAEHH@Z    004506d0 f   uafxcwd:wingdi.obj
 0001:0004f750       ?SetPolyFillMode@CDC@@QAEHH@Z 00450750 f   uafxcwd:wingdi.obj
 0001:0004f7d0       ?SetROP2@CDC@@QAEHH@Z      004507d0 f   uafxcwd:wingdi.obj
 0001:0004f850       ?SetStretchBltMode@CDC@@QAEHH@Z 00450850 f   uafxcwd:wingdi.obj
 0001:0004f8d0       ?SetTextColor@CDC@@UAEKK@Z 004508d0 f   uafxcwd:wingdi.obj
 0001:0004f950       ?SetGraphicsMode@CDC@@QAEHH@Z 00450950 f   uafxcwd:wingdi.obj
 0001:0004f9d0       ?SetWorldTransform@CDC@@QAEHPBUtagXFORM@@@Z 004509d0 f   uafxcwd:wingdi.obj
 0001:0004fa50       ?ModifyWorldTransform@CDC@@QAEHPBUtagXFORM@@K@Z 00450a50 f   uafxcwd:wingdi.obj
 0001:0004fad0       ?SetMapMode@CDC@@UAEHH@Z   00450ad0 f   uafxcwd:wingdi.obj
 0001:0004fb50       ?SetViewportOrg@CDC@@UAE?AVCPoint@@HH@Z 00450b50 f   uafxcwd:wingdi.obj
 0001:0004fc10       ?OffsetViewportOrg@CDC@@UAE?AVCPoint@@HH@Z 00450c10 f   uafxcwd:wingdi.obj
 0001:0004fcd0       ?SetViewportExt@CDC@@UAE?AVCSize@@HH@Z 00450cd0 f   uafxcwd:wingdi.obj
 0001:0004fd90       ?ScaleViewportExt@CDC@@UAE?AVCSize@@HHHH@Z 00450d90 f   uafxcwd:wingdi.obj
 0001:0004fe60       ?SetWindowOrg@CDC@@QAE?AVCPoint@@HH@Z 00450e60 f   uafxcwd:wingdi.obj
 0001:0004ff20       ?OffsetWindowOrg@CDC@@QAE?AVCPoint@@HH@Z 00450f20 f   uafxcwd:wingdi.obj
 0001:0004ffe0       ?SetWindowExt@CDC@@UAE?AVCSize@@HH@Z 00450fe0 f   uafxcwd:wingdi.obj
 0001:000500a0       ?ScaleWindowExt@CDC@@UAE?AVCSize@@HHHH@Z 004510a0 f   uafxcwd:wingdi.obj
 0001:00050170       ?GetClipBox@CDC@@UBEHPAUtagRECT@@@Z 00451170 f   uafxcwd:wingdi.obj
 0001:000501b0       ?SelectClipRgn@CDC@@QAEHPAVCRgn@@@Z 004511b0 f   uafxcwd:wingdi.obj
 0001:00050240       ?ExcludeClipRect@CDC@@QAEHHHHH@Z 00451240 f   uafxcwd:wingdi.obj
 0001:000502d0       ?ExcludeClipRect@CDC@@QAEHPBUtagRECT@@@Z 004512d0 f   uafxcwd:wingdi.obj
 0001:00050380       ?IntersectClipRect@CDC@@QAEHHHHH@Z 00451380 f   uafxcwd:wingdi.obj
 0001:00050410       ?IntersectClipRect@CDC@@QAEHPBUtagRECT@@@Z 00451410 f   uafxcwd:wingdi.obj
 0001:000504c0       ?OffsetClipRgn@CDC@@QAEHHH@Z 004514c0 f   uafxcwd:wingdi.obj
 0001:00050540       ?OffsetClipRgn@CDC@@QAEHUtagSIZE@@@Z 00451540 f   uafxcwd:wingdi.obj
 0001:000505c0       ?MoveTo@CDC@@QAE?AVCPoint@@HH@Z 004515c0 f   uafxcwd:wingdi.obj
 0001:00050680       ?LineTo@CDC@@QAEHHH@Z      00451680 f   uafxcwd:wingdi.obj
 0001:000506f0       ?SetTextAlign@CDC@@QAEII@Z 004516f0 f   uafxcwd:wingdi.obj
 0001:00050770       ?SetTextJustification@CDC@@QAEHHH@Z 00451770 f   uafxcwd:wingdi.obj
 0001:000507f0       ?SetTextCharacterExtra@CDC@@QAEHH@Z 004517f0 f   uafxcwd:wingdi.obj
 0001:00050870       ?SetMapperFlags@CDC@@QAEKK@Z 00451870 f   uafxcwd:wingdi.obj
 0001:000508f0       ?GetLayout@CDC@@QBEKXZ     004518f0 f   uafxcwd:wingdi.obj
 0001:00050990       ?SetLayout@CDC@@QAEKK@Z    00451990 f   uafxcwd:wingdi.obj
 0001:00050a30       ?ScreenToClient@CWnd@@QBEXPAUtagRECT@@@Z 00451a30 f   uafxcwd:wingdi.obj
 0001:00050ab0       ?ClientToScreen@CWnd@@QBEXPAUtagRECT@@@Z 00451ab0 f   uafxcwd:wingdi.obj
 0001:00050b30       ?ArcTo@CDC@@QAEHHHHHHHHH@Z 00451b30 f   uafxcwd:wingdi.obj
 0001:00050c00       ?SetArcDirection@CDC@@QAEHH@Z 00451c00 f   uafxcwd:wingdi.obj
 0001:00050c80       ?PolyDraw@CDC@@QAEHPBUtagPOINT@@PBEH@Z 00451c80 f   uafxcwd:wingdi.obj
 0001:00050d40       ?PolylineTo@CDC@@QAEHPBUtagPOINT@@H@Z 00451d40 f   uafxcwd:wingdi.obj
 0001:00050e00       ?SetColorAdjustment@CDC@@QAEHPBUtagCOLORADJUSTMENT@@@Z 00451e00 f   uafxcwd:wingdi.obj
 0001:00050e80       ?PolyBezierTo@CDC@@QAEHPBUtagPOINT@@H@Z 00451e80 f   uafxcwd:wingdi.obj
 0001:00050f40       ?SelectClipPath@CDC@@QAEHH@Z 00451f40 f   uafxcwd:wingdi.obj
 0001:00051020       ?SelectClipRgn@CDC@@QAEHPAVCRgn@@H@Z 00452020 f   uafxcwd:wingdi.obj
 0001:000510b0       ?AfxEnumMetaFileProc@@YGHPAUHDC__@@PAUtagHANDLETABLE@@PAUtagMETARECORD@@HJ@Z 004520b0 f   uafxcwd:wingdi.obj
 0001:00051420       ?PlayMetaFile@CDC@@QAEHPAUHMETAFILE__@@@Z 00452420 f   uafxcwd:wingdi.obj
 0001:00051470       ?LPtoDP@CDC@@QBEXPAUtagSIZE@@@Z 00452470 f   uafxcwd:wingdi.obj
 0001:00051520       ?DPtoLP@CDC@@QBEXPAUtagSIZE@@@Z 00452520 f   uafxcwd:wingdi.obj
 0001:000515d0       ?AssertValid@CClientDC@@UBEXXZ 004525d0 f   uafxcwd:wingdi.obj
 0001:00051620       ?Dump@CClientDC@@UBEXAAVCDumpContext@@@Z 00452620 f   uafxcwd:wingdi.obj
 0001:00051670       ??0CClientDC@@QAE@PAVCWnd@@@Z 00452670 f   uafxcwd:wingdi.obj
 0001:00051730       ??_ECClientDC@@UAEPAXI@Z   00452730 f i uafxcwd:wingdi.obj
 0001:00051730       ??_GCClientDC@@UAEPAXI@Z   00452730 f i uafxcwd:wingdi.obj
 0001:00051760       ??1CClientDC@@UAE@XZ       00452760 f   uafxcwd:wingdi.obj
 0001:000517f0       ?AssertValid@CWindowDC@@UBEXXZ 004527f0 f   uafxcwd:wingdi.obj
 0001:00051840       ?Dump@CWindowDC@@UBEXAAVCDumpContext@@@Z 00452840 f   uafxcwd:wingdi.obj
 0001:00051890       ??0CWindowDC@@QAE@PAVCWnd@@@Z 00452890 f   uafxcwd:wingdi.obj
 0001:00051950       ??_ECWindowDC@@UAEPAXI@Z   00452950 f i uafxcwd:wingdi.obj
 0001:00051950       ??_GCWindowDC@@UAEPAXI@Z   00452950 f i uafxcwd:wingdi.obj
 0001:00051980       ??1CWindowDC@@UAE@XZ       00452980 f   uafxcwd:wingdi.obj
 0001:00051a10       ?AssertValid@CPaintDC@@UBEXXZ 00452a10 f   uafxcwd:wingdi.obj
 0001:00051a50       ?Dump@CPaintDC@@UBEXAAVCDumpContext@@@Z 00452a50 f   uafxcwd:wingdi.obj
 0001:00051af0       ??0CPaintDC@@QAE@PAVCWnd@@@Z 00452af0 f   uafxcwd:wingdi.obj
 0001:00051bc0       ??_ECPaintDC@@UAEPAXI@Z    00452bc0 f i uafxcwd:wingdi.obj
 0001:00051bc0       ??_GCPaintDC@@UAEPAXI@Z    00452bc0 f i uafxcwd:wingdi.obj
 0001:00051bf0       ??1CPaintDC@@UAE@XZ        00452bf0 f   uafxcwd:wingdi.obj
 0001:00051cb0       ?Dump@CGdiObject@@UBEXAAVCDumpContext@@@Z 00452cb0 f   uafxcwd:wingdi.obj
 0001:00051d00       ?AssertValid@CGdiObject@@UBEXXZ 00452d00 f   uafxcwd:wingdi.obj
 0001:00051d50       ?afxMapHGDIOBJ@@YGPAVCHandleMap@@H@Z 00452d50 f   uafxcwd:wingdi.obj
 0001:00051e30       ?FromHandle@CGdiObject@@SGPAV1@PAX@Z 00452e30 f   uafxcwd:wingdi.obj
 0001:00051ea0       ?Attach@CGdiObject@@QAEHPAX@Z 00452ea0 f   uafxcwd:wingdi.obj
 0001:00051f20       ?Detach@CGdiObject@@QAEPAXXZ 00452f20 f   uafxcwd:wingdi.obj
 0001:00051f70       ?DeleteObject@CGdiObject@@QAEHXZ 00452f70 f   uafxcwd:wingdi.obj
 0001:00051fa0       ??0CPen@@QAE@HHK@Z         00452fa0 f   uafxcwd:wingdi.obj
 0001:00052020       ??0CPen@@QAE@HHPBUtagLOGBRUSH@@HPBK@Z 00453020 f   uafxcwd:wingdi.obj
 0001:000520b0       ?Dump@CPen@@UBEXAAVCDumpContext@@@Z 004530b0 f   uafxcwd:wingdi.obj
 0001:00052180       ??0CBrush@@QAE@K@Z         00453180 f   uafxcwd:wingdi.obj
 0001:00052200       ??0CBrush@@QAE@HK@Z        00453200 f   uafxcwd:wingdi.obj
 0001:00052280       ??0CBrush@@QAE@PAVCBitmap@@@Z 00453280 f   uafxcwd:wingdi.obj
 0001:00052310       ?CreateDIBPatternBrush@CBrush@@QAEHPAXI@Z 00453310 f   uafxcwd:wingdi.obj
 0001:00052390       ?Dump@CBrush@@UBEXAAVCDumpContext@@@Z 00453390 f   uafxcwd:wingdi.obj
 0001:00052460       ?Dump@CFont@@UBEXAAVCDumpContext@@@Z 00453460 f   uafxcwd:wingdi.obj
 0001:00052650       ?Dump@CBitmap@@UBEXAAVCDumpContext@@@Z 00453650 f   uafxcwd:wingdi.obj
 0001:00052770       ?GetRuntimeClass@CResourceException@@UBEPAUCRuntimeClass@@XZ 00453770 f   uafxcwd:wingdi.obj
 0001:00052790       ?GetRuntimeClass@CUserException@@UBEPAUCRuntimeClass@@XZ 00453790 f   uafxcwd:wingdi.obj
 0001:000527b0       ?CreateObject@CDC@@SGPAVCObject@@XZ 004537b0 f   uafxcwd:wingdi.obj
 0001:00052830       ?GetRuntimeClass@CDC@@UBEPAUCRuntimeClass@@XZ 00453830 f   uafxcwd:wingdi.obj
 0001:00052850       ?GetRuntimeClass@CClientDC@@UBEPAUCRuntimeClass@@XZ 00453850 f   uafxcwd:wingdi.obj
 0001:00052870       ?GetRuntimeClass@CWindowDC@@UBEPAUCRuntimeClass@@XZ 00453870 f   uafxcwd:wingdi.obj
 0001:00052890       ?GetRuntimeClass@CPaintDC@@UBEPAUCRuntimeClass@@XZ 00453890 f   uafxcwd:wingdi.obj
 0001:000528b0       ?CreateObject@CGdiObject@@SGPAVCObject@@XZ 004538b0 f   uafxcwd:wingdi.obj
 0001:00052930       ?GetRuntimeClass@CGdiObject@@UBEPAUCRuntimeClass@@XZ 00453930 f   uafxcwd:wingdi.obj
 0001:00052950       ?GetRuntimeClass@CPen@@UBEPAUCRuntimeClass@@XZ 00453950 f   uafxcwd:wingdi.obj
 0001:00052970       ?GetRuntimeClass@CBrush@@UBEPAUCRuntimeClass@@XZ 00453970 f   uafxcwd:wingdi.obj
 0001:00052990       ?GetRuntimeClass@CFont@@UBEPAUCRuntimeClass@@XZ 00453990 f   uafxcwd:wingdi.obj
 0001:000529b0       ?GetRuntimeClass@CBitmap@@UBEPAUCRuntimeClass@@XZ 004539b0 f   uafxcwd:wingdi.obj
 0001:000529d0       ?GetRuntimeClass@CPalette@@UBEPAUCRuntimeClass@@XZ 004539d0 f   uafxcwd:wingdi.obj
 0001:000529f0       ?GetRuntimeClass@CRgn@@UBEPAUCRuntimeClass@@XZ 004539f0 f   uafxcwd:wingdi.obj
 0001:00052a10       ?AfxThrowResourceException@@YGXXZ 00453a10 f   uafxcwd:wingdi.obj
 0001:00052a30       ?AfxThrowUserException@@YGXXZ 00453a30 f   uafxcwd:wingdi.obj
 0001:00052a50       ?AfxGetGrayBitmap@@YGXABVCBitmap@@PAV1@K@Z 00453a50 f   uafxcwd:wingdi.obj
 0001:00052da0       ?AfxDrawGrayBitmap@@YGXPAVCDC@@HHABVCBitmap@@K@Z 00453da0 f   uafxcwd:wingdi.obj
 0001:000530c0       ?AfxGetDitheredBitmap@@YGXABVCBitmap@@PAV1@KK@Z 004540c0 f   uafxcwd:wingdi.obj
 0001:00053490       ?AfxDrawDitheredBitmap@@YGXPAVCDC@@HHABVCBitmap@@KK@Z 00454490 f   uafxcwd:wingdi.obj
 0001:000537e0       ?Construct@?$ConstructDestruct@VCDC@@@@SGXPAVCObject@@@Z 004547e0 f i uafxcwd:wingdi.obj
 0001:00053860       ?Destruct@?$ConstructDestruct@VCDC@@@@SGXPAVCObject@@@Z 00454860 f i uafxcwd:wingdi.obj
 0001:00053890       ?Construct@?$ConstructDestruct@VCGdiObject@@@@SGXPAVCObject@@@Z 00454890 f i uafxcwd:wingdi.obj
 0001:00053910       ?Destruct@?$ConstructDestruct@VCGdiObject@@@@SGXPAVCObject@@@Z 00454910 f i uafxcwd:wingdi.obj
 0001:00053940       ?_AfxConvertDialogUnitsToPixels@@YGXPB_WGHHPAUtagSIZE@@@Z 00454940 f   uafxcwd:dlgtempl.obj
 0001:00053ab0       ?IsDialogEx@@YAHPBUDLGTEMPLATE@@@Z 00454ab0 f i uafxcwd:dlgtempl.obj
 0001:00053ad0       ?HasFont@@YAHPBUDLGTEMPLATE@@@Z 00454ad0 f i uafxcwd:dlgtempl.obj
 0001:00053b10       ?FontAttrSize@@YAHH@Z      00454b10 f i uafxcwd:dlgtempl.obj
 0001:00053b30       ??0CDialogTemplate@@QAE@PBUDLGTEMPLATE@@@Z 00454b30 f   uafxcwd:dlgtempl.obj
 0001:00053b90       ??0CDialogTemplate@@QAE@PAX@Z 00454b90 f   uafxcwd:dlgtempl.obj
 0001:00053c10       ?SetTemplate@CDialogTemplate@@IAEHPBUDLGTEMPLATE@@I@Z 00454c10 f   uafxcwd:dlgtempl.obj
 0001:00053cc0       ??1CDialogTemplate@@QAE@XZ 00454cc0 f   uafxcwd:dlgtempl.obj
 0001:00053cf0       ?Load@CDialogTemplate@@QAEHPB_W@Z 00454cf0 f   uafxcwd:dlgtempl.obj
 0001:00053d90       ?Detach@CDialogTemplate@@QAEPAXXZ 00454d90 f   uafxcwd:dlgtempl.obj
 0001:00053dc0       ?HasFont@CDialogTemplate@@QBEHXZ 00454dc0 f   uafxcwd:dlgtempl.obj
 0001:00053e00       ?GetFontSizeField@CDialogTemplate@@KAPAEPBUDLGTEMPLATE@@@Z 00454e00 f   uafxcwd:dlgtempl.obj
 0001:00053eb0       ?GetTemplateSize@CDialogTemplate@@KAIPBUDLGTEMPLATE@@@Z 00454eb0 f   uafxcwd:dlgtempl.obj
 0001:00054000       ?_SkipString@@YAPA_WPA_W@Z 00455000 f i uafxcwd:dlgtempl.obj
 0001:00054020       ?GetFont@CDialogTemplate@@SAHPBUDLGTEMPLATE@@AAV?$CStringT@_WV?$StrTraitMFC@_WV?$ChTraitsCRT@_W@ATL@@@@@ATL@@AAG@Z 00455020 f   uafxcwd:dlgtempl.obj
 0001:000540a0       ?GetFont@CDialogTemplate@@QBEHAAV?$CStringT@_WV?$StrTraitMFC@_WV?$ChTraitsCRT@_W@ATL@@@@@ATL@@AAG@Z 004550a0 f   uafxcwd:dlgtempl.obj
 0001:00054110       ?SetFont@CDialogTemplate@@QAEHPB_WG@Z 00455110 f   uafxcwd:dlgtempl.obj
 0001:00054310       ?SetSystemFont@CDialogTemplate@@QAEHG@Z 00455310 f   uafxcwd:dlgtempl.obj
 0001:000543f0       ?GetSizeInDialogUnits@CDialogTemplate@@QBEXPAUtagSIZE@@@Z 004553f0 f   uafxcwd:dlgtempl.obj
 0001:000544b0       ?GetSizeInPixels@CDialogTemplate@@QBEXPAUtagSIZE@@@Z 004554b0 f   uafxcwd:dlgtempl.obj
 0001:00054600       ?AfxWingdixTerm@@YAXXZ     00455600 f   uafxcwd:wingdix.obj
 0001:00054620       ?DPtoHIMETRIC@CDC@@QBEXPAUtagSIZE@@@Z 00455620 f   uafxcwd:wingdix.obj
 0001:00054760       ?HIMETRICtoDP@CDC@@QBEXPAUtagSIZE@@@Z 00455760 f   uafxcwd:wingdix.obj
 0001:000548a0       ?LPtoHIMETRIC@CDC@@QBEXPAUtagSIZE@@@Z 004558a0 f   uafxcwd:wingdix.obj
 0001:000548f0       ?HIMETRICtoLP@CDC@@QBEXPAUtagSIZE@@@Z 004558f0 f   uafxcwd:wingdix.obj
 0001:00054940       ?GetHalftoneBrush@CDC@@SGPAVCBrush@@XZ 00455940 f   uafxcwd:wingdix.obj
 0001:00054a10       ?DrawDragRect@CDC@@QAEXPBUtagRECT@@UtagSIZE@@01PAVCBrush@@2@Z 00455a10 f   uafxcwd:wingdix.obj
 0001:00054d90       ?FillSolidRect@CDC@@QAEXPBUtagRECT@@K@Z 00455d90 f   uafxcwd:wingdix.obj
 0001:00054e60       ?FillSolidRect@CDC@@QAEXHHHHK@Z 00455e60 f   uafxcwd:wingdix.obj
 0001:00054ef0       ?Draw3dRect@CDC@@QAEXPBUtagRECT@@KK@Z 00455ef0 f   uafxcwd:wingdix.obj
 0001:00054f40       ?Draw3dRect@CDC@@QAEXHHHHKK@Z 00455f40 f   uafxcwd:wingdix.obj
 0001:00054fd0       ?CreatePointFont@CFont@@QAEHHPB_WPAVCDC@@@Z 00455fd0 f   uafxcwd:wingdix.obj
 0001:00055060       ?CreatePointFontIndirect@CFont@@QAEHPBUtagLOGFONTW@@PAVCDC@@@Z 00456060 f   uafxcwd:wingdix.obj
 0001:00055190       ?AfxAssertFailedLine@@YGHPBDH@Z 00456190 f   uafxcwd:afxasert.obj
 0001:000551e0       ?AfxGetScodeString@@YGPB_WJ@Z 004561e0 f   uafxcwd:olemisc.obj
 0001:00055230       ?AfxGetScodeRangeString@@YGPB_WJ@Z 00456230 f   uafxcwd:olemisc.obj
 0001:00055290       ?AfxGetSeverityString@@YGPB_WJ@Z 00456290 f   uafxcwd:olemisc.obj
 0001:000552b0       ?AfxGetFacilityString@@YGPB_WJ@Z 004562b0 f   uafxcwd:olemisc.obj
 0001:000552f0       ?AfxGetFullScodeString@@YGPB_WJ@Z 004562f0 f   uafxcwd:olemisc.obj
 0001:00055400       ?AfxThrowOleException@@YGXJ@Z 00456400 f   uafxcwd:olemisc.obj
 0001:000554e0       ?GetErrorMessage@COleException@@UBEHPA_WIPAI@Z 004564e0 f   uafxcwd:olemisc.obj
 0001:00055590       ?Process@COleException@@SGJPBVCException@@@Z 00456590 f   uafxcwd:olemisc.obj
 0001:00055600       ?AfxMergeMenus@@YGPAUHMENU__@@PAU1@0PAJHH@Z 00456600 f   uafxcwd:olemisc.obj
 0001:000559a0       ?AfxUnmergeMenus@@YGXPAUHMENU__@@00@Z 004569a0 f   uafxcwd:olemisc.obj
 0001:00055b30       ?_AfxFillFormatEtc@@YGPAUtagFORMATETC@@PAU1@G0@Z 00456b30 f   uafxcwd:olemisc.obj
 0001:00055bc0       ?_AfxCopyGlobalMemory@@YGPAXPAX0@Z 00456bc0 f   uafxcwd:olemisc.obj
 0001:00055cc0       ?_AfxCopyStgMedium@@YGHGPAUtagSTGMEDIUM@@0@Z 00456cc0 f   uafxcwd:olemisc.obj
 0001:00056360       ?_AfxOleGetObjectDescriptorData@@YGPAXU_GUID@@KUtagSIZE@@U_POINTL@@KPB_W3@Z 00457360 f   uafxcwd:olemisc.obj
 0001:000564f0       ?_AfxOleGetObjectDescriptorData@@YGPAXPAUIOleObject@@PB_WKU_POINTL@@PAUtagSIZE@@@Z 004574f0 f   uafxcwd:olemisc.obj
 0001:00056900       ??1?$CComHeapPtr@_W@ATL@@QAE@XZ 00457900 f i uafxcwd:olemisc.obj
 0001:00056920       ??1?$CComPtr@UIMoniker@@@ATL@@QAE@XZ 00457920 f i uafxcwd:olemisc.obj
 0001:00056940       ??1?$CComQIPtr@UIViewObject2@@$1?_GUID_00000127_0000_0000_c000_000000000046@@3U__s_GUID@@B@ATL@@QAE@XZ 00457940 f i uafxcwd:olemisc.obj
 0001:00056960       ??1?$CComQIPtr@UIOleLink@@$1?_GUID_0000011d_0000_0000_c000_000000000046@@3U__s_GUID@@B@ATL@@QAE@XZ 00457960 f i uafxcwd:olemisc.obj
 0001:00056980       ??1?$CComPtr@UIBindCtx@@@ATL@@QAE@XZ 00457980 f i uafxcwd:olemisc.obj
 0001:000569a0       ??1?$CHeapPtr@_WVCComAllocator@ATL@@@ATL@@QAE@XZ 004579a0 f i uafxcwd:olemisc.obj
 0001:000569c0       ??1?$CComPtr@UIViewObject2@@@ATL@@QAE@XZ 004579c0 f i uafxcwd:olemisc.obj
 0001:000569e0       ??1?$CComPtr@UIOleLink@@@ATL@@QAE@XZ 004579e0 f i uafxcwd:olemisc.obj
 0001:00056a00       ?_AfxOleDoConvert@@YGJPAUIStorage@@ABU_GUID@@@Z 00457a00 f   uafxcwd:olemisc.obj
 0001:00056b70       ?_AfxOleDoTreatAsClass@@YGJPB_WABU_GUID@@1@Z 00457b70 f   uafxcwd:olemisc.obj
 0001:00056c30       ?_AfxOleCreateTargetDevice@@YGPAUtagDVTARGETDEVICE@@PAUtagDEVNAMES@@PAU_devicemodeW@@@Z 00457c30 f   uafxcwd:olemisc.obj
 0001:00057020       ?AtlCoTaskMemCAlloc@ATL@@YAPAXKK@Z 00458020 f i uafxcwd:olemisc.obj
 0001:00057060       ??$AtlMultiply@K@ATL@@YAJPAKKK@Z 00458060 f i uafxcwd:olemisc.obj
 0001:000570a0       ?_AfxOleCreateTargetDevice@@YGPAUtagDVTARGETDEVICE@@PAUtagPDW@@@Z 004580a0 f   uafxcwd:olemisc.obj
 0001:00057130       ?_AfxOleGetFirstMoniker@@YGPAUIMoniker@@PAU1@@Z 00458130 f   uafxcwd:olemisc.obj
 0001:00057210       ?_AfxOleGetLenFilePrefixOfMoniker@@YGKPAUIMoniker@@@Z 00458210 f   uafxcwd:olemisc.obj
 0001:00057310       ?_AfxOleCopyTargetDevice@@YGPAUtagDVTARGETDEVICE@@PAU1@@Z 00458310 f   uafxcwd:olemisc.obj
 0001:00057360       ?ocslen@@YAHPB_W@Z         00458360 f i uafxcwd:olemisc.obj
 0001:00057380       ?_AfxOleCopyFormatEtc@@YGXPAUtagFORMATETC@@0@Z 00458380 f   uafxcwd:olemisc.obj
 0001:00057400       ?_AfxOleCreateDC@@YGPAUHDC__@@PAUtagDVTARGETDEVICE@@@Z 00458400 f   uafxcwd:olemisc.obj
 0001:00057590       ?_AfxDeleteMetafilePict@@YGXPAX@Z 00458590 f   uafxcwd:olemisc.obj
 0001:000575d0       ?_AfxXformSizeInPixelsToHimetric@@YGXPAUHDC__@@PAUtagSIZE@@1@Z 004585d0 f   uafxcwd:olemisc.obj
 0001:00057660       ?_AfxXformSizeInHimetricToPixels@@YGXPAUHDC__@@PAUtagSIZE@@1@Z 00458660 f   uafxcwd:olemisc.obj
 0001:000576f0       ?GetRuntimeClass@COleException@@UBEPAUCRuntimeClass@@XZ 004586f0 f   uafxcwd:olemisc.obj
 0001:00057710       ??0?$CComHeapPtr@_W@ATL@@QAE@XZ 00458710 f i uafxcwd:olemisc.obj
 0001:00057730       ?Allocate@?$CHeapPtr@_WVCComAllocator@ATL@@@ATL@@QAE_NI@Z 00458730 f i uafxcwd:olemisc.obj
 0001:00057770       ??$AtlMultiply@I@ATL@@YAJPAIII@Z 00458770 f i uafxcwd:olemisc.obj
 0001:000577b0       ??1?$CHeapPtrBase@_WVCComAllocator@ATL@@@ATL@@QAE@XZ 004587b0 f i uafxcwd:olemisc.obj
 0001:000577d0       ??B?$CHeapPtrBase@_WVCComAllocator@ATL@@@ATL@@QBEPA_WXZ 004587d0 f i uafxcwd:olemisc.obj
 0001:000577f0       ??I?$CHeapPtrBase@_WVCComAllocator@ATL@@@ATL@@QAEPAPA_WXZ 004587f0 f i uafxcwd:olemisc.obj
 0001:00057840       ?Attach@?$CHeapPtrBase@_WVCComAllocator@ATL@@@ATL@@QAEXPA_W@Z 00458840 f i uafxcwd:olemisc.obj
 0001:00057870       ?Detach@?$CHeapPtrBase@_WVCComAllocator@ATL@@@ATL@@QAEPA_WXZ 00458870 f i uafxcwd:olemisc.obj
 0001:000578a0       ??0?$CComPtr@UIMoniker@@@ATL@@QAE@XZ 004588a0 f i uafxcwd:olemisc.obj
 0001:000578c0       ??1?$CComPtrBase@UIMoniker@@@ATL@@QAE@XZ 004588c0 f i uafxcwd:olemisc.obj
 0001:000578f0       ??I?$CComPtrBase@UIMoniker@@@ATL@@QAEPAPAUIMoniker@@XZ 004588f0 f i uafxcwd:olemisc.obj
 0001:00057930       ??C?$CComPtrBase@UIMoniker@@@ATL@@QBEPAV?$_NoAddRefReleaseOnCComPtr@UIMoniker@@@1@XZ 00458930 f i uafxcwd:olemisc.obj
 0001:00057970       ??0?$CComQIPtr@UIViewObject2@@$1?_GUID_00000127_0000_0000_c000_000000000046@@3U__s_GUID@@B@ATL@@QAE@PAUIUnknown@@@Z 00458970 f i uafxcwd:olemisc.obj
 0001:000579b0       ??1?$CComPtrBase@UIViewObject2@@@ATL@@QAE@XZ 004589b0 f i uafxcwd:olemisc.obj
 0001:000579e0       ??B?$CComPtrBase@UIViewObject2@@@ATL@@QBEPAUIViewObject2@@XZ 004589e0 f i uafxcwd:olemisc.obj
 0001:00057a00       ??C?$CComPtrBase@UIViewObject2@@@ATL@@QBEPAV?$_NoAddRefReleaseOnCComPtr@UIViewObject2@@@1@XZ 00458a00 f i uafxcwd:olemisc.obj
 0001:00057a40       ??0?$CComQIPtr@UIOleLink@@$1?_GUID_0000011d_0000_0000_c000_000000000046@@3U__s_GUID@@B@ATL@@QAE@PAUIUnknown@@@Z 00458a40 f i uafxcwd:olemisc.obj
 0001:00057a80       ??1?$CComPtrBase@UIOleLink@@@ATL@@QAE@XZ 00458a80 f i uafxcwd:olemisc.obj
 0001:00057ab0       ??C?$CComPtrBase@UIOleLink@@@ATL@@QBEPAV?$_NoAddRefReleaseOnCComPtr@UIOleLink@@@1@XZ 00458ab0 f i uafxcwd:olemisc.obj
 0001:00057af0       ??9?$CComPtrBase@UIOleLink@@@ATL@@QBE_NPAUIOleLink@@@Z 00458af0 f i uafxcwd:olemisc.obj
 0001:00057b20       ??0?$CComPtr@UIBindCtx@@@ATL@@QAE@XZ 00458b20 f i uafxcwd:olemisc.obj
 0001:00057b40       ??1?$CComPtrBase@UIBindCtx@@@ATL@@QAE@XZ 00458b40 f i uafxcwd:olemisc.obj
 0001:00057b70       ??B?$CComPtrBase@UIBindCtx@@@ATL@@QBEPAUIBindCtx@@XZ 00458b70 f i uafxcwd:olemisc.obj
 0001:00057b90       ??I?$CComPtrBase@UIBindCtx@@@ATL@@QAEPAPAUIBindCtx@@XZ 00458b90 f i uafxcwd:olemisc.obj
 0001:00057bd0       ??0?$CHeapPtr@_WVCComAllocator@ATL@@@ATL@@QAE@XZ 00458bd0 f i uafxcwd:olemisc.obj
 0001:00057bf0       ?AllocateBytes@?$CHeapPtrBase@_WVCComAllocator@ATL@@@ATL@@QAE_NI@Z 00458bf0 f i uafxcwd:olemisc.obj
 0001:00057c50       ?Free@?$CHeapPtrBase@_WVCComAllocator@ATL@@@ATL@@QAEXXZ 00458c50 f i uafxcwd:olemisc.obj
 0001:00057c80       ??0?$CComPtrBase@UIMoniker@@@ATL@@IAE@XZ 00458c80 f i uafxcwd:olemisc.obj
 0001:00057ca0       ??0?$CComPtr@UIViewObject2@@@ATL@@QAE@XZ 00458ca0 f i uafxcwd:olemisc.obj
 0001:00057cc0       ??0?$CComPtr@UIOleLink@@@ATL@@QAE@XZ 00458cc0 f i uafxcwd:olemisc.obj
 0001:00057ce0       ?DEVMODEOLE2T_EX@@YAPAU_devicemodeW@@PAU1@@Z 00458ce0 f i uafxcwd:olemisc.obj
 0001:00057cf0       ?DEVMODET2OLE_EX@@YAPAU_devicemodeW@@PAU1@@Z 00458cf0 f i uafxcwd:olemisc.obj
 0001:00057d00       ??8?$CComPtrBase@UIOleLink@@@ATL@@QBE_NPAUIOleLink@@@Z 00458d00 f i uafxcwd:olemisc.obj
 0001:00057d20       ??0?$CComPtrBase@UIBindCtx@@@ATL@@IAE@XZ 00458d20 f i uafxcwd:olemisc.obj
 0001:00057d40       ??0?$CHeapPtrBase@_WVCComAllocator@ATL@@@ATL@@IAE@XZ 00458d40 f i uafxcwd:olemisc.obj
 0001:00057d60       ??0?$CComPtrBase@UIViewObject2@@@ATL@@IAE@XZ 00458d60 f i uafxcwd:olemisc.obj
 0001:00057d80       ??0?$CComPtrBase@UIOleLink@@@ATL@@IAE@XZ 00458d80 f i uafxcwd:olemisc.obj
 0001:00057da0       ?wcscpy_s@Checked@ATL@@YAXPA_WIPB_W@Z 00458da0 f i uafxcwd:olemisc.obj
 0001:00057dd0       ?Allocate@CComAllocator@ATL@@SAPAXI@Z 00458dd0 f i uafxcwd:olemisc.obj
 0001:00057df0       ?Free@CComAllocator@ATL@@SAXPAX@Z 00458df0 f i uafxcwd:olemisc.obj
 0001:00057e10       ?TASKSTRINGOLE2T@@YAPA_WPA_W@Z 00458e10 f i uafxcwd:olemisc.obj
 0001:00057e20       ??0?$CAtlSafeAllocBufferManager@VCCRTAllocator@ATL@@@_ATL_SAFE_ALLOCA_IMPL@ATL@@QAE@XZ 00458e20 f i uafxcwd:olemisc.obj
 0001:00057e40       ??1?$CAtlSafeAllocBufferManager@VCCRTAllocator@ATL@@@_ATL_SAFE_ALLOCA_IMPL@ATL@@QAE@XZ 00458e40 f i uafxcwd:olemisc.obj
 0001:00057e80       ?Free@CCRTAllocator@ATL@@SAXPAX@Z 00458e80 f i uafxcwd:olemisc.obj
 0001:00057ea0       ??3CException@@SGXPAX@Z    00458ea0 f   uafxcwd:except.obj
 0001:00057f10       ??3CException@@SGXPAXPBDH@Z 00458f10 f   uafxcwd:except.obj
 0001:00057f30       ??0CException@@QAE@XZ      00458f30 f   uafxcwd:except.obj
 0001:00057f70       ??0CException@@QAE@H@Z     00458f70 f   uafxcwd:except.obj
 0001:00057fb0       ?Delete@CException@@QAEXXZ 00458fb0 f   uafxcwd:except.obj
 0001:00058000       ?GetErrorMessage@CException@@UBEHPA_WIPAI@Z 00459000 f   uafxcwd:except.obj
 0001:00058040       ?GetErrorMessage@CException@@UAEHPA_WIPAI@Z 00459040 f   uafxcwd:except.obj
 0001:00058070       ?ReportError@CException@@UAEHII@Z 00459070 f   uafxcwd:except.obj
 0001:00058120       ??0AFX_EXCEPTION_LINK@@QAE@XZ 00459120 f   uafxcwd:except.obj
 0001:00058160       ?AfxGetExceptionContext@@YAPAUAFX_EXCEPTION_CONTEXT@@XZ 00459160 f i uafxcwd:except.obj
 0001:000581a0       ?AfxTryCleanup@@YGXXZ      004591a0 f   uafxcwd:except.obj
 0001:00058200       ?AfxThrowLastCleanup@@YGXXZ 00459200 f   uafxcwd:except.obj
 0001:00058230       ?GetRuntimeClass@CException@@UBEPAUCRuntimeClass@@XZ 00459230 f   uafxcwd:except.obj
 0001:00058250       ?GetRuntimeClass@CSimpleException@@UBEPAUCRuntimeClass@@XZ 00459250 f   uafxcwd:except.obj
 0001:00058270       ?GetRuntimeClass@CMemoryException@@UBEPAUCRuntimeClass@@XZ 00459270 f   uafxcwd:except.obj
 0001:00058290       ?GetRuntimeClass@CNotSupportedException@@UBEPAUCRuntimeClass@@XZ 00459290 f   uafxcwd:except.obj
 0001:000582b0       ?GetRuntimeClass@CInvalidArgException@@UBEPAUCRuntimeClass@@XZ 004592b0 f   uafxcwd:except.obj
 0001:000582d0       ?InitString@CSimpleException@@QAEXXZ 004592d0 f   uafxcwd:except.obj
 0001:00058310       ?GetErrorMessage@CSimpleException@@UBEHPA_WIPAI@Z 00459310 f   uafxcwd:except.obj
 0001:000583b0       ?AfxThrowMemoryException@@YGXXZ 004593b0 f   uafxcwd:except.obj
 0001:000583d0       ?AfxThrowNotSupportedException@@YGXXZ 004593d0 f   uafxcwd:except.obj
 0001:000583f0       ?AfxThrowInvalidArgException@@YGXXZ 004593f0 f   uafxcwd:except.obj
 0001:00058410       ?AfxA2WHelper@@YGPA_WPA_WPBDH@Z 00459410 f   uafxcwd:strcore.obj
 0001:00058430       ?AfxW2AHelper@@YGPADPADPB_WH@Z 00459430 f   uafxcwd:strcore.obj
 0001:00058450       ??$HashKey@VCComBSTR@ATL@@@@YGIVCComBSTR@ATL@@@Z 00459450 f   uafxcwd:strcore.obj
 0001:000584c0       ??$SerializeElements@VCComBSTR@ATL@@@@YGXAAVCArchive@@PAVCComBSTR@ATL@@H@Z 004594c0 f   uafxcwd:strcore.obj
 0001:000584e0       ??$HashKey@PB_W@@YGIPB_W@Z 004594e0 f   uafxcwd:strcore.obj
 0001:00058560       ??$HashKey@PBD@@YGIPBD@Z   00459560 f   uafxcwd:strcore.obj
 0001:000585e0       ??$SerializeElements@V?$CStringT@DV?$StrTraitMFC@DV?$ChTraitsCRT@D@ATL@@@@@ATL@@@@YGXAAVCArchive@@PAV?$CStringT@DV?$StrTraitMFC@DV?$ChTraitsCRT@D@ATL@@@@@ATL@@H@Z 004595e0 f   uafxcwd:strcore.obj
 0001:00058600       ??$SerializeElements@V?$CStringT@_WV?$StrTraitMFC@_WV?$ChTraitsCRT@_W@ATL@@@@@ATL@@@@YGXAAVCArchive@@PAV?$CStringT@_WV?$StrTraitMFC@_WV?$ChTraitsCRT@_W@ATL@@@@@ATL@@H@Z 00459600 f   uafxcwd:strcore.obj
 0001:00058620       ?AfxGetStringManager@@YGPAUIAtlStringMgr@ATL@@XZ 00459620 f   uafxcwd:strcore.obj
 0001:00058630       ?Allocate@CAfxStringMgr@@UAEPAUCStringData@ATL@@HH@Z 00459630 f   uafxcwd:strcore.obj
 0001:000586e0       ?Free@CAfxStringMgr@@UAEXPAUCStringData@ATL@@@Z 004596e0 f   uafxcwd:strcore.obj
 0001:00058700       ?Reallocate@CAfxStringMgr@@UAEPAUCStringData@ATL@@PAU23@HH@Z 00459700 f   uafxcwd:strcore.obj
 0001:00058790       ?GetNilString@CAfxStringMgr@@UAEPAUCStringData@ATL@@XZ 00459790 f   uafxcwd:strcore.obj
 0001:000587b0       ?Clone@CAfxStringMgr@@UAEPAUIAtlStringMgr@ATL@@XZ 004597b0 f   uafxcwd:strcore.obj
 0001:000587c0       ??$SerializeElementsInsertExtract@VCComBSTR@ATL@@@@YGXAAVCArchive@@PAVCComBSTR@ATL@@H@Z 004597c0 f i uafxcwd:strcore.obj
 0001:000588d0       ??$SerializeElementsInsertExtract@V?$CStringT@DV?$StrTraitMFC@DV?$ChTraitsCRT@D@ATL@@@@@ATL@@@@YGXAAVCArchive@@PAV?$CStringT@DV?$StrTraitMFC@DV?$ChTraitsCRT@D@ATL@@@@@ATL@@H@Z 004598d0 f i uafxcwd:strcore.obj
 0001:000589d0       ??$SerializeElementsInsertExtract@V?$CStringT@_WV?$StrTraitMFC@_WV?$ChTraitsCRT@_W@ATL@@@@@ATL@@@@YGXAAVCArchive@@PAV?$CStringT@_WV?$StrTraitMFC@_WV?$ChTraitsCRT@_W@ATL@@@@@ATL@@H@Z 004599d0 f i uafxcwd:strcore.obj
 0001:00058ad0       ??$?6DV?$StrTraitMFC@DV?$ChTraitsCRT@D@ATL@@@@@CArchive@@QAEAAV0@ABV?$CStringT@DV?$StrTraitMFC@DV?$ChTraitsCRT@D@ATL@@@@@ATL@@@Z 00459ad0 f i uafxcwd:strcore.obj
 0001:00058b10       ??$?5DV?$StrTraitMFC@DV?$ChTraitsCRT@D@ATL@@@@@CArchive@@QAEAAV0@AAV?$CStringT@DV?$StrTraitMFC@DV?$ChTraitsCRT@D@ATL@@@@@ATL@@@Z 00459b10 f i uafxcwd:strcore.obj
 0001:00058d00       ??$?6_WV?$StrTraitMFC@_WV?$ChTraitsCRT@_W@ATL@@@@@CArchive@@QAEAAV0@ABV?$CStringT@_WV?$StrTraitMFC@_WV?$ChTraitsCRT@_W@ATL@@@@@ATL@@@Z 00459d00 f i uafxcwd:strcore.obj
 0001:00058d50       ??$?5_WV?$StrTraitMFC@_WV?$ChTraitsCRT@_W@ATL@@@@@CArchive@@QAEAAV0@AAV?$CStringT@_WV?$StrTraitMFC@_WV?$ChTraitsCRT@_W@ATL@@@@@ATL@@@Z 00459d50 f i uafxcwd:strcore.obj
 0001:00058f40       ??0?$CStringT@_WV?$StrTraitMFC@_WV?$ChTraitsCRT@_W@ATL@@@@@ATL@@QAE@PB_WH@Z 00459f40 f i uafxcwd:strcore.obj
 0001:00058f70       ??0?$CStringT@DV?$StrTraitMFC@DV?$ChTraitsCRT@D@ATL@@@@@ATL@@QAE@PBDH@Z 00459f70 f i uafxcwd:strcore.obj
 0001:00058fa0       ??0?$CStringT@DV?$StrTraitMFC@DV?$ChTraitsCRT@D@ATL@@@@@ATL@@QAE@PB_WH@Z 00459fa0 f i uafxcwd:strcore.obj
 0001:000590c0       ??4?$CStringT@DV?$StrTraitMFC@DV?$ChTraitsCRT@D@ATL@@@@@ATL@@QAEAAV01@ABV01@@Z 0045a0c0 f i uafxcwd:strcore.obj
 0001:000590e0       ??B?$CSimpleStringT@D$0A@@ATL@@QBEPBDXZ 0045a0e0 f i uafxcwd:strcore.obj
 0001:00059100       ??0?$CTempBuffer@D$0IA@VCCRTAllocator@ATL@@@ATL@@QAE@I@Z 0045a100 f i uafxcwd:strcore.obj
 0001:00059130       ??1?$CTempBuffer@D$0IA@VCCRTAllocator@ATL@@@ATL@@QAE@XZ 0045a130 f i uafxcwd:strcore.obj
 0001:00059160       ??B?$CTempBuffer@D$0IA@VCCRTAllocator@ATL@@@ATL@@QBEPADXZ 0045a160 f i uafxcwd:strcore.obj
 0001:00059180       ??0?$CTempBuffer@_W$0IA@VCCRTAllocator@ATL@@@ATL@@QAE@I@Z 0045a180 f i uafxcwd:strcore.obj
 0001:000591b0       ??1?$CTempBuffer@_W$0IA@VCCRTAllocator@ATL@@@ATL@@QAE@XZ 0045a1b0 f i uafxcwd:strcore.obj
 0001:000591e0       ??B?$CTempBuffer@_W$0IA@VCCRTAllocator@ATL@@@ATL@@QBEPA_WXZ 0045a1e0 f i uafxcwd:strcore.obj
 0001:00059200       ??0?$CSimpleStringT@D$0A@@ATL@@QAE@PBDHPAUIAtlStringMgr@1@@Z 0045a200 f i uafxcwd:strcore.obj
 0001:000592d0       ??4?$CSimpleStringT@D$0A@@ATL@@QAEAAV01@ABV01@@Z 0045a2d0 f i uafxcwd:strcore.obj
 0001:00059360       ?GetBaseTypeLength@?$ChTraitsCRT@D@ATL@@SAHPB_WH@Z 0045a360 f i uafxcwd:strcore.obj
 0001:00059390       ?Allocate@?$CTempBuffer@D$0IA@VCCRTAllocator@ATL@@@ATL@@QAEPADI@Z 0045a390 f i uafxcwd:strcore.obj
 0001:000593c0       ?FreeHeap@?$CTempBuffer@D$0IA@VCCRTAllocator@ATL@@@ATL@@AAEXXZ 0045a3c0 f i uafxcwd:strcore.obj
 0001:000593e0       ?Allocate@?$CTempBuffer@_W$0IA@VCCRTAllocator@ATL@@@ATL@@QAEPA_WI@Z 0045a3e0 f i uafxcwd:strcore.obj
 0001:00059410       ?FreeHeap@?$CTempBuffer@_W$0IA@VCCRTAllocator@ATL@@@ATL@@AAEXXZ 0045a410 f i uafxcwd:strcore.obj
 0001:00059430       ?GetString@?$CSimpleStringT@D$0A@@ATL@@QBEPBDXZ 0045a430 f i uafxcwd:strcore.obj
 0001:00059450       ?SetString@?$CSimpleStringT@D$0A@@ATL@@QAEXPBDH@Z 0045a450 f i uafxcwd:strcore.obj
 0001:00059510       ?CloneData@?$CSimpleStringT@D$0A@@ATL@@CAPAUCStringData@2@PAU32@@Z 0045a510 f i uafxcwd:strcore.obj
 0001:000595d0       ?AllocateBytes@?$CTempBuffer@D$0IA@VCCRTAllocator@ATL@@@ATL@@QAEPADI@Z 0045a5d0 f i uafxcwd:strcore.obj
 0001:00059630       ?AllocateBytes@?$CTempBuffer@_W$0IA@VCCRTAllocator@ATL@@@ATL@@QAEPA_WI@Z 0045a630 f i uafxcwd:strcore.obj
 0001:00059690       ?GetAllocLength@?$CSimpleStringT@D$0A@@ATL@@QBEHXZ 0045a690 f i uafxcwd:strcore.obj
 0001:000596b0       ?CopyCharsOverlapped@?$CSimpleStringT@D$0A@@ATL@@SAXPADIPBDH@Z 0045a6b0 f i uafxcwd:strcore.obj
 0001:000596d0       ?AllocateHeap@?$CTempBuffer@D$0IA@VCCRTAllocator@ATL@@@ATL@@AAEXI@Z 0045a6d0 f i uafxcwd:strcore.obj
 0001:00059710       ?AllocateHeap@?$CTempBuffer@_W$0IA@VCCRTAllocator@ATL@@@ATL@@AAEXI@Z 0045a710 f i uafxcwd:strcore.obj
 0001:00059750       ?Allocate@CCRTAllocator@ATL@@SAPAXI@Z 0045a750 f i uafxcwd:strcore.obj
 0001:00059770       ?AtlIsValidAddress@ATL@@YAHPBXIH@Z 0045a770 f i uafxcwd:strcore.obj
 0001:00059780       ??0CComBSTR@ATL@@QAE@ABV01@@Z 0045a780 f i uafxcwd:strcore.obj
 0001:000597d0       ?Length@CComBSTR@ATL@@QBEIXZ 0045a7d0 f i uafxcwd:strcore.obj
 0001:000597f0       ?Copy@CComBSTR@ATL@@QBEPA_WXZ 0045a7f0 f i uafxcwd:strcore.obj
 0001:00059850       ??7CComBSTR@ATL@@QBE_NXZ   0045a850 f i uafxcwd:strcore.obj
 0001:00059870       ??1CComBSTR@ATL@@QAE@XZ    0045a870 f i uafxcwd:strcore.obj
 0001:00059890       ??0?$CStringT@_WV?$StrTraitMFC@_WV?$ChTraitsCRT@_W@ATL@@@@@ATL@@QAE@PBDH@Z 0045a890 f i uafxcwd:strcore.obj
 0001:000599b0       ?GetBaseTypeLength@?$ChTraitsCRT@_W@ATL@@SAHPBDH@Z 0045a9b0 f i uafxcwd:strcore.obj
 0001:000599e0       ??1?$CStringT@DV?$StrTraitMFC@DV?$ChTraitsCRT@D@ATL@@@@@ATL@@QAE@XZ 0045a9e0 f i uafxcwd:strcore.obj
 0001:00059a00       ?Empty@?$CSimpleStringT@D$0A@@ATL@@QAEXXZ 0045aa00 f i uafxcwd:strcore.obj
 0001:00059a70       ?GetLength@?$CSimpleStringT@D$0A@@ATL@@QBEHXZ 0045aa70 f i uafxcwd:strcore.obj
 0001:00059a90       ??0?$CSimpleStringT@D$0A@@ATL@@QAE@PAUIAtlStringMgr@1@@Z 0045aa90 f i uafxcwd:strcore.obj
 0001:00059b10       ??1?$CSimpleStringT@D$0A@@ATL@@QAE@XZ 0045ab10 f i uafxcwd:strcore.obj
 0001:00059b40       ?GetBuffer@?$CSimpleStringT@D$0A@@ATL@@QAEPADH@Z 0045ab40 f i uafxcwd:strcore.obj
 0001:00059b60       ?ReleaseBufferSetLength@?$CSimpleStringT@D$0A@@ATL@@QAEXH@Z 0045ab60 f i uafxcwd:strcore.obj
 0001:00059bb0       ?Attach@?$CSimpleStringT@D$0A@@ATL@@AAEXPAUCStringData@2@@Z 0045abb0 f i uafxcwd:strcore.obj
 0001:00059bd0       ?GetData@?$CSimpleStringT@D$0A@@ATL@@ABEPAUCStringData@2@XZ 0045abd0 f i uafxcwd:strcore.obj
 0001:00059bf0       ?SetLength@?$CSimpleStringT@D$0A@@ATL@@AAEXH@Z 0045abf0 f i uafxcwd:strcore.obj
 0001:00059ca0       ?GetDefaultManager@?$StrTraitMFC@DV?$ChTraitsCRT@D@ATL@@@@SAPAUIAtlStringMgr@ATL@@XZ 0045aca0 f i uafxcwd:strcore.obj
 0001:00059cb0       ?ConvertToBaseType@?$ChTraitsCRT@D@ATL@@SAXPADHPB_WH@Z 0045acb0 f i uafxcwd:strcore.obj
 0001:00059ce0       ?CopyChars@?$CSimpleStringT@D$0A@@ATL@@SAXPADIPBDH@Z 0045ace0 f i uafxcwd:strcore.obj
 0001:00059d00       ?ThrowMemoryException@?$CSimpleStringT@D$0A@@ATL@@KAXXZ 0045ad00 f i uafxcwd:strcore.obj
 0001:00059d20       ?PrepareWrite@?$CSimpleStringT@D$0A@@ATL@@AAEPADH@Z 0045ad20 f i uafxcwd:strcore.obj
 0001:00059d70       ?PrepareWrite2@?$CSimpleStringT@D$0A@@ATL@@AAEXH@Z 0045ad70 f i uafxcwd:strcore.obj
 0001:00059e10       ?Fork@?$CSimpleStringT@D$0A@@ATL@@AAEXH@Z 0045ae10 f i uafxcwd:strcore.obj
 0001:00059ed0       ?Reallocate@?$CSimpleStringT@D$0A@@ATL@@AAEXH@Z 0045aed0 f i uafxcwd:strcore.obj
 0001:00059f70       ??$AtlMultiplyThrow@I@ATL@@YAIII@Z 0045af70 f i uafxcwd:strcore.obj
 0001:00059fb0       ??0CAfxStringMgr@@QAE@XZ   0045afb0 f i uafxcwd:strcore.obj
 0001:00059ff0       ??0CNilStringData@ATL@@QAE@XZ 0045aff0 f i uafxcwd:strcore.obj
 0001:0005a040       ?SetManager@CNilStringData@ATL@@QAEXPAUIAtlStringMgr@2@@Z 0045b040 f i uafxcwd:strcore.obj
 0001:0005a080       ?GetMessageMap@CWinApp@@MBEPBUAFX_MSGMAP@@XZ 0045b080 f   uafxcwd:appcore.obj
 0001:0005a0a0       ?GetThisMessageMap@CWinApp@@KGPBUAFX_MSGMAP@@XZ 0045b0a0 f   uafxcwd:appcore.obj
 0001:0005a0b0       ?AfxLoadLangResourceDLL@@YGPAUHINSTANCE__@@PB_W0@Z 0045b0b0 f   uafxcwd:appcore.obj
 0001:0005a610       ??0CActivationContext@@QAE@PAX@Z 0045b610 f i uafxcwd:appcore.obj
 0001:0005a7a0       ??1CActivationContext@@QAE@XZ 0045b7a0 f i uafxcwd:appcore.obj
 0001:0005a7c0       ?Create@CActivationContext@@QAE_NPBUtagACTCTXW@@@Z 0045b7c0 f i uafxcwd:appcore.obj
 0001:0005a850       ?Release@CActivationContext@@QAEXXZ 0045b850 f i uafxcwd:appcore.obj
 0001:0005a890       ?Activate@CActivationContext@@QAE_NXZ 0045b890 f i uafxcwd:appcore.obj
 0001:0005a920       ?Deactivate@CActivationContext@@QAE_NXZ 0045b920 f i uafxcwd:appcore.obj
 0001:0005a980       ?AfxLoadLangResourceDLL@@YGPAUHINSTANCE__@@PB_W@Z 0045b980 f   uafxcwd:appcore.obj
 0001:0005aa50       ??0CWinApp@@QAE@PB_W@Z     0045ba50 f   uafxcwd:appcore.obj
 0001:0005ace0       ??_GCWinApp@@UAEPAXI@Z     0045bce0 f i uafxcwd:appcore.obj
 0001:0005ace0       ??_ECWinApp@@UAEPAXI@Z     0045bce0 f i uafxcwd:appcore.obj
 0001:0005ad10       ?LoadSysPolicies@CWinApp@@UAEHXZ 0045bd10 f   uafxcwd:appcore.obj
 0001:0005ad30       ?_LoadSysPolicies@CWinApp@@IAEHXZ 0045bd30 f   uafxcwd:appcore.obj
 0001:0005ae70       ?GetSysPolicyValue@CWinApp@@QAEHKPAH@Z 0045be70 f   uafxcwd:appcore.obj
 0001:0005aeb0       ?InitApplication@CWinApp@@UAEHXZ 0045beb0 f   uafxcwd:appcore.obj
 0001:0005af30       ?InitInstance@CWinApp@@UAEHXZ 0045bf30 f   uafxcwd:appcore.obj
 0001:0005af90       ?LoadAppLangResourceDLL@CWinApp@@UAEPAUHINSTANCE__@@XZ 0045bf90 f   uafxcwd:appcore.obj
 0001:0005b080       ?LoadStdProfileSettings@CWinApp@@IAEXI@Z 0045c080 f   uafxcwd:appcore.obj
 0001:0005b1a0       ?ParseCommandLine@CWinApp@@QAEXAAVCCommandLineInfo@@@Z 0045c1a0 f   uafxcwd:appcore.obj
 0001:0005b240       ??0CCommandLineInfo@@QAE@XZ 0045c240 f   uafxcwd:appcore.obj
 0001:0005b2c0       ??_GCCommandLineInfo@@UAEPAXI@Z 0045c2c0 f i uafxcwd:appcore.obj
 0001:0005b2c0       ??_ECCommandLineInfo@@UAEPAXI@Z 0045c2c0 f i uafxcwd:appcore.obj
 0001:0005b2f0       ??1CCommandLineInfo@@UAE@XZ 0045c2f0 f   uafxcwd:appcore.obj
 0001:0005b340       ?ParseParam@CCommandLineInfo@@UAEXPB_WHH@Z 0045c340 f   uafxcwd:appcore.obj
 0001:0005b3d0       ?ParseParam@CCommandLineInfo@@UAEXPBDHH@Z 0045c3d0 f   uafxcwd:appcore.obj
 0001:0005b410       ?ParseParamFlag@CCommandLineInfo@@IAEXPBD@Z 0045c410 f   uafxcwd:appcore.obj
 0001:0005b5f0       ?ParseParamNotFlag@CCommandLineInfo@@IAEXPB_W@Z 0045c5f0 f   uafxcwd:appcore.obj
 0001:0005b6b0       ?ParseParamNotFlag@CCommandLineInfo@@IAEXPBD@Z 0045c6b0 f   uafxcwd:appcore.obj
 0001:0005b770       ?ParseLast@CCommandLineInfo@@IAEXH@Z 0045c770 f   uafxcwd:appcore.obj
 0001:0005b7e0       ??1CWinApp@@UAE@XZ         0045c7e0 f   uafxcwd:appcore.obj
 0001:0005bce0       ?SaveStdProfileSettings@CWinApp@@IAEXXZ 0045cce0 f   uafxcwd:appcore.obj
 0001:0005bd50       ?ExitInstance@CWinApp@@UAEHXZ 0045cd50 f   uafxcwd:appcore.obj
 0001:0005be20       ?Run@CWinApp@@UAEHXZ       0045ce20 f   uafxcwd:appcore.obj
 0001:0005be80       ?AfxPostQuitMessage@@YGXH@Z 0045ce80 f   uafxcwd:appcore.obj
 0001:0005bec0       ?WinHelpW@CWinApp@@UAEXKI@Z 0045cec0 f   uafxcwd:appcore.obj
 0001:0005bf30       ?HtmlHelpW@CWinApp@@UAEXKI@Z 0045cf30 f   uafxcwd:appcore.obj
 0001:0005bfa0       ?WinHelpInternal@CWinApp@@UAEXKI@Z 0045cfa0 f   uafxcwd:appcore.obj
 0001:0005c010       ?ProcessWndProcException@CWinApp@@UAEJPAVCException@@PBUtagMSG@@@Z 0045d010 f   uafxcwd:appcore.obj
 0001:0005c140       ?OnIdle@CWinApp@@UAEHJ@Z   0045d140 f   uafxcwd:appcore.obj
 0001:0005c220       ?DevModeChange@CWinApp@@QAEXPA_W@Z 0045d220 f   uafxcwd:appcore.obj
 0001:0005c350       ?AssertValid@CWinApp@@UBEXXZ 0045d350 f   uafxcwd:appcore.obj
 0001:0005c3e0       ?Dump@CWinApp@@UBEXAAVCDumpContext@@@Z 0045d3e0 f   uafxcwd:appcore.obj
 0001:0005c740       ?GetRuntimeClass@CWinApp@@UBEPAUCRuntimeClass@@XZ 0045d740 f   uafxcwd:appcore.obj
 0001:0005c760       ??B?$CThreadLocal@VAFX_MODULE_THREAD_STATE@@@@QAEPAVAFX_MODULE_THREAD_STATE@@XZ 0045d760 f i uafxcwd:appcore.obj
 0001:0005c780       ??0?$CStringT@DV?$StrTraitMFC@DV?$ChTraitsCRT@D@ATL@@@@@ATL@@QAE@PB_W@Z 0045d780 f i uafxcwd:appcore.obj
 0001:0005c800       ?GetData@?$CThreadLocal@VAFX_MODULE_THREAD_STATE@@@@QAEPAVAFX_MODULE_THREAD_STATE@@XZ 0045d800 f i uafxcwd:appcore.obj
 0001:0005c860       ?CheckImplicitLoad@?$CStringT@DV?$StrTraitMFC@DV?$ChTraitsCRT@D@ATL@@@@@ATL@@AAE_NPBX@Z 0045d860 f i uafxcwd:appcore.obj
 0001:0005c8e0       ?CreateObject@?$CThreadLocal@VAFX_MODULE_THREAD_STATE@@@@SGPAVCNoTrackObject@@XZ 0045d8e0 f i uafxcwd:appcore.obj
 0001:0005c960       ?LoadStringW@?$CStringT@DV?$StrTraitMFC@DV?$ChTraitsCRT@D@ATL@@@@@ATL@@QAEHI@Z 0045d960 f i uafxcwd:appcore.obj
 0001:0005c9a0       ?LoadStringW@?$CStringT@DV?$StrTraitMFC@DV?$ChTraitsCRT@D@ATL@@@@@ATL@@QAEHPAUHINSTANCE__@@I@Z 0045d9a0 f i uafxcwd:appcore.obj
 0001:0005ca30       ?FindStringResourceInstance@?$StrTraitMFC@DV?$ChTraitsCRT@D@ATL@@@@SAPAUHINSTANCE__@@I@Z 0045da30 f i uafxcwd:appcore.obj
 0001:0005ca40       ?tcscpy_s@Checked@ATL@@YAXPA_WIPB_W@Z 0045da40 f i uafxcwd:appcore.obj
 0001:0005ca70       ?SetResourceInstance@CAtlBaseModule@ATL@@QAEPAUHINSTANCE__@@PAU3@@Z 0045da70 f i uafxcwd:appcore.obj
 0001:0005ca90       ?InterlockedExchangePointer@@YGPAXPAPAXPAX@Z 0045da90 f i uafxcwd:appcore.obj
 0001:0005cab0       ?GetSize@CRecentFileList@@QBEHXZ 0045dab0 f i uafxcwd:appcore.obj
 0001:0005cad0       ??ACRecentFileList@@QAEAAV?$CStringT@_WV?$StrTraitMFC@_WV?$ChTraitsCRT@_W@ATL@@@@@ATL@@H@Z 0045dad0 f i uafxcwd:appcore.obj
 0001:0005cb40       ?AfxInvariantStrICmp@@YAHPBD0@Z 0045db40 f i uafxcwd:appcore.obj
 0001:0005cb70       ??4?$CStringT@DV?$StrTraitMFC@DV?$ChTraitsCRT@D@ATL@@@@@ATL@@QAEAAV01@PB_W@Z 0045db70 f i uafxcwd:appcore.obj
 0001:0005cbf0       ?GetBaseTypeLength@?$ChTraitsCRT@D@ATL@@SAHPB_W@Z 0045dbf0 f i uafxcwd:appcore.obj
 0001:0005cc20       ??1?$CProcessLocal@V_AFX_WIN_STATE@@@@QAE@XZ 0045dc20 f i uafxcwd:appcore.obj
 0001:0005cc40       ?OnFileNew@CWinApp@@IAEXXZ 0045dc40 f   uafxcwd:appdlg.obj
 0001:0005cc70       ?OnFileOpen@CWinApp@@IAEXXZ 0045dc70 f   uafxcwd:appdlg.obj
 0001:0005ccd0       ?DoPromptFileName@CWinApp@@QAEHAAV?$CStringT@_WV?$StrTraitMFC@_WV?$ChTraitsCRT@_W@ATL@@@@@ATL@@IKHPAVCDocTemplate@@@Z 0045dcd0 f   uafxcwd:appdlg.obj
 0001:0005cd40       ?_AfxThreadEntry@@YGIPAX@Z 0045dd40 f   uafxcwd:thrdcore.obj
 0001:0005d0d0       ?AfxGetThread@@YGPAVCWinThread@@XZ 0045e0d0 f   uafxcwd:thrdcore.obj
 0001:0005d0f0       ?AfxGetCurrentMessage@@YGPAUtagMSG@@XZ 0045e0f0 f   uafxcwd:thrdcore.obj
 0001:0005d130       ?AfxInternalPumpMessage@@YGHXZ 0045e130 f   uafxcwd:thrdcore.obj
 0001:0005d240       ?AfxPumpMessage@@YGHXZ     0045e240 f   uafxcwd:thrdcore.obj
 0001:0005d270       ?AfxInternalProcessWndProcException@@YGJPAVCException@@PBUtagMSG@@@Z 0045e270 f   uafxcwd:thrdcore.obj
 0001:0005d2b0       ?AfxProcessWndProcException@@YGJPAVCException@@PBUtagMSG@@@Z 0045e2b0 f   uafxcwd:thrdcore.obj
 0001:0005d2f0       ?AfxInternalPreTranslateMessage@@YAHPAUtagMSG@@@Z 0045e2f0 f   uafxcwd:thrdcore.obj
 0001:0005d390       ?AfxPreTranslateMessage@@YAHPAUtagMSG@@@Z 0045e390 f   uafxcwd:thrdcore.obj
 0001:0005d3d0       ?AfxInternalIsIdleMessage@@YAHPAUtagMSG@@@Z 0045e3d0 f   uafxcwd:thrdcore.obj
 0001:0005d490       ?AfxIsIdleMessage@@YAHPAUtagMSG@@@Z 0045e490 f   uafxcwd:thrdcore.obj
 0001:0005d4d0       ?AfxBeginThread@@YGPAVCWinThread@@P6AIPAX@Z0HIKPAU_SECURITY_ATTRIBUTES@@@Z 0045e4d0 f   uafxcwd:thrdcore.obj
 0001:0005d610       ?AfxBeginThread@@YGPAVCWinThread@@PAUCRuntimeClass@@HIKPAU_SECURITY_ATTRIBUTES@@@Z 0045e610 f   uafxcwd:thrdcore.obj
 0001:0005d730       ?AfxEndThread@@YGXIH@Z     0045e730 f   uafxcwd:thrdcore.obj
 0001:0005d7d0       ?AfxInitThread@@YGXXZ      0045e7d0 f   uafxcwd:thrdcore.obj
 0001:0005d830       ?AfxTermThread@@YGXPAUHINSTANCE__@@@Z 0045e830 f   uafxcwd:thrdcore.obj
 0001:0005d9d0       ??0CWinThread@@QAE@P6AIPAX@Z0@Z 0045e9d0 f   uafxcwd:thrdcore.obj
 0001:0005da50       ??_GCWinThread@@UAEPAXI@Z  0045ea50 f i uafxcwd:thrdcore.obj
 0001:0005da50       ??_ECWinThread@@UAEPAXI@Z  0045ea50 f i uafxcwd:thrdcore.obj
 0001:0005da80       ??0CWinThread@@QAE@XZ      0045ea80 f   uafxcwd:thrdcore.obj
 0001:0005db00       ?CommonConstruct@CWinThread@@QAEXXZ 0045eb00 f   uafxcwd:thrdcore.obj
 0001:0005db90       ??1CWinThread@@UAE@XZ      0045eb90 f   uafxcwd:thrdcore.obj
 0001:0005dc20       ?CreateThread@CWinThread@@QAEHKIPAU_SECURITY_ATTRIBUTES@@@Z 0045ec20 f   uafxcwd:thrdcore.obj
 0001:0005de60       ?Delete@CWinThread@@UAEXXZ 0045ee60 f   uafxcwd:thrdcore.obj
 0001:0005deb0       ?InitInstance@CWinThread@@UAEHXZ 0045eeb0 f   uafxcwd:thrdcore.obj
 0001:0005dee0       ?Run@CWinThread@@UAEHXZ    0045eee0 f   uafxcwd:thrdcore.obj
 0001:0005dfd0       ?IsIdleMessage@CWinThread@@UAEHPAUtagMSG@@@Z 0045efd0 f   uafxcwd:thrdcore.obj
 0001:0005dff0       ?ExitInstance@CWinThread@@UAEHXZ 0045eff0 f   uafxcwd:thrdcore.obj
 0001:0005e040       ?OnIdle@CWinThread@@UAEHJ@Z 0045f040 f   uafxcwd:thrdcore.obj
 0001:0005e230       ?DispatchThreadMessage@CWinThread@@IAEXPAUtagMSG@@@Z 0045f230 f   uafxcwd:thrdcore.obj
 0001:0005e250       ?DispatchThreadMessageEx@CWinThread@@IAEHPAUtagMSG@@@Z 0045f250 f   uafxcwd:thrdcore.obj
 0001:0005e370       ?PreTranslateMessage@CWinThread@@UAEHPAUtagMSG@@@Z 0045f370 f   uafxcwd:thrdcore.obj
 0001:0005e3a0       ?ProcessWndProcException@CWinThread@@UAEJPAVCException@@PBUtagMSG@@@Z 0045f3a0 f   uafxcwd:thrdcore.obj
 0001:0005e3c0       ?_AfxMsgFilterHook@@YGJHIJ@Z 0045f3c0 f   uafxcwd:thrdcore.obj
 0001:0005e450       ?IsHelpKey@@YGHPAUtagMSG@@@Z 0045f450 f   uafxcwd:thrdcore.obj
 0001:0005e4d0       ?IsEnterKey@@YAHPAUtagMSG@@@Z 0045f4d0 f i uafxcwd:thrdcore.obj
 0001:0005e510       ?IsButtonUp@@YAHPAUtagMSG@@@Z 0045f510 f i uafxcwd:thrdcore.obj
 0001:0005e530       ?ProcessMessageFilter@CWinThread@@UAEHHPAUtagMSG@@@Z 0045f530 f   uafxcwd:thrdcore.obj
 0001:0005e700       ?GetMainWnd@CWinThread@@UAEPAVCWnd@@XZ 0045f700 f   uafxcwd:thrdcore.obj
 0001:0005e740       ?PumpMessage@CWinThread@@UAEHXZ 0045f740 f   uafxcwd:thrdcore.obj
 0001:0005e760       ?AssertValid@CWinThread@@UBEXXZ 0045f760 f   uafxcwd:thrdcore.obj
 0001:0005e780       ?Dump@CWinThread@@UBEXAAVCDumpContext@@@Z 0045f780 f   uafxcwd:thrdcore.obj
 0001:0005e9d0       ?GetRuntimeClass@CWinThread@@UBEPAUCRuntimeClass@@XZ 0045f9d0 f   uafxcwd:thrdcore.obj
 0001:0005e9f0       ??B?$CTypedSimpleList@PAVCFrameWnd@@@@QAEPAVCFrameWnd@@XZ 0045f9f0 f i uafxcwd:thrdcore.obj
 0001:0005ea10       ?GetHead@CSimpleList@@QBEPAXXZ 0045fa10 f i uafxcwd:thrdcore.obj
 0001:0005ea30       ?ProcessShellCommand@CWinApp@@QAEHAAVCCommandLineInfo@@@Z 0045fa30 f   uafxcwd:appui2.obj
 0001:0005ed10       ?InitLibId@CWinApp@@UAEXXZ 0045fd10 f   uafxcwd:appui2.obj
 0001:0005ed20       ?Register@CWinApp@@UAEHXZ  0045fd20 f   uafxcwd:appui2.obj
 0001:0005ed40       ?Unregister@CWinApp@@UAEHXZ 0045fd40 f   uafxcwd:appui2.obj
 0001:0005efd0       ?DelRegTree@CWinApp@@QAEJPAUHKEY__@@ABV?$CStringT@_WV?$StrTraitMFC@_WV?$ChTraitsCRT@_W@ATL@@@@@ATL@@@Z 0045ffd0 f   uafxcwd:appui2.obj
 0001:0005eff0       ?AfxDelRegTreeHelper@@YGJPAUHKEY__@@ABV?$CStringT@_WV?$StrTraitMFC@_WV?$ChTraitsCRT@_W@ATL@@@@@ATL@@@Z 0045fff0 f   uafxcwd:appui2.obj
 0001:0005f200       ?EnableShellOpen@CWinApp@@IAEXXZ 00460200 f   uafxcwd:appui2.obj
 0001:0005f330       ?RegisterShellFileTypes@CWinApp@@IAEXH@Z 00460330 f   uafxcwd:appui2.obj
 0001:0005f390       ?UnregisterShellFileTypes@CWinApp@@IAEXXZ 00460390 f   uafxcwd:appui2.obj
 0001:0005f3f0       ?GetOpenDocumentCount@CWinApp@@QAEHXZ 004603f0 f   uafxcwd:appui2.obj
 0001:0005f450       ?AddDocTemplate@CWinApp@@QAEXPAVCDocTemplate@@@Z 00460450 f   uafxcwd:appui2.obj
 0001:0005f4f0       ?GetFirstDocTemplatePosition@CWinApp@@QBEPAU__POSITION@@XZ 004604f0 f   uafxcwd:appui2.obj
 0001:0005f520       ?GetNextDocTemplate@CWinApp@@QBEPAVCDocTemplate@@AAPAU__POSITION@@@Z 00460520 f   uafxcwd:appui2.obj
 0001:0005f580       ??HATL@@YA?AV?$CStringT@_WV?$StrTraitMFC@_WV?$ChTraitsCRT@_W@ATL@@@@@0@ABV10@PB_W@Z 00460580 f i uafxcwd:appui2.obj
 0001:0005f630       ??HATL@@YA?AV?$CStringT@_WV?$StrTraitMFC@_WV?$ChTraitsCRT@_W@ATL@@@@@0@PB_WABV10@@Z 00460630 f i uafxcwd:appui2.obj
 0001:0005f6e0       ?GetBuffer@?$CSimpleStringT@_W$0A@@ATL@@QAEPA_WXZ 004606e0 f i uafxcwd:appui2.obj
 0001:0005f720       ??0?$CStringT@_WV?$StrTraitMFC@_WV?$ChTraitsCRT@_W@ATL@@@@@ATL@@QAE@PAUIAtlStringMgr@1@@Z 00460720 f i uafxcwd:appui2.obj
 0001:0005f740       ?Concatenate@?$CSimpleStringT@_W$0A@@ATL@@KAXAAV12@PB_WH1H@Z 00460740 f i uafxcwd:appui2.obj
 0001:0005f7b0       ?OnAppExit@CWinApp@@IAEXXZ 004607b0 f   uafxcwd:appui.obj
 0001:0005f7f0       ?HideApplication@CWinApp@@QAEXXZ 004607f0 f   uafxcwd:appui.obj
 0001:0005f850       ?DoWaitCursor@CWinApp@@UAEXH@Z 00460850 f   uafxcwd:appui.obj
 0001:0005f960       ?SaveAllModified@CWinApp@@UAEHXZ 00460960 f   uafxcwd:appui.obj
 0001:0005f990       ?AddToRecentFileList@CWinApp@@UAEXPB_W@Z 00460990 f   uafxcwd:appui.obj
 0001:0005fa30       ?OpenDocumentFile@CWinApp@@UAEPAVCDocument@@PB_W@Z 00460a30 f   uafxcwd:appui.obj
 0001:0005fa80       ?CloseAllDocuments@CWinApp@@QAEXH@Z 00460a80 f   uafxcwd:appui.obj
 0001:0005fab0       ?OnUpdateRecentFileMenu@CWinApp@@IAEXPAVCCmdUI@@@Z 00460ab0 f   uafxcwd:appui.obj
 0001:0005fb40       ?OnDDECommand@CWinApp@@UAEHPA_W@Z 00460b40 f   uafxcwd:appui.obj
 0001:0005fb80       ?OnOpenRecentFile@CWinApp@@IAEHI@Z 00460b80 f   uafxcwd:appui.obj
 0001:0005fd20       ?EnableModeless@CWinApp@@QAEXH@Z 00460d20 f   uafxcwd:appui1.obj
 0001:0005fd40       ?DoEnableModeless@CWinApp@@SAXH@Z 00460d40 f   uafxcwd:appui1.obj
 0001:0005fdd0       ?DoMessageBox@CWinApp@@UAEHPB_WII@Z 00460dd0 f   uafxcwd:appui1.obj
 0001:0005fe00       ?ShowAppMessageBox@CWinApp@@SAHPAV1@PB_WII@Z 00460e00 f   uafxcwd:appui1.obj
 0001:00060070       ?AfxMessageBox@@YGHPB_WII@Z 00461070 f   uafxcwd:appui1.obj
 0001:000600c0       ?AfxMessageBox@@YGHIII@Z   004610c0 f   uafxcwd:appui1.obj
 0001:000601a0       ?GetSafeOwner_@CWnd@@SGPAUHWND__@@PAU2@PAPAU2@@Z 004611a0 f   uafxcwd:appui1.obj
 0001:000602a0       ?GetRoutingView_@CCmdTarget@@KGPAVCView@@XZ 004612a0 f   uafxcwd:appui1.obj
 0001:000602c0       ?GetRoutingFrame_@CCmdTarget@@KGPAVCFrameWnd@@XZ 004612c0 f   uafxcwd:appui1.obj
 0001:000602e0       ??0CSingleDocTemplate@@QAE@IPAUCRuntimeClass@@00@Z 004612e0 f   uafxcwd:docsingl.obj
 0001:00060320       ??_ECSingleDocTemplate@@UAEPAXI@Z 00461320 f i uafxcwd:docsingl.obj
 0001:00060320       ??_GCSingleDocTemplate@@UAEPAXI@Z 00461320 f i uafxcwd:docsingl.obj
 0001:00060350       ??1CSingleDocTemplate@@UAE@XZ 00461350 f   uafxcwd:docsingl.obj
 0001:000603e0       ?GetFirstDocPosition@CSingleDocTemplate@@UBEPAU__POSITION@@XZ 004613e0 f   uafxcwd:docsingl.obj
 0001:00060400       ?GetNextDoc@CSingleDocTemplate@@UBEPAVCDocument@@AAPAU__POSITION@@@Z 00461400 f   uafxcwd:docsingl.obj
 0001:00060450       ?AddDocument@CSingleDocTemplate@@UAEXPAVCDocument@@@Z 00461450 f   uafxcwd:docsingl.obj
 0001:000604a0       ?RemoveDocument@CSingleDocTemplate@@UAEXPAVCDocument@@@Z 004614a0 f   uafxcwd:docsingl.obj
 0001:00060500       ?OpenDocumentFile@CSingleDocTemplate@@UAEPAVCDocument@@PB_WH@Z 00461500 f   uafxcwd:docsingl.obj
 0001:00060900       ?SetDefaultTitle@CSingleDocTemplate@@UAEXPAVCDocument@@@Z 00461900 f   uafxcwd:docsingl.obj
 0001:000609d0       ?Dump@CSingleDocTemplate@@UBEXAAVCDumpContext@@@Z 004619d0 f   uafxcwd:docsingl.obj
 0001:00060a30       ?AssertValid@CSingleDocTemplate@@UBEXXZ 00461a30 f   uafxcwd:docsingl.obj
 0001:00060a70       ?GetRuntimeClass@CSingleDocTemplate@@UBEPAUCRuntimeClass@@XZ 00461a70 f   uafxcwd:docsingl.obj
 0001:00060a90       ?SetRegistryKey@CWinApp@@IAEXPB_W@Z 00461a90 f   uafxcwd:appui3.obj
 0001:00060b50       ?SetRegistryKey@CWinApp@@IAEXI@Z 00461b50 f   uafxcwd:appui3.obj
 0001:00060be0       ?GetAppRegistryKey@CWinApp@@QAEPAUHKEY__@@XZ 00461be0 f   uafxcwd:appui3.obj
 0001:00060cd0       ?GetSectionKey@CWinApp@@QAEPAUHKEY__@@PB_W@Z 00461cd0 f   uafxcwd:appui3.obj
 0001:00060d50       ?GetProfileIntW@CWinApp@@QAEIPB_W0H@Z 00461d50 f   uafxcwd:appui3.obj
 0001:00060e60       ?GetProfileStringW@CWinApp@@QAE?AV?$CStringT@_WV?$StrTraitMFC@_WV?$ChTraitsCRT@_W@ATL@@@@@ATL@@PB_W00@Z 00461e60 f   uafxcwd:appui3.obj
 0001:00061100       ?GetProfileBinary@CWinApp@@QAEHPB_W0PAPAEPAI@Z 00462100 f   uafxcwd:appui3.obj
 0001:00061440       ?WriteProfileInt@CWinApp@@QAEHPB_W0H@Z 00462440 f   uafxcwd:appui3.obj
 0001:00061540       ?WriteProfileStringW@CWinApp@@QAEHPB_W00@Z 00462540 f   uafxcwd:appui3.obj
 0001:000616b0       ?WriteProfileBinary@CWinApp@@QAEHPB_W0PAEI@Z 004626b0 f   uafxcwd:appui3.obj
 0001:00061810       ??A?$CSimpleStringT@_W$0A@@ATL@@QBE_WH@Z 00462810 f i uafxcwd:appui3.obj
 0001:00061880       ??0CRegKey@ATL@@QAE@PAUHKEY__@@@Z 00462880 f i uafxcwd:appui3.obj
 0001:000618b0       ??1CRegKey@ATL@@QAE@XZ     004628b0 f i uafxcwd:appui3.obj
 0001:000618d0       ?Close@CRegKey@ATL@@QAEJXZ 004628d0 f i uafxcwd:appui3.obj
 0001:00061920       ?AfxEnableControlContainer@@YAXPAVCOccManager@@@Z 00462920 f   uafxcwd:occmgr.obj
 0001:00061950       ?_AfxFindFirstDlgItem@@YGPAUDLGITEMTEMPLATE@@PBUDLGTEMPLATE@@@Z 00462950 f   uafxcwd:occmgr.obj
 0001:00061aa0       ?_AfxFindNextDlgItem@@YGPAUDLGITEMTEMPLATE@@PAU1@H@Z 00462aa0 f   uafxcwd:occmgr.obj
 0001:00061b60       ?OnEvent@COccManager@@UAEHPAVCCmdTarget@@IPAUAFX_EVENT@@PAUAFX_CMDHANDLERINFO@@@Z 00462b60 f   uafxcwd:occmgr.obj
 0001:00061b90       ?CreateContainer@COccManager@@UAEPAVCOleControlContainer@@PAVCWnd@@@Z 00462b90 f   uafxcwd:occmgr.obj
 0001:00061c20       ?CreateSite@COccManager@@UAEPAVCOleControlSite@@PAVCOleControlContainer@@@Z 00462c20 f   uafxcwd:occmgr.obj
 0001:00061c40       ?CreateSite@COccManager@@UAEPAVCOleControlSite@@PAVCOleControlContainer@@ABVCControlCreationInfo@@@Z 00462c40 f   uafxcwd:occmgr.obj
 0001:00061d10       ?PreCreateDialog@COccManager@@UAEPBUDLGTEMPLATE@@PAU_AFX_OCC_DIALOG_INFO@@PBU2@@Z 00462d10 f   uafxcwd:occmgr.obj
 0001:00061f30       ?PostCreateDialog@COccManager@@UAEXPAU_AFX_OCC_DIALOG_INFO@@@Z 00462f30 f   uafxcwd:occmgr.obj
 0001:00061f90       ?SplitDialogTemplate@COccManager@@UAEPAUDLGTEMPLATE@@PBU2@PAPAUDLGITEMTEMPLATE@@@Z 00462f90 f   uafxcwd:occmgr.obj
 0001:00062230       ?CreateDlgControls@COccManager@@UAEHPAVCWnd@@PB_WPAU_AFX_OCC_DIALOG_INFO@@@Z 00463230 f   uafxcwd:occmgr.obj
 0001:000623d0       ?CreateDlgControls@COccManager@@UAEHPAVCWnd@@PAXPAU_AFX_OCC_DIALOG_INFO@@@Z 004633d0 f   uafxcwd:occmgr.obj
 0001:00062720       ?BindControls@COccManager@@IAEXPAVCWnd@@@Z 00463720 f   uafxcwd:occmgr.obj
 0001:000629a0       ?CreateDlgControl@COccManager@@IAEHPAVCWnd@@PAUHWND__@@HPAUDLGITEMTEMPLATE@@GPAEKPAPAU3@@Z 004639a0 f   uafxcwd:occmgr.obj
 0001:00063080       ?PrepareOleCtrl@CDataExchange@@QAEPAVCOleControlSite@@H@Z 00464080 f   uafxcwd:occmgr.obj
 0001:00063150       ??0CControlSiteFactoryMgr@@QAE@XZ 00464150 f   uafxcwd:occmgr.obj
 0001:00063270       ??0COleControlSiteFactory@@QAE@XZ 00464270 f i uafxcwd:occmgr.obj
 0001:000632a0       ?CreateSite@COleControlSiteFactory@@UAEPAVCOleControlSite@@PAVCOleControlContainer@@ABVCControlCreationInfo@@@Z 004642a0 f i uafxcwd:occmgr.obj
 0001:00063330       ??_GCOleControlSiteFactory@@UAEPAXI@Z 00464330 f i uafxcwd:occmgr.obj
 0001:00063330       ??_ECOleControlSiteFactory@@UAEPAXI@Z 00464330 f i uafxcwd:occmgr.obj
 0001:00063360       ??0IControlSiteFactory@@QAE@XZ 00464360 f i uafxcwd:occmgr.obj
 0001:00063380       ??1COleControlSiteFactory@@UAE@XZ 00464380 f i uafxcwd:occmgr.obj
 0001:000633a0       ??_GCControlSiteFactoryMgr@@UAEPAXI@Z 004643a0 f i uafxcwd:occmgr.obj
 0001:000633a0       ??_ECControlSiteFactoryMgr@@UAEPAXI@Z 004643a0 f i uafxcwd:occmgr.obj
 0001:000633d0       ??1CControlSiteFactoryMgr@@UAE@XZ 004643d0 f   uafxcwd:occmgr.obj
 0001:00063480       ?CreateSite@CControlSiteFactoryMgr@@QAEPAVCOleControlSite@@PAVCOleControlContainer@@ABVCControlCreationInfo@@@Z 00464480 f   uafxcwd:occmgr.obj
 0001:000634f0       ?RegisterSiteFactory@CControlSiteFactoryMgr@@QAEHPAVIControlSiteFactory@@@Z 004644f0 f   uafxcwd:occmgr.obj
 0001:00063570       ?UnregisterSiteFactory@CControlSiteFactoryMgr@@QAEHPAVIControlSiteFactory@@@Z 00464570 f   uafxcwd:occmgr.obj
 0001:00063600       ?AfxRegisterSiteFactory@@YGHPAVIControlSiteFactory@@@Z 00464600 f   uafxcwd:occmgr.obj
 0001:00063620       ?AfxUnregisterSiteFactory@@YGHPAVIControlSiteFactory@@@Z 00464620 f   uafxcwd:occmgr.obj
 0001:00063640       ?GetData@?$CProcessLocal@VCOccManager@@@@QAEPAVCOccManager@@XZ 00464640 f i uafxcwd:occmgr.obj
 0001:000636a0       ??C?$CProcessLocal@VCControlSiteFactoryMgr@@@@QAEPAVCControlSiteFactoryMgr@@XZ 004646a0 f i uafxcwd:occmgr.obj
 0001:000636c0       ?CreateObject@?$CProcessLocal@VCOccManager@@@@SGPAVCNoTrackObject@@XZ 004646c0 f i uafxcwd:occmgr.obj
 0001:00063700       ?GetData@?$CProcessLocal@VCControlSiteFactoryMgr@@@@QAEPAVCControlSiteFactoryMgr@@XZ 00464700 f i uafxcwd:occmgr.obj
 0001:00063760       ??0COccManager@@QAE@XZ     00464760 f i uafxcwd:occmgr.obj
 0001:00063790       ??_GCOccManager@@UAEPAXI@Z 00464790 f i uafxcwd:occmgr.obj
 0001:00063790       ??_ECOccManager@@UAEPAXI@Z 00464790 f i uafxcwd:occmgr.obj
 0001:000637c0       ??1COccManager@@UAE@XZ     004647c0 f i uafxcwd:occmgr.obj
 0001:000637e0       ?CreateObject@?$CProcessLocal@VCControlSiteFactoryMgr@@@@SGPAVCNoTrackObject@@XZ 004647e0 f i uafxcwd:occmgr.obj
 0001:00063860       ??0?$CList@PAVIControlSiteFactory@@PAV1@@@QAE@H@Z 00464860 f i uafxcwd:occmgr.obj
 0001:00063910       ?AddHead@?$CList@PAVIControlSiteFactory@@PAV1@@@QAEPAU__POSITION@@PAVIControlSiteFactory@@@Z 00464910 f i uafxcwd:occmgr.obj
 0001:00063980       ?RemoveAt@?$CList@PAVIControlSiteFactory@@PAV1@@@QAEXPAU__POSITION@@@Z 00464980 f i uafxcwd:occmgr.obj
 0001:00063a80       ?Find@?$CList@PAVIControlSiteFactory@@PAV1@@@QBEPAU__POSITION@@PAVIControlSiteFactory@@PAU2@@Z 00464a80 f i uafxcwd:occmgr.obj
 0001:00063b20       ?FreeNode@?$CList@PAVIControlSiteFactory@@PAV1@@@IAEXPAUCNode@1@@Z 00464b20 f i uafxcwd:occmgr.obj
 0001:00063b80       ??$CompareElements@PAVIControlSiteFactory@@PAV1@@@YGHPBQAVIControlSiteFactory@@0@Z 00464b80 f i uafxcwd:occmgr.obj
 0001:00063c40       ??1IControlSiteFactory@@UAE@XZ 00464c40 f i uafxcwd:occmgr.obj
 0001:00063c60       ??_EIControlSiteFactory@@UAEPAXI@Z 00464c60 f i uafxcwd:occmgr.obj
 0001:00063c60       ??_GIControlSiteFactory@@UAEPAXI@Z 00464c60 f i uafxcwd:occmgr.obj
 0001:00063c90       ??1?$CList@PAVIControlSiteFactory@@PAV1@@@UAE@XZ 00464c90 f i uafxcwd:occmgr.obj
 0001:00063d10       ?Serialize@?$CList@PAVIControlSiteFactory@@PAV1@@@UAEXAAVCArchive@@@Z 00464d10 f i uafxcwd:occmgr.obj
 0001:00063df0       ?Dump@?$CList@PAVIControlSiteFactory@@PAV1@@@UBEXAAVCDumpContext@@@Z 00464df0 f i uafxcwd:occmgr.obj
 0001:00063e90       ?AssertValid@?$CList@PAVIControlSiteFactory@@PAV1@@@UBEXXZ 00464e90 f i uafxcwd:occmgr.obj
 0001:00063f40       ??_E?$CList@PAVIControlSiteFactory@@PAV1@@@UAEPAXI@Z 00464f40 f i uafxcwd:occmgr.obj
 0001:00063f40       ??_G?$CList@PAVIControlSiteFactory@@PAV1@@@UAEPAXI@Z 00464f40 f i uafxcwd:occmgr.obj
 0001:00063f70       ?AddTail@?$CList@PAVIControlSiteFactory@@PAV1@@@QAEPAU__POSITION@@PAVIControlSiteFactory@@@Z 00464f70 f i uafxcwd:occmgr.obj
 0001:00063fe0       ?RemoveAll@?$CList@PAVIControlSiteFactory@@PAV1@@@QAEXXZ 00464fe0 f i uafxcwd:occmgr.obj
 0001:00064060       ?GetHeadPosition@?$CList@PAVIControlSiteFactory@@PAV1@@@QBEPAU__POSITION@@XZ 00465060 f i uafxcwd:occmgr.obj
 0001:00064080       ?GetNext@?$CList@PAVIControlSiteFactory@@PAV1@@@QAEAAPAVIControlSiteFactory@@AAPAU__POSITION@@@Z 00465080 f i uafxcwd:occmgr.obj
 0001:000640d0       ??$SerializeElements@PAVIControlSiteFactory@@@@YGXAAVCArchive@@PAPAVIControlSiteFactory@@H@Z 004650d0 f i uafxcwd:occmgr.obj
 0001:00064220       ??$DumpElements@PAVIControlSiteFactory@@@@YGXAAVCDumpContext@@PBQAVIControlSiteFactory@@H@Z 00465220 f i uafxcwd:occmgr.obj
 0001:000642b0       ?NewNode@?$CList@PAVIControlSiteFactory@@PAV1@@@IAEPAUCNode@1@PAU21@0@Z 004652b0 f i uafxcwd:occmgr.obj
 0001:000643e0       ??1?$CProcessLocal@VCOccManager@@@@QAE@XZ 004653e0 f i uafxcwd:occmgr.obj
 0001:00064400       ??1?$CProcessLocal@VCControlSiteFactoryMgr@@@@QAE@XZ 00465400 f i uafxcwd:occmgr.obj
 0001:00064420       ?AfxDlgProc@@YGHPAUHWND__@@IIJ@Z 00465420 f   uafxcwd:dlgcore.obj
 0001:00064480       ?GetMessageMap@CDialog@@MBEPBUAFX_MSGMAP@@XZ 00465480 f   uafxcwd:dlgcore.obj
 0001:000644a0       ?GetThisMessageMap@CDialog@@KGPBUAFX_MSGMAP@@XZ 004654a0 f   uafxcwd:dlgcore.obj
 0001:000644b0       ?PreTranslateMessage@CDialog@@UAEHPAUtagMSG@@@Z 004654b0 f   uafxcwd:dlgcore.obj
 0001:000645b0       ?OnCmdMsg@CDialog@@UAEHIHPAXPAUAFX_CMDHANDLERINFO@@@Z 004655b0 f   uafxcwd:dlgcore.obj
 0001:00064740       ??0CDialog@@QAE@XZ         00465740 f   uafxcwd:dlgcore.obj
 0001:000647d0       ??_ECDialog@@UAEPAXI@Z     004657d0 f i uafxcwd:dlgcore.obj
 0001:000647d0       ??_GCDialog@@UAEPAXI@Z     004657d0 f i uafxcwd:dlgcore.obj
 0001:00064800       ??1CDialog@@UAE@XZ         00465800 f   uafxcwd:dlgcore.obj
 0001:000648d0       ?OnPaint@CDialog@@IAEXXZ   004658d0 f   uafxcwd:dlgcore.obj
 0001:00064970       ?Create@CDialog@@UAEHPB_WPAVCWnd@@@Z 00465970 f   uafxcwd:dlgcore.obj
 0001:00064a70       ?CreateIndirect@CDialog@@UAEHPAXPAVCWnd@@@Z 00465a70 f   uafxcwd:dlgcore.obj
 0001:00064aa0       ?CreateIndirect@CDialog@@IAEHPAXPAVCWnd@@PAUHINSTANCE__@@@Z 00465aa0 f   uafxcwd:dlgcore.obj
 0001:00064b00       ?CreateIndirect@CDialog@@UAEHPBUDLGTEMPLATE@@PAVCWnd@@PAX@Z 00465b00 f   uafxcwd:dlgcore.obj
 0001:00064b30       ?CreateIndirect@CDialog@@IAEHPBUDLGTEMPLATE@@PAVCWnd@@PAXPAUHINSTANCE__@@@Z 00465b30 f   uafxcwd:dlgcore.obj
 0001:00064b90       ?CreateDlg@CWnd@@IAEHPB_WPAV1@@Z 00465b90 f   uafxcwd:dlgcore.obj
 0001:00064c40       ?CreateDlgIndirect@CWnd@@IAEHPBUDLGTEMPLATE@@PAV1@PAUHINSTANCE__@@@Z 00465c40 f   uafxcwd:dlgcore.obj
 0001:000650d0       ?SetOccDialogInfo@CDialog@@MAEHPAU_AFX_OCC_DIALOG_INFO@@@Z 004660d0 f   uafxcwd:dlgcore.obj
 0001:000650f0       ?GetOccDialogInfo@CDialog@@MAEPAU_AFX_OCC_DIALOG_INFO@@XZ 004660f0 f   uafxcwd:dlgcore.obj
 0001:00065110       ??0CDialog@@QAE@PB_WPAVCWnd@@@Z 00466110 f   uafxcwd:dlgcore.obj
 0001:000651e0       ??0CDialog@@QAE@IPAVCWnd@@@Z 004661e0 f   uafxcwd:dlgcore.obj
 0001:00065240       ?InitModalIndirect@CDialog@@QAEHPAXPAVCWnd@@@Z 00466240 f   uafxcwd:dlgcore.obj
 0001:000652d0       ?InitModalIndirect@CDialog@@QAEHPBUDLGTEMPLATE@@PAVCWnd@@PAX@Z 004662d0 f   uafxcwd:dlgcore.obj
 0001:00065360       ?PreModal@CDialog@@IAEPAUHWND__@@XZ 00466360 f   uafxcwd:dlgcore.obj
 0001:000653d0       ?PostModal@CDialog@@IAEXXZ 004663d0 f   uafxcwd:dlgcore.obj
 0001:00065430       ?DoModal@CDialog@@UAEHXZ   00466430 f   uafxcwd:dlgcore.obj
 0001:00065750       ?EndDialog@CDialog@@QAEXH@Z 00466750 f   uafxcwd:dlgcore.obj
 0001:000657c0       ?HandleSetFont@CDialog@@IAEJIJ@Z 004667c0 f   uafxcwd:dlgcore.obj
 0001:00065800       ?PreInitDialog@CDialog@@MAEXXZ 00466800 f   uafxcwd:dlgcore.obj
 0001:00065810       ?HandleInitDialog@CDialog@@IAEJIJ@Z 00466810 f   uafxcwd:dlgcore.obj
 0001:00065940       ?AfxHelpEnabled@@YGHXZ     00466940 f   uafxcwd:dlgcore.obj
 0001:000659b0       ?OnSetFont@CDialog@@UAEXPAVCFont@@@Z 004669b0 f   uafxcwd:dlgcore.obj
 0001:000659c0       ?OnInitDialog@CDialog@@UAEHXZ 004669c0 f   uafxcwd:dlgcore.obj
 0001:00065ac0       ?OnOK@CDialog@@MAEXXZ      00466ac0 f   uafxcwd:dlgcore.obj
 0001:00065b20       ?OnCancel@CDialog@@MAEXXZ  00466b20 f   uafxcwd:dlgcore.obj
 0001:00065b40       ?CheckAutoCenter@CDialog@@UAEHXZ 00466b40 f   uafxcwd:dlgcore.obj
 0001:00065c70       ?OnCommandHelp@CDialog@@IAEJIJ@Z 00466c70 f   uafxcwd:dlgcore.obj
 0001:00065ce0       ?OnHelpHitTest@CDialog@@IAEJIJ@Z 00466ce0 f   uafxcwd:dlgcore.obj
 0001:00065d10       ?AssertValid@CDialog@@UBEXXZ 00466d10 f   uafxcwd:dlgcore.obj
 0001:00065d30       ?Dump@CDialog@@UBEXAAVCDumpContext@@@Z 00466d30 f   uafxcwd:dlgcore.obj
 0001:00065e10       ?_AfxCheckDialogTemplate@@YGHPB_WH@Z 00466e10 f   uafxcwd:dlgcore.obj
 0001:00066090       ?GetRuntimeClass@CDialog@@UBEPAUCRuntimeClass@@XZ 00467090 f   uafxcwd:dlgcore.obj
 0001:000660b0       ??_9CDialog@@$BBGE@AE      004670b0 f i uafxcwd:dlgcore.obj
 0001:000660c0       ??_9CDialog@@$BBGA@AE      004670c0 f i uafxcwd:dlgcore.obj
 0001:000660d0       ?GetMessageMap@CDocument@@MBEPBUAFX_MSGMAP@@XZ 004670d0 f   uafxcwd:doccore.obj
 0001:000660f0       ?GetThisMessageMap@CDocument@@KGPBUAFX_MSGMAP@@XZ 004670f0 f   uafxcwd:doccore.obj
 0001:00066100       ??0CDocument@@QAE@XZ       00467100 f   uafxcwd:doccore.obj
 0001:000661d0       ??1CDocument@@UAE@XZ       004671d0 f   uafxcwd:doccore.obj
 0001:000662f0       ?OnFinalRelease@CDocument@@UAEXXZ 004672f0 f   uafxcwd:doccore.obj
 0001:00066320       ?DisconnectViews@CDocument@@QAEXXZ 00467320 f   uafxcwd:doccore.obj
 0001:00066390       ?SetTitle@CDocument@@UAEXPB_W@Z 00467390 f   uafxcwd:doccore.obj
 0001:000663c0       ?DeleteContents@CDocument@@UAEXXZ 004673c0 f   uafxcwd:doccore.obj
 0001:000663d0       ?OnChangedViewList@CDocument@@UAEXXZ 004673d0 f   uafxcwd:doccore.obj
 0001:00066420       ?UpdateFrameCounts@CDocument@@UAEXXZ 00467420 f   uafxcwd:doccore.obj
 0001:00066670       ?CanCloseFrame@CDocument@@UAEHPAVCFrameWnd@@@Z 00467670 f   uafxcwd:doccore.obj
 0001:00066720       ?PreCloseFrame@CDocument@@UAEXPAVCFrameWnd@@@Z 00467720 f   uafxcwd:doccore.obj
 0001:00066730       ?SetPathName@CDocument@@UAEXPB_WH@Z 00467730 f   uafxcwd:doccore.obj
 0001:000668f0       ?OnFileClose@CDocument@@IAEXXZ 004678f0 f   uafxcwd:doccore.obj
 0001:00066930       ?OnFileSave@CDocument@@IAEXXZ 00467930 f   uafxcwd:doccore.obj
 0001:00066950       ?OnFileSaveAs@CDocument@@IAEXXZ 00467950 f   uafxcwd:doccore.obj
 0001:000669b0       ?DoFileSave@CDocument@@UAEHXZ 004679b0 f   uafxcwd:doccore.obj
 0001:00066a80       ?DoSave@CDocument@@UAEHPB_WH@Z 00467a80 f   uafxcwd:doccore.obj
 0001:00066d90       ?SaveModified@CDocument@@UAEHXZ 00467d90 f   uafxcwd:doccore.obj
 0001:00066f90       ?GetDefaultMenu@CDocument@@UAEPAUHMENU__@@XZ 00467f90 f   uafxcwd:doccore.obj
 0001:00066fa0       ?GetDefaultAccelerator@CDocument@@UAEPAUHACCEL__@@XZ 00467fa0 f   uafxcwd:doccore.obj
 0001:00066fb0       ?ReportSaveLoadException@CDocument@@UAEXPB_WPAVCException@@HI@Z 00467fb0 f   uafxcwd:doccore.obj
 0001:00067240       ?Open@CMirrorFile@@UAEHPB_WIPAVCFileException@@@Z 00468240 f   uafxcwd:doccore.obj
 0001:000675d0       ??0CFileStatus@@QAE@XZ     004685d0 f i uafxcwd:doccore.obj
 0001:00067600       ?Abort@CMirrorFile@@UAEXXZ 00468600 f   uafxcwd:doccore.obj
 0001:00067640       ?Close@CMirrorFile@@UAEXXZ 00468640 f   uafxcwd:doccore.obj
 0001:00067750       ?GetFile@CDocument@@UAEPAVCFile@@PB_WIPAVCFileException@@@Z 00468750 f   uafxcwd:doccore.obj
 0001:00067840       ??0CMirrorFile@@QAE@XZ     00468840 f i uafxcwd:doccore.obj
 0001:00067870       ??_GCMirrorFile@@UAEPAXI@Z 00468870 f i uafxcwd:doccore.obj
 0001:00067870       ??_ECMirrorFile@@UAEPAXI@Z 00468870 f i uafxcwd:doccore.obj
 0001:000678a0       ??1CMirrorFile@@UAE@XZ     004688a0 f i uafxcwd:doccore.obj
 0001:000678c0       ?ReleaseFile@CDocument@@UAEXPAVCFile@@H@Z 004688c0 f   uafxcwd:doccore.obj
 0001:00067950       ?OnNewDocument@CDocument@@UAEHXZ 00468950 f   uafxcwd:doccore.obj
 0001:000679d0       ?OnOpenDocument@CDocument@@UAEHPB_W@Z 004689d0 f   uafxcwd:doccore.obj
 0001:00067d70       ?OnSaveDocument@CDocument@@UAEHPB_W@Z 00468d70 f   uafxcwd:doccore.obj
 0001:00068070       ?OnCloseDocument@CDocument@@UAEXXZ 00469070 f   uafxcwd:doccore.obj
 0001:00068140       ?OnIdle@CDocument@@UAEXXZ  00469140 f   uafxcwd:doccore.obj
 0001:00068150       ?AddView@CDocument@@QAEXPAVCView@@@Z 00469150 f   uafxcwd:doccore.obj
 0001:00068200       ?RemoveView@CDocument@@QAEXPAVCView@@@Z 00469200 f   uafxcwd:doccore.obj
 0001:00068280       ?GetFirstViewPosition@CDocument@@UBEPAU__POSITION@@XZ 00469280 f   uafxcwd:doccore.obj
 0001:000682a0       ?GetNextView@CDocument@@UBEPAVCView@@AAPAU__POSITION@@@Z 004692a0 f   uafxcwd:doccore.obj
 0001:00068320       ?UpdateAllViews@CDocument@@QAEXPAVCView@@JPAVCObject@@@Z 00469320 f   uafxcwd:doccore.obj
 0001:000683c0       ?SendInitialUpdate@CDocument@@QAEXXZ 004693c0 f   uafxcwd:doccore.obj
 0001:00068420       ?OnCmdMsg@CDocument@@UAEHIHPAXPAUAFX_CMDHANDLERINFO@@@Z 00469420 f   uafxcwd:doccore.obj
 0001:00068490       ?Dump@CDocument@@UBEXAAVCDumpContext@@@Z 00469490 f   uafxcwd:doccore.obj
 0001:00068580       ?AssertValid@CDocument@@UBEXXZ 00469580 f   uafxcwd:doccore.obj
 0001:000685e0       ?GetRuntimeClass@CDocument@@UBEPAUCRuntimeClass@@XZ 004695e0 f   uafxcwd:doccore.obj
 0001:00068600       ?Tokenize@?$CStringT@_WV?$StrTraitMFC@_WV?$ChTraitsCRT@_W@ATL@@@@@ATL@@QBE?AV12@PB_WAAH@Z 00469600 f i uafxcwd:doccore.obj
 0001:00068790       ?FindOneOf@?$CStringT@_WV?$StrTraitMFC@_WV?$ChTraitsCRT@_W@ATL@@@@@ATL@@QBEHPB_W@Z 00469790 f i uafxcwd:doccore.obj
 0001:00068820       ??0?$CStringT@_WV?$StrTraitMFC@_WV?$ChTraitsCRT@_W@ATL@@@@@ATL@@QAE@PB_WPAUIAtlStringMgr@1@@Z 00469820 f i uafxcwd:doccore.obj
 0001:000688a0       ?Mid@?$CStringT@_WV?$StrTraitMFC@_WV?$ChTraitsCRT@_W@ATL@@@@@ATL@@QBE?AV12@HH@Z 004698a0 f i uafxcwd:doccore.obj
 0001:000689b0       ??$AtlAddThrow@H@ATL@@YAHHH@Z 004699b0 f i uafxcwd:doccore.obj
 0001:000689f0       ??$AtlAdd@H@ATL@@YAJPAHHH@Z 004699f0 f i uafxcwd:doccore.obj
 0001:00068a20       ?StringScanSet@?$ChTraitsCRT@_W@ATL@@SAPB_WPB_W0@Z 00469a20 f i uafxcwd:doccore.obj
 0001:00068a40       ?StringSpanIncluding@?$ChTraitsCRT@_W@ATL@@SAHPB_W0@Z 00469a40 f i uafxcwd:doccore.obj
 0001:00068a60       ?StringSpanExcluding@?$ChTraitsCRT@_W@ATL@@SAHPB_W0@Z 00469a60 f i uafxcwd:doccore.obj
 0001:00068a80       ?GetMessageMap@CView@@MBEPBUAFX_MSGMAP@@XZ 00469a80 f   uafxcwd:viewcore.obj
 0001:00068aa0       ?GetThisMessageMap@CView@@KGPBUAFX_MSGMAP@@XZ 00469aa0 f   uafxcwd:viewcore.obj
 0001:00068ab0       ??0CView@@IAE@XZ           00469ab0 f   uafxcwd:viewcore.obj
 0001:00068ae0       ??1CView@@UAE@XZ           00469ae0 f   uafxcwd:viewcore.obj
 0001:00068ce0       ?PreCreateWindow@CView@@MAEHAAUtagCREATESTRUCTW@@@Z 00469ce0 f   uafxcwd:viewcore.obj
 0001:00068d80       ?OnCreate@CView@@IAEHPAUtagCREATESTRUCTW@@@Z 00469d80 f   uafxcwd:viewcore.obj
 0001:00068e40       ?OnDestroy@CView@@IAEXXZ   00469e40 f   uafxcwd:viewcore.obj
 0001:00068e90       ?PostNcDestroy@CView@@MAEXXZ 00469e90 f   uafxcwd:viewcore.obj
 0001:00068ed0       ?CalcWindowRect@CView@@UAEXPAUtagRECT@@I@Z 00469ed0 f   uafxcwd:viewcore.obj
 0001:00068fc0       ?OnCmdMsg@CView@@UAEHIHPAXPAUAFX_CMDHANDLERINFO@@@Z 00469fc0 f   uafxcwd:viewcore.obj
 0001:00069080       ?OnPaint@CView@@IAEXXZ     0046a080 f   uafxcwd:viewcore.obj
 0001:00069120       ?OnInitialUpdate@CView@@UAEXXZ 0046a120 f   uafxcwd:viewcore.obj
 0001:00069150       ?OnUpdate@CView@@MAEXPAV1@JPAVCObject@@@Z 0046a150 f   uafxcwd:viewcore.obj
 0001:00069190       ?OnPrint@CView@@MAEXPAVCDC@@PAUCPrintInfo@@@Z 0046a190 f   uafxcwd:viewcore.obj
 0001:000691d0       ?OnDraw@CView@@MAEXPAVCDC@@@Z 0046a1d0 f   uafxcwd:viewcore.obj
 0001:000691e0       ?IsSelected@CView@@UBEHPBVCObject@@@Z 0046a1e0 f   uafxcwd:viewcore.obj
 0001:00069210       ?OnActivateView@CView@@MAEXHPAV1@0@Z 0046a210 f   uafxcwd:viewcore.obj
 0001:00069260       ?OnActivateFrame@CView@@MAEXIPAVCFrameWnd@@@Z 0046a260 f   uafxcwd:viewcore.obj
 0001:00069270       ?OnMouseActivate@CView@@IAEHPAVCWnd@@II@Z 0046a270 f   uafxcwd:viewcore.obj
 0001:00069360       ?OnScroll@CView@@UAEHIIH@Z 0046a360 f   uafxcwd:viewcore.obj
 0001:00069380       ?OnScrollBy@CView@@UAEHVCSize@@H@Z 0046a380 f   uafxcwd:viewcore.obj
 0001:000693a0       ?OnDragScroll@CView@@UAEKKVCPoint@@@Z 0046a3a0 f   uafxcwd:viewcore.obj
 0001:000693c0       ?OnDragEnter@CView@@UAEKPAVCOleDataObject@@KVCPoint@@@Z 0046a3c0 f   uafxcwd:viewcore.obj
 0001:000693e0       ?OnDragOver@CView@@UAEKPAVCOleDataObject@@KVCPoint@@@Z 0046a3e0 f   uafxcwd:viewcore.obj
 0001:00069400       ?OnDrop@CView@@UAEHPAVCOleDataObject@@KVCPoint@@@Z 0046a400 f   uafxcwd:viewcore.obj
 0001:00069420       ?OnDropEx@CView@@UAEKPAVCOleDataObject@@KKVCPoint@@@Z 0046a420 f   uafxcwd:viewcore.obj
 0001:00069440       ?OnDragLeave@CView@@UAEXXZ 0046a440 f   uafxcwd:viewcore.obj
 0001:00069450       ?GetParentSplitter@CView@@SGPAVCSplitterWnd@@PBVCWnd@@H@Z 0046a450 f   uafxcwd:viewcore.obj
 0001:000694d0       ?GetScrollBarCtrl@CView@@UBEPAVCScrollBar@@H@Z 0046a4d0 f   uafxcwd:viewcore.obj
 0001:000695b0       ?OnUpdateSplitCmd@CView@@IAEXPAVCCmdUI@@@Z 0046a5b0 f   uafxcwd:viewcore.obj
 0001:00069640       ?OnSplitCmd@CView@@IAEHI@Z 0046a640 f   uafxcwd:viewcore.obj
 0001:000696a0       ?OnUpdateNextPaneMenu@CView@@IAEXPAVCCmdUI@@@Z 0046a6a0 f   uafxcwd:viewcore.obj
 0001:00069740       ?OnNextPaneCmd@CView@@IAEHI@Z 0046a740 f   uafxcwd:viewcore.obj
 0001:000697c0       ?OnPrepareDC@CView@@UAEXPAVCDC@@PAUCPrintInfo@@@Z 0046a7c0 f   uafxcwd:viewcore.obj
 0001:00069820       ?OnPreparePrinting@CView@@MAEHPAUCPrintInfo@@@Z 0046a820 f   uafxcwd:viewcore.obj
 0001:00069840       ?OnBeginPrinting@CView@@MAEXPAVCDC@@PAUCPrintInfo@@@Z 0046a840 f   uafxcwd:viewcore.obj
 0001:00069870       ?OnEndPrinting@CView@@MAEXPAVCDC@@PAUCPrintInfo@@@Z 0046a870 f   uafxcwd:viewcore.obj
 0001:000698a0       ?OnEndPrintPreview@CView@@MAEXPAVCDC@@PAUCPrintInfo@@UtagPOINT@@PAVCPreviewView@@@Z 0046a8a0 f   uafxcwd:viewcore.obj
 0001:000699f0       ?Dump@CView@@UBEXAAVCDumpContext@@@Z 0046a9f0 f   uafxcwd:viewcore.obj
 0001:00069a40       ?AssertValid@CView@@UBEXXZ 0046aa40 f   uafxcwd:viewcore.obj
 0001:00069a60       ?GetMessageMap@CCtrlView@@MBEPBUAFX_MSGMAP@@XZ 0046aa60 f   uafxcwd:viewcore.obj
 0001:00069a80       ?GetThisMessageMap@CCtrlView@@KGPBUAFX_MSGMAP@@XZ 0046aa80 f   uafxcwd:viewcore.obj
 0001:00069a90       ??1CCtrlView@@UAE@XZ       0046aa90 f   uafxcwd:viewcore.obj
 0001:00069ac0       ??0CCtrlView@@QAE@PB_WK@Z  0046aac0 f   uafxcwd:viewcore.obj
 0001:00069b50       ?PreCreateWindow@CCtrlView@@MAEHAAUtagCREATESTRUCTW@@@Z 0046ab50 f   uafxcwd:viewcore.obj
 0001:00069bf0       ?OnDraw@CCtrlView@@MAEXPAVCDC@@@Z 0046abf0 f   uafxcwd:viewcore.obj
 0001:00069c20       ?OnPaint@CCtrlView@@IAEXXZ 0046ac20 f   uafxcwd:viewcore.obj
 0001:00069c40       ?Dump@CCtrlView@@UBEXAAVCDumpContext@@@Z 0046ac40 f   uafxcwd:viewcore.obj
 0001:00069ca0       ?AssertValid@CCtrlView@@UBEXXZ 0046aca0 f   uafxcwd:viewcore.obj
 0001:00069ce0       ?GetRuntimeClass@CSplitterWnd@@UBEPAUCRuntimeClass@@XZ 0046ace0 f   uafxcwd:viewcore.obj
 0001:00069d00       ?GetRuntimeClass@CCtrlView@@UBEPAUCRuntimeClass@@XZ 0046ad00 f   uafxcwd:viewcore.obj
 0001:00069d20       ??_9CView@@$BBGM@AE        0046ad20 f i uafxcwd:viewcore.obj
 0001:00069d30       ??0CPushRoutingView@@QAE@PAVCView@@@Z 0046ad30 f i uafxcwd:viewcore.obj
 0001:00069da0       ??1CPushRoutingView@@QAE@XZ 0046ada0 f i uafxcwd:viewcore.obj
 0001:00069e00       ?Pop@CPushRoutingView@@QAEXXZ 0046ae00 f i uafxcwd:viewcore.obj
 0001:00069e90       ?GetMessageMap@CFrameWnd@@MBEPBUAFX_MSGMAP@@XZ 0046ae90 f   uafxcwd:winfrm.obj
 0001:00069eb0       ?GetThisMessageMap@CFrameWnd@@KGPBUAFX_MSGMAP@@XZ 0046aeb0 f   uafxcwd:winfrm.obj
 0001:00069ec0       ??0CFrameWnd@@QAE@XZ       0046aec0 f   uafxcwd:winfrm.obj
 0001:0006a0b0       ??_GCFrameWnd@@UAEPAXI@Z   0046b0b0 f i uafxcwd:winfrm.obj
 0001:0006a0b0       ??_ECFrameWnd@@UAEPAXI@Z   0046b0b0 f i uafxcwd:winfrm.obj
 0001:0006a0e0       ??1CFrameWnd@@UAE@XZ       0046b0e0 f   uafxcwd:winfrm.obj
 0001:0006a330       ?AddFrameWnd@CFrameWnd@@IAEXXZ 0046b330 f   uafxcwd:winfrm.obj
 0001:0006a360       ?RemoveFrameWnd@CFrameWnd@@IAEXXZ 0046b360 f   uafxcwd:winfrm.obj
 0001:0006a390       ?LoadAccelTable@CFrameWnd@@QAEHPB_W@Z 0046b390 f   uafxcwd:winfrm.obj
 0001:0006a410       ?GetDefaultAccelerator@CFrameWnd@@UAEPAUHACCEL__@@XZ 0046b410 f   uafxcwd:winfrm.obj
 0001:0006a470       ?PreTranslateMessage@CFrameWnd@@UAEHPAUtagMSG@@@Z 0046b470 f   uafxcwd:winfrm.obj
 0001:0006a720       ?PostNcDestroy@CFrameWnd@@MAEXXZ 0046b720 f   uafxcwd:winfrm.obj
 0001:0006a760       ?OnPaletteChanged@CFrameWnd@@IAEXPAVCWnd@@@Z 0046b760 f   uafxcwd:winfrm.obj
 0001:0006a7b0       ?OnQueryNewPalette@CFrameWnd@@IAEHXZ 0046b7b0 f   uafxcwd:winfrm.obj
 0001:0006a800       ?ExitHelpMode@CFrameWnd@@UAEXXZ 0046b800 f   uafxcwd:winfrm.obj
 0001:0006a8e0       ?OnSetCursor@CFrameWnd@@IAEHPAVCWnd@@II@Z 0046b8e0 f   uafxcwd:winfrm.obj
 0001:0006a950       ?OnCommandHelp@CFrameWnd@@IAEJIJ@Z 0046b950 f   uafxcwd:winfrm.obj
 0001:0006a9d0       ?OnHelpHitTest@CFrameWnd@@IAEJIJ@Z 0046b9d0 f   uafxcwd:winfrm.obj
 0001:0006aa00       ?OnCommand@CFrameWnd@@MAEHIJ@Z 0046ba00 f   uafxcwd:winfrm.obj
 0001:0006aad0       ?AfxIsDescendant@@YGHPAUHWND__@@0@Z 0046bad0 f   uafxcwd:winfrm.obj
 0001:0006ab40       ?BeginModalState@CFrameWnd@@UAEXXZ 0046bb40 f   uafxcwd:winfrm.obj
 0001:0006ada0       ?EndModalState@CFrameWnd@@UAEXXZ 0046bda0 f   uafxcwd:winfrm.obj
 0001:0006aeb0       ?ShowOwnedWindows@CFrameWnd@@QAEXH@Z 0046beb0 f   uafxcwd:winfrm.obj
 0001:0006afc0       ?OnEnable@CFrameWnd@@IAEXH@Z 0046bfc0 f   uafxcwd:winfrm.obj
 0001:0006b120       ?NotifyFloatingWindows@CFrameWnd@@QAEXK@Z 0046c120 f   uafxcwd:winfrm.obj
 0001:0006b290       ?PreCreateWindow@CFrameWnd@@MAEHAAUtagCREATESTRUCTW@@@Z 0046c290 f   uafxcwd:winfrm.obj
 0001:0006b310       ?Create@CFrameWnd@@UAEHPB_W0KABUtagRECT@@PAVCWnd@@0KPAUCCreateContext@@@Z 0046c310 f   uafxcwd:winfrm.obj
 0001:0006b450       ?CreateView@CFrameWnd@@QAEPAVCWnd@@PAUCCreateContext@@I@Z 0046c450 f   uafxcwd:winfrm.obj
 0001:0006b610       ?OnCreateClient@CFrameWnd@@MAEHPAUtagCREATESTRUCTW@@PAUCCreateContext@@@Z 0046c610 f   uafxcwd:winfrm.obj
 0001:0006b650       ?OnCreate@CFrameWnd@@IAEHPAUtagCREATESTRUCTW@@@Z 0046c650 f   uafxcwd:winfrm.obj
 0001:0006b6b0       ?OnCreateHelper@CFrameWnd@@IAEHPAUtagCREATESTRUCTW@@PAUCCreateContext@@@Z 0046c6b0 f   uafxcwd:winfrm.obj
 0001:0006b750       ?GetIconWndClass@CFrameWnd@@IAEPB_WKI@Z 0046c750 f   uafxcwd:winfrm.obj
 0001:0006b810       ?LoadFrame@CFrameWnd@@UAEHIKPAVCWnd@@PAUCCreateContext@@@Z 0046c810 f   uafxcwd:winfrm.obj
 0001:0006ba30       ?OnUpdateFrameMenu@CFrameWnd@@UAEXPAUHMENU__@@@Z 0046ca30 f   uafxcwd:winfrm.obj
 0001:0006bac0       ?InitialUpdateFrame@CFrameWnd@@QAEXPAVCDocument@@H@Z 0046cac0 f   uafxcwd:winfrm.obj
 0001:0006bbf0       ?OnClose@CFrameWnd@@IAEXXZ 0046cbf0 f   uafxcwd:winfrm.obj
 0001:0006bd90       ?OnDestroy@CFrameWnd@@IAEXXZ 0046cd90 f   uafxcwd:winfrm.obj
 0001:0006be40       ?RemoveControlBar@CFrameWnd@@QAEXPAVCControlBar@@@Z 0046ce40 f   uafxcwd:winfrm.obj
 0001:0006be80       ?OnCmdMsg@CFrameWnd@@UAEHIHPAXPAUAFX_CMDHANDLERINFO@@@Z 0046ce80 f   uafxcwd:winfrm.obj
 0001:0006bfc0       ?OnHScroll@CFrameWnd@@IAEXIIPAVCScrollBar@@@Z 0046cfc0 f   uafxcwd:winfrm.obj
 0001:0006c010       ?OnVScroll@CFrameWnd@@IAEXIIPAVCScrollBar@@@Z 0046d010 f   uafxcwd:winfrm.obj
 0001:0006c060       ?OnActivateTopLevel@CFrameWnd@@IAEJIJ@Z 0046d060 f   uafxcwd:winfrm.obj
 0001:0006c180       ?OnActivate@CFrameWnd@@IAEXIPAVCWnd@@H@Z 0046d180 f   uafxcwd:winfrm.obj
 0001:0006c340       ?OnNcActivate@CFrameWnd@@IAEHH@Z 0046d340 f   uafxcwd:winfrm.obj
 0001:0006c390       ?OnSysCommand@CFrameWnd@@IAEXIJ@Z 0046d390 f   uafxcwd:winfrm.obj
 0001:0006c5c0       ?OnDropFiles@CFrameWnd@@IAEXPAUHDROP__@@@Z 0046d5c0 f   uafxcwd:winfrm.obj
 0001:0006c690       ?OnQueryEndSession@CFrameWnd@@IAEHXZ 0046d690 f   uafxcwd:winfrm.obj
 0001:0006c6d0       ?OnEndSession@CFrameWnd@@IAEXH@Z 0046d6d0 f   uafxcwd:winfrm.obj
 0001:0006c720       ?OnDDEInitiate@CFrameWnd@@IAEJIJ@Z 0046d720 f   uafxcwd:winfrm.obj
 0001:0006c8e0       ?OnDDEExecute@CFrameWnd@@IAEJIJ@Z 0046d8e0 f   uafxcwd:winfrm.obj
 0001:0006caf0       ?OnDDETerminate@CFrameWnd@@IAEJIJ@Z 0046daf0 f   uafxcwd:winfrm.obj
 0001:0006cb20       ?GetActiveView@CFrameWnd@@QBEPAVCView@@XZ 0046db20 f   uafxcwd:winfrm.obj
 0001:0006cb70       ?SetActiveView@CFrameWnd@@QAEXPAVCView@@H@Z 0046db70 f   uafxcwd:winfrm.obj
 0001:0006cc60       ?OnSetFocus@CFrameWnd@@IAEXPAVCWnd@@@Z 0046dc60 f   uafxcwd:winfrm.obj
 0001:0006cca0       ?GetActiveDocument@CFrameWnd@@UAEPAVCDocument@@XZ 0046dca0 f   uafxcwd:winfrm.obj
 0001:0006cce0       ?ShowControlBar@CFrameWnd@@QAEXPAVCControlBar@@HH@Z 0046dce0 f   uafxcwd:winfrm.obj
 0001:0006ced0       ?OnInitMenu@CFrameWnd@@IAEXPAVCMenu@@@Z 0046ded0 f   uafxcwd:winfrm.obj
 0001:0006cf20       ?OnInitMenuPopup@CFrameWnd@@IAEXPAVCMenu@@IH@Z 0046df20 f   uafxcwd:winfrm.obj
 0001:0006d200       ?OnMenuSelect@CFrameWnd@@IAEXIIPAUHMENU__@@@Z 0046e200 f   uafxcwd:winfrm.obj
 0001:0006d4a0       ?GetMessageString@CFrameWnd@@UBEXIAAV?$CStringT@_WV?$StrTraitMFC@_WV?$ChTraitsCRT@_W@ATL@@@@@ATL@@@Z 0046e4a0 f   uafxcwd:winfrm.obj
 0001:0006d540       ?OnPopMessageString@CFrameWnd@@IAEJIJ@Z 0046e540 f   uafxcwd:winfrm.obj
 0001:0006d580       ?OnSetMessageString@CFrameWnd@@IAEJIJ@Z 0046e580 f   uafxcwd:winfrm.obj
 0001:0006d6e0       ?OnHelpPromptAddr@CFrameWnd@@IAEJIJ@Z 0046e6e0 f   uafxcwd:winfrm.obj
 0001:0006d700       ?GetMessageBar@CFrameWnd@@UAEPAVCWnd@@XZ 0046e700 f   uafxcwd:winfrm.obj
 0001:0006d720       ?OnEnterIdle@CFrameWnd@@IAEXIPAVCWnd@@@Z 0046e720 f   uafxcwd:winfrm.obj
 0001:0006d7a0       ?SetMessageText@CFrameWnd@@QAEXPB_W@Z 0046e7a0 f   uafxcwd:winfrm.obj
 0001:0006d7d0       ?SetMessageText@CFrameWnd@@QAEXI@Z 0046e7d0 f   uafxcwd:winfrm.obj
 0001:0006d800       ?DestroyDockBars@CFrameWnd@@QAEXXZ 0046e800 f   uafxcwd:winfrm.obj
 0001:0006da10       ?GetControlBar@CFrameWnd@@QAEPAVCControlBar@@I@Z 0046ea10 f   uafxcwd:winfrm.obj
 0001:0006dac0       ?OnUpdateControlBarMenu@CFrameWnd@@QAEXPAVCCmdUI@@@Z 0046eac0 f   uafxcwd:winfrm.obj
 0001:0006db50       ?OnBarCheck@CFrameWnd@@QAEHI@Z 0046eb50 f   uafxcwd:winfrm.obj
 0001:0006dbb0       ?OnToolTipText@CFrameWnd@@IAEHIPAUtagNMHDR@@PAJ@Z 0046ebb0 f   uafxcwd:winfrm.obj
 0001:0006ddf0       ?wcsncpy_s@Checked@ATL@@YAHPA_WIPB_WI@Z 0046edf0 f i uafxcwd:winfrm.obj
 0001:0006de20       ?OnUpdateKeyIndicator@CFrameWnd@@IAEXPAVCCmdUI@@@Z 0046ee20 f   uafxcwd:winfrm.obj
 0001:0006df50       ?OnUpdateContextHelp@CFrameWnd@@IAEXPAVCCmdUI@@@Z 0046ef50 f   uafxcwd:winfrm.obj
 0001:0006dfd0       ?OnUpdateFrameTitle@CFrameWnd@@UAEXH@Z 0046efd0 f   uafxcwd:winfrm.obj
 0001:0006e060       ?UpdateFrameTitleForDocument@CFrameWnd@@QAEXPB_W@Z 0046f060 f   uafxcwd:winfrm.obj
 0001:0006e1d0       ?OnSetPreviewMode@CFrameWnd@@UAEXHPAUCPrintPreviewState@@@Z 0046f1d0 f   uafxcwd:winfrm.obj
 0001:0006e640       ?DelayUpdateFrameMenu@CFrameWnd@@UAEXPAUHMENU__@@@Z 0046f640 f   uafxcwd:winfrm.obj
 0001:0006e670       ?OnIdleUpdateCmdUI@CFrameWnd@@IAEXXZ 0046f670 f   uafxcwd:winfrm.obj
 0001:0006e770       ?GetActiveFrame@CFrameWnd@@UAEPAV1@XZ 0046f770 f   uafxcwd:winfrm.obj
 0001:0006e780       ?RecalcLayout@CFrameWnd@@UAEXH@Z 0046f780 f   uafxcwd:winfrm.obj
 0001:0006e8e0       ?NegotiateBorderSpace@CFrameWnd@@UAEHIPAUtagRECT@@@Z 0046f8e0 f   uafxcwd:winfrm.obj
 0001:0006e9e0       ?OnSize@CFrameWnd@@IAEXIHH@Z 0046f9e0 f   uafxcwd:winfrm.obj
 0001:0006ea20       ?OnEraseBkgnd@CFrameWnd@@IAEHPAVCDC@@@Z 0046fa20 f   uafxcwd:winfrm.obj
 0001:0006ea50       ?OnChevronPushed@CFrameWnd@@IAEHIPAUtagNMHDR@@PAJ@Z 0046fa50 f   uafxcwd:winfrm.obj
 0001:0006f2c0       ??1CChevronOwnerDrawMenu@@UAE@XZ 004702c0 f i uafxcwd:winfrm.obj
 0001:0006f320       ??0?$CTypedPtrArray@VCObArray@@PAVCBitmap@@@@QAE@XZ 00470320 f i uafxcwd:winfrm.obj
 0001:0006f350       ??1?$CTypedPtrArray@VCObArray@@PAVCBitmap@@@@UAE@XZ 00470350 f i uafxcwd:winfrm.obj
 0001:0006f370       ??_E?$CTypedPtrArray@VCObArray@@PAVCBitmap@@@@UAEPAXI@Z 00470370 f i uafxcwd:winfrm.obj
 0001:0006f370       ??_G?$CTypedPtrArray@VCObArray@@PAVCBitmap@@@@UAEPAXI@Z 00470370 f i uafxcwd:winfrm.obj
 0001:0006f3a0       ?ActivateFrame@CFrameWnd@@UAEXH@Z 004703a0 f   uafxcwd:winfrm.obj
 0001:0006f410       ?BringToTop@CFrameWnd@@IAEXH@Z 00470410 f   uafxcwd:winfrm.obj
 0001:0006f460       ?AssertValid@CFrameWnd@@UBEXXZ 00470460 f   uafxcwd:winfrm.obj
 0001:0006f4a0       ?Dump@CFrameWnd@@UBEXAAVCDumpContext@@@Z 004704a0 f   uafxcwd:winfrm.obj
 0001:0006f5a0       ?GetDockingFrame@CControlBar@@QBEPAVCFrameWnd@@XZ 004705a0 f   uafxcwd:winfrm.obj
 0001:0006f610       ?IsFloating@CControlBar@@QBEHXZ 00470610 f   uafxcwd:winfrm.obj
 0001:0006f680       ?CreateObject@CFrameWnd@@SGPAVCObject@@XZ 00470680 f   uafxcwd:winfrm.obj
 0001:0006f700       ?GetRuntimeClass@CFrameWnd@@UBEPAUCRuntimeClass@@XZ 00470700 f   uafxcwd:winfrm.obj
 0001:0006f720       ?GetRuntimeClass@CView@@UBEPAUCRuntimeClass@@XZ 00470720 f   uafxcwd:winfrm.obj
 0001:0006f740       ?GetRuntimeClass@CControlBar@@UBEPAUCRuntimeClass@@XZ 00470740 f   uafxcwd:winfrm.obj
 0001:0006f760       ?SetMenuBarVisibility@CFrameWnd@@UAEXK@Z 00470760 f   uafxcwd:winfrm.obj
 0001:0006f850       ?GetMenuBarVisibility@CFrameWnd@@UBEKXZ 00470850 f   uafxcwd:winfrm.obj
 0001:0006f870       ?SetMenuBarState@CFrameWnd@@UAEHK@Z 00470870 f   uafxcwd:winfrm.obj
 0001:0006f960       ?GetMenuBarState@CFrameWnd@@UBEKXZ 00470960 f   uafxcwd:winfrm.obj
 0001:0006f980       ?OnShowMenuBar@CFrameWnd@@MAEXXZ 00470980 f   uafxcwd:winfrm.obj
 0001:0006f990       ?OnHideMenuBar@CFrameWnd@@MAEXXZ 00470990 f   uafxcwd:winfrm.obj
 0001:0006f9a0       ?OnMenuChar@CFrameWnd@@IAEJIIPAVCMenu@@@Z 004709a0 f   uafxcwd:winfrm.obj
 0001:0006fa00       ?GetMenu@CFrameWnd@@UBEPAVCMenu@@XZ 00470a00 f   uafxcwd:winfrm.obj
 0001:0006fab0       ?SetMenu@CFrameWnd@@UAEHPAVCMenu@@@Z 00470ab0 f   uafxcwd:winfrm.obj
 0001:0006fb60       ?GetMenuBarInfo@CFrameWnd@@QBEHJJPAUtagMENUBARINFO@@@Z 00470b60 f   uafxcwd:winfrm.obj
 0001:0006fd90       ?AddHead@?$CTypedSimpleList@PAVCFrameWnd@@@@QAEXPAVCFrameWnd@@@Z 00470d90 f i uafxcwd:winfrm.obj
 0001:0006fdb0       ?Remove@?$CTypedSimpleList@PAVCFrameWnd@@@@QAEHPAVCFrameWnd@@@Z 00470db0 f i uafxcwd:winfrm.obj
 0001:0006fdd0       ?SetAtGrow@?$CTypedPtrArray@VCObArray@@PAVCBitmap@@@@QAEXHPAVCBitmap@@@Z 00470dd0 f i uafxcwd:winfrm.obj
 0001:0006fdf0       ??A?$CTypedPtrArray@VCObArray@@PAVCBitmap@@@@QAEAAPAVCBitmap@@H@Z 00470df0 f i uafxcwd:winfrm.obj
 0001:0006fe10       ??0?$CArray@PAUHWND__@@PAU1@@@QAE@XZ 00470e10 f i uafxcwd:winfrm.obj
 0001:0006fe60       ?GetCount@?$CArray@PAUHWND__@@PAU1@@@QBEHXZ 00470e60 f i uafxcwd:winfrm.obj
 0001:0006fe80       ?GetData@?$CArray@PAUHWND__@@PAU1@@@QAEPAPAUHWND__@@XZ 00470e80 f i uafxcwd:winfrm.obj
 0001:0006fea0       ?Add@?$CArray@PAUHWND__@@PAU1@@@QAEHPAUHWND__@@@Z 00470ea0 f i uafxcwd:winfrm.obj
 0001:0006fed0       ??1?$CArray@PAUHWND__@@PAU1@@@UAE@XZ 00470ed0 f i uafxcwd:winfrm.obj
 0001:0006ff80       ?Serialize@?$CArray@PAUHWND__@@PAU1@@@UAEXAAVCArchive@@@Z 00470f80 f i uafxcwd:winfrm.obj
 0001:00070000       ?Dump@?$CArray@PAUHWND__@@PAU1@@@UBEXAAVCDumpContext@@@Z 00471000 f i uafxcwd:winfrm.obj
 0001:00070080       ?AssertValid@?$CArray@PAUHWND__@@PAU1@@@UBEXXZ 00471080 f i uafxcwd:winfrm.obj
 0001:00070170       ??0?$CList@PAUHWND__@@PAU1@@@QAE@H@Z 00471170 f i uafxcwd:winfrm.obj
 0001:00070220       ?AddTail@?$CList@PAUHWND__@@PAU1@@@QAEPAU__POSITION@@PAUHWND__@@@Z 00471220 f i uafxcwd:winfrm.obj
 0001:00070290       ?GetHeadPosition@?$CList@PAUHWND__@@PAU1@@@QBEPAU__POSITION@@XZ 00471290 f i uafxcwd:winfrm.obj
 0001:000702b0       ?GetNext@?$CList@PAUHWND__@@PAU1@@@QAEAAPAUHWND__@@AAPAU__POSITION@@@Z 004712b0 f i uafxcwd:winfrm.obj
 0001:00070300       ??1?$CList@PAUHWND__@@PAU1@@@UAE@XZ 00471300 f i uafxcwd:winfrm.obj
 0001:00070380       ?Serialize@?$CList@PAUHWND__@@PAU1@@@UAEXAAVCArchive@@@Z 00471380 f i uafxcwd:winfrm.obj
 0001:00070460       ?Dump@?$CList@PAUHWND__@@PAU1@@@UBEXAAVCDumpContext@@@Z 00471460 f i uafxcwd:winfrm.obj
 0001:00070500       ?AssertValid@?$CList@PAUHWND__@@PAU1@@@UBEXXZ 00471500 f i uafxcwd:winfrm.obj
 0001:000705b0       ??_E?$CArray@PAUHWND__@@PAU1@@@UAEPAXI@Z 004715b0 f i uafxcwd:winfrm.obj
 0001:000705b0       ??_G?$CArray@PAUHWND__@@PAU1@@@UAEPAXI@Z 004715b0 f i uafxcwd:winfrm.obj
 0001:000705e0       ??_E?$CList@PAUHWND__@@PAU1@@@UAEPAXI@Z 004715e0 f i uafxcwd:winfrm.obj
 0001:000705e0       ??_G?$CList@PAUHWND__@@PAU1@@@UAEPAXI@Z 004715e0 f i uafxcwd:winfrm.obj
 0001:00070610       ?SetSize@?$CArray@PAUHWND__@@PAU1@@@QAEXHH@Z 00471610 f i uafxcwd:winfrm.obj
 0001:00070a20       ?SetAtGrow@?$CArray@PAUHWND__@@PAU1@@@QAEXHPAUHWND__@@@Z 00471a20 f i uafxcwd:winfrm.obj
 0001:00070aa0       ??$SerializeElements@PAUHWND__@@@@YGXAAVCArchive@@PAPAUHWND__@@H@Z 00471aa0 f i uafxcwd:winfrm.obj
 0001:00070bf0       ??$DumpElements@PAUHWND__@@@@YGXAAVCDumpContext@@PBQAUHWND__@@H@Z 00471bf0 f i uafxcwd:winfrm.obj
 0001:00070c80       ?RemoveAll@?$CList@PAUHWND__@@PAU1@@@QAEXXZ 00471c80 f i uafxcwd:winfrm.obj
 0001:00070d00       ?NewNode@?$CList@PAUHWND__@@PAU1@@@IAEPAUCNode@1@PAU21@0@Z 00471d00 f i uafxcwd:winfrm.obj
 0001:00070e30       ?_wcstombsz@ATL@@YAHPADPB_WK@Z 00471e30 f i uafxcwd:winfrm.obj
 0001:00070ea0       ??0CPushRoutingFrame@@QAE@PAVCFrameWnd@@@Z 00471ea0 f i uafxcwd:winfrm.obj
 0001:00070f00       ??1CPushRoutingFrame@@QAE@XZ 00471f00 f i uafxcwd:winfrm.obj
 0001:00070f60       ?Pop@CPushRoutingFrame@@QAEXXZ 00471f60 f i uafxcwd:winfrm.obj
 0001:00071000       ?GetRuntimeClass@CObject@@UBEPAUCRuntimeClass@@XZ 00472000 f   uafxcwd:objcore.obj
 0001:00071020       ?IsKindOf@CObject@@QBEHPBUCRuntimeClass@@@Z 00472020 f   uafxcwd:objcore.obj
 0001:000710e0       ?AfxDynamicDownCast@@YAPAVCObject@@PAUCRuntimeClass@@PAV1@@Z 004720e0 f   uafxcwd:objcore.obj
 0001:00071110       ?AfxStaticDownCast@@YAPAVCObject@@PAUCRuntimeClass@@PAV1@@Z 00472110 f   uafxcwd:objcore.obj
 0001:00071150       ?AfxAssertValidObject@@YGXPBVCObject@@PBDH@Z 00472150 f   uafxcwd:objcore.obj
 0001:000712c0       ?AssertValid@CObject@@UBEXXZ 004722c0 f   uafxcwd:objcore.obj
 0001:000712f0       ?Dump@CObject@@UBEXAAVCDumpContext@@@Z 004722f0 f   uafxcwd:objcore.obj
 0001:00071350       ?CreateObject@CRuntimeClass@@QAEPAVCObject@@XZ 00472350 f   uafxcwd:objcore.obj
 0001:00071470       ?IsSerializable@CObject@@QBEHXZ 00472470 f   uafxcwd:objcore.obj
 0001:000714a0       ?AfxClassInit@@YGXPAUCRuntimeClass@@@Z 004724a0 f   uafxcwd:objcore.obj
 0001:000714e0       ?IsDerivedFrom@CRuntimeClass@@QBEHPBU1@@Z 004724e0 f   uafxcwd:objcore.obj
 0001:000715d0       ?AfxDoForAllClasses@@YGXP6AXPBUCRuntimeClass@@PAX@Z1@Z 004725d0 f   uafxcwd:objcore.obj
 0001:00071630       ?AddHead@?$CTypedSimpleList@PAUCRuntimeClass@@@@QAEXPAUCRuntimeClass@@@Z 00472630 f i uafxcwd:objcore.obj
 0001:00071650       ??B?$CTypedSimpleList@PAUCRuntimeClass@@@@QAEPAUCRuntimeClass@@XZ 00472650 f i uafxcwd:objcore.obj
 0001:00071670       ??_Estringdispid@CComTypeInfoHolder@ATL@@QAEPAXI@Z 00472670 f i uafxcwd:objcore.obj
 0001:000716e0       ??1stringdispid@CComTypeInfoHolder@ATL@@QAE@XZ 004726e0 f i uafxcwd:objcore.obj
 0001:00071700       ??1CDragListBox@@UAE@XZ    00472700 f   uafxcwd:winctrl2.obj
 0001:00071760       ??_GCDragListBox@@UAEPAXI@Z 00472760 f i uafxcwd:winctrl2.obj
 0001:00071760       ??_ECDragListBox@@UAEPAXI@Z 00472760 f i uafxcwd:winctrl2.obj
 0001:00071790       ?PreSubclassWindow@CDragListBox@@UAEXXZ 00472790 f   uafxcwd:winctrl2.obj
 0001:000717f0       ?BeginDrag@CDragListBox@@UAEHVCPoint@@@Z 004727f0 f   uafxcwd:winctrl2.obj
 0001:00071840       ?CancelDrag@CDragListBox@@UAEXVCPoint@@@Z 00472840 f   uafxcwd:winctrl2.obj
 0001:00071870       ?Dragging@CDragListBox@@UAEIVCPoint@@@Z 00472870 f   uafxcwd:winctrl2.obj
 0001:000718d0       ?Dropped@CDragListBox@@UAEXHVCPoint@@@Z 004728d0 f   uafxcwd:winctrl2.obj
 0001:00071a20       ?DrawInsert@CDragListBox@@UAEXH@Z 00472a20 f   uafxcwd:winctrl2.obj
 0001:00071a60       ?DrawSingle@CDragListBox@@QAEXH@Z 00472a60 f   uafxcwd:winctrl2.obj
 0001:00071b80       ?OnChildNotify@CDragListBox@@MAEHIIJPAJ@Z 00472b80 f   uafxcwd:winctrl2.obj
 0001:00071ce0       ?GetMessageMap@CToolBarCtrl@@MBEPBUAFX_MSGMAP@@XZ 00472ce0 f   uafxcwd:winctrl2.obj
 0001:00071d00       ?GetThisMessageMap@CToolBarCtrl@@KGPBUAFX_MSGMAP@@XZ 00472d00 f   uafxcwd:winctrl2.obj
 0001:00071d10       ?Create@CToolBarCtrl@@QAEHKABUtagRECT@@PAVCWnd@@I@Z 00472d10 f   uafxcwd:winctrl2.obj
 0001:00071d70       ?CreateEx@CToolBarCtrl@@QAEHKKABUtagRECT@@PAVCWnd@@I@Z 00472d70 f   uafxcwd:winctrl2.obj
 0001:00071dc0       ??1CToolBarCtrl@@UAE@XZ    00472dc0 f   uafxcwd:winctrl2.obj
 0001:00071e20       ??_GCToolBarCtrl@@UAEPAXI@Z 00472e20 f i uafxcwd:winctrl2.obj
 0001:00071e20       ??_ECToolBarCtrl@@UAEPAXI@Z 00472e20 f i uafxcwd:winctrl2.obj
 0001:00071e50       ?AddBitmap@CToolBarCtrl@@QAEHHPAVCBitmap@@@Z 00472e50 f   uafxcwd:winctrl2.obj
 0001:00071ec0       ?AddBitmap@CToolBarCtrl@@QAEHHI@Z 00472ec0 f   uafxcwd:winctrl2.obj
 0001:00071f40       ?SaveState@CToolBarCtrl@@QAEXPAUHKEY__@@PB_W1@Z 00472f40 f   uafxcwd:winctrl2.obj
 0001:00071fa0       ?RestoreState@CToolBarCtrl@@QAEXPAUHKEY__@@PB_W1@Z 00472fa0 f   uafxcwd:winctrl2.obj
 0001:00072000       ?AddString@CToolBarCtrl@@QAEHI@Z 00473000 f   uafxcwd:winctrl2.obj
 0001:000720f0       ?OnCreate@CToolBarCtrl@@IAEHPAUtagCREATESTRUCTW@@@Z 004730f0 f   uafxcwd:winctrl2.obj
 0001:00072130       ?GetDropTarget@CToolBarCtrl@@QBEJPAPAUIDropTarget@@@Z 00473130 f   uafxcwd:winctrl2.obj
 0001:000721a0       ?GetString@CToolBarCtrl@@QBEHHAAV?$CStringT@_WV?$StrTraitMFC@_WV?$ChTraitsCRT@_W@ATL@@@@@ATL@@@Z 004731a0 f   uafxcwd:winctrl2.obj
 0001:00072260       ?Create@CStatusBarCtrl@@QAEHKABUtagRECT@@PAVCWnd@@I@Z 00473260 f   uafxcwd:winctrl2.obj
 0001:000722c0       ?CreateEx@CStatusBarCtrl@@QAEHKKABUtagRECT@@PAVCWnd@@I@Z 004732c0 f   uafxcwd:winctrl2.obj
 0001:00072310       ??1CStatusBarCtrl@@UAE@XZ  00473310 f   uafxcwd:winctrl2.obj
 0001:00072370       ??_GCStatusBarCtrl@@UAEPAXI@Z 00473370 f i uafxcwd:winctrl2.obj
 0001:00072370       ??_ECStatusBarCtrl@@UAEPAXI@Z 00473370 f i uafxcwd:winctrl2.obj
 0001:000723a0       ?GetText@CStatusBarCtrl@@QBEHPA_WHPAH@Z 004733a0 f   uafxcwd:winctrl2.obj
 0001:00072440       ?GetText@CStatusBarCtrl@@QBE?AV?$CStringT@_WV?$StrTraitMFC@_WV?$ChTraitsCRT@_W@ATL@@@@@ATL@@HPAH@Z 00473440 f   uafxcwd:winctrl2.obj
 0001:00072570       ?GetTextLength@CStatusBarCtrl@@QBEHHPAH@Z 00473570 f   uafxcwd:winctrl2.obj
 0001:00072610       ?GetTipText@CStatusBarCtrl@@QBE?AV?$CStringT@_WV?$StrTraitMFC@_WV?$ChTraitsCRT@_W@ATL@@@@@ATL@@H@Z 00473610 f   uafxcwd:winctrl2.obj
 0001:000726e0       ?GetBorders@CStatusBarCtrl@@QBEHAAH00@Z 004736e0 f   uafxcwd:winctrl2.obj
 0001:00072760       ?DrawItem@CStatusBarCtrl@@UAEXPAUtagDRAWITEMSTRUCT@@@Z 00473760 f   uafxcwd:winctrl2.obj
 0001:00072790       ?OnChildNotify@CStatusBarCtrl@@MAEHIIJPAJ@Z 00473790 f   uafxcwd:winctrl2.obj
 0001:00072800       ?GetMessageMap@CListCtrl@@MBEPBUAFX_MSGMAP@@XZ 00473800 f   uafxcwd:winctrl2.obj
 0001:00072820       ?GetThisMessageMap@CListCtrl@@KGPBUAFX_MSGMAP@@XZ 00473820 f   uafxcwd:winctrl2.obj
 0001:00072830       ?Create@CListCtrl@@QAEHKABUtagRECT@@PAVCWnd@@I@Z 00473830 f   uafxcwd:winctrl2.obj
 0001:00072890       ?CreateEx@CListCtrl@@QAEHKKABUtagRECT@@PAVCWnd@@I@Z 00473890 f   uafxcwd:winctrl2.obj
 0001:000728e0       ??1CListCtrl@@UAE@XZ       004738e0 f   uafxcwd:winctrl2.obj
 0001:00072940       ??_GCListCtrl@@UAEPAXI@Z   00473940 f i uafxcwd:winctrl2.obj
 0001:00072940       ??_ECListCtrl@@UAEPAXI@Z   00473940 f i uafxcwd:winctrl2.obj
 0001:00072970       ?GetItemRect@CListCtrl@@QBEHHPAUtagRECT@@I@Z 00473970 f   uafxcwd:winctrl2.obj
 0001:000729d0       ?SetItemCountEx@CListCtrl@@QAEHHK@Z 004739d0 f   uafxcwd:winctrl2.obj
 0001:00072a50       ?SetIconSpacing@CListCtrl@@QAE?AVCSize@@HH@Z 00473a50 f   uafxcwd:winctrl2.obj
 0001:00072ad0       ?SetIconSpacing@CListCtrl@@QAE?AVCSize@@V2@@Z 00473ad0 f   uafxcwd:winctrl2.obj
 0001:00072b50       ?GetSubItemRect@CListCtrl@@QBEHHHHAAVCRect@@@Z 00473b50 f   uafxcwd:winctrl2.obj
 0001:00072bf0       ?InsertColumn@CListCtrl@@QAEHHPB_WHHH@Z 00473bf0 f   uafxcwd:winctrl2.obj
 0001:00072c50       ?InsertItem@CListCtrl@@QAEHIHPB_WIIHJ@Z 00473c50 f   uafxcwd:winctrl2.obj
 0001:00072cd0       ?HitTest@CListCtrl@@QBEHVCPoint@@PAI@Z 00473cd0 f   uafxcwd:winctrl2.obj
 0001:00072d40       ?SetItem@CListCtrl@@QAEHHHIPB_WHIIJ@Z 00473d40 f   uafxcwd:winctrl2.obj
 0001:00072da0       ?SetItem@CListCtrl@@QAEHHHIPB_WHIIJH@Z 00473da0 f   uafxcwd:winctrl2.obj
 0001:00072e50       ?SetItemState@CListCtrl@@QAEHHII@Z 00473e50 f   uafxcwd:winctrl2.obj
 0001:00072eb0       ?SetItemText@CListCtrl@@QAEHHHPB_W@Z 00473eb0 f   uafxcwd:winctrl2.obj
 0001:00072f30       ?GetItemText@CListCtrl@@QBE?AV?$CStringT@_WV?$StrTraitMFC@_WV?$ChTraitsCRT@_W@ATL@@@@@ATL@@HH@Z 00473f30 f   uafxcwd:winctrl2.obj
 0001:00073040       ?GetItemText@CListCtrl@@QBEHHHPA_WH@Z 00474040 f   uafxcwd:winctrl2.obj
 0001:000730c0       ?GetItemData@CListCtrl@@QBEKH@Z 004740c0 f   uafxcwd:winctrl2.obj
 0001:00073150       ?DrawItem@CListCtrl@@UAEXPAUtagDRAWITEMSTRUCT@@@Z 00474150 f   uafxcwd:winctrl2.obj
 0001:00073180       ?OnChildNotify@CListCtrl@@MAEHIIJPAJ@Z 00474180 f   uafxcwd:winctrl2.obj
 0001:000731f0       ?RemoveImageList@CListCtrl@@IAEXH@Z 004741f0 f   uafxcwd:winctrl2.obj
 0001:00073240       ?OnNcDestroy@CListCtrl@@IAEXXZ 00474240 f   uafxcwd:winctrl2.obj
 0001:00073280       ?CreateDragImage@CListCtrl@@QAEPAVCImageList@@HPAUtagPOINT@@@Z 00474280 f   uafxcwd:winctrl2.obj
 0001:00073380       ?GetMessageMap@CTreeCtrl@@MBEPBUAFX_MSGMAP@@XZ 00474380 f   uafxcwd:winctrl2.obj
 0001:000733a0       ?GetThisMessageMap@CTreeCtrl@@KGPBUAFX_MSGMAP@@XZ 004743a0 f   uafxcwd:winctrl2.obj
 0001:000733b0       ?Create@CTreeCtrl@@QAEHKABUtagRECT@@PAVCWnd@@I@Z 004743b0 f   uafxcwd:winctrl2.obj
 0001:00073410       ?CreateEx@CTreeCtrl@@QAEHKKABUtagRECT@@PAVCWnd@@I@Z 00474410 f   uafxcwd:winctrl2.obj
 0001:00073460       ??1CTreeCtrl@@UAE@XZ       00474460 f   uafxcwd:winctrl2.obj
 0001:000734c0       ??_ECTreeCtrl@@UAEPAXI@Z   004744c0 f i uafxcwd:winctrl2.obj
 0001:000734c0       ??_GCTreeCtrl@@UAEPAXI@Z   004744c0 f i uafxcwd:winctrl2.obj
 0001:000734f0       ?GetItemRect@CTreeCtrl@@QBEHPAU_TREEITEM@@PAUtagRECT@@H@Z 004744f0 f   uafxcwd:winctrl2.obj
 0001:00073550       ?GetItemText@CTreeCtrl@@QBE?AV?$CStringT@_WV?$StrTraitMFC@_WV?$ChTraitsCRT@_W@ATL@@@@@ATL@@PAU_TREEITEM@@@Z 00474550 f   uafxcwd:winctrl2.obj
 0001:00073660       ?GetItemImage@CTreeCtrl@@QBEHPAU_TREEITEM@@AAH1@Z 00474660 f   uafxcwd:winctrl2.obj
 0001:000736e0       ?GetItemState@CTreeCtrl@@QBEIPAU_TREEITEM@@I@Z 004746e0 f   uafxcwd:winctrl2.obj
 0001:00073770       ?GetItemData@CTreeCtrl@@QBEKPAU_TREEITEM@@@Z 00474770 f   uafxcwd:winctrl2.obj
 0001:00073840       ?ItemHasChildren@CTreeCtrl@@QBEHPAU_TREEITEM@@@Z 00474840 f   uafxcwd:winctrl2.obj
 0001:000738a0       ?SetItem@CTreeCtrl@@QAEHPAU_TREEITEM@@IPB_WHHIIJ@Z 004748a0 f   uafxcwd:winctrl2.obj
 0001:00073920       ?SetItemEx@CTreeCtrl@@QAEHPAU_TREEITEM@@IPB_WHHIIJIPAUHWND__@@H@Z 00474920 f   uafxcwd:winctrl2.obj
 0001:000739b0       ?InsertItem@CTreeCtrl@@QAEPAU_TREEITEM@@IPB_WHHIIJPAU2@1@Z 004749b0 f   uafxcwd:winctrl2.obj
 0001:00073a40       ?HitTest@CTreeCtrl@@QBEPAU_TREEITEM@@VCPoint@@PAI@Z 00474a40 f   uafxcwd:winctrl2.obj
 0001:00073ab0       ?RemoveImageList@CTreeCtrl@@IAEXH@Z 00474ab0 f   uafxcwd:winctrl2.obj
 0001:00073b00       ?OnDestroy@CTreeCtrl@@QAEXXZ 00474b00 f   uafxcwd:winctrl2.obj
 0001:00073b30       ?CreateDragImage@CTreeCtrl@@QAEPAVCImageList@@PAU_TREEITEM@@@Z 00474b30 f   uafxcwd:winctrl2.obj
 0001:00073c30       ?GetCheck@CTreeCtrl@@QBEHPAU_TREEITEM@@@Z 00474c30 f   uafxcwd:winctrl2.obj
 0001:00073cc0       ?SetCheck@CTreeCtrl@@QAEHPAU_TREEITEM@@H@Z 00474cc0 f   uafxcwd:winctrl2.obj
 0001:00073d40       ?GetItemPartRect@CTreeCtrl@@QAEHPAU_TREEITEM@@W4_TVITEMPART@@PAUtagRECT@@@Z 00474d40 f   uafxcwd:winctrl2.obj
 0001:00073dc0       ?GetItemStateEx@CTreeCtrl@@QBEIPAU_TREEITEM@@@Z 00474dc0 f   uafxcwd:winctrl2.obj
 0001:00073e50       ?GetItemExpandedImageIndex@CTreeCtrl@@QBEHPAU_TREEITEM@@@Z 00474e50 f   uafxcwd:winctrl2.obj
 0001:00073ef0       ?Create@CSpinButtonCtrl@@UAEHKABUtagRECT@@PAVCWnd@@I@Z 00474ef0 f   uafxcwd:winctrl2.obj
 0001:00073f50       ?CreateEx@CSpinButtonCtrl@@UAEHKKABUtagRECT@@PAVCWnd@@I@Z 00474f50 f   uafxcwd:winctrl2.obj
 0001:00073fb0       ??1CSpinButtonCtrl@@UAE@XZ 00474fb0 f   uafxcwd:winctrl2.obj
 0001:00074010       ??_GCSpinButtonCtrl@@UAEPAXI@Z 00475010 f i uafxcwd:winctrl2.obj
 0001:00074010       ??_ECSpinButtonCtrl@@UAEPAXI@Z 00475010 f i uafxcwd:winctrl2.obj
 0001:00074040       ?GetRange@CSpinButtonCtrl@@QBEXAAH0@Z 00475040 f   uafxcwd:winctrl2.obj
 0001:000740c0       ?Create@CSliderCtrl@@UAEHKABUtagRECT@@PAVCWnd@@I@Z 004750c0 f   uafxcwd:winctrl2.obj
 0001:00074120       ?CreateEx@CSliderCtrl@@UAEHKKABUtagRECT@@PAVCWnd@@I@Z 00475120 f   uafxcwd:winctrl2.obj
 0001:00074180       ??1CSliderCtrl@@UAE@XZ     00475180 f   uafxcwd:winctrl2.obj
 0001:000741e0       ??_GCSliderCtrl@@UAEPAXI@Z 004751e0 f i uafxcwd:winctrl2.obj
 0001:000741e0       ??_ECSliderCtrl@@UAEPAXI@Z 004751e0 f i uafxcwd:winctrl2.obj
 0001:00074210       ?GetRange@CSliderCtrl@@QBEXAAH0@Z 00475210 f   uafxcwd:winctrl2.obj
 0001:00074260       ?SetRange@CSliderCtrl@@QAEXHHH@Z 00475260 f   uafxcwd:winctrl2.obj
 0001:00074290       ?GetSelection@CSliderCtrl@@QBEXAAH0@Z 00475290 f   uafxcwd:winctrl2.obj
 0001:00074300       ?SetSelection@CSliderCtrl@@QAEXHH@Z 00475300 f   uafxcwd:winctrl2.obj
 0001:00074370       ?Create@CProgressCtrl@@UAEHKABUtagRECT@@PAVCWnd@@I@Z 00475370 f   uafxcwd:winctrl2.obj
 0001:000743d0       ?CreateEx@CProgressCtrl@@UAEHKKABUtagRECT@@PAVCWnd@@I@Z 004753d0 f   uafxcwd:winctrl2.obj
 0001:00074430       ??1CProgressCtrl@@UAE@XZ   00475430 f   uafxcwd:winctrl2.obj
 0001:00074490       ??_ECProgressCtrl@@UAEPAXI@Z 00475490 f i uafxcwd:winctrl2.obj
 0001:00074490       ??_GCProgressCtrl@@UAEPAXI@Z 00475490 f i uafxcwd:winctrl2.obj
 0001:000744c0       ?Create@CHeaderCtrl@@UAEHKABUtagRECT@@PAVCWnd@@I@Z 004754c0 f   uafxcwd:winctrl2.obj
 0001:00074520       ?CreateEx@CHeaderCtrl@@UAEHKKABUtagRECT@@PAVCWnd@@I@Z 00475520 f   uafxcwd:winctrl2.obj
 0001:00074580       ??1CHeaderCtrl@@UAE@XZ     00475580 f   uafxcwd:winctrl2.obj
 0001:000745e0       ??_ECHeaderCtrl@@UAEPAXI@Z 004755e0 f i uafxcwd:winctrl2.obj
 0001:000745e0       ??_GCHeaderCtrl@@UAEPAXI@Z 004755e0 f i uafxcwd:winctrl2.obj
 0001:00074610       ?DrawItem@CHeaderCtrl@@UAEXPAUtagDRAWITEMSTRUCT@@@Z 00475610 f   uafxcwd:winctrl2.obj
 0001:00074640       ?OnChildNotify@CHeaderCtrl@@MAEHIIJPAJ@Z 00475640 f   uafxcwd:winctrl2.obj
 0001:000746b0       ?Create@CHotKeyCtrl@@UAEHKABUtagRECT@@PAVCWnd@@I@Z 004756b0 f   uafxcwd:winctrl2.obj
 0001:00074710       ?CreateEx@CHotKeyCtrl@@UAEHKKABUtagRECT@@PAVCWnd@@I@Z 00475710 f   uafxcwd:winctrl2.obj
 0001:00074770       ??1CHotKeyCtrl@@UAE@XZ     00475770 f   uafxcwd:winctrl2.obj
 0001:000747d0       ??_ECHotKeyCtrl@@UAEPAXI@Z 004757d0 f i uafxcwd:winctrl2.obj
 0001:000747d0       ??_GCHotKeyCtrl@@UAEPAXI@Z 004757d0 f i uafxcwd:winctrl2.obj
 0001:00074800       ?GetHotKey@CHotKeyCtrl@@QBEXAAG0@Z 00475800 f   uafxcwd:winctrl2.obj
 0001:00074890       ?GetKeyName@CHotKeyCtrl@@SA?AV?$CStringT@_WV?$StrTraitMFC@_WV?$ChTraitsCRT@_W@ATL@@@@@ATL@@IH@Z 00475890 f   uafxcwd:winctrl2.obj
 0001:00074980       ?GetHotKeyName@CHotKeyCtrl@@QBE?AV?$CStringT@_WV?$StrTraitMFC@_WV?$ChTraitsCRT@_W@ATL@@@@@ATL@@XZ 00475980 f   uafxcwd:winctrl2.obj
 0001:00074b60       ?GetMessageMap@CTabCtrl@@MBEPBUAFX_MSGMAP@@XZ 00475b60 f   uafxcwd:winctrl2.obj
 0001:00074b80       ?GetThisMessageMap@CTabCtrl@@KGPBUAFX_MSGMAP@@XZ 00475b80 f   uafxcwd:winctrl2.obj
 0001:00074b90       ?Create@CTabCtrl@@UAEHKABUtagRECT@@PAVCWnd@@I@Z 00475b90 f   uafxcwd:winctrl2.obj
 0001:00074bf0       ?CreateEx@CTabCtrl@@UAEHKKABUtagRECT@@PAVCWnd@@I@Z 00475bf0 f   uafxcwd:winctrl2.obj
 0001:00074c50       ??1CTabCtrl@@UAE@XZ        00475c50 f   uafxcwd:winctrl2.obj
 0001:00074cb0       ??_ECTabCtrl@@UAEPAXI@Z    00475cb0 f i uafxcwd:winctrl2.obj
 0001:00074cb0       ??_GCTabCtrl@@UAEPAXI@Z    00475cb0 f i uafxcwd:winctrl2.obj
 0001:00074ce0       ?DrawItem@CTabCtrl@@UAEXPAUtagDRAWITEMSTRUCT@@@Z 00475ce0 f   uafxcwd:winctrl2.obj
 0001:00074d10       ?OnChildNotify@CTabCtrl@@MAEHIIJPAJ@Z 00475d10 f   uafxcwd:winctrl2.obj
 0001:00074d80       ?OnDestroy@CTabCtrl@@IAEXXZ 00475d80 f   uafxcwd:winctrl2.obj
 0001:00074dd0       ?GetItemState@CTabCtrl@@QBEKHK@Z 00475dd0 f   uafxcwd:winctrl2.obj
 0001:00074e50       ?SetItemState@CTabCtrl@@QAEHHKK@Z 00475e50 f   uafxcwd:winctrl2.obj
 0001:00074ec0       ?InsertItem@CTabCtrl@@QAEJIHPB_WHJ@Z 00475ec0 f   uafxcwd:winctrl2.obj
 0001:00074f30       ?InsertItem@CTabCtrl@@QAEJIHPB_WHJKK@Z 00475f30 f   uafxcwd:winctrl2.obj
 0001:00074fb0       ?Create@CAnimateCtrl@@UAEHKABUtagRECT@@PAVCWnd@@I@Z 00475fb0 f   uafxcwd:winctrl2.obj
 0001:00075010       ?CreateEx@CAnimateCtrl@@UAEHKKABUtagRECT@@PAVCWnd@@I@Z 00476010 f   uafxcwd:winctrl2.obj
 0001:00075070       ??1CAnimateCtrl@@UAE@XZ    00476070 f   uafxcwd:winctrl2.obj
 0001:000750d0       ??_GCAnimateCtrl@@UAEPAXI@Z 004760d0 f i uafxcwd:winctrl2.obj
 0001:000750d0       ??_ECAnimateCtrl@@UAEPAXI@Z 004760d0 f i uafxcwd:winctrl2.obj
 0001:00075100       ??1CRichEditCtrl@@UAE@XZ   00476100 f   uafxcwd:winctrl2.obj
 0001:00075160       ??_GCRichEditCtrl@@UAEPAXI@Z 00476160 f i uafxcwd:winctrl2.obj
 0001:00075160       ??_ECRichEditCtrl@@UAEPAXI@Z 00476160 f i uafxcwd:winctrl2.obj
 0001:00075190       ?afxMapHIMAGELIST@@YGPAVCHandleMap@@H@Z 00476190 f   uafxcwd:winctrl2.obj
 0001:00075280       ??0CImageList@@QAE@XZ      00476280 f   uafxcwd:winctrl2.obj
 0001:000752b0       ??_GCImageList@@UAEPAXI@Z  004762b0 f i uafxcwd:winctrl2.obj
 0001:000752b0       ??_ECImageList@@UAEPAXI@Z  004762b0 f i uafxcwd:winctrl2.obj
 0001:000752e0       ??1CImageList@@UAE@XZ      004762e0 f   uafxcwd:winctrl2.obj
 0001:000754a0       ?Detach@CImageList@@QAEPAU_IMAGELIST@@XZ 004764a0 f   uafxcwd:winctrl2.obj
 0001:000754f0       ?DeleteImageList@CImageList@@QAEHXZ 004764f0 f   uafxcwd:winctrl2.obj
 0001:00075520       ?FromHandle@CImageList@@SGPAV1@PAU_IMAGELIST@@@Z 00476520 f   uafxcwd:winctrl2.obj
 0001:00075590       ?FromHandlePermanent@CImageList@@SGPAV1@PAU_IMAGELIST@@@Z 00476590 f   uafxcwd:winctrl2.obj
 0001:000755f0       ?Create@CImageList@@QAEHHHIHH@Z 004765f0 f   uafxcwd:winctrl2.obj
 0001:00075630       ?Create@CImageList@@QAEHIHHK@Z 00476630 f   uafxcwd:winctrl2.obj
 0001:000756b0       ?Create@CImageList@@QAEHPB_WHHK@Z 004766b0 f   uafxcwd:winctrl2.obj
 0001:00075710       ?Create@CImageList@@QAEHAAV1@H0HHH@Z 00476710 f   uafxcwd:winctrl2.obj
 0001:00075750       ?Attach@CImageList@@QAEHPAU_IMAGELIST@@@Z 00476750 f   uafxcwd:winctrl2.obj
 0001:000757f0       ?Read@CImageList@@QAEHPAVCArchive@@@Z 004767f0 f   uafxcwd:winctrl2.obj
 0001:00075880       ?Write@CImageList@@QAEHPAVCArchive@@@Z 00476880 f   uafxcwd:winctrl2.obj
 0001:00075910       ?Dump@CImageList@@UBEXAAVCDumpContext@@@Z 00476910 f   uafxcwd:winctrl2.obj
 0001:00075960       ?AssertValid@CImageList@@UBEXXZ 00476960 f   uafxcwd:winctrl2.obj
 0001:00075a20       ??0CDragListBox@@QAE@XZ    00476a20 f   uafxcwd:winctrl2.obj
 0001:00075a50       ?ItemFromPt@CDragListBox@@QBEHVCPoint@@H@Z 00476a50 f   uafxcwd:winctrl2.obj
 0001:00075ab0       ??0CToolBarCtrl@@QAE@XZ    00476ab0 f   uafxcwd:winctrl2.obj
 0001:00075ae0       ?EnableButton@CToolBarCtrl@@QAEHHH@Z 00476ae0 f   uafxcwd:winctrl2.obj
 0001:00075b40       ?CheckButton@CToolBarCtrl@@QAEHHH@Z 00476b40 f   uafxcwd:winctrl2.obj
 0001:00075ba0       ?PressButton@CToolBarCtrl@@QAEHHH@Z 00476ba0 f   uafxcwd:winctrl2.obj
 0001:00075c00       ?HideButton@CToolBarCtrl@@QAEHHH@Z 00476c00 f   uafxcwd:winctrl2.obj
 0001:00075c60       ?Indeterminate@CToolBarCtrl@@QAEHHH@Z 00476c60 f   uafxcwd:winctrl2.obj
 0001:00075cc0       ?IsButtonEnabled@CToolBarCtrl@@QBEHH@Z 00476cc0 f   uafxcwd:winctrl2.obj
 0001:00075d10       ?IsButtonChecked@CToolBarCtrl@@QBEHH@Z 00476d10 f   uafxcwd:winctrl2.obj
 0001:00075d60       ?IsButtonPressed@CToolBarCtrl@@QBEHH@Z 00476d60 f   uafxcwd:winctrl2.obj
 0001:00075db0       ?IsButtonHidden@CToolBarCtrl@@QBEHH@Z 00476db0 f   uafxcwd:winctrl2.obj
 0001:00075e00       ?IsButtonIndeterminate@CToolBarCtrl@@QBEHH@Z 00476e00 f   uafxcwd:winctrl2.obj
 0001:00075e50       ?SetState@CToolBarCtrl@@QAEHHI@Z 00476e50 f   uafxcwd:winctrl2.obj
 0001:00075eb0       ?GetState@CToolBarCtrl@@QBEHH@Z 00476eb0 f   uafxcwd:winctrl2.obj
 0001:00075f00       ?AddButtons@CToolBarCtrl@@QAEHHPAU_TBBUTTON@@@Z 00476f00 f   uafxcwd:winctrl2.obj
 0001:00075f50       ?InsertButton@CToolBarCtrl@@QAEHHPAU_TBBUTTON@@@Z 00476f50 f   uafxcwd:winctrl2.obj
 0001:00075fa0       ?DeleteButton@CToolBarCtrl@@QAEHH@Z 00476fa0 f   uafxcwd:winctrl2.obj
 0001:00075ff0       ?GetButton@CToolBarCtrl@@QBEHHPAU_TBBUTTON@@@Z 00476ff0 f   uafxcwd:winctrl2.obj
 0001:00076040       ?GetButtonCount@CToolBarCtrl@@QBEHXZ 00477040 f   uafxcwd:winctrl2.obj
 0001:00076090       ?CommandToIndex@CToolBarCtrl@@QBEII@Z 00477090 f   uafxcwd:winctrl2.obj
 0001:000760e0       ?Customize@CToolBarCtrl@@QAEXXZ 004770e0 f   uafxcwd:winctrl2.obj
 0001:00076130       ?AddStrings@CToolBarCtrl@@QAEHPB_W@Z 00477130 f   uafxcwd:winctrl2.obj
 0001:00076180       ?GetItemRect@CToolBarCtrl@@QBEHHPAUtagRECT@@@Z 00477180 f   uafxcwd:winctrl2.obj
 0001:000761d0       ?SetButtonStructSize@CToolBarCtrl@@QAEXH@Z 004771d0 f   uafxcwd:winctrl2.obj
 0001:00076220       ?SetButtonSize@CToolBarCtrl@@QAEHVCSize@@@Z 00477220 f   uafxcwd:winctrl2.obj
 0001:00076290       ?SetBitmapSize@CToolBarCtrl@@QAEHVCSize@@@Z 00477290 f   uafxcwd:winctrl2.obj
 0001:00076300       ?AutoSize@CToolBarCtrl@@QAEXXZ 00477300 f   uafxcwd:winctrl2.obj
 0001:00076350       ?GetToolTips@CToolBarCtrl@@QBEPAVCToolTipCtrl@@XZ 00477350 f   uafxcwd:winctrl2.obj
 0001:000763a0       ?SetToolTips@CToolBarCtrl@@QAEXPAVCToolTipCtrl@@@Z 004773a0 f   uafxcwd:winctrl2.obj
 0001:000763f0       ?SetOwner@CToolBarCtrl@@QAEXPAVCWnd@@@Z 004773f0 f   uafxcwd:winctrl2.obj
 0001:00076440       ?SetRows@CToolBarCtrl@@QAEXHHPAUtagRECT@@@Z 00477440 f   uafxcwd:winctrl2.obj
 0001:000764b0       ?GetRows@CToolBarCtrl@@QBEHXZ 004774b0 f   uafxcwd:winctrl2.obj
 0001:00076500       ?SetCmdID@CToolBarCtrl@@QAEHHI@Z 00477500 f   uafxcwd:winctrl2.obj
 0001:00076550       ?GetBitmapFlags@CToolBarCtrl@@QBEIXZ 00477550 f   uafxcwd:winctrl2.obj
 0001:000765a0       ?GetBitmap@CToolBarCtrl@@QBEHH@Z 004775a0 f   uafxcwd:winctrl2.obj
 0001:000765f0       ?ReplaceBitmap@CToolBarCtrl@@QAEHPAUTBREPLACEBITMAP@@@Z 004775f0 f   uafxcwd:winctrl2.obj
 0001:00076640       ?ChangeBitmap@CToolBarCtrl@@QAEHHH@Z 00477640 f   uafxcwd:winctrl2.obj
 0001:000766a0       ?HitTest@CToolBarCtrl@@QBEHPAUtagPOINT@@@Z 004776a0 f   uafxcwd:winctrl2.obj
 0001:000766f0       ?GetExtendedStyle@CToolBarCtrl@@QBEKXZ 004776f0 f   uafxcwd:winctrl2.obj
 0001:00076740       ?SetExtendedStyle@CToolBarCtrl@@QAEKK@Z 00477740 f   uafxcwd:winctrl2.obj
 0001:00076790       ?GetPadding@CToolBarCtrl@@QBEXAAH0@Z 00477790 f   uafxcwd:winctrl2.obj
 0001:00076810       ?SetPadding@CToolBarCtrl@@QAEKHH@Z 00477810 f   uafxcwd:winctrl2.obj
 0001:00076880       ?GetInsertMarkColor@CToolBarCtrl@@QBEKXZ 00477880 f   uafxcwd:winctrl2.obj
 0001:000768d0       ?SetInsertMarkColor@CToolBarCtrl@@QAEKK@Z 004778d0 f   uafxcwd:winctrl2.obj
 0001:00076920       ?GetColorScheme@CToolBarCtrl@@QBEHPAUtagCOLORSCHEME@@@Z 00477920 f   uafxcwd:winctrl2.obj
 0001:00076980       ?SetColorScheme@CToolBarCtrl@@QAEXPBUtagCOLORSCHEME@@@Z 00477980 f   uafxcwd:winctrl2.obj
 0001:000769e0       ??0CStatusBarCtrl@@QAE@XZ  004779e0 f   uafxcwd:winctrl2.obj
 0001:00076a10       ?SetText@CStatusBarCtrl@@QAEHPB_WHH@Z 00477a10 f   uafxcwd:winctrl2.obj
 0001:00076a80       ?SetParts@CStatusBarCtrl@@QAEHHPAH@Z 00477a80 f   uafxcwd:winctrl2.obj
 0001:00076ad0       ?GetParts@CStatusBarCtrl@@QBEHHPAH@Z 00477ad0 f   uafxcwd:winctrl2.obj
 0001:00076b20       ?GetBorders@CStatusBarCtrl@@QBEHPAH@Z 00477b20 f   uafxcwd:winctrl2.obj
 0001:00076b70       ?SetMinHeight@CStatusBarCtrl@@QAEXH@Z 00477b70 f   uafxcwd:winctrl2.obj
 0001:00076bc0       ?SetSimple@CStatusBarCtrl@@QAEHH@Z 00477bc0 f   uafxcwd:winctrl2.obj
 0001:00076c10       ?GetRect@CStatusBarCtrl@@QBEHHPAUtagRECT@@@Z 00477c10 f   uafxcwd:winctrl2.obj
 0001:00076c60       ??0CListCtrl@@QAE@XZ       00477c60 f   uafxcwd:winctrl2.obj
 0001:00076c90       ?GetToolTips@CListCtrl@@QBEPAVCToolTipCtrl@@XZ 00477c90 f   uafxcwd:winctrl2.obj
 0001:00076ce0       ?SetToolTips@CListCtrl@@QAEPAVCToolTipCtrl@@PAV2@@Z 00477ce0 f   uafxcwd:winctrl2.obj
 0001:00076d40       ?GetBkColor@CListCtrl@@QBEKXZ 00477d40 f   uafxcwd:winctrl2.obj
 0001:00076d90       ?SetBkColor@CListCtrl@@QAEHK@Z 00477d90 f   uafxcwd:winctrl2.obj
 0001:00076de0       ?GetImageList@CListCtrl@@QBEPAVCImageList@@H@Z 00477de0 f   uafxcwd:winctrl2.obj
 0001:00076e40       ?SetImageList@CListCtrl@@QAEPAVCImageList@@PAV2@H@Z 00477e40 f   uafxcwd:winctrl2.obj
 0001:00076ea0       ?GetItemCount@CListCtrl@@QBEHXZ 00477ea0 f   uafxcwd:winctrl2.obj
 0001:00076ef0       ?GetItem@CListCtrl@@QBEHPAUtagLVITEMW@@@Z 00477ef0 f   uafxcwd:winctrl2.obj
 0001:00076f40       ?SetItem@CListCtrl@@QAEHPBUtagLVITEMW@@@Z 00477f40 f   uafxcwd:winctrl2.obj
 0001:00076f90       ?SetItemData@CListCtrl@@QAEHHK@Z 00477f90 f   uafxcwd:winctrl2.obj
 0001:00076fe0       ?InsertItem@CListCtrl@@QAEHPBUtagLVITEMW@@@Z 00477fe0 f   uafxcwd:winctrl2.obj
 0001:00077030       ?InsertItem@CListCtrl@@QAEHHPB_W@Z 00478030 f   uafxcwd:winctrl2.obj
 0001:00077080       ?InsertItem@CListCtrl@@QAEHHPB_WH@Z 00478080 f   uafxcwd:winctrl2.obj
 0001:000770d0       ?DeleteItem@CListCtrl@@QAEHH@Z 004780d0 f   uafxcwd:winctrl2.obj
 0001:00077120       ?DeleteAllItems@CListCtrl@@QAEHXZ 00478120 f   uafxcwd:winctrl2.obj
 0001:00077170       ?GetCallbackMask@CListCtrl@@QBEIXZ 00478170 f   uafxcwd:winctrl2.obj
 0001:000771c0       ?SetCallbackMask@CListCtrl@@QAEHI@Z 004781c0 f   uafxcwd:winctrl2.obj
 0001:00077210       ?GetNextItem@CListCtrl@@QBEHHH@Z 00478210 f   uafxcwd:winctrl2.obj
 0001:00077270       ?GetFirstSelectedItemPosition@CListCtrl@@QBEPAU__POSITION@@XZ 00478270 f   uafxcwd:winctrl2.obj
 0001:000772c0       ?GetNextSelectedItem@CListCtrl@@QBEHAAPAU__POSITION@@@Z 004782c0 f   uafxcwd:winctrl2.obj
 0001:00077320       ?FindItem@CListCtrl@@QBEHPAUtagLVFINDINFOW@@H@Z 00478320 f   uafxcwd:winctrl2.obj
 0001:00077370       ?HitTest@CListCtrl@@QBEHPAUtagLVHITTESTINFO@@@Z 00478370 f   uafxcwd:winctrl2.obj
 0001:000773c0       ?SetItemPosition@CListCtrl@@QAEHHUtagPOINT@@@Z 004783c0 f   uafxcwd:winctrl2.obj
 0001:00077440       ?GetItemPosition@CListCtrl@@QBEHHPAUtagPOINT@@@Z 00478440 f   uafxcwd:winctrl2.obj
 0001:00077490       ?GetStringWidth@CListCtrl@@QBEHPB_W@Z 00478490 f   uafxcwd:winctrl2.obj
 0001:000774e0       ?EnsureVisible@CListCtrl@@QAEHHH@Z 004784e0 f   uafxcwd:winctrl2.obj
 0001:00077540       ?Scroll@CListCtrl@@QAEHVCSize@@@Z 00478540 f   uafxcwd:winctrl2.obj
 0001:00077590       ?RedrawItems@CListCtrl@@QAEHHH@Z 00478590 f   uafxcwd:winctrl2.obj
 0001:000775e0       ?Arrange@CListCtrl@@QAEHI@Z 004785e0 f   uafxcwd:winctrl2.obj
 0001:00077630       ?EditLabel@CListCtrl@@QAEPAVCEdit@@H@Z 00478630 f   uafxcwd:winctrl2.obj
 0001:00077690       ?GetEditControl@CListCtrl@@QBEPAVCEdit@@XZ 00478690 f   uafxcwd:winctrl2.obj
 0001:000776e0       ?GetColumn@CListCtrl@@QBEHHPAUtagLVCOLUMNW@@@Z 004786e0 f   uafxcwd:winctrl2.obj
 0001:00077730       ?SetColumn@CListCtrl@@QAEHHPBUtagLVCOLUMNW@@@Z 00478730 f   uafxcwd:winctrl2.obj
 0001:00077780       ?InsertColumn@CListCtrl@@QAEHHPBUtagLVCOLUMNW@@@Z 00478780 f   uafxcwd:winctrl2.obj
 0001:000777d0       ?DeleteColumn@CListCtrl@@QAEHH@Z 004787d0 f   uafxcwd:winctrl2.obj
 0001:00077820       ?GetColumnWidth@CListCtrl@@QBEHH@Z 00478820 f   uafxcwd:winctrl2.obj
 0001:00077870       ?SetColumnWidth@CListCtrl@@QAEHHH@Z 00478870 f   uafxcwd:winctrl2.obj
 0001:000778d0       ?GetViewRect@CListCtrl@@QBEHPAUtagRECT@@@Z 004788d0 f   uafxcwd:winctrl2.obj
 0001:00077920       ?GetTextColor@CListCtrl@@QBEKXZ 00478920 f   uafxcwd:winctrl2.obj
 0001:00077970       ?SetTextColor@CListCtrl@@QAEHK@Z 00478970 f   uafxcwd:winctrl2.obj
 0001:000779c0       ?GetTextBkColor@CListCtrl@@QBEKXZ 004789c0 f   uafxcwd:winctrl2.obj
 0001:00077a10       ?SetTextBkColor@CListCtrl@@QAEHK@Z 00478a10 f   uafxcwd:winctrl2.obj
 0001:00077a60       ?GetTopIndex@CListCtrl@@QBEHXZ 00478a60 f   uafxcwd:winctrl2.obj
 0001:00077ab0       ?GetCountPerPage@CListCtrl@@QBEHXZ 00478ab0 f   uafxcwd:winctrl2.obj
 0001:00077b00       ?GetOrigin@CListCtrl@@QBEHPAUtagPOINT@@@Z 00478b00 f   uafxcwd:winctrl2.obj
 0001:00077b50       ?Update@CListCtrl@@QAEHH@Z 00478b50 f   uafxcwd:winctrl2.obj
 0001:00077ba0       ?SetItemState@CListCtrl@@QAEHHPAUtagLVITEMW@@@Z 00478ba0 f   uafxcwd:winctrl2.obj
 0001:00077bf0       ?GetItemState@CListCtrl@@QBEIHI@Z 00478bf0 f   uafxcwd:winctrl2.obj
 0001:00077c40       ?SetItemCount@CListCtrl@@QAEXH@Z 00478c40 f   uafxcwd:winctrl2.obj
 0001:00077c90       ?SortItems@CListCtrl@@QAEHP6GHJJJ@ZK@Z 00478c90 f   uafxcwd:winctrl2.obj
 0001:00077d10       ?SortItemsEx@CListCtrl@@QAEHP6GHJJJ@ZK@Z 00478d10 f   uafxcwd:winctrl2.obj
 0001:00077d90       ?GetSelectedCount@CListCtrl@@QBEIXZ 00478d90 f   uafxcwd:winctrl2.obj
 0001:00077de0       ?GetItemSpacing@CListCtrl@@QBEHHPAH0@Z 00478de0 f   uafxcwd:winctrl2.obj
 0001:00077ea0       ??0CTreeCtrl@@QAE@XZ       00478ea0 f   uafxcwd:winctrl2.obj
 0001:00077ed0       ?InsertItem@CTreeCtrl@@QAEPAU_TREEITEM@@PAUtagTVINSERTSTRUCTW@@@Z 00478ed0 f   uafxcwd:winctrl2.obj
 0001:00077f20       ?InsertItem@CTreeCtrl@@QAEPAU_TREEITEM@@PB_WHHPAU2@1@Z 00478f20 f   uafxcwd:winctrl2.obj
 0001:00077f80       ?InsertItem@CTreeCtrl@@QAEPAU_TREEITEM@@PB_WPAU2@1@Z 00478f80 f   uafxcwd:winctrl2.obj
 0001:00077fe0       ?DeleteItem@CTreeCtrl@@QAEHPAU_TREEITEM@@@Z 00478fe0 f   uafxcwd:winctrl2.obj
 0001:00078030       ?DeleteAllItems@CTreeCtrl@@QAEHXZ 00479030 f   uafxcwd:winctrl2.obj
 0001:00078080       ?Expand@CTreeCtrl@@QAEHPAU_TREEITEM@@I@Z 00479080 f   uafxcwd:winctrl2.obj
 0001:000780d0       ?GetCount@CTreeCtrl@@QBEIXZ 004790d0 f   uafxcwd:winctrl2.obj
 0001:00078120       ?GetIndent@CTreeCtrl@@QBEIXZ 00479120 f   uafxcwd:winctrl2.obj
 0001:00078170       ?SetIndent@CTreeCtrl@@QAEXI@Z 00479170 f   uafxcwd:winctrl2.obj
 0001:000781c0       ?GetImageList@CTreeCtrl@@QBEPAVCImageList@@H@Z 004791c0 f   uafxcwd:winctrl2.obj
 0001:00078220       ?SetImageList@CTreeCtrl@@QAEPAVCImageList@@PAV2@H@Z 00479220 f   uafxcwd:winctrl2.obj
 0001:00078280       ?SetScrollTime@CTreeCtrl@@QAEII@Z 00479280 f   uafxcwd:winctrl2.obj
 0001:000782d0       ?GetNextItem@CTreeCtrl@@QBEPAU_TREEITEM@@PAU2@I@Z 004792d0 f   uafxcwd:winctrl2.obj
 0001:00078320       ?GetChildItem@CTreeCtrl@@QBEPAU_TREEITEM@@PAU2@@Z 00479320 f   uafxcwd:winctrl2.obj
 0001:00078370       ?GetNextSiblingItem@CTreeCtrl@@QBEPAU_TREEITEM@@PAU2@@Z 00479370 f   uafxcwd:winctrl2.obj
 0001:000783c0       ?GetPrevSiblingItem@CTreeCtrl@@QBEPAU_TREEITEM@@PAU2@@Z 004793c0 f   uafxcwd:winctrl2.obj
 0001:00078410       ?GetParentItem@CTreeCtrl@@QBEPAU_TREEITEM@@PAU2@@Z 00479410 f   uafxcwd:winctrl2.obj
 0001:00078460       ?GetFirstVisibleItem@CTreeCtrl@@QBEPAU_TREEITEM@@XZ 00479460 f   uafxcwd:winctrl2.obj
 0001:000784b0       ?GetNextVisibleItem@CTreeCtrl@@QBEPAU_TREEITEM@@PAU2@@Z 004794b0 f   uafxcwd:winctrl2.obj
 0001:00078500       ?GetPrevVisibleItem@CTreeCtrl@@QBEPAU_TREEITEM@@PAU2@@Z 00479500 f   uafxcwd:winctrl2.obj
 0001:00078550       ?GetLastVisibleItem@CTreeCtrl@@QBEPAU_TREEITEM@@XZ 00479550 f   uafxcwd:winctrl2.obj
 0001:000785a0       ?GetSelectedItem@CTreeCtrl@@QBEPAU_TREEITEM@@XZ 004795a0 f   uafxcwd:winctrl2.obj
 0001:000785f0       ?GetScrollTime@CTreeCtrl@@QBEIXZ 004795f0 f   uafxcwd:winctrl2.obj
 0001:00078640       ?GetDropHilightItem@CTreeCtrl@@QBEPAU_TREEITEM@@XZ 00479640 f   uafxcwd:winctrl2.obj
 0001:00078690       ?GetRootItem@CTreeCtrl@@QBEPAU_TREEITEM@@XZ 00479690 f   uafxcwd:winctrl2.obj
 0001:000786e0       ?Select@CTreeCtrl@@QAEHPAU_TREEITEM@@I@Z 004796e0 f   uafxcwd:winctrl2.obj
 0001:00078730       ?SelectItem@CTreeCtrl@@QAEHPAU_TREEITEM@@@Z 00479730 f   uafxcwd:winctrl2.obj
 0001:00078780       ?SelectDropTarget@CTreeCtrl@@QAEHPAU_TREEITEM@@@Z 00479780 f   uafxcwd:winctrl2.obj
 0001:000787d0       ?SelectSetFirstVisible@CTreeCtrl@@QAEHPAU_TREEITEM@@@Z 004797d0 f   uafxcwd:winctrl2.obj
 0001:00078820       ?GetItem@CTreeCtrl@@QBEHPAUtagTVITEMW@@@Z 00479820 f   uafxcwd:winctrl2.obj
 0001:00078870       ?SetItem@CTreeCtrl@@QAEHPAUtagTVITEMW@@@Z 00479870 f   uafxcwd:winctrl2.obj
 0001:000788c0       ?SetItemText@CTreeCtrl@@QAEHPAU_TREEITEM@@PB_W@Z 004798c0 f   uafxcwd:winctrl2.obj
 0001:00078910       ?SetItemImage@CTreeCtrl@@QAEHPAU_TREEITEM@@HH@Z 00479910 f   uafxcwd:winctrl2.obj
 0001:00078970       ?SetItemState@CTreeCtrl@@QAEHPAU_TREEITEM@@II@Z 00479970 f   uafxcwd:winctrl2.obj
 0001:000789d0       ?SetItemData@CTreeCtrl@@QAEHPAU_TREEITEM@@K@Z 004799d0 f   uafxcwd:winctrl2.obj
 0001:00078a20       ?EditLabel@CTreeCtrl@@QAEPAVCEdit@@PAU_TREEITEM@@@Z 00479a20 f   uafxcwd:winctrl2.obj
 0001:00078a80       ?HitTest@CTreeCtrl@@QBEPAU_TREEITEM@@PAUtagTVHITTESTINFO@@@Z 00479a80 f   uafxcwd:winctrl2.obj
 0001:00078ad0       ?GetEditControl@CTreeCtrl@@QBEPAVCEdit@@XZ 00479ad0 f   uafxcwd:winctrl2.obj
 0001:00078b20       ?GetVisibleCount@CTreeCtrl@@QBEIXZ 00479b20 f   uafxcwd:winctrl2.obj
 0001:00078b70       ?SortChildren@CTreeCtrl@@QAEHPAU_TREEITEM@@@Z 00479b70 f   uafxcwd:winctrl2.obj
 0001:00078bc0       ?EnsureVisible@CTreeCtrl@@QAEHPAU_TREEITEM@@@Z 00479bc0 f   uafxcwd:winctrl2.obj
 0001:00078c10       ?SortChildrenCB@CTreeCtrl@@QAEHPAUtagTVSORTCB@@@Z 00479c10 f   uafxcwd:winctrl2.obj
 0001:00078c60       ?GetToolTips@CTreeCtrl@@QBEPAVCToolTipCtrl@@XZ 00479c60 f   uafxcwd:winctrl2.obj
 0001:00078cb0       ?SetToolTips@CTreeCtrl@@QAEPAVCToolTipCtrl@@PAV2@@Z 00479cb0 f   uafxcwd:winctrl2.obj
 0001:00078d10       ?GetBkColor@CTreeCtrl@@QBEKXZ 00479d10 f   uafxcwd:winctrl2.obj
 0001:00078d60       ?SetBkColor@CTreeCtrl@@QAEKK@Z 00479d60 f   uafxcwd:winctrl2.obj
 0001:00078db0       ?GetItemHeight@CTreeCtrl@@QBEFXZ 00479db0 f   uafxcwd:winctrl2.obj
 0001:00078e00       ?SetItemHeight@CTreeCtrl@@QAEFF@Z 00479e00 f   uafxcwd:winctrl2.obj
 0001:00078e50       ?GetTextColor@CTreeCtrl@@QBEKXZ 00479e50 f   uafxcwd:winctrl2.obj
 0001:00078ea0       ?SetTextColor@CTreeCtrl@@QAEKK@Z 00479ea0 f   uafxcwd:winctrl2.obj
 0001:00078ef0       ?SetInsertMark@CTreeCtrl@@QAEHPAU_TREEITEM@@H@Z 00479ef0 f   uafxcwd:winctrl2.obj
 0001:00078f40       ?GetInsertMarkColor@CTreeCtrl@@QBEKXZ 00479f40 f   uafxcwd:winctrl2.obj
 0001:00078f90       ?SetInsertMarkColor@CTreeCtrl@@QAEKK@Z 00479f90 f   uafxcwd:winctrl2.obj
 0001:00078fe0       ?EndEditLabelNow@CTreeCtrl@@QAEHH@Z 00479fe0 f   uafxcwd:winctrl2.obj
 0001:00079030       ?GetLineColor@CTreeCtrl@@QBEKXZ 0047a030 f   uafxcwd:winctrl2.obj
 0001:00079080       ?SetLineColor@CTreeCtrl@@QAEKK@Z 0047a080 f   uafxcwd:winctrl2.obj
 0001:000790d0       ?MapItemToAccId@CTreeCtrl@@QBEIPAU_TREEITEM@@@Z 0047a0d0 f   uafxcwd:winctrl2.obj
 0001:00079120       ?MapAccIdToItem@CTreeCtrl@@QBEPAU_TREEITEM@@I@Z 0047a120 f   uafxcwd:winctrl2.obj
 0001:00079170       ?GetSelectedCount@CTreeCtrl@@QAEIXZ 0047a170 f   uafxcwd:winctrl2.obj
 0001:000791c0       ?ShowInfoTip@CTreeCtrl@@QAEXPAU_TREEITEM@@@Z 0047a1c0 f   uafxcwd:winctrl2.obj
 0001:00079210       ?SetItemStateEx@CTreeCtrl@@QAEHPAU_TREEITEM@@I@Z 0047a210 f   uafxcwd:winctrl2.obj
 0001:00079270       ?SetItemExpandedImageIndex@CTreeCtrl@@QAEHPAU_TREEITEM@@H@Z 0047a270 f   uafxcwd:winctrl2.obj
 0001:000792d0       ?GetExtendedStyle@CTreeCtrl@@QBEKXZ 0047a2d0 f   uafxcwd:winctrl2.obj
 0001:00079320       ?SetExtendedStyle@CTreeCtrl@@QAEKKK@Z 0047a320 f   uafxcwd:winctrl2.obj
 0001:00079370       ?SetAutoscrollInfo@CTreeCtrl@@QAEHII@Z 0047a370 f   uafxcwd:winctrl2.obj
 0001:000793c0       ??0CHotKeyCtrl@@QAE@XZ     0047a3c0 f   uafxcwd:winctrl2.obj
 0001:000793f0       ?SetHotKey@CHotKeyCtrl@@QAEXGG@Z 0047a3f0 f   uafxcwd:winctrl2.obj
 0001:00079460       ?GetHotKey@CHotKeyCtrl@@QBEKXZ 0047a460 f   uafxcwd:winctrl2.obj
 0001:000794b0       ?SetRules@CHotKeyCtrl@@QAEXGG@Z 0047a4b0 f   uafxcwd:winctrl2.obj
 0001:00079510       ?Activate@CToolTipCtrl@@QAEXH@Z 0047a510 f   uafxcwd:winctrl2.obj
 0001:00079560       ?SetToolInfo@CToolTipCtrl@@QAEXPAUtagTOOLINFOW@@@Z 0047a560 f   uafxcwd:winctrl2.obj
 0001:000795b0       ?RelayEvent@CToolTipCtrl@@QAEXPAUtagMSG@@@Z 0047a5b0 f   uafxcwd:winctrl2.obj
 0001:00079600       ?GetToolCount@CToolTipCtrl@@QBEHXZ 0047a600 f   uafxcwd:winctrl2.obj
 0001:00079650       ??0CSpinButtonCtrl@@QAE@XZ 0047a650 f   uafxcwd:winctrl2.obj
 0001:00079680       ?GetAccel@CSpinButtonCtrl@@QBEIHPAU_UDACCEL@@@Z 0047a680 f   uafxcwd:winctrl2.obj
 0001:000796e0       ?GetBase@CSpinButtonCtrl@@QBEIXZ 0047a6e0 f   uafxcwd:winctrl2.obj
 0001:00079730       ?GetBuddy@CSpinButtonCtrl@@QBEPAVCWnd@@XZ 0047a730 f   uafxcwd:winctrl2.obj
 0001:00079780       ?GetPos@CSpinButtonCtrl@@QBEHXZ 0047a780 f   uafxcwd:winctrl2.obj
 0001:000797d0       ?GetRange@CSpinButtonCtrl@@QBEKXZ 0047a7d0 f   uafxcwd:winctrl2.obj
 0001:00079820       ?SetAccel@CSpinButtonCtrl@@QAEHHPAU_UDACCEL@@@Z 0047a820 f   uafxcwd:winctrl2.obj
 0001:00079880       ?SetBase@CSpinButtonCtrl@@QAEHH@Z 0047a880 f   uafxcwd:winctrl2.obj
 0001:000798d0       ?SetBuddy@CSpinButtonCtrl@@QAEPAVCWnd@@PAV2@@Z 0047a8d0 f   uafxcwd:winctrl2.obj
 0001:00079930       ?SetPos@CSpinButtonCtrl@@QAEHH@Z 0047a930 f   uafxcwd:winctrl2.obj
 0001:00079990       ?SetRange@CSpinButtonCtrl@@QAEXFF@Z 0047a990 f   uafxcwd:winctrl2.obj
 0001:00079a00       ??0CSliderCtrl@@QAE@XZ     0047aa00 f   uafxcwd:winctrl2.obj
 0001:00079a30       ?GetLineSize@CSliderCtrl@@QBEHXZ 0047aa30 f   uafxcwd:winctrl2.obj
 0001:00079a80       ?SetLineSize@CSliderCtrl@@QAEHH@Z 0047aa80 f   uafxcwd:winctrl2.obj
 0001:00079ad0       ?GetPageSize@CSliderCtrl@@QBEHXZ 0047aad0 f   uafxcwd:winctrl2.obj
 0001:00079b20       ?SetPageSize@CSliderCtrl@@QAEHH@Z 0047ab20 f   uafxcwd:winctrl2.obj
 0001:00079b70       ?GetRangeMax@CSliderCtrl@@QBEHXZ 0047ab70 f   uafxcwd:winctrl2.obj
 0001:00079bc0       ?GetRangeMin@CSliderCtrl@@QBEHXZ 0047abc0 f   uafxcwd:winctrl2.obj
 0001:00079c10       ?SetRangeMin@CSliderCtrl@@QAEXHH@Z 0047ac10 f   uafxcwd:winctrl2.obj
 0001:00079c60       ?SetRangeMax@CSliderCtrl@@QAEXHH@Z 0047ac60 f   uafxcwd:winctrl2.obj
 0001:00079cb0       ?ClearSel@CSliderCtrl@@QAEXH@Z 0047acb0 f   uafxcwd:winctrl2.obj
 0001:00079d00       ?GetChannelRect@CSliderCtrl@@QBEXPAUtagRECT@@@Z 0047ad00 f   uafxcwd:winctrl2.obj
 0001:00079d50       ?GetThumbRect@CSliderCtrl@@QBEXPAUtagRECT@@@Z 0047ad50 f   uafxcwd:winctrl2.obj
 0001:00079da0       ?GetPos@CSliderCtrl@@QBEHXZ 0047ada0 f   uafxcwd:winctrl2.obj
 0001:00079df0       ?SetPos@CSliderCtrl@@QAEXH@Z 0047adf0 f   uafxcwd:winctrl2.obj
 0001:00079e40       ?ClearTics@CSliderCtrl@@QAEXH@Z 0047ae40 f   uafxcwd:winctrl2.obj
 0001:00079e90       ?GetNumTics@CSliderCtrl@@QBEIXZ 0047ae90 f   uafxcwd:winctrl2.obj
 0001:00079ee0       ?GetTicArray@CSliderCtrl@@QBEPAKXZ 0047aee0 f   uafxcwd:winctrl2.obj
 0001:00079f30       ?GetTic@CSliderCtrl@@QBEHH@Z 0047af30 f   uafxcwd:winctrl2.obj
 0001:00079f80       ?GetTicPos@CSliderCtrl@@QBEHH@Z 0047af80 f   uafxcwd:winctrl2.obj
 0001:00079fd0       ?SetTic@CSliderCtrl@@QAEHH@Z 0047afd0 f   uafxcwd:winctrl2.obj
 0001:0007a020       ?SetTicFreq@CSliderCtrl@@QAEXH@Z 0047b020 f   uafxcwd:winctrl2.obj
 0001:0007a070       ?GetBuddy@CSliderCtrl@@QBEPAVCWnd@@H@Z 0047b070 f   uafxcwd:winctrl2.obj
 0001:0007a0d0       ?SetBuddy@CSliderCtrl@@QAEPAVCWnd@@PAV2@H@Z 0047b0d0 f   uafxcwd:winctrl2.obj
 0001:0007a130       ?GetToolTips@CSliderCtrl@@QBEPAVCToolTipCtrl@@XZ 0047b130 f   uafxcwd:winctrl2.obj
 0001:0007a180       ?SetToolTips@CSliderCtrl@@QAEXPAVCToolTipCtrl@@@Z 0047b180 f   uafxcwd:winctrl2.obj
 0001:0007a1e0       ?SetTipSide@CSliderCtrl@@QAEHH@Z 0047b1e0 f   uafxcwd:winctrl2.obj
 0001:0007a230       ?SetThumbLength@CSliderCtrl@@QAEXH@Z 0047b230 f   uafxcwd:winctrl2.obj
 0001:0007a280       ?GetThumbLength@CSliderCtrl@@QBEHXZ 0047b280 f   uafxcwd:winctrl2.obj
 0001:0007a2d0       ??0CProgressCtrl@@QAE@XZ   0047b2d0 f   uafxcwd:winctrl2.obj
 0001:0007a300       ?SetBkColor@CProgressCtrl@@QAEKK@Z 0047b300 f   uafxcwd:winctrl2.obj
 0001:0007a350       ?SetRange@CProgressCtrl@@QAEXFF@Z 0047b350 f   uafxcwd:winctrl2.obj
 0001:0007a3c0       ?SetRange32@CProgressCtrl@@QAEXHH@Z 0047b3c0 f   uafxcwd:winctrl2.obj
 0001:0007a410       ?GetPos@CProgressCtrl@@QBEHXZ 0047b410 f   uafxcwd:winctrl2.obj
 0001:0007a460       ?OffsetPos@CProgressCtrl@@QAEHH@Z 0047b460 f   uafxcwd:winctrl2.obj
 0001:0007a4b0       ?SetStep@CProgressCtrl@@QAEHH@Z 0047b4b0 f   uafxcwd:winctrl2.obj
 0001:0007a500       ?StepIt@CProgressCtrl@@QAEHXZ 0047b500 f   uafxcwd:winctrl2.obj
 0001:0007a550       ??0CHeaderCtrl@@QAE@XZ     0047b550 f   uafxcwd:winctrl2.obj
 0001:0007a580       ?GetItemCount@CHeaderCtrl@@QBEHXZ 0047b580 f   uafxcwd:winctrl2.obj
 0001:0007a5d0       ?InsertItem@CHeaderCtrl@@QAEHHPAU_HD_ITEMW@@@Z 0047b5d0 f   uafxcwd:winctrl2.obj
 0001:0007a620       ?DeleteItem@CHeaderCtrl@@QAEHH@Z 0047b620 f   uafxcwd:winctrl2.obj
 0001:0007a670       ?GetItem@CHeaderCtrl@@QBEHHPAU_HD_ITEMW@@@Z 0047b670 f   uafxcwd:winctrl2.obj
 0001:0007a6c0       ?SetItem@CHeaderCtrl@@QAEHHPAU_HD_ITEMW@@@Z 0047b6c0 f   uafxcwd:winctrl2.obj
 0001:0007a710       ?Layout@CHeaderCtrl@@QAEHPAU_HD_LAYOUT@@@Z 0047b710 f   uafxcwd:winctrl2.obj
 0001:0007a760       ?HitTest@CHeaderCtrl@@QAEHPAU_HD_HITTESTINFO@@@Z 0047b760 f   uafxcwd:winctrl2.obj
 0001:0007a7b0       ??0CTabCtrl@@QAE@XZ        0047b7b0 f   uafxcwd:winctrl2.obj
 0001:0007a7e0       ?GetImageList@CTabCtrl@@QBEPAVCImageList@@XZ 0047b7e0 f   uafxcwd:winctrl2.obj
 0001:0007a830       ?SetImageList@CTabCtrl@@QAEPAVCImageList@@PAV2@@Z 0047b830 f   uafxcwd:winctrl2.obj
 0001:0007a890       ?GetItemCount@CTabCtrl@@QBEHXZ 0047b890 f   uafxcwd:winctrl2.obj
 0001:0007a8e0       ?GetItem@CTabCtrl@@QBEHHPAUtagTCITEMW@@@Z 0047b8e0 f   uafxcwd:winctrl2.obj
 0001:0007a930       ?SetItem@CTabCtrl@@QAEHHPAUtagTCITEMW@@@Z 0047b930 f   uafxcwd:winctrl2.obj
 0001:0007a980       ?SetItemExtra@CTabCtrl@@QAEHH@Z 0047b980 f   uafxcwd:winctrl2.obj
 0001:0007a9d0       ?SetCurFocus@CTabCtrl@@QAEXH@Z 0047b9d0 f   uafxcwd:winctrl2.obj
 0001:0007aa20       ?InsertItem@CTabCtrl@@QAEJHPAUtagTCITEMW@@@Z 0047ba20 f   uafxcwd:winctrl2.obj
 0001:0007aa70       ?InsertItem@CTabCtrl@@QAEJHPB_W@Z 0047ba70 f   uafxcwd:winctrl2.obj
 0001:0007aac0       ?InsertItem@CTabCtrl@@QAEJHPB_WH@Z 0047bac0 f   uafxcwd:winctrl2.obj
 0001:0007ab10       ?DeleteItem@CTabCtrl@@QAEHH@Z 0047bb10 f   uafxcwd:winctrl2.obj
 0001:0007ab60       ?DeleteAllItems@CTabCtrl@@QAEHXZ 0047bb60 f   uafxcwd:winctrl2.obj
 0001:0007abb0       ?GetItemRect@CTabCtrl@@QBEHHPAUtagRECT@@@Z 0047bbb0 f   uafxcwd:winctrl2.obj
 0001:0007ac00       ?GetCurSel@CTabCtrl@@QBEHXZ 0047bc00 f   uafxcwd:winctrl2.obj
 0001:0007ac50       ?SetCurSel@CTabCtrl@@QAEHH@Z 0047bc50 f   uafxcwd:winctrl2.obj
 0001:0007aca0       ?HitTest@CTabCtrl@@QBEHPAUtagTCHITTESTINFO@@@Z 0047bca0 f   uafxcwd:winctrl2.obj
 0001:0007acf0       ?AdjustRect@CTabCtrl@@QAEXHPAUtagRECT@@@Z 0047bcf0 f   uafxcwd:winctrl2.obj
 0001:0007ad40       ?SetItemSize@CTabCtrl@@QAE?AVCSize@@V2@@Z 0047bd40 f   uafxcwd:winctrl2.obj
 0001:0007adc0       ?RemoveImage@CTabCtrl@@QAEXH@Z 0047bdc0 f   uafxcwd:winctrl2.obj
 0001:0007ae10       ?SetPadding@CTabCtrl@@QAEXVCSize@@@Z 0047be10 f   uafxcwd:winctrl2.obj
 0001:0007ae80       ?GetRowCount@CTabCtrl@@QBEHXZ 0047be80 f   uafxcwd:winctrl2.obj
 0001:0007aed0       ?GetToolTips@CTabCtrl@@QBEPAVCToolTipCtrl@@XZ 0047bed0 f   uafxcwd:winctrl2.obj
 0001:0007af20       ?SetToolTips@CTabCtrl@@QAEXPAVCToolTipCtrl@@@Z 0047bf20 f   uafxcwd:winctrl2.obj
 0001:0007af80       ?GetCurFocus@CTabCtrl@@QBEHXZ 0047bf80 f   uafxcwd:winctrl2.obj
 0001:0007afd0       ?SetMinTabWidth@CTabCtrl@@QAEHH@Z 0047bfd0 f   uafxcwd:winctrl2.obj
 0001:0007b020       ?DeselectAll@CTabCtrl@@QAEXH@Z 0047c020 f   uafxcwd:winctrl2.obj
 0001:0007b070       ?HighlightItem@CTabCtrl@@QAEHHH@Z 0047c070 f   uafxcwd:winctrl2.obj
 0001:0007b0d0       ?GetExtendedStyle@CTabCtrl@@QBEKXZ 0047c0d0 f   uafxcwd:winctrl2.obj
 0001:0007b120       ?SetExtendedStyle@CTabCtrl@@QAEKKK@Z 0047c120 f   uafxcwd:winctrl2.obj
 0001:0007b170       ??0CAnimateCtrl@@QAE@XZ    0047c170 f   uafxcwd:winctrl2.obj
 0001:0007b1a0       ?Open@CAnimateCtrl@@QAEHPB_W@Z 0047c1a0 f   uafxcwd:winctrl2.obj
 0001:0007b1f0       ?Open@CAnimateCtrl@@QAEHI@Z 0047c1f0 f   uafxcwd:winctrl2.obj
 0001:0007b240       ?Play@CAnimateCtrl@@QAEHIII@Z 0047c240 f   uafxcwd:winctrl2.obj
 0001:0007b2b0       ?Stop@CAnimateCtrl@@QAEHXZ 0047c2b0 f   uafxcwd:winctrl2.obj
 0001:0007b300       ?Close@CAnimateCtrl@@QAEHXZ 0047c300 f   uafxcwd:winctrl2.obj
 0001:0007b350       ?Seek@CAnimateCtrl@@QAEHI@Z 0047c350 f   uafxcwd:winctrl2.obj
 0001:0007b3c0       ?IsPlaying@CAnimateCtrl@@QBEHXZ 0047c3c0 f   uafxcwd:winctrl2.obj
 0001:0007b410       ??0CRichEditCtrl@@QAE@XZ   0047c410 f   uafxcwd:winctrl2.obj
 0001:0007b440       ?CanUndo@CRichEditCtrl@@QBEHXZ 0047c440 f   uafxcwd:winctrl2.obj
 0001:0007b490       ?CanRedo@CRichEditCtrl@@QBEHXZ 0047c490 f   uafxcwd:winctrl2.obj
 0001:0007b4e0       ?GetUndoName@CRichEditCtrl@@QBE?AW4_undonameid@@XZ 0047c4e0 f   uafxcwd:winctrl2.obj
 0001:0007b530       ?GetRedoName@CRichEditCtrl@@QBE?AW4_undonameid@@XZ 0047c530 f   uafxcwd:winctrl2.obj
 0001:0007b580       ?GetLineCount@CRichEditCtrl@@QBEHXZ 0047c580 f   uafxcwd:winctrl2.obj
 0001:0007b5d0       ?GetModify@CRichEditCtrl@@QBEHXZ 0047c5d0 f   uafxcwd:winctrl2.obj
 0001:0007b620       ?SetModify@CRichEditCtrl@@QAEXH@Z 0047c620 f   uafxcwd:winctrl2.obj
 0001:0007b670       ?SetTextMode@CRichEditCtrl@@QAEHI@Z 0047c670 f   uafxcwd:winctrl2.obj
 0001:0007b6c0       ?GetTextMode@CRichEditCtrl@@QBEIXZ 0047c6c0 f   uafxcwd:winctrl2.obj
 0001:0007b710       ?GetRect@CRichEditCtrl@@QBEXPAUtagRECT@@@Z 0047c710 f   uafxcwd:winctrl2.obj
 0001:0007b760       ?GetCharPos@CRichEditCtrl@@QBE?AVCPoint@@J@Z 0047c760 f   uafxcwd:winctrl2.obj
 0001:0007b7d0       ?GetOptions@CRichEditCtrl@@QBEIXZ 0047c7d0 f   uafxcwd:winctrl2.obj
 0001:0007b820       ?SetOptions@CRichEditCtrl@@QAEXGK@Z 0047c820 f   uafxcwd:winctrl2.obj
 0001:0007b870       ?SetAutoURLDetect@CRichEditCtrl@@QAEHH@Z 0047c870 f   uafxcwd:winctrl2.obj
 0001:0007b8c0       ?EmptyUndoBuffer@CRichEditCtrl@@QAEXXZ 0047c8c0 f   uafxcwd:winctrl2.obj
 0001:0007b910       ?SetUndoLimit@CRichEditCtrl@@QAEII@Z 0047c910 f   uafxcwd:winctrl2.obj
 0001:0007b960       ?ReplaceSel@CRichEditCtrl@@QAEXPB_WH@Z 0047c960 f   uafxcwd:winctrl2.obj
 0001:0007b9b0       ?SetRect@CRichEditCtrl@@QAEXPBUtagRECT@@@Z 0047c9b0 f   uafxcwd:winctrl2.obj
 0001:0007ba00       ?StopGroupTyping@CRichEditCtrl@@QAEXXZ 0047ca00 f   uafxcwd:winctrl2.obj
 0001:0007ba50       ?Redo@CRichEditCtrl@@QAEHXZ 0047ca50 f   uafxcwd:winctrl2.obj
 0001:0007baa0       ?Undo@CRichEditCtrl@@QAEHXZ 0047caa0 f   uafxcwd:winctrl2.obj
 0001:0007baf0       ?Clear@CRichEditCtrl@@QAEXXZ 0047caf0 f   uafxcwd:winctrl2.obj
 0001:0007bb40       ?Copy@CRichEditCtrl@@QAEXXZ 0047cb40 f   uafxcwd:winctrl2.obj
 0001:0007bb90       ?Cut@CRichEditCtrl@@QAEXXZ 0047cb90 f   uafxcwd:winctrl2.obj
 0001:0007bbe0       ?Paste@CRichEditCtrl@@QAEXXZ 0047cbe0 f   uafxcwd:winctrl2.obj
 0001:0007bc30       ?SetReadOnly@CRichEditCtrl@@QAEHH@Z 0047cc30 f   uafxcwd:winctrl2.obj
 0001:0007bc80       ?GetFirstVisibleLine@CRichEditCtrl@@QBEHXZ 0047cc80 f   uafxcwd:winctrl2.obj
 0001:0007bcd0       ?DisplayBand@CRichEditCtrl@@QAEHPAUtagRECT@@@Z 0047ccd0 f   uafxcwd:winctrl2.obj
 0001:0007bd20       ?GetSel@CRichEditCtrl@@QBEXAAU_charrange@@@Z 0047cd20 f   uafxcwd:winctrl2.obj
 0001:0007bd70       ?GetPunctuation@CRichEditCtrl@@QBEHIPAU_punctuation@@@Z 0047cd70 f   uafxcwd:winctrl2.obj
 0001:0007bdc0       ?SetPunctuation@CRichEditCtrl@@QAEHIPAU_punctuation@@@Z 0047cdc0 f   uafxcwd:winctrl2.obj
 0001:0007be10       ?LimitText@CRichEditCtrl@@QAEXJ@Z 0047ce10 f   uafxcwd:winctrl2.obj
 0001:0007be60       ?LineFromChar@CRichEditCtrl@@QBEJJ@Z 0047ce60 f   uafxcwd:winctrl2.obj
 0001:0007beb0       ?PosFromChar@CRichEditCtrl@@QBE?AVCPoint@@I@Z 0047ceb0 f   uafxcwd:winctrl2.obj
 0001:0007bf20       ?CharFromPos@CRichEditCtrl@@QBEHVCPoint@@@Z 0047cf20 f   uafxcwd:winctrl2.obj
 0001:0007bf80       ?SetSel@CRichEditCtrl@@QAEXAAU_charrange@@@Z 0047cf80 f   uafxcwd:winctrl2.obj
 0001:0007bfd0       ?FindWordBreak@CRichEditCtrl@@QBEKIK@Z 0047cfd0 f   uafxcwd:winctrl2.obj
 0001:0007c020       ?FindTextW@CRichEditCtrl@@QBEJKPAU_findtextexw@@@Z 0047d020 f   uafxcwd:winctrl2.obj
 0001:0007c070       ?FormatRange@CRichEditCtrl@@QAEJPAU_formatrange@@H@Z 0047d070 f   uafxcwd:winctrl2.obj
 0001:0007c0c0       ?GetEventMask@CRichEditCtrl@@QBEJXZ 0047d0c0 f   uafxcwd:winctrl2.obj
 0001:0007c110       ?GetLimitText@CRichEditCtrl@@QBEJXZ 0047d110 f   uafxcwd:winctrl2.obj
 0001:0007c160       ?GetSelText@CRichEditCtrl@@QBEJPAD@Z 0047d160 f   uafxcwd:winctrl2.obj
 0001:0007c1b0       ?HideSelection@CRichEditCtrl@@QAEXHH@Z 0047d1b0 f   uafxcwd:winctrl2.obj
 0001:0007c200       ?RequestResize@CRichEditCtrl@@QAEXXZ 0047d200 f   uafxcwd:winctrl2.obj
 0001:0007c250       ?GetSelectionType@CRichEditCtrl@@QBEGXZ 0047d250 f   uafxcwd:winctrl2.obj
 0001:0007c2a0       ?GetWordWrapMode@CRichEditCtrl@@QBEIXZ 0047d2a0 f   uafxcwd:winctrl2.obj
 0001:0007c2f0       ?SetWordWrapMode@CRichEditCtrl@@QBEII@Z 0047d2f0 f   uafxcwd:winctrl2.obj
 0001:0007c340       ?SetBackgroundColor@CRichEditCtrl@@QAEKHK@Z 0047d340 f   uafxcwd:winctrl2.obj
 0001:0007c390       ?SetEventMask@CRichEditCtrl@@QAEKK@Z 0047d390 f   uafxcwd:winctrl2.obj
 0001:0007c3e0       ?SetOLECallback@CRichEditCtrl@@QAEHPAUIRichEditOleCallback@@@Z 0047d3e0 f   uafxcwd:winctrl2.obj
 0001:0007c430       ?SetTargetDevice@CRichEditCtrl@@QAEHPAUHDC__@@J@Z 0047d430 f   uafxcwd:winctrl2.obj
 0001:0007c480       ?SetTargetDevice@CRichEditCtrl@@QAEHAAVCDC@@J@Z 0047d480 f   uafxcwd:winctrl2.obj
 0001:0007c4e0       ?StreamIn@CRichEditCtrl@@QAEJHAAU_editstream@@@Z 0047d4e0 f   uafxcwd:winctrl2.obj
 0001:0007c530       ?StreamOut@CRichEditCtrl@@QAEJHAAU_editstream@@@Z 0047d530 f   uafxcwd:winctrl2.obj
 0001:0007c580       ?GetTextLength@CRichEditCtrl@@QBEJXZ 0047d580 f   uafxcwd:winctrl2.obj
 0001:0007c5d0       ?GetRuntimeClass@CDragListBox@@UBEPAUCRuntimeClass@@XZ 0047d5d0 f   uafxcwd:winctrl2.obj
 0001:0007c5f0       ?GetRuntimeClass@CSpinButtonCtrl@@UBEPAUCRuntimeClass@@XZ 0047d5f0 f   uafxcwd:winctrl2.obj
 0001:0007c610       ?GetRuntimeClass@CSliderCtrl@@UBEPAUCRuntimeClass@@XZ 0047d610 f   uafxcwd:winctrl2.obj
 0001:0007c630       ?GetRuntimeClass@CProgressCtrl@@UBEPAUCRuntimeClass@@XZ 0047d630 f   uafxcwd:winctrl2.obj
 0001:0007c650       ?GetRuntimeClass@CComboBoxEx@@UBEPAUCRuntimeClass@@XZ 0047d650 f   uafxcwd:winctrl2.obj
 0001:0007c670       ?GetRuntimeClass@CHeaderCtrl@@UBEPAUCRuntimeClass@@XZ 0047d670 f   uafxcwd:winctrl2.obj
 0001:0007c690       ?GetRuntimeClass@CHotKeyCtrl@@UBEPAUCRuntimeClass@@XZ 0047d690 f   uafxcwd:winctrl2.obj
 0001:0007c6b0       ?GetRuntimeClass@CAnimateCtrl@@UBEPAUCRuntimeClass@@XZ 0047d6b0 f   uafxcwd:winctrl2.obj
 0001:0007c6d0       ?GetRuntimeClass@CTabCtrl@@UBEPAUCRuntimeClass@@XZ 0047d6d0 f   uafxcwd:winctrl2.obj
 0001:0007c6f0       ?GetRuntimeClass@CTreeCtrl@@UBEPAUCRuntimeClass@@XZ 0047d6f0 f   uafxcwd:winctrl2.obj
 0001:0007c710       ?GetRuntimeClass@CListCtrl@@UBEPAUCRuntimeClass@@XZ 0047d710 f   uafxcwd:winctrl2.obj
 0001:0007c730       ?GetRuntimeClass@CToolBarCtrl@@UBEPAUCRuntimeClass@@XZ 0047d730 f   uafxcwd:winctrl2.obj
 0001:0007c750       ?GetRuntimeClass@CStatusBarCtrl@@UBEPAUCRuntimeClass@@XZ 0047d750 f   uafxcwd:winctrl2.obj
 0001:0007c770       ?CreateObject@CImageList@@SGPAVCObject@@XZ 0047d770 f   uafxcwd:winctrl2.obj
 0001:0007c7f0       ?GetRuntimeClass@CImageList@@UBEPAUCRuntimeClass@@XZ 0047d7f0 f   uafxcwd:winctrl2.obj
 0001:0007c810       ?GetRuntimeClass@CRichEditCtrl@@UBEPAUCRuntimeClass@@XZ 0047d810 f   uafxcwd:winctrl2.obj
 0001:0007c830       ?Construct@?$ConstructDestruct@VCImageList@@@@SGXPAVCObject@@@Z 0047d830 f i uafxcwd:winctrl2.obj
 0001:0007c8b0       ?Destruct@?$ConstructDestruct@VCImageList@@@@SGXPAVCObject@@@Z 0047d8b0 f i uafxcwd:winctrl2.obj
 0001:0007c8e0       ?AfxImageList_Create@@YGPAU_IMAGELIST@@HHIHH@Z 0047d8e0 f i uafxcwd:winctrl2.obj
 0001:0007c910       ?_ImageList_Create@CComCtlWrapper@@QAEPAU_IMAGELIST@@HHIHH@Z 0047d910 f i uafxcwd:winctrl2.obj
 0001:0007ca60       ??BImageList_Create_Type@CComCtlWrapper@@QAEP6GPAU_IMAGELIST@@HHIHH@ZXZ 0047da60 f i uafxcwd:winctrl2.obj
 0001:0007ca80       ?GetProcAddress_ImageList_Create@CComCtlWrapper@@QAE?AUImageList_Create_Type@1@XZ 0047da80 f i uafxcwd:winctrl2.obj
 0001:0007cad0       ??4ImageList_Create_Type@CComCtlWrapper@@QAEXP6GPAU_IMAGELIST@@HHIHH@Z@Z 0047dad0 f i uafxcwd:winctrl2.obj
 0001:0007caf0       ??7ImageList_Create_Type@CComCtlWrapper@@QBE_NXZ 0047daf0 f i uafxcwd:winctrl2.obj
 0001:0007cb10       ?AfxImageList_Destroy@@YGHPAU_IMAGELIST@@@Z 0047db10 f i uafxcwd:winctrl2.obj
 0001:0007cb30       ?_ImageList_Destroy@CComCtlWrapper@@QAEHPAU_IMAGELIST@@@Z 0047db30 f i uafxcwd:winctrl2.obj
 0001:0007cc70       ??BImageList_Destroy_Type@CComCtlWrapper@@QAEP6GHPAU_IMAGELIST@@@ZXZ 0047dc70 f i uafxcwd:winctrl2.obj
 0001:0007cc90       ?GetProcAddress_ImageList_Destroy@CComCtlWrapper@@QAE?AUImageList_Destroy_Type@1@XZ 0047dc90 f i uafxcwd:winctrl2.obj
 0001:0007cce0       ??4ImageList_Destroy_Type@CComCtlWrapper@@QAEXP6GHPAU_IMAGELIST@@@Z@Z 0047dce0 f i uafxcwd:winctrl2.obj
 0001:0007cd00       ??7ImageList_Destroy_Type@CComCtlWrapper@@QBE_NXZ 0047dd00 f i uafxcwd:winctrl2.obj
 0001:0007cd20       ?AfxImageList_LoadImageW@@YGPAU_IMAGELIST@@PAUHINSTANCE__@@PB_WHHKII@Z 0047dd20 f i uafxcwd:winctrl2.obj
 0001:0007cd60       ?_ImageList_LoadImageW@CComCtlWrapper@@QAEPAU_IMAGELIST@@PAUHINSTANCE__@@PB_WHHKII@Z 0047dd60 f i uafxcwd:winctrl2.obj
 0001:0007cec0       ??BImageList_LoadImageW_Type@CComCtlWrapper@@QAEP6GPAU_IMAGELIST@@PAUHINSTANCE__@@PB_WHHKII@ZXZ 0047dec0 f i uafxcwd:winctrl2.obj
 0001:0007cee0       ?GetProcAddress_ImageList_LoadImageW@CComCtlWrapper@@QAE?AUImageList_LoadImageW_Type@1@XZ 0047dee0 f i uafxcwd:winctrl2.obj
 0001:0007cf30       ??4ImageList_LoadImageW_Type@CComCtlWrapper@@QAEXP6GPAU_IMAGELIST@@PAUHINSTANCE__@@PB_WHHKII@Z@Z 0047df30 f i uafxcwd:winctrl2.obj
 0001:0007cf50       ??7ImageList_LoadImageW_Type@CComCtlWrapper@@QBE_NXZ 0047df50 f i uafxcwd:winctrl2.obj
 0001:0007cf70       ?AfxImageList_Read@@YGPAU_IMAGELIST@@PAUIStream@@@Z 0047df70 f i uafxcwd:winctrl2.obj
 0001:0007cf90       ?_ImageList_Read@CComCtlWrapper@@QAEPAU_IMAGELIST@@PAUIStream@@@Z 0047df90 f i uafxcwd:winctrl2.obj
 0001:0007d0d0       ??BImageList_Read_Type@CComCtlWrapper@@QAEP6GPAU_IMAGELIST@@PAUIStream@@@ZXZ 0047e0d0 f i uafxcwd:winctrl2.obj
 0001:0007d0f0       ?GetProcAddress_ImageList_Read@CComCtlWrapper@@QAE?AUImageList_Read_Type@1@XZ 0047e0f0 f i uafxcwd:winctrl2.obj
 0001:0007d150       ??4ImageList_Read_Type@CComCtlWrapper@@QAEXP6GPAU_IMAGELIST@@PAUIStream@@@Z@Z 0047e150 f i uafxcwd:winctrl2.obj
 0001:0007d170       ??7ImageList_Read_Type@CComCtlWrapper@@QBE_NXZ 0047e170 f i uafxcwd:winctrl2.obj
 0001:0007d190       ?AfxImageList_Write@@YGHPAU_IMAGELIST@@PAUIStream@@@Z 0047e190 f i uafxcwd:winctrl2.obj
 0001:0007d1b0       ?_ImageList_Write@CComCtlWrapper@@QAEHPAU_IMAGELIST@@PAUIStream@@@Z 0047e1b0 f i uafxcwd:winctrl2.obj
 0001:0007d300       ??BImageList_Write_Type@CComCtlWrapper@@QAEP6GHPAU_IMAGELIST@@PAUIStream@@@ZXZ 0047e300 f i uafxcwd:winctrl2.obj
 0001:0007d320       ?GetProcAddress_ImageList_Write@CComCtlWrapper@@QAE?AUImageList_Write_Type@1@XZ 0047e320 f i uafxcwd:winctrl2.obj
 0001:0007d380       ??4ImageList_Write_Type@CComCtlWrapper@@QAEXP6GHPAU_IMAGELIST@@PAUIStream@@@Z@Z 0047e380 f i uafxcwd:winctrl2.obj
 0001:0007d3a0       ??7ImageList_Write_Type@CComCtlWrapper@@QBE_NXZ 0047e3a0 f i uafxcwd:winctrl2.obj
 0001:0007d3c0       ?AfxImageList_Merge@@YGPAU_IMAGELIST@@PAU1@H0HHH@Z 0047e3c0 f i uafxcwd:winctrl2.obj
 0001:0007d3f0       ?_ImageList_Merge@CComCtlWrapper@@QAEPAU_IMAGELIST@@PAU2@H0HHH@Z 0047e3f0 f i uafxcwd:winctrl2.obj
 0001:0007d550       ??BImageList_Merge_Type@CComCtlWrapper@@QAEP6GPAU_IMAGELIST@@PAU2@H0HHH@ZXZ 0047e550 f i uafxcwd:winctrl2.obj
 0001:0007d570       ?GetProcAddress_ImageList_Merge@CComCtlWrapper@@QAE?AUImageList_Merge_Type@1@XZ 0047e570 f i uafxcwd:winctrl2.obj
 0001:0007d5d0       ??4ImageList_Merge_Type@CComCtlWrapper@@QAEXP6GPAU_IMAGELIST@@PAU2@H0HHH@Z@Z 0047e5d0 f i uafxcwd:winctrl2.obj
 0001:0007d5f0       ??7ImageList_Merge_Type@CComCtlWrapper@@QBE_NXZ 0047e5f0 f i uafxcwd:winctrl2.obj
 0001:0007d610       ?AfxMakeDragList@@YGHPAUHWND__@@@Z 0047e610 f i uafxcwd:winctrl2.obj
 0001:0007d630       ?_MakeDragList@CComCtlWrapper@@QAEHPAUHWND__@@@Z 0047e630 f i uafxcwd:winctrl2.obj
 0001:0007d770       ??BMakeDragList_Type@CComCtlWrapper@@QAEP6GHPAUHWND__@@@ZXZ 0047e770 f i uafxcwd:winctrl2.obj
 0001:0007d790       ?GetProcAddress_MakeDragList@CComCtlWrapper@@QAE?AUMakeDragList_Type@1@XZ 0047e790 f i uafxcwd:winctrl2.obj
 0001:0007d7f0       ??4MakeDragList_Type@CComCtlWrapper@@QAEXP6GHPAUHWND__@@@Z@Z 0047e7f0 f i uafxcwd:winctrl2.obj
 0001:0007d810       ??7MakeDragList_Type@CComCtlWrapper@@QBE_NXZ 0047e810 f i uafxcwd:winctrl2.obj
 0001:0007d830       ?AfxLBItemFromPt@@YGHPAUHWND__@@UtagPOINT@@H@Z 0047e830 f i uafxcwd:winctrl2.obj
 0001:0007d860       ?_LBItemFromPt@CComCtlWrapper@@QAEHPAUHWND__@@UtagPOINT@@H@Z 0047e860 f i uafxcwd:winctrl2.obj
 0001:0007d9b0       ??BLBItemFromPt_Type@CComCtlWrapper@@QAEP6GHPAUHWND__@@UtagPOINT@@H@ZXZ 0047e9b0 f i uafxcwd:winctrl2.obj
 0001:0007d9d0       ?GetProcAddress_LBItemFromPt@CComCtlWrapper@@QAE?AULBItemFromPt_Type@1@XZ 0047e9d0 f i uafxcwd:winctrl2.obj
 0001:0007da30       ??4LBItemFromPt_Type@CComCtlWrapper@@QAEXP6GHPAUHWND__@@UtagPOINT@@H@Z@Z 0047ea30 f i uafxcwd:winctrl2.obj
 0001:0007da50       ??7LBItemFromPt_Type@CComCtlWrapper@@QBE_NXZ 0047ea50 f i uafxcwd:winctrl2.obj
 0001:0007da70       ?PrepareEditCtrl@CDataExchange@@QAEPAUHWND__@@H@Z 0047ea70 f   uafxcwd:dlgdata.obj
 0001:0007daa0       ?PrepareCtrl@CDataExchange@@QAEPAUHWND__@@H@Z 0047eaa0 f   uafxcwd:dlgdata.obj
 0001:0007db80       ?Fail@CDataExchange@@QAEXXZ 0047eb80 f   uafxcwd:dlgdata.obj
 0001:0007dc40       ?_Afx_DDX_TextWithFormat@@YAXPAVCDataExchange@@HPB_WIZZ 0047ec40 f   uafxcwd:dlgdata.obj
 0001:0007dd90       ?DDX_Text@@YGXPAVCDataExchange@@HAAE@Z 0047ed90 f   uafxcwd:dlgdata.obj
 0001:0007de20       ?DDX_Text@@YGXPAVCDataExchange@@HAAF@Z 0047ee20 f   uafxcwd:dlgdata.obj
 0001:0007de80       ?DDX_Text@@YGXPAVCDataExchange@@HAAH@Z 0047ee80 f   uafxcwd:dlgdata.obj
 0001:0007dee0       ?DDX_Text@@YGXPAVCDataExchange@@HAAI@Z 0047eee0 f   uafxcwd:dlgdata.obj
 0001:0007df40       ?DDX_Text@@YGXPAVCDataExchange@@HAAJ@Z 0047ef40 f   uafxcwd:dlgdata.obj
 0001:0007dfa0       ?DDX_Text@@YGXPAVCDataExchange@@HAAK@Z 0047efa0 f   uafxcwd:dlgdata.obj
 0001:0007e000       ?DDX_Text@@YGXPAVCDataExchange@@HAA_J@Z 0047f000 f   uafxcwd:dlgdata.obj
 0001:0007e060       ?DDX_Text@@YGXPAVCDataExchange@@HAA_K@Z 0047f060 f   uafxcwd:dlgdata.obj
 0001:0007e0c0       ?DDX_Text@@YGXPAVCDataExchange@@HAAV?$CStringT@_WV?$StrTraitMFC@_WV?$ChTraitsCRT@_W@ATL@@@@@ATL@@@Z 0047f0c0 f   uafxcwd:dlgdata.obj
 0001:0007e130       ?DDX_Text@@YGXPAVCDataExchange@@HPA_WH@Z 0047f130 f   uafxcwd:dlgdata.obj
 0001:0007e1e0       ?DDX_Check@@YGXPAVCDataExchange@@HAAH@Z 0047f1e0 f   uafxcwd:dlgdata.obj
 0001:0007e2c0       ?DDX_Radio@@YGXPAVCDataExchange@@HAAH@Z 0047f2c0 f   uafxcwd:dlgdata.obj
 0001:0007e440       ?DDX_LBString@@YGXPAVCDataExchange@@HAAV?$CStringT@_WV?$StrTraitMFC@_WV?$ChTraitsCRT@_W@ATL@@@@@ATL@@@Z 0047f440 f   uafxcwd:dlgdata.obj
 0001:0007e530       ?DDX_LBStringExact@@YGXPAVCDataExchange@@HAAV?$CStringT@_WV?$StrTraitMFC@_WV?$ChTraitsCRT@_W@ATL@@@@@ATL@@@Z 0047f530 f   uafxcwd:dlgdata.obj
 0001:0007e5e0       ?DDX_CBString@@YGXPAVCDataExchange@@HAAV?$CStringT@_WV?$StrTraitMFC@_WV?$ChTraitsCRT@_W@ATL@@@@@ATL@@@Z 0047f5e0 f   uafxcwd:dlgdata.obj
 0001:0007e6b0       ?DDX_CBStringExact@@YGXPAVCDataExchange@@HAAV?$CStringT@_WV?$StrTraitMFC@_WV?$ChTraitsCRT@_W@ATL@@@@@ATL@@@Z 0047f6b0 f   uafxcwd:dlgdata.obj
 0001:0007e750       ?DDX_LBIndex@@YGXPAVCDataExchange@@HAAH@Z 0047f750 f   uafxcwd:dlgdata.obj
 0001:0007e7c0       ?DDX_CBIndex@@YGXPAVCDataExchange@@HAAH@Z 0047f7c0 f   uafxcwd:dlgdata.obj
 0001:0007e830       ?DDX_Scroll@@YGXPAVCDataExchange@@HAAH@Z 0047f830 f   uafxcwd:dlgdata.obj
 0001:0007e890       ?DDX_Slider@@YGXPAVCDataExchange@@HAAH@Z 0047f890 f   uafxcwd:dlgdata.obj
 0001:0007e900       ?DDX_IPAddress@@YGXPAVCDataExchange@@HAAK@Z 0047f900 f   uafxcwd:dlgdata.obj
 0001:0007e970       ?_AfxFailMinMaxWithFormat@@YGXPAVCDataExchange@@_J1PB_WI@Z 0047f970 f   uafxcwd:dlgdata.obj
 0001:0007eb50       ?DDV_MinMaxByte@@YGXPAVCDataExchange@@EEE@Z 0047fb50 f   uafxcwd:dlgdata.obj
 0001:0007ebc0       ?DDV_MinMaxShort@@YGXPAVCDataExchange@@FFF@Z 0047fbc0 f   uafxcwd:dlgdata.obj
 0001:0007ec30       ?DDV_MinMaxInt@@YGXPAVCDataExchange@@HHH@Z 0047fc30 f   uafxcwd:dlgdata.obj
 0001:0007ec90       ?DDV_MinMaxLong@@YGXPAVCDataExchange@@JJJ@Z 0047fc90 f   uafxcwd:dlgdata.obj
 0001:0007ecf0       ?DDV_MinMaxUInt@@YGXPAVCDataExchange@@III@Z 0047fcf0 f   uafxcwd:dlgdata.obj
 0001:0007ed50       ?DDV_MinMaxDWord@@YGXPAVCDataExchange@@KKK@Z 0047fd50 f   uafxcwd:dlgdata.obj
 0001:0007edb0       ?DDV_MinMaxLongLong@@YGXPAVCDataExchange@@_J11@Z 0047fdb0 f   uafxcwd:dlgdata.obj
 0001:0007ee30       ?DDV_MinMaxULongLong@@YGXPAVCDataExchange@@_K11@Z 0047fe30 f   uafxcwd:dlgdata.obj
 0001:0007eeb0       ?DDV_MinMaxSlider@@YGXPAVCDataExchange@@KKK@Z 0047feb0 f   uafxcwd:dlgdata.obj
 0001:0007ef70       ?DDV_MaxChars@@YGXPAVCDataExchange@@ABV?$CStringT@_WV?$StrTraitMFC@_WV?$ChTraitsCRT@_W@ATL@@@@@ATL@@H@Z 0047ff70 f   uafxcwd:dlgdata.obj
 0001:0007f090       ?DDX_Control@@YGXPAVCDataExchange@@HAAVCWnd@@@Z 00480090 f   uafxcwd:dlgdata.obj
 0001:0007f190       ?AfxFailMaxChars@@YGXPAVCDataExchange@@H@Z 00480190 f   uafxcwd:dlgdata.obj
 0001:0007f250       ?AfxFailRadio@@YGXPAVCDataExchange@@@Z 00480250 f   uafxcwd:dlgdata.obj
 0001:0007f2e0       ?Create@CStatic@@UAEHPB_WKABUtagRECT@@PAVCWnd@@I@Z 004802e0 f   uafxcwd:winctrl1.obj
 0001:0007f320       ??1CStatic@@UAE@XZ         00480320 f   uafxcwd:winctrl1.obj
 0001:0007f380       ?DrawItem@CStatic@@UAEXPAUtagDRAWITEMSTRUCT@@@Z 00480380 f   uafxcwd:winctrl1.obj
 0001:0007f3b0       ?OnChildNotify@CStatic@@MAEHIIJPAJ@Z 004803b0 f   uafxcwd:winctrl1.obj
 0001:0007f410       ?Create@CButton@@UAEHPB_WKABUtagRECT@@PAVCWnd@@I@Z 00480410 f   uafxcwd:winctrl1.obj
 0001:0007f450       ??1CButton@@UAE@XZ         00480450 f   uafxcwd:winctrl1.obj
 0001:0007f4b0       ?GetCheckedRadioButton@CWnd@@QBEHHH@Z 004804b0 f   uafxcwd:winctrl1.obj
 0001:0007f500       ?DrawItem@CButton@@UAEXPAUtagDRAWITEMSTRUCT@@@Z 00480500 f   uafxcwd:winctrl1.obj
 0001:0007f530       ?OnChildNotify@CButton@@MAEHIIJPAJ@Z 00480530 f   uafxcwd:winctrl1.obj
 0001:0007f590       ?GetMessageMap@CSplitButton@@MBEPBUAFX_MSGMAP@@XZ 00480590 f   uafxcwd:winctrl1.obj
 0001:0007f5b0       ?GetThisMessageMap@CSplitButton@@KGPBUAFX_MSGMAP@@XZ 004805b0 f   uafxcwd:winctrl1.obj
 0001:0007f5c0       ?Create@CSplitButton@@UAEHPB_WKABUtagRECT@@PAVCWnd@@I@Z 004805c0 f   uafxcwd:winctrl1.obj
 0001:0007f5f0       ??1CSplitButton@@UAE@XZ    004805f0 f   uafxcwd:winctrl1.obj
 0001:0007f650       ?SetDropDownMenu@CSplitButton@@QAEXII@Z 00480650 f   uafxcwd:winctrl1.obj
 0001:0007f680       ?SetDropDownMenu@CSplitButton@@QAEXPAVCMenu@@@Z 00480680 f   uafxcwd:winctrl1.obj
 0001:0007f6a0       ?Cleanup@CSplitButton@@IAEXXZ 004806a0 f   uafxcwd:winctrl1.obj
 0001:0007f710       ?OnDropDown@CSplitButton@@IAEXPAUtagNMHDR@@PAJ@Z 00480710 f   uafxcwd:winctrl1.obj
 0001:0007f830       ?Create@CListBox@@UAEHKABUtagRECT@@PAVCWnd@@I@Z 00480830 f   uafxcwd:winctrl1.obj
 0001:0007f870       ??1CListBox@@UAE@XZ        00480870 f   uafxcwd:winctrl1.obj
 0001:0007f8d0       ?DrawItem@CListBox@@UAEXPAUtagDRAWITEMSTRUCT@@@Z 004808d0 f   uafxcwd:winctrl1.obj
 0001:0007f900       ?MeasureItem@CListBox@@UAEXPAUtagMEASUREITEMSTRUCT@@@Z 00480900 f   uafxcwd:winctrl1.obj
 0001:0007f930       ?CompareItem@CListBox@@UAEHPAUtagCOMPAREITEMSTRUCT@@@Z 00480930 f   uafxcwd:winctrl1.obj
 0001:0007f960       ?DeleteItem@CListBox@@UAEXPAUtagDELETEITEMSTRUCT@@@Z 00480960 f   uafxcwd:winctrl1.obj
 0001:0007f970       ?VKeyToItem@CListBox@@UAEHII@Z 00480970 f   uafxcwd:winctrl1.obj
 0001:0007f990       ?CharToItem@CListBox@@UAEHII@Z 00480990 f   uafxcwd:winctrl1.obj
 0001:0007f9b0       ?OnChildNotify@CListBox@@MAEHIIJPAJ@Z 004809b0 f   uafxcwd:winctrl1.obj
 0001:0007fb70       ?GetText@CListBox@@QBEXHAAV?$CStringT@_WV?$StrTraitMFC@_WV?$ChTraitsCRT@_W@ATL@@@@@ATL@@@Z 00480b70 f   uafxcwd:winctrl1.obj
 0001:0007fbd0       ?ItemFromPoint@CListBox@@QBEIVCPoint@@AAH@Z 00480bd0 f   uafxcwd:winctrl1.obj
 0001:0007fc60       ?Create@CComboBox@@UAEHKABUtagRECT@@PAVCWnd@@I@Z 00480c60 f   uafxcwd:winctrl1.obj
 0001:0007fca0       ??1CComboBox@@UAE@XZ       00480ca0 f   uafxcwd:winctrl1.obj
 0001:0007fd00       ?DrawItem@CComboBox@@UAEXPAUtagDRAWITEMSTRUCT@@@Z 00480d00 f   uafxcwd:winctrl1.obj
 0001:0007fd30       ?MeasureItem@CComboBox@@UAEXPAUtagMEASUREITEMSTRUCT@@@Z 00480d30 f   uafxcwd:winctrl1.obj
 0001:0007fd60       ?CompareItem@CComboBox@@UAEHPAUtagCOMPAREITEMSTRUCT@@@Z 00480d60 f   uafxcwd:winctrl1.obj
 0001:0007fd90       ?DeleteItem@CComboBox@@UAEXPAUtagDELETEITEMSTRUCT@@@Z 00480d90 f   uafxcwd:winctrl1.obj
 0001:0007fda0       ?OnChildNotify@CComboBox@@MAEHIIJPAJ@Z 00480da0 f   uafxcwd:winctrl1.obj
 0001:0007fef0       ?GetLBText@CComboBox@@QBEXHAAV?$CStringT@_WV?$StrTraitMFC@_WV?$ChTraitsCRT@_W@ATL@@@@@ATL@@@Z 00480ef0 f   uafxcwd:winctrl1.obj
 0001:0007ff50       ?Create@CEdit@@QAEHKABUtagRECT@@PAVCWnd@@I@Z 00480f50 f   uafxcwd:winctrl1.obj
 0001:0007ff90       ??1CEdit@@UAE@XZ           00480f90 f   uafxcwd:winctrl1.obj
 0001:0007fff0       ?Create@CScrollBar@@UAEHKABUtagRECT@@PAVCWnd@@I@Z 00480ff0 f   uafxcwd:winctrl1.obj
 0001:00080030       ??1CScrollBar@@UAE@XZ      00481030 f   uafxcwd:winctrl1.obj
 0001:00080090       ?GetRuntimeClass@CStatic@@UBEPAUCRuntimeClass@@XZ 00481090 f   uafxcwd:winctrl1.obj
 0001:000800b0       ?GetRuntimeClass@CButton@@UBEPAUCRuntimeClass@@XZ 004810b0 f   uafxcwd:winctrl1.obj
 0001:000800d0       ?GetRuntimeClass@CSplitButton@@UBEPAUCRuntimeClass@@XZ 004810d0 f   uafxcwd:winctrl1.obj
 0001:000800f0       ?GetRuntimeClass@CListBox@@UBEPAUCRuntimeClass@@XZ 004810f0 f   uafxcwd:winctrl1.obj
 0001:00080110       ?GetRuntimeClass@CComboBox@@UBEPAUCRuntimeClass@@XZ 00481110 f   uafxcwd:winctrl1.obj
 0001:00080130       ?GetRuntimeClass@CEdit@@UBEPAUCRuntimeClass@@XZ 00481130 f   uafxcwd:winctrl1.obj
 0001:00080150       ?GetRuntimeClass@CScrollBar@@UBEPAUCRuntimeClass@@XZ 00481150 f   uafxcwd:winctrl1.obj
 0001:00080170       ??0CStringArray@@QAE@XZ    00481170 f   uafxcwd:array_s.obj
 0001:000801c0       ??_GCStringArray@@UAEPAXI@Z 004811c0 f i uafxcwd:array_s.obj
 0001:000801c0       ??_ECStringArray@@UAEPAXI@Z 004811c0 f i uafxcwd:array_s.obj
 0001:000801f0       ??1CStringArray@@UAE@XZ    004811f0 f   uafxcwd:array_s.obj
 0001:00080480       ??_G?$CStringT@_WV?$StrTraitMFC@_WV?$ChTraitsCRT@_W@ATL@@@@@ATL@@QAEPAXI@Z 00481480 f i uafxcwd:array_s.obj
 0001:000804b0       ?SetSize@CStringArray@@QAEXHH@Z 004814b0 f   uafxcwd:array_s.obj
 0001:000808b0       ?Append@CStringArray@@QAEHABV1@@Z 004818b0 f   uafxcwd:array_s.obj
 0001:000809a0       ?Copy@CStringArray@@QAEXABV1@@Z 004819a0 f   uafxcwd:array_s.obj
 0001:00080a20       ?FreeExtra@CStringArray@@QAEXXZ 00481a20 f   uafxcwd:array_s.obj
 0001:00080b00       ?SetAtGrow@CStringArray@@QAEXHPB_W@Z 00481b00 f   uafxcwd:array_s.obj
 0001:00080b80       ?SetAtGrow@CStringArray@@QAEXHABV?$CStringT@_WV?$StrTraitMFC@_WV?$ChTraitsCRT@_W@ATL@@@@@ATL@@@Z 00481b80 f   uafxcwd:array_s.obj
 0001:00080c70       ?InsertEmpty@CStringArray@@IAEXHH@Z 00481c70 f   uafxcwd:array_s.obj
 0001:00080de0       ?InsertAt@CStringArray@@QAEXHPB_WH@Z 00481de0 f   uafxcwd:array_s.obj
 0001:00080e90       ?InsertAt@CStringArray@@QAEXHABV?$CStringT@_WV?$StrTraitMFC@_WV?$ChTraitsCRT@_W@ATL@@@@@ATL@@H@Z 00481e90 f   uafxcwd:array_s.obj
 0001:00080ef0       ?RemoveAt@CStringArray@@QAEXHH@Z 00481ef0 f   uafxcwd:array_s.obj
 0001:00081020       ?InsertAt@CStringArray@@QAEXHPBV1@@Z 00482020 f   uafxcwd:array_s.obj
 0001:00081130       ?Serialize@CStringArray@@UAEXAAVCArchive@@@Z 00482130 f   uafxcwd:array_s.obj
 0001:00081200       ?Dump@CStringArray@@UBEXAAVCDumpContext@@@Z 00482200 f   uafxcwd:array_s.obj
 0001:000812c0       ?AssertValid@CStringArray@@UBEXXZ 004822c0 f   uafxcwd:array_s.obj
 0001:000813b0       ?CreateObject@CStringArray@@SGPAVCObject@@XZ 004823b0 f   uafxcwd:array_s.obj
 0001:00081430       ?GetRuntimeClass@CStringArray@@UBEPAUCRuntimeClass@@XZ 00482430 f   uafxcwd:array_s.obj
 0001:00081450       ??5@YGAAVCArchive@@AAV0@AAPAVCStringArray@@@Z 00482450 f   uafxcwd:array_s.obj
 0001:00081470       ??0AFX_CLASSINIT@@QAE@PAUCRuntimeClass@@@Z 00482470 f i uafxcwd:array_s.obj
 0001:00081490       ??1CIPAddressCtrl@@UAE@XZ  00482490 f   uafxcwd:winctrl6.obj
 0001:000814f0       ??_GCIPAddressCtrl@@UAEPAXI@Z 004824f0 f i uafxcwd:winctrl6.obj
 0001:000814f0       ??_ECIPAddressCtrl@@UAEPAXI@Z 004824f0 f i uafxcwd:winctrl6.obj
 0001:00081520       ?Create@CIPAddressCtrl@@UAEHKABUtagRECT@@PAVCWnd@@I@Z 00482520 f   uafxcwd:winctrl6.obj
 0001:000815a0       ?CreateEx@CIPAddressCtrl@@UAEHKKABUtagRECT@@PAVCWnd@@I@Z 004825a0 f   uafxcwd:winctrl6.obj
 0001:00081600       ?GetAddress@CIPAddressCtrl@@QBEHAAE000@Z 00482600 f   uafxcwd:winctrl6.obj
 0001:00081690       ?Create@CComboBoxEx@@UAEHKABUtagRECT@@PAVCWnd@@I@Z 00482690 f   uafxcwd:winctrl6.obj
 0001:000816f0       ?CreateEx@CComboBoxEx@@UAEHKKABUtagRECT@@PAVCWnd@@I@Z 004826f0 f   uafxcwd:winctrl6.obj
 0001:00081750       ?DeleteItem@CComboBoxEx@@QAEHH@Z 00482750 f   uafxcwd:winctrl6.obj
 0001:000817a0       ?GetItem@CComboBoxEx@@QAEHPAUtagCOMBOBOXEXITEMW@@@Z 004827a0 f   uafxcwd:winctrl6.obj
 0001:00081830       ?InsertItem@CComboBoxEx@@QAEHPBUtagCOMBOBOXEXITEMW@@@Z 00482830 f   uafxcwd:winctrl6.obj
 0001:000818c0       ?SetItem@CComboBoxEx@@QAEHPBUtagCOMBOBOXEXITEMW@@@Z 004828c0 f   uafxcwd:winctrl6.obj
 0001:00081950       ??1CComboBoxEx@@UAE@XZ     00482950 f   uafxcwd:winctrl6.obj
 0001:000819b0       ??_ECComboBoxEx@@UAEPAXI@Z 004829b0 f i uafxcwd:winctrl6.obj
 0001:000819b0       ??_GCComboBoxEx@@UAEPAXI@Z 004829b0 f i uafxcwd:winctrl6.obj
 0001:000819e0       ??1CReBarCtrl@@UAE@XZ      004829e0 f   uafxcwd:winctrl6.obj
 0001:00081a40       ??_ECReBarCtrl@@UAEPAXI@Z  00482a40 f i uafxcwd:winctrl6.obj
 0001:00081a40       ??_GCReBarCtrl@@UAEPAXI@Z  00482a40 f i uafxcwd:winctrl6.obj
 0001:00081a70       ?Create@CReBarCtrl@@QAEHKABUtagRECT@@PAVCWnd@@I@Z 00482a70 f   uafxcwd:winctrl6.obj
 0001:00081ad0       ?CreateEx@CReBarCtrl@@QAEHKKABUtagRECT@@PAVCWnd@@I@Z 00482ad0 f   uafxcwd:winctrl6.obj
 0001:00081b20       ?GetImageList@CReBarCtrl@@QBEPAVCImageList@@XZ 00482b20 f   uafxcwd:winctrl6.obj
 0001:00081b70       ?SetImageList@CReBarCtrl@@QAEHPAVCImageList@@@Z 00482b70 f   uafxcwd:winctrl6.obj
 0001:00081bb0       ?GetColorScheme@CReBarCtrl@@QBEHPAUtagCOLORSCHEME@@@Z 00482bb0 f   uafxcwd:winctrl6.obj
 0001:00081bf0       ?SetColorScheme@CReBarCtrl@@QAEXPBUtagCOLORSCHEME@@@Z 00482bf0 f   uafxcwd:winctrl6.obj
 0001:00081c20       ?SetColumnOrderArray@CListCtrl@@QAEHHPAH@Z 00482c20 f   uafxcwd:winctrl6.obj
 0001:00081ca0       ?GetColumnOrderArray@CListCtrl@@QBEHPAHH@Z 00482ca0 f   uafxcwd:winctrl6.obj
 0001:00081d70       ?SetBkImage@CListCtrl@@QAEHPAUHBITMAP__@@HHH@Z 00482d70 f   uafxcwd:winctrl6.obj
 0001:00081dc0       ?SetBkImage@CListCtrl@@QAEHPA_WHHH@Z 00482dc0 f   uafxcwd:winctrl6.obj
 0001:00081e10       ?GetCheck@CListCtrl@@QBEHH@Z 00482e10 f   uafxcwd:winctrl6.obj
 0001:00081e70       ?SetCheck@CListCtrl@@QAEHHH@Z 00482e70 f   uafxcwd:winctrl6.obj
 0001:00081ee0       ?GetHeaderCtrl@CListCtrl@@QBEPAVCHeaderCtrl@@XZ 00482ee0 f   uafxcwd:winctrl6.obj
 0001:00081f50       ?SetOrderArray@CHeaderCtrl@@QAEHHPAH@Z 00482f50 f   uafxcwd:winctrl6.obj
 0001:00081fd0       ?GetOrderArray@CHeaderCtrl@@QBEHPAHH@Z 00482fd0 f   uafxcwd:winctrl6.obj
 0001:00082080       ?GetRange@CProgressCtrl@@QBEXAAH0@Z 00483080 f   uafxcwd:winctrl6.obj
 0001:000820e0       ?Create@CPagerCtrl@@UAEHKABUtagRECT@@PAVCWnd@@I@Z 004830e0 f   uafxcwd:winctrl6.obj
 0001:00082160       ?CreateEx@CPagerCtrl@@UAEHKKABUtagRECT@@PAVCWnd@@I@Z 00483160 f   uafxcwd:winctrl6.obj
 0001:000821c0       ?Create@CLinkCtrl@@UAEHKABUtagRECT@@PAVCWnd@@I@Z 004831c0 f   uafxcwd:winctrl6.obj
 0001:00082240       ?Create@CLinkCtrl@@UAEHPB_WKABUtagRECT@@PAVCWnd@@I@Z 00483240 f   uafxcwd:winctrl6.obj
 0001:000822c0       ?CreateEx@CLinkCtrl@@UAEHKKABUtagRECT@@PAVCWnd@@I@Z 004832c0 f   uafxcwd:winctrl6.obj
 0001:00082320       ?CreateEx@CLinkCtrl@@UAEHPB_WKKABUtagRECT@@PAVCWnd@@I@Z 00483320 f   uafxcwd:winctrl6.obj
 0001:00082380       ?Create@CNetAddressCtrl@@UAEHKABUtagRECT@@PAVCWnd@@I@Z 00483380 f   uafxcwd:winctrl6.obj
 0001:000823f0       ?CreateEx@CNetAddressCtrl@@UAEHKKABUtagRECT@@PAVCWnd@@I@Z 004833f0 f   uafxcwd:winctrl6.obj
 0001:00082450       ?IsSimple@CStatusBarCtrl@@QBEHXZ 00483450 f   uafxcwd:winctrl6.obj
 0001:000824a0       ?SetTipText@CStatusBarCtrl@@QAEXHPB_W@Z 004834a0 f   uafxcwd:winctrl6.obj
 0001:000824f0       ?SetBkColor@CStatusBarCtrl@@QAEKK@Z 004834f0 f   uafxcwd:winctrl6.obj
 0001:00082540       ?SetIcon@CStatusBarCtrl@@QAEHHPAUHICON__@@@Z 00483540 f   uafxcwd:winctrl6.obj
 0001:00082590       ?GetIcon@CStatusBarCtrl@@QBEPAUHICON__@@H@Z 00483590 f   uafxcwd:winctrl6.obj
 0001:000825e0       ?SetRange32@CSpinButtonCtrl@@QAEXHH@Z 004835e0 f   uafxcwd:winctrl6.obj
 0001:00082630       ?GetRange32@CSpinButtonCtrl@@QBEXAAH0@Z 00483630 f   uafxcwd:winctrl6.obj
 0001:00082680       ?GetPos32@CSpinButtonCtrl@@QBEHPAH@Z 00483680 f   uafxcwd:winctrl6.obj
 0001:000826d0       ?SetPos32@CSpinButtonCtrl@@QAEHH@Z 004836d0 f   uafxcwd:winctrl6.obj
 0001:00082720       ?GetButtonSize@CToolBarCtrl@@QBEKXZ 00483720 f   uafxcwd:winctrl6.obj
 0001:00082770       ?GetDisabledImageList@CToolBarCtrl@@QBEPAVCImageList@@XZ 00483770 f   uafxcwd:winctrl6.obj
 0001:000827c0       ?GetHotImageList@CToolBarCtrl@@QBEPAVCImageList@@XZ 004837c0 f   uafxcwd:winctrl6.obj
 0001:00082810       ?GetImageList@CToolBarCtrl@@QBEPAVCImageList@@XZ 00483810 f   uafxcwd:winctrl6.obj
 0001:00082860       ?GetStyle@CToolBarCtrl@@QBEKXZ 00483860 f   uafxcwd:winctrl6.obj
 0001:000828b0       ?GetMaxTextRows@CToolBarCtrl@@QBEHXZ 004838b0 f   uafxcwd:winctrl6.obj
 0001:00082900       ?GetRect@CToolBarCtrl@@QBEHHPAUtagRECT@@@Z 00483900 f   uafxcwd:winctrl6.obj
 0001:00082950       ?IsButtonHighlighted@CToolBarCtrl@@QBEHH@Z 00483950 f   uafxcwd:winctrl6.obj
 0001:000829a0       ?LoadImages@CToolBarCtrl@@QAEXHPAUHINSTANCE__@@@Z 004839a0 f   uafxcwd:winctrl6.obj
 0001:000829f0       ?SetButtonWidth@CToolBarCtrl@@QAEHHH@Z 004839f0 f   uafxcwd:winctrl6.obj
 0001:00082a60       ?SetDisabledImageList@CToolBarCtrl@@QAEPAVCImageList@@PAV2@@Z 00483a60 f   uafxcwd:winctrl6.obj
 0001:00082ac0       ?SetHotImageList@CToolBarCtrl@@QAEPAVCImageList@@PAV2@@Z 00483ac0 f   uafxcwd:winctrl6.obj
 0001:00082b20       ?SetImageList@CToolBarCtrl@@QAEPAVCImageList@@PAV2@@Z 00483b20 f   uafxcwd:winctrl6.obj
 0001:00082b80       ?SetIndent@CToolBarCtrl@@QAEHH@Z 00483b80 f   uafxcwd:winctrl6.obj
 0001:00082bd0       ?SetMaxTextRows@CToolBarCtrl@@QAEHH@Z 00483bd0 f   uafxcwd:winctrl6.obj
 0001:00082c20       ?SetStyle@CToolBarCtrl@@QAEXK@Z 00483c20 f   uafxcwd:winctrl6.obj
 0001:00082c70       ?GetButtonInfo@CToolBarCtrl@@QBEHHPAUTBBUTTONINFOW@@@Z 00483c70 f   uafxcwd:winctrl6.obj
 0001:00082cc0       ?SetButtonInfo@CToolBarCtrl@@QAEHHPAUTBBUTTONINFOW@@@Z 00483cc0 f   uafxcwd:winctrl6.obj
 0001:00082d10       ?SetDrawTextFlags@CToolBarCtrl@@QAEKKK@Z 00483d10 f   uafxcwd:winctrl6.obj
 0001:00082d60       ?GetAnchorHighlight@CToolBarCtrl@@QBEHXZ 00483d60 f   uafxcwd:winctrl6.obj
 0001:00082db0       ?SetAnchorHighlight@CToolBarCtrl@@QAEHH@Z 00483db0 f   uafxcwd:winctrl6.obj
 0001:00082e00       ?GetHotItem@CToolBarCtrl@@QBEHXZ 00483e00 f   uafxcwd:winctrl6.obj
 0001:00082e50       ?SetHotItem@CToolBarCtrl@@QAEHH@Z 00483e50 f   uafxcwd:winctrl6.obj
 0001:00082ea0       ?GetInsertMark@CToolBarCtrl@@QBEXPAUTBINSERTMARK@@@Z 00483ea0 f   uafxcwd:winctrl6.obj
 0001:00082ef0       ?SetInsertMark@CToolBarCtrl@@QAEXPAUTBINSERTMARK@@@Z 00483ef0 f   uafxcwd:winctrl6.obj
 0001:00082f40       ?GetMaxSize@CToolBarCtrl@@QBEHPAUtagSIZE@@@Z 00483f40 f   uafxcwd:winctrl6.obj
 0001:00082f90       ?InsertMarkHitTest@CToolBarCtrl@@QBEHPAUtagPOINT@@PAUTBINSERTMARK@@@Z 00483f90 f   uafxcwd:winctrl6.obj
 0001:00082fe0       ?MapAccelerator@CToolBarCtrl@@QAEH_WPAI@Z 00483fe0 f   uafxcwd:winctrl6.obj
 0001:00083030       ?MarkButton@CToolBarCtrl@@QAEHHH@Z 00484030 f   uafxcwd:winctrl6.obj
 0001:00083090       ?MoveButton@CToolBarCtrl@@QAEHII@Z 00484090 f   uafxcwd:winctrl6.obj
 0001:000830e0       ?GetString@CToolBarCtrl@@QBEHHPA_WI@Z 004840e0 f   uafxcwd:winctrl6.obj
 0001:00083160       ?SetExtendedStyle@CListCtrl@@QAEKK@Z 00484160 f   uafxcwd:winctrl6.obj
 0001:000831b0       ?SetHotCursor@CListCtrl@@QAEPAUHICON__@@PAU2@@Z 004841b0 f   uafxcwd:winctrl6.obj
 0001:00083200       ?SetHotItem@CListCtrl@@QAEHH@Z 00484200 f   uafxcwd:winctrl6.obj
 0001:00083250       ?SetWorkAreas@CListCtrl@@QAEXHPAUtagRECT@@@Z 00484250 f   uafxcwd:winctrl6.obj
 0001:000832a0       ?SubItemHitTest@CListCtrl@@QAEHPAUtagLVHITTESTINFO@@@Z 004842a0 f   uafxcwd:winctrl6.obj
 0001:000832f0       ?GetHotCursor@CListCtrl@@QBEPAUHICON__@@XZ 004842f0 f   uafxcwd:winctrl6.obj
 0001:00083340       ?GetHotItem@CListCtrl@@QBEHXZ 00484340 f   uafxcwd:winctrl6.obj
 0001:00083390       ?GetExtendedStyle@CListCtrl@@QBEKXZ 00484390 f   uafxcwd:winctrl6.obj
 0001:000833e0       ?ApproximateViewRect@CListCtrl@@QBE?AVCSize@@V2@H@Z 004843e0 f   uafxcwd:winctrl6.obj
 0001:00083460       ?GetBkImage@CListCtrl@@QBEHPAUtagLVBKIMAGEW@@@Z 00484460 f   uafxcwd:winctrl6.obj
 0001:000834b0       ?GetHoverTime@CListCtrl@@QBEKXZ 004844b0 f   uafxcwd:winctrl6.obj
 0001:00083500       ?GetWorkAreas@CListCtrl@@QBEXHPAUtagRECT@@@Z 00484500 f   uafxcwd:winctrl6.obj
 0001:00083550       ?SetBkImage@CListCtrl@@QAEHPAUtagLVBKIMAGEW@@@Z 00484550 f   uafxcwd:winctrl6.obj
 0001:000835a0       ?SetHoverTime@CListCtrl@@QAEKK@Z 004845a0 f   uafxcwd:winctrl6.obj
 0001:000835f0       ?GetNumberOfWorkAreas@CListCtrl@@QBEIXZ 004845f0 f   uafxcwd:winctrl6.obj
 0001:00083640       ?SetSelectionMark@CListCtrl@@QAEHH@Z 00484640 f   uafxcwd:winctrl6.obj
 0001:00083690       ?GetSelectionMark@CListCtrl@@QBEHXZ 00484690 f   uafxcwd:winctrl6.obj
 0001:000836e0       ?GetItemRect@CHeaderCtrl@@QBEHHPAUtagRECT@@@Z 004846e0 f   uafxcwd:winctrl6.obj
 0001:00083750       ?OrderToIndex@CHeaderCtrl@@QBEHH@Z 00484750 f   uafxcwd:winctrl6.obj
 0001:000837a0       ?SetHotDivider@CHeaderCtrl@@QAEHVCPoint@@@Z 004847a0 f   uafxcwd:winctrl6.obj
 0001:00083810       ?SetHotDivider@CHeaderCtrl@@QAEHH@Z 00484810 f   uafxcwd:winctrl6.obj
 0001:00083860       ?GetImageList@CHeaderCtrl@@QBEPAVCImageList@@H@Z 00484860 f   uafxcwd:winctrl6.obj
 0001:000838c0       ?SetImageList@CHeaderCtrl@@QAEPAVCImageList@@PAV2@H@Z 004848c0 f   uafxcwd:winctrl6.obj
 0001:00083920       ?CreateDragImage@CHeaderCtrl@@QAEPAVCImageList@@H@Z 00484920 f   uafxcwd:winctrl6.obj
 0001:00083980       ?GetBitmapMargin@CHeaderCtrl@@QBEHXZ 00484980 f   uafxcwd:winctrl6.obj
 0001:000839d0       ?SetBitmapMargin@CHeaderCtrl@@QAEHH@Z 004849d0 f   uafxcwd:winctrl6.obj
 0001:00083a20       ?SetFilterChangeTimeout@CHeaderCtrl@@QAEHK@Z 00484a20 f   uafxcwd:winctrl6.obj
 0001:00083a70       ?EditFilter@CHeaderCtrl@@QAEHHH@Z 00484a70 f   uafxcwd:winctrl6.obj
 0001:00083ad0       ?ClearFilter@CHeaderCtrl@@QAEHH@Z 00484ad0 f   uafxcwd:winctrl6.obj
 0001:00083b20       ?ClearAllFilters@CHeaderCtrl@@QAEHXZ 00484b20 f   uafxcwd:winctrl6.obj
 0001:00083b70       ?GetItemDropDownRect@CHeaderCtrl@@QBEHHPAUtagRECT@@@Z 00484b70 f   uafxcwd:winctrl6.obj
 0001:00083bc0       ?GetOverflowRect@CHeaderCtrl@@QBEHPAUtagRECT@@@Z 00484bc0 f   uafxcwd:winctrl6.obj
 0001:00083c10       ?GetFocusedItem@CHeaderCtrl@@QBEHXZ 00484c10 f   uafxcwd:winctrl6.obj
 0001:00083c60       ?SetFocusedItem@CHeaderCtrl@@QAEHH@Z 00484c60 f   uafxcwd:winctrl6.obj
 0001:00083cb0       ??0CReBarCtrl@@QAE@XZ      00484cb0 f   uafxcwd:winctrl6.obj
 0001:00083ce0       ?GetBandCount@CReBarCtrl@@QBEIXZ 00484ce0 f   uafxcwd:winctrl6.obj
 0001:00083d30       ?GetBandInfo@CReBarCtrl@@QBEHIPAUtagREBARBANDINFOW@@@Z 00484d30 f   uafxcwd:winctrl6.obj
 0001:00083d80       ?GetBarHeight@CReBarCtrl@@QBEIXZ 00484d80 f   uafxcwd:winctrl6.obj
 0001:00083dd0       ?GetBarInfo@CReBarCtrl@@QBEHPAUtagREBARINFO@@@Z 00484dd0 f   uafxcwd:winctrl6.obj
 0001:00083e20       ?GetBkColor@CReBarCtrl@@QBEKXZ 00484e20 f   uafxcwd:winctrl6.obj
 0001:00083e70       ?GetDropTarget@CReBarCtrl@@QBEPAUIDropTarget@@XZ 00484e70 f   uafxcwd:winctrl6.obj
 0001:00083ec0       ?GetRect@CReBarCtrl@@QBEHIPAUtagRECT@@@Z 00484ec0 f   uafxcwd:winctrl6.obj
 0001:00083f10       ?GetRowCount@CReBarCtrl@@QBEIXZ 00484f10 f   uafxcwd:winctrl6.obj
 0001:00083f60       ?GetRowHeight@CReBarCtrl@@QBEII@Z 00484f60 f   uafxcwd:winctrl6.obj
 0001:00083fb0       ?GetTextColor@CReBarCtrl@@QBEKXZ 00484fb0 f   uafxcwd:winctrl6.obj
 0001:00084000       ?GetToolTips@CReBarCtrl@@QBEPAVCToolTipCtrl@@XZ 00485000 f   uafxcwd:winctrl6.obj
 0001:00084050       ?IDToIndex@CReBarCtrl@@QBEHI@Z 00485050 f   uafxcwd:winctrl6.obj
 0001:000840a0       ?SetBandInfo@CReBarCtrl@@QAEHIPAUtagREBARBANDINFOW@@@Z 004850a0 f   uafxcwd:winctrl6.obj
 0001:000840f0       ?SetBarInfo@CReBarCtrl@@QAEHPAUtagREBARINFO@@@Z 004850f0 f   uafxcwd:winctrl6.obj
 0001:00084140       ?SetBkColor@CReBarCtrl@@QAEKK@Z 00485140 f   uafxcwd:winctrl6.obj
 0001:00084190       ?SetOwner@CReBarCtrl@@QAEPAVCWnd@@PAV2@@Z 00485190 f   uafxcwd:winctrl6.obj
 0001:00084200       ?SetTextColor@CReBarCtrl@@QAEKK@Z 00485200 f   uafxcwd:winctrl6.obj
 0001:00084250       ?SetToolTips@CReBarCtrl@@QAEXPAVCToolTipCtrl@@@Z 00485250 f   uafxcwd:winctrl6.obj
 0001:000842a0       ?BeginDrag@CReBarCtrl@@QAEXIK@Z 004852a0 f   uafxcwd:winctrl6.obj
 0001:000842f0       ?DeleteBand@CReBarCtrl@@QAEHI@Z 004852f0 f   uafxcwd:winctrl6.obj
 0001:00084340       ?DragMove@CReBarCtrl@@QAEXK@Z 00485340 f   uafxcwd:winctrl6.obj
 0001:00084390       ?EndDrag@CReBarCtrl@@QAEXXZ 00485390 f   uafxcwd:winctrl6.obj
 0001:000843e0       ?HitTest@CReBarCtrl@@QAEHPAU_RB_HITTESTINFO@@@Z 004853e0 f   uafxcwd:winctrl6.obj
 0001:00084430       ?InsertBand@CReBarCtrl@@QAEHIPAUtagREBARBANDINFOW@@@Z 00485430 f   uafxcwd:winctrl6.obj
 0001:00084480       ?MaximizeBand@CReBarCtrl@@QAEXI@Z 00485480 f   uafxcwd:winctrl6.obj
 0001:000844d0       ?MinimizeBand@CReBarCtrl@@QAEXI@Z 004854d0 f   uafxcwd:winctrl6.obj
 0001:00084520       ?RestoreBand@CReBarCtrl@@QAEXI@Z 00485520 f   uafxcwd:winctrl6.obj
 0001:00084570       ?SizeToRect@CReBarCtrl@@QAEHAAVCRect@@@Z 00485570 f   uafxcwd:winctrl6.obj
 0001:000845c0       ?ShowBand@CReBarCtrl@@QAEHIH@Z 004855c0 f   uafxcwd:winctrl6.obj
 0001:00084610       ?GetBandBorders@CReBarCtrl@@QBEXIPAUtagRECT@@@Z 00485610 f   uafxcwd:winctrl6.obj
 0001:00084660       ?GetPalette@CReBarCtrl@@QBEPAVCPalette@@XZ 00485660 f   uafxcwd:winctrl6.obj
 0001:000846b0       ?SetPalette@CReBarCtrl@@QAEPAVCPalette@@PAUHPALETTE__@@@Z 004856b0 f   uafxcwd:winctrl6.obj
 0001:00084710       ?MoveBand@CReBarCtrl@@QAEHII@Z 00485710 f   uafxcwd:winctrl6.obj
 0001:00084760       ?PushChevron@CReBarCtrl@@QAEXIJ@Z 00485760 f   uafxcwd:winctrl6.obj
 0001:000847b0       ?SetBandWidth@CReBarCtrl@@QAEHIH@Z 004857b0 f   uafxcwd:winctrl6.obj
 0001:00084800       ?SetExtendedStyle@CReBarCtrl@@QAEKKK@Z 00485800 f   uafxcwd:winctrl6.obj
 0001:00084850       ?GetExtendedStyle@CReBarCtrl@@QBEKXZ 00485850 f   uafxcwd:winctrl6.obj
 0001:000848a0       ?SetDelayTime@CToolTipCtrl@@QAEXI@Z 004858a0 f   uafxcwd:winctrl6.obj
 0001:000848f0       ?GetDelayTime@CToolTipCtrl@@QBEHK@Z 004858f0 f   uafxcwd:winctrl6.obj
 0001:00084940       ?GetMargin@CToolTipCtrl@@QBEXPAUtagRECT@@@Z 00485940 f   uafxcwd:winctrl6.obj
 0001:00084990       ?GetMaxTipWidth@CToolTipCtrl@@QBEHXZ 00485990 f   uafxcwd:winctrl6.obj
 0001:000849e0       ?GetTipBkColor@CToolTipCtrl@@QBEKXZ 004859e0 f   uafxcwd:winctrl6.obj
 0001:00084a30       ?GetTipTextColor@CToolTipCtrl@@QBEKXZ 00485a30 f   uafxcwd:winctrl6.obj
 0001:00084a80       ?Pop@CToolTipCtrl@@QAEXXZ  00485a80 f   uafxcwd:winctrl6.obj
 0001:00084ad0       ?SetDelayTime@CToolTipCtrl@@QAEXKH@Z 00485ad0 f   uafxcwd:winctrl6.obj
 0001:00084b30       ?SetMargin@CToolTipCtrl@@QAEXPAUtagRECT@@@Z 00485b30 f   uafxcwd:winctrl6.obj
 0001:00084b80       ?SetMaxTipWidth@CToolTipCtrl@@QAEHH@Z 00485b80 f   uafxcwd:winctrl6.obj
 0001:00084bd0       ?SetTipBkColor@CToolTipCtrl@@QAEXK@Z 00485bd0 f   uafxcwd:winctrl6.obj
 0001:00084c20       ?SetTipTextColor@CToolTipCtrl@@QAEXK@Z 00485c20 f   uafxcwd:winctrl6.obj
 0001:00084c70       ?Update@CToolTipCtrl@@QAEXXZ 00485c70 f   uafxcwd:winctrl6.obj
 0001:00084cc0       ?GetCurrentTool@CToolTipCtrl@@QBEHPAUtagTOOLINFOW@@@Z 00485cc0 f   uafxcwd:winctrl6.obj
 0001:00084d10       ?GetBubbleSize@CToolTipCtrl@@QBE?AVCSize@@PAUtagTOOLINFOW@@@Z 00485d10 f   uafxcwd:winctrl6.obj
 0001:00084d70       ?AdjustRect@CToolTipCtrl@@QAEHPAUtagRECT@@H@Z 00485d70 f   uafxcwd:winctrl6.obj
 0001:00084dc0       ?SetTitle@CToolTipCtrl@@QAEHIPB_W@Z 00485dc0 f   uafxcwd:winctrl6.obj
 0001:00084e10       ?Popup@CToolTipCtrl@@QAEXXZ 00485e10 f   uafxcwd:winctrl6.obj
 0001:00084e60       ?GetTitle@CToolTipCtrl@@QBEXPAU_TTGETTITLE@@@Z 00485e60 f   uafxcwd:winctrl6.obj
 0001:00084eb0       ??0CComboBoxEx@@QAE@XZ     00485eb0 f   uafxcwd:winctrl6.obj
 0001:00084ee0       ?GetExtendedStyle@CComboBoxEx@@QBEKXZ 00485ee0 f   uafxcwd:winctrl6.obj
 0001:00084f30       ?SetExtendedStyle@CComboBoxEx@@QAEKKK@Z 00485f30 f   uafxcwd:winctrl6.obj
 0001:00084f80       ?HasEditChanged@CComboBoxEx@@QAEHXZ 00485f80 f   uafxcwd:winctrl6.obj
 0001:00084fd0       ?GetEditCtrl@CComboBoxEx@@QBEPAVCEdit@@XZ 00485fd0 f   uafxcwd:winctrl6.obj
 0001:00085020       ?GetComboBoxCtrl@CComboBoxEx@@QBEPAVCComboBox@@XZ 00486020 f   uafxcwd:winctrl6.obj
 0001:00085070       ?SetImageList@CComboBoxEx@@QAEPAVCImageList@@PAV2@@Z 00486070 f   uafxcwd:winctrl6.obj
 0001:000850d0       ?GetImageList@CComboBoxEx@@QBEPAVCImageList@@XZ 004860d0 f   uafxcwd:winctrl6.obj
 0001:00085120       ?Dir@CComboBoxEx@@QAEHIPB_W@Z 00486120 f   uafxcwd:winctrl6.obj
 0001:00085150       ?FindString@CComboBoxEx@@QBEHHPB_W@Z 00486150 f   uafxcwd:winctrl6.obj
 0001:00085180       ?AddString@CComboBoxEx@@QAEHPB_W@Z 00486180 f   uafxcwd:winctrl6.obj
 0001:000851b0       ?SetEditSel@CComboBoxEx@@QAEHHH@Z 004861b0 f   uafxcwd:winctrl6.obj
 0001:000851e0       ?InsertString@CComboBoxEx@@QAEHHPB_W@Z 004861e0 f   uafxcwd:winctrl6.obj
 0001:00085210       ?SetPos@CProgressCtrl@@QAEHH@Z 00486210 f   uafxcwd:winctrl6.obj
 0001:00085260       ?SetBarColor@CProgressCtrl@@QAEKK@Z 00486260 f   uafxcwd:winctrl6.obj
 0001:000852b0       ?SetMarquee@CProgressCtrl@@QAEHHH@Z 004862b0 f   uafxcwd:winctrl6.obj
 0001:00085300       ?GetStep@CProgressCtrl@@QBEHXZ 00486300 f   uafxcwd:winctrl6.obj
 0001:00085350       ?GetBkColor@CProgressCtrl@@QBEKXZ 00486350 f   uafxcwd:winctrl6.obj
 0001:000853a0       ?GetBarColor@CProgressCtrl@@QBEKXZ 004863a0 f   uafxcwd:winctrl6.obj
 0001:000853f0       ?SetState@CProgressCtrl@@QAEHH@Z 004863f0 f   uafxcwd:winctrl6.obj
 0001:00085440       ?GetState@CProgressCtrl@@QBEHXZ 00486440 f   uafxcwd:winctrl6.obj
 0001:00085490       ??0CIPAddressCtrl@@QAE@XZ  00486490 f   uafxcwd:winctrl6.obj
 0001:000854c0       ?ClearAddress@CIPAddressCtrl@@QAEXXZ 004864c0 f   uafxcwd:winctrl6.obj
 0001:00085510       ?IsBlank@CIPAddressCtrl@@QBEHXZ 00486510 f   uafxcwd:winctrl6.obj
 0001:00085560       ?GetAddress@CIPAddressCtrl@@QBEHAAK@Z 00486560 f   uafxcwd:winctrl6.obj
 0001:000855b0       ?SetAddress@CIPAddressCtrl@@QAEXK@Z 004865b0 f   uafxcwd:winctrl6.obj
 0001:00085600       ?SetAddress@CIPAddressCtrl@@QAEXEEEE@Z 00486600 f   uafxcwd:winctrl6.obj
 0001:00085670       ?SetFieldFocus@CIPAddressCtrl@@QAEXG@Z 00486670 f   uafxcwd:winctrl6.obj
 0001:000856c0       ?SetFieldRange@CIPAddressCtrl@@QAEXHEE@Z 004866c0 f   uafxcwd:winctrl6.obj
 0001:00085720       ?SetImageCount@CImageList@@QAEHI@Z 00486720 f   uafxcwd:winctrl6.obj
 0001:00085760       ?Copy@CImageList@@QAEHHHI@Z 00486760 f   uafxcwd:winctrl6.obj
 0001:000857b0       ?Copy@CImageList@@QAEHHPAV1@HI@Z 004867b0 f   uafxcwd:winctrl6.obj
 0001:00085830       ?GetRuntimeClass@CIPAddressCtrl@@UBEPAUCRuntimeClass@@XZ 00486830 f   uafxcwd:winctrl6.obj
 0001:00085850       ?GetRuntimeClass@CReBarCtrl@@UBEPAUCRuntimeClass@@XZ 00486850 f   uafxcwd:winctrl6.obj
 0001:00085870       ?GetRuntimeClass@CPagerCtrl@@UBEPAUCRuntimeClass@@XZ 00486870 f   uafxcwd:winctrl6.obj
 0001:00085890       ?GetRuntimeClass@CLinkCtrl@@UBEPAUCRuntimeClass@@XZ 00486890 f   uafxcwd:winctrl6.obj
 0001:000858b0       ?GetRuntimeClass@CNetAddressCtrl@@UBEPAUCRuntimeClass@@XZ 004868b0 f   uafxcwd:winctrl6.obj
 0001:000858d0       ?AfxImageList_SetImageCount@@YGHPAU_IMAGELIST@@I@Z 004868d0 f i uafxcwd:winctrl6.obj
 0001:000858f0       ?_ImageList_SetImageCount@CComCtlWrapper@@QAEHPAU_IMAGELIST@@I@Z 004868f0 f i uafxcwd:winctrl6.obj
 0001:00085a30       ??BImageList_SetImageCount_Type@CComCtlWrapper@@QAEP6GHPAU_IMAGELIST@@I@ZXZ 00486a30 f i uafxcwd:winctrl6.obj
 0001:00085a50       ?GetProcAddress_ImageList_SetImageCount@CComCtlWrapper@@QAE?AUImageList_SetImageCount_Type@1@XZ 00486a50 f i uafxcwd:winctrl6.obj
 0001:00085aa0       ??4ImageList_SetImageCount_Type@CComCtlWrapper@@QAEXP6GHPAU_IMAGELIST@@I@Z@Z 00486aa0 f i uafxcwd:winctrl6.obj
 0001:00085ac0       ??7ImageList_SetImageCount_Type@CComCtlWrapper@@QBE_NXZ 00486ac0 f i uafxcwd:winctrl6.obj
 0001:00085ae0       ?AfxImageList_Copy@@YGHPAU_IMAGELIST@@H0HI@Z 00486ae0 f i uafxcwd:winctrl6.obj
 0001:00085b10       ?_ImageList_Copy@CComCtlWrapper@@QAEHPAU_IMAGELIST@@H0HI@Z 00486b10 f i uafxcwd:winctrl6.obj
 0001:00085c60       ??BImageList_Copy_Type@CComCtlWrapper@@QAEP6GHPAU_IMAGELIST@@H0HI@ZXZ 00486c60 f i uafxcwd:winctrl6.obj
 0001:00085c80       ?GetProcAddress_ImageList_Copy@CComCtlWrapper@@QAE?AUImageList_Copy_Type@1@XZ 00486c80 f i uafxcwd:winctrl6.obj
 0001:00085cd0       ??4ImageList_Copy_Type@CComCtlWrapper@@QAEXP6GHPAU_IMAGELIST@@H0HI@Z@Z 00486cd0 f i uafxcwd:winctrl6.obj
 0001:00085cf0       ??7ImageList_Copy_Type@CComCtlWrapper@@QBE_NXZ 00486cf0 f i uafxcwd:winctrl6.obj
 0001:00085d10       ??0CFileFind@@QAE@XZ       00486d10 f   uafxcwd:filefind.obj
 0001:00085d70       ??_GCFileFind@@UAEPAXI@Z   00486d70 f i uafxcwd:filefind.obj
 0001:00085d70       ??_ECFileFind@@UAEPAXI@Z   00486d70 f i uafxcwd:filefind.obj
 0001:00085da0       ??1CFileFind@@UAE@XZ       00486da0 f   uafxcwd:filefind.obj
 0001:00085e10       ?Close@CFileFind@@QAEXXZ   00486e10 f   uafxcwd:filefind.obj
 0001:00085ea0       ?CloseContext@CFileFind@@MAEXXZ 00486ea0 f   uafxcwd:filefind.obj
 0001:00085ec0       ?FindFile@CFileFind@@UAEHPB_WK@Z 00486ec0 f   uafxcwd:filefind.obj
 0001:00086090       ?MatchesMask@CFileFind@@UBEHK@Z 00487090 f   uafxcwd:filefind.obj
 0001:000860f0       ?GetLastAccessTime@CFileFind@@UBEHPAU_FILETIME@@@Z 004870f0 f   uafxcwd:filefind.obj
 0001:00086170       ?GetLastWriteTime@CFileFind@@UBEHPAU_FILETIME@@@Z 00487170 f   uafxcwd:filefind.obj
 0001:00086200       ?GetCreationTime@CFileFind@@UBEHPAU_FILETIME@@@Z 00487200 f   uafxcwd:filefind.obj
 0001:00086270       ?GetLastAccessTime@CFileFind@@UBEHAAVCTime@ATL@@@Z 00487270 f   uafxcwd:filefind.obj
 0001:00086310       ?GetLastWriteTime@CFileFind@@UBEHAAVCTime@ATL@@@Z 00487310 f   uafxcwd:filefind.obj
 0001:000863b0       ?GetCreationTime@CFileFind@@UBEHAAVCTime@ATL@@@Z 004873b0 f   uafxcwd:filefind.obj
 0001:00086450       ?IsDots@CFileFind@@UBEHXZ  00487450 f   uafxcwd:filefind.obj
 0001:000864f0       ?FindNextFileW@CFileFind@@UAEHXZ 004874f0 f   uafxcwd:filefind.obj
 0001:00086590       ?GetFileURL@CFileFind@@UBE?AV?$CStringT@_WV?$StrTraitMFC@_WV?$ChTraitsCRT@_W@ATL@@@@@ATL@@XZ 00487590 f   uafxcwd:filefind.obj
 0001:00086680       ?GetRoot@CFileFind@@UBE?AV?$CStringT@_WV?$StrTraitMFC@_WV?$ChTraitsCRT@_W@ATL@@@@@ATL@@XZ 00487680 f   uafxcwd:filefind.obj
 0001:000866f0       ?GetFilePath@CFileFind@@UBE?AV?$CStringT@_WV?$StrTraitMFC@_WV?$ChTraitsCRT@_W@ATL@@@@@ATL@@XZ 004876f0 f   uafxcwd:filefind.obj
 0001:00086860       ?GetFileTitle@CFileFind@@UBE?AV?$CStringT@_WV?$StrTraitMFC@_WV?$ChTraitsCRT@_W@ATL@@@@@ATL@@XZ 00487860 f   uafxcwd:filefind.obj
 0001:00086970       ?GetFileName@CFileFind@@UBE?AV?$CStringT@_WV?$StrTraitMFC@_WV?$ChTraitsCRT@_W@ATL@@@@@ATL@@XZ 00487970 f   uafxcwd:filefind.obj
 0001:00086a40       ?GetLength@CFileFind@@QBE_KXZ 00487a40 f   uafxcwd:filefind.obj
 0001:00086ac0       ?Dump@CFileFind@@MBEXAAVCDumpContext@@@Z 00487ac0 f   uafxcwd:filefind.obj
 0001:00086b00       ?AssertValid@CFileFind@@MBEXXZ 00487b00 f   uafxcwd:filefind.obj
 0001:00086b70       ?GetRuntimeClass@CFileFind@@UBEPAUCRuntimeClass@@XZ 00487b70 f   uafxcwd:filefind.obj
 0001:00086b90       __wcsdec                   00487b90 f i uafxcwd:filefind.obj
 0001:00086bc0       ?tsplitpath_s@Checked@ATL@@YAXPB_WPA_WI1I1I1I@Z 00487bc0 f i uafxcwd:filefind.obj
 0001:00086c00       ?tmakepath_s@Checked@ATL@@YAXPA_WIPB_W111@Z 00487c00 f i uafxcwd:filefind.obj
 0001:00086c30       ??0?$CStringT@_WV?$StrTraitMFC@_WV?$ChTraitsCRT@_W@ATL@@@@@ATL@@QAE@PBD@Z 00487c30 f i uafxcwd:filefind.obj
 0001:00086cb0       ??Y?$CStringT@_WV?$StrTraitMFC@_WV?$ChTraitsCRT@_W@ATL@@@@@ATL@@QAEAAV01@_W@Z 00487cb0 f i uafxcwd:filefind.obj
 0001:00086cd0       ??Y?$CSimpleStringT@_W$0A@@ATL@@QAEAAV01@_W@Z 00487cd0 f i uafxcwd:filefind.obj
 0001:00086cf0       ?AfxLoadString@@YGHIPADI@Z 00487cf0 f   uafxcwd:winstr.obj
 0001:00086db0       ?AfxLoadString@@YGHIPA_WI@Z 00487db0 f   uafxcwd:winstr.obj
 0001:00086ea0       ?AfxFindStringResourceHandle@@YGPAUHINSTANCE__@@I@Z 00487ea0 f   uafxcwd:winstr.obj
 0001:00086eb0       ?AfxExtractSubString@@YGHAAV?$CStringT@_WV?$StrTraitMFC@_WV?$ChTraitsCRT@_W@ATL@@@@@ATL@@PB_WH_W@Z 00487eb0 f   uafxcwd:winstr.obj
 0001:00086fa0       ?AfxIsValidString@@YGHPB_WH@Z 00487fa0 f   uafxcwd:validadd.obj
 0001:00086fc0       ?AfxIsValidString@@YGHPBDH@Z 00487fc0 f   uafxcwd:validadd.obj
 0001:00086fe0       ?AfxIsValidAddress@@YGHPBXIH@Z 00487fe0 f   uafxcwd:validadd.obj
 0001:00087000       ?AfxIsValidAtom@@YAHG@Z    00488000 f   uafxcwd:validadd.obj
 0001:000870c0       ?AfxIsValidAtom@@YAHPB_W@Z 004880c0 f   uafxcwd:validadd.obj
 0001:00087110       ?AtlIsValidString@ATL@@YAHPBDI@Z 00488110 f i uafxcwd:validadd.obj
 0001:00087120       ?AfxReadStringLength@@YGIAAVCArchive@@AAH@Z 00488120 f   uafxcwd:arccore.obj
 0001:00087200       ?AfxWriteStringLength@@YGXAAVCArchive@@IH@Z 00488200 f   uafxcwd:arccore.obj
 0001:000872d0       ?CreateObject@CRuntimeClass@@SGPAVCObject@@PBD@Z 004882d0 f   uafxcwd:arccore.obj
 0001:00087370       ?CreateObject@CRuntimeClass@@SGPAVCObject@@PB_W@Z 00488370 f   uafxcwd:arccore.obj
 0001:00087400       ?FromName@CRuntimeClass@@SGPAU1@PBD@Z 00488400 f   uafxcwd:arccore.obj
 0001:000874b0       ?FromName@CRuntimeClass@@SGPAU1@PB_W@Z 004884b0 f   uafxcwd:arccore.obj
 0001:00087540       ?Load@CRuntimeClass@@SGPAU1@AAVCArchive@@PAI@Z 00488540 f   uafxcwd:arccore.obj
 0001:00087610       ?Store@CRuntimeClass@@QBEXAAVCArchive@@@Z 00488610 f   uafxcwd:arccore.obj
 0001:00087660       ??0CArchive@@QAE@PAVCFile@@IHPAX@Z 00488660 f   uafxcwd:arccore.obj
 0001:00087910       ??1CArchive@@QAE@XZ        00488910 f   uafxcwd:arccore.obj
 0001:00087990       ?Abort@CArchive@@QAEXXZ    00488990 f   uafxcwd:arccore.obj
 0001:00087b80       ?Close@CArchive@@QAEXXZ    00488b80 f   uafxcwd:arccore.obj
 0001:00087bc0       ?Read@CArchive@@QAEIPAXI@Z 00488bc0 f   uafxcwd:arccore.obj
 0001:00088020       ?Write@CArchive@@QAEXPBXI@Z 00489020 f   uafxcwd:arccore.obj
 0001:00088390       ?Flush@CArchive@@QAEXXZ    00489390 f   uafxcwd:arccore.obj
 0001:000885d0       ?FillBuffer@CArchive@@QAEXI@Z 004895d0 f   uafxcwd:arccore.obj
 0001:00088950       ?WriteCount@CArchive@@QAEXK@Z 00489950 f   uafxcwd:arccore.obj
 0001:00088990       ?ReadCount@CArchive@@QAEKXZ 00489990 f   uafxcwd:arccore.obj
 0001:000889d0       ?WriteString@CArchive@@QAEXPB_W@Z 004899d0 f   uafxcwd:arccore.obj
 0001:00088a20       ?ReadString@CArchive@@QAEPA_WPA_WI@Z 00489a20 f   uafxcwd:arccore.obj
 0001:00088be0       ?ReadString@CArchive@@QAEHAAV?$CStringT@_WV?$StrTraitMFC@_WV?$ChTraitsCRT@_W@ATL@@@@@ATL@@@Z 00489be0 f   uafxcwd:arccore.obj
 0001:00088cd0       ?OutputString@CDumpContext@@IAEXPB_W@Z 00489cd0 f   uafxcwd:dumpcont.obj
 0001:00088d60       ??0CDumpContext@@QAE@PAVCFile@@@Z 00489d60 f   uafxcwd:dumpcont.obj
 0001:00088da0       ?Flush@CDumpContext@@QAEXXZ 00489da0 f   uafxcwd:dumpcont.obj
 0001:00088dd0       ??6CDumpContext@@QAEAAV0@PB_W@Z 00489dd0 f   uafxcwd:dumpcont.obj
 0001:00088f20       ??6CDumpContext@@QAEAAV0@E@Z 00489f20 f   uafxcwd:dumpcont.obj
 0001:00088f70       ?DumpAsHex@CDumpContext@@QAEAAV1@E@Z 00489f70 f   uafxcwd:dumpcont.obj
 0001:00088fc0       ??6CDumpContext@@QAEAAV0@G@Z 00489fc0 f   uafxcwd:dumpcont.obj
 0001:00089010       ?DumpAsHex@CDumpContext@@QAEAAV1@G@Z 0048a010 f   uafxcwd:dumpcont.obj
 0001:00089060       ??6CDumpContext@@QAEAAV0@I@Z 0048a060 f   uafxcwd:dumpcont.obj
 0001:000890b0       ??6CDumpContext@@QAEAAV0@J@Z 0048a0b0 f   uafxcwd:dumpcont.obj
 0001:00089100       ??6CDumpContext@@QAEAAV0@K@Z 0048a100 f   uafxcwd:dumpcont.obj
 0001:00089150       ??6CDumpContext@@QAEAAV0@H@Z 0048a150 f   uafxcwd:dumpcont.obj
 0001:000891a0       ?DumpAsHex@CDumpContext@@QAEAAV1@I@Z 0048a1a0 f   uafxcwd:dumpcont.obj
 0001:000891f0       ?DumpAsHex@CDumpContext@@QAEAAV1@J@Z 0048a1f0 f   uafxcwd:dumpcont.obj
 0001:00089240       ?DumpAsHex@CDumpContext@@QAEAAV1@K@Z 0048a240 f   uafxcwd:dumpcont.obj
 0001:00089290       ?DumpAsHex@CDumpContext@@QAEAAV1@H@Z 0048a290 f   uafxcwd:dumpcont.obj
 0001:000892e0       ??6CDumpContext@@QAEAAV0@_J@Z 0048a2e0 f   uafxcwd:dumpcont.obj
 0001:00089330       ??6CDumpContext@@QAEAAV0@_K@Z 0048a330 f   uafxcwd:dumpcont.obj
 0001:00089380       ?DumpAsHex@CDumpContext@@QAEAAV1@_J@Z 0048a380 f   uafxcwd:dumpcont.obj
 0001:000893d0       ?DumpAsHex@CDumpContext@@QAEAAV1@_K@Z 0048a3d0 f   uafxcwd:dumpcont.obj
 0001:00089420       ??6CDumpContext@@QAEAAV0@PBVCObject@@@Z 0048a420 f   uafxcwd:dumpcont.obj
 0001:00089460       ??6CDumpContext@@QAEAAV0@ABVCObject@@@Z 0048a460 f   uafxcwd:dumpcont.obj
 0001:00089480       ??6CDumpContext@@QAEAAV0@PBX@Z 0048a480 f   uafxcwd:dumpcont.obj
 0001:000894d0       ??6CDumpContext@@QAEAAV0@PAUHWND__@@@Z 0048a4d0 f   uafxcwd:dumpcont.obj
 0001:000894f0       ??6CDumpContext@@QAEAAV0@PAUHDC__@@@Z 0048a4f0 f   uafxcwd:dumpcont.obj
 0001:00089510       ??6CDumpContext@@QAEAAV0@PAUHMENU__@@@Z 0048a510 f   uafxcwd:dumpcont.obj
 0001:00089530       ??6CDumpContext@@QAEAAV0@PAUHACCEL__@@@Z 0048a530 f   uafxcwd:dumpcont.obj
 0001:00089550       ??6CDumpContext@@QAEAAV0@PAUHFONT__@@@Z 0048a550 f   uafxcwd:dumpcont.obj
 0001:00089570       ?HexDump@CDumpContext@@QAEXPB_WPAEHH@Z 0048a570 f   uafxcwd:dumpcont.obj
 0001:00089700       ??6CDumpContext@@QAEAAV0@PBD@Z 0048a700 f   uafxcwd:dumpcont.obj
 0001:00089780       ?_mbstowcsz@ATL@@YAHPA_WPBDK@Z 0048a780 f i uafxcwd:dumpcont.obj
 0001:00089840       ?Create@CPlex@@SGPAU1@AAPAU1@II@Z 0048a840 f   uafxcwd:plex.obj
 0001:000898c0       ?FreeDataChain@CPlex@@QAEXXZ 0048a8c0 f   uafxcwd:plex.obj
 0001:00089910       ??0CFileDialog@@QAE@HPB_W0K0PAVCWnd@@KH@Z 0048a910 f   uafxcwd:dlgfile.obj
 0001:00089ea0       ??_ECFileDialog@@UAEPAXI@Z 0048aea0 f i uafxcwd:dlgfile.obj
 0001:00089ea0       ??_GCFileDialog@@UAEPAXI@Z 0048aea0 f i uafxcwd:dlgfile.obj
 0001:00089ed0       ??0XFileDialogEvents@CFileDialog@@QAE@XZ 0048aed0 f i uafxcwd:dlgfile.obj
 0001:00089f00       ??0XFileDialogControlEvents@CFileDialog@@QAE@XZ 0048af00 f i uafxcwd:dlgfile.obj
 0001:00089f30       ??0IFileDialogEvents@@QAE@XZ 0048af30 f i uafxcwd:dlgfile.obj
 0001:00089f50       ??0IFileDialogControlEvents@@QAE@XZ 0048af50 f i uafxcwd:dlgfile.obj
 0001:00089f70       ??1CFileDialog@@UAE@XZ     0048af70 f   uafxcwd:dlgfile.obj
 0001:0008a0d0       ?GetOFN@CFileDialog@@QBEABUtagOFNW@@XZ 0048b0d0 f   uafxcwd:dlgfile.obj
 0001:0008a0f0       ?GetOFN@CFileDialog@@QAEAAUtagOFNW@@XZ 0048b0f0 f   uafxcwd:dlgfile.obj
 0001:0008a110       ?UpdateOFNFromShellDialog@CFileDialog@@QAEXXZ 0048b110 f   uafxcwd:dlgfile.obj
 0001:0008a6b0       ?ApplyOFNToShellDialog@CFileDialog@@QAEXXZ 0048b6b0 f   uafxcwd:dlgfile.obj
 0001:0008b350       ?GetIFileOpenDialog@CFileDialog@@QAEPAUIFileOpenDialog@@XZ 0048c350 f   uafxcwd:dlgfile.obj
 0001:0008b3c0       ?GetIFileSaveDialog@CFileDialog@@QAEPAUIFileSaveDialog@@XZ 0048c3c0 f   uafxcwd:dlgfile.obj
 0001:0008b430       ?GetIFileDialogCustomize@CFileDialog@@QAEPAUIFileDialogCustomize@@XZ 0048c430 f   uafxcwd:dlgfile.obj
 0001:0008b4a0       ?GetInterfaceMap@CFileDialog@@MBEPBUAFX_INTERFACEMAP@@XZ 0048c4a0 f   uafxcwd:dlgfile.obj
 0001:0008b4c0       ?AddRef@XFileDialogEvents@CFileDialog@@UAGKXZ 0048c4c0 f   uafxcwd:dlgfile.obj
 0001:0008b510       ?Release@XFileDialogEvents@CFileDialog@@UAGKXZ 0048c510 f   uafxcwd:dlgfile.obj
 0001:0008b560       ?QueryInterface@XFileDialogEvents@CFileDialog@@UAGJABU_GUID@@PAPAX@Z 0048c560 f   uafxcwd:dlgfile.obj
 0001:0008b5b0       ?OnFileOk@XFileDialogEvents@CFileDialog@@UAGJPAUIFileDialog@@@Z 0048c5b0 f   uafxcwd:dlgfile.obj
 0001:0008b610       ?OnFolderChange@XFileDialogEvents@CFileDialog@@UAGJPAUIFileDialog@@@Z 0048c610 f   uafxcwd:dlgfile.obj
 0001:0008b660       ?OnFolderChanging@XFileDialogEvents@CFileDialog@@UAGJPAUIFileDialog@@PAUIShellItem@@@Z 0048c660 f   uafxcwd:dlgfile.obj
 0001:0008b6a0       ?OnHelp@XFileDialogEvents@CFileDialog@@UAGJPAUIFileDialog@@@Z 0048c6a0 f   uafxcwd:dlgfile.obj
 0001:0008b6e0       ?OnSelectionChange@XFileDialogEvents@CFileDialog@@UAGJPAUIFileDialog@@@Z 0048c6e0 f   uafxcwd:dlgfile.obj
 0001:0008b730       ?OnTypeChange@XFileDialogEvents@CFileDialog@@UAGJPAUIFileDialog@@@Z 0048c730 f   uafxcwd:dlgfile.obj
 0001:0008b7c0       ?OnOverwrite@XFileDialogEvents@CFileDialog@@UAGJPAUIFileDialog@@PAUIShellItem@@PAW4tagFDE_OVERWRITE_RESPONSE@@@Z 0048c7c0 f   uafxcwd:dlgfile.obj
 0001:0008b800       ?OnShareViolation@XFileDialogEvents@CFileDialog@@UAGJPAUIFileDialog@@PAUIShellItem@@PAW4tagFDE_SHAREVIOLATION_RESPONSE@@@Z 0048c800 f   uafxcwd:dlgfile.obj
 0001:0008b970       ?AddRef@XFileDialogControlEvents@CFileDialog@@UAGKXZ 0048c970 f   uafxcwd:dlgfile.obj
 0001:0008b9c0       ?Release@XFileDialogControlEvents@CFileDialog@@UAGKXZ 0048c9c0 f   uafxcwd:dlgfile.obj
 0001:0008ba10       ?QueryInterface@XFileDialogControlEvents@CFileDialog@@UAGJABU_GUID@@PAPAX@Z 0048ca10 f   uafxcwd:dlgfile.obj
 0001:0008ba90       ?OnItemSelected@XFileDialogControlEvents@CFileDialog@@UAGJPAUIFileDialogCustomize@@KK@Z 0048ca90 f   uafxcwd:dlgfile.obj
 0001:0008bad0       ?OnButtonClicked@XFileDialogControlEvents@CFileDialog@@UAGJPAUIFileDialogCustomize@@K@Z 0048cad0 f   uafxcwd:dlgfile.obj
 0001:0008bb10       ?OnCheckButtonToggled@XFileDialogControlEvents@CFileDialog@@UAGJPAUIFileDialogCustomize@@KH@Z 0048cb10 f   uafxcwd:dlgfile.obj
 0001:0008bb50       ?OnControlActivating@XFileDialogControlEvents@CFileDialog@@UAGJPAUIFileDialogCustomize@@K@Z 0048cb50 f   uafxcwd:dlgfile.obj
 0001:0008bb90       ?DoModal@CFileDialog@@UAEHXZ 0048cb90 f   uafxcwd:dlgfile.obj
 0001:0008be70       ?GetPathName@CFileDialog@@QBE?AV?$CStringT@_WV?$StrTraitMFC@_WV?$ChTraitsCRT@_W@ATL@@@@@ATL@@XZ 0048ce70 f   uafxcwd:dlgfile.obj
 0001:0008c130       ?GetFileName@CFileDialog@@QBE?AV?$CStringT@_WV?$StrTraitMFC@_WV?$ChTraitsCRT@_W@ATL@@@@@ATL@@XZ 0048d130 f   uafxcwd:dlgfile.obj
 0001:0008c320       ?GetFileExt@CFileDialog@@QBE?AV?$CStringT@_WV?$StrTraitMFC@_WV?$ChTraitsCRT@_W@ATL@@@@@ATL@@XZ 0048d320 f   uafxcwd:dlgfile.obj
 0001:0008c670       ?GetFileTitle@CFileDialog@@QBE?AV?$CStringT@_WV?$StrTraitMFC@_WV?$ChTraitsCRT@_W@ATL@@@@@ATL@@XZ 0048d670 f   uafxcwd:dlgfile.obj
 0001:0008c710       ?GetNextPathName@CFileDialog@@QBE?AV?$CStringT@_WV?$StrTraitMFC@_WV?$ChTraitsCRT@_W@ATL@@@@@ATL@@AAPAU__POSITION@@@Z 0048d710 f   uafxcwd:dlgfile.obj
 0001:0008cbe0       __wcsinc                   0048dbe0 f i uafxcwd:dlgfile.obj
 0001:0008cbf0       ?SetTemplate@CFileDialog@@QAEXPB_W0@Z 0048dbf0 f   uafxcwd:dlgfile.obj
 0001:0008cc60       ?GetFolderPath@CFileDialog@@QBE?AV?$CStringT@_WV?$StrTraitMFC@_WV?$ChTraitsCRT@_W@ATL@@@@@ATL@@XZ 0048dc60 f   uafxcwd:dlgfile.obj
 0001:0008cdf0       ?SetControlText@CFileDialog@@QAEXHPB_W@Z 0048ddf0 f   uafxcwd:dlgfile.obj
 0001:0008ced0       ?SetControlText@CFileDialog@@QAEXHPBD@Z 0048ded0 f   uafxcwd:dlgfile.obj
 0001:0008d030       ?HideControl@CFileDialog@@QAEXH@Z 0048e030 f   uafxcwd:dlgfile.obj
 0001:0008d110       ?SetDefExt@CFileDialog@@QAEXPBD@Z 0048e110 f   uafxcwd:dlgfile.obj
 0001:0008d240       ?OnShareViolation@CFileDialog@@MAEIPB_W@Z 0048e240 f   uafxcwd:dlgfile.obj
 0001:0008d270       ?OnFileNameOK@CFileDialog@@MAEHXZ 0048e270 f   uafxcwd:dlgfile.obj
 0001:0008d2a0       ?OnLBSelChangedNotify@CFileDialog@@MAEXIII@Z 0048e2a0 f   uafxcwd:dlgfile.obj
 0001:0008d2d0       ?OnInitDone@CFileDialog@@MAEXXZ 0048e2d0 f   uafxcwd:dlgfile.obj
 0001:0008d310       ?OnFileNameChange@CFileDialog@@MAEXXZ 0048e310 f   uafxcwd:dlgfile.obj
 0001:0008d330       ?OnFolderChange@CFileDialog@@MAEXXZ 0048e330 f   uafxcwd:dlgfile.obj
 0001:0008d350       ?OnTypeChange@CFileDialog@@MAEXXZ 0048e350 f   uafxcwd:dlgfile.obj
 0001:0008d370       ?OnNotify@CFileDialog@@MAEHIJPAJ@Z 0048e370 f   uafxcwd:dlgfile.obj
 0001:0008d4e0       ?Dump@CFileDialog@@UBEXAAVCDumpContext@@@Z 0048e4e0 f   uafxcwd:dlgfile.obj
 0001:0008d830       ?GetRuntimeClass@CFileDialog@@UBEPAUCRuntimeClass@@XZ 0048e830 f   uafxcwd:dlgfile.obj
 0001:0008d850       ??$IID_PPV_ARGS_Helper@UIFileDialog@@@@YAPAPAXPAPAUIFileDialog@@@Z 0048e850 f i uafxcwd:dlgfile.obj
 0001:0008d860       ??$IID_PPV_ARGS_Helper@UIFileDialogCustomize@@@@YAPAPAXPAPAUIFileDialogCustomize@@@Z 0048e860 f i uafxcwd:dlgfile.obj
 0001:0008d870       ??$IID_PPV_ARGS_Helper@UIFileOpenDialog@@@@YAPAPAXPAPAUIFileOpenDialog@@@Z 0048e870 f i uafxcwd:dlgfile.obj
 0001:0008d880       ??$IID_PPV_ARGS_Helper@UIShellItem@@@@YAPAPAXPAPAUIShellItem@@@Z 0048e880 f i uafxcwd:dlgfile.obj
 0001:0008d890       ??$IID_PPV_ARGS_Helper@UIFileSaveDialog@@@@YAPAPAXPAPAUIFileSaveDialog@@@Z 0048e890 f i uafxcwd:dlgfile.obj
 0001:0008d8a0       ?AfxCtxLoadLibraryW@@YAPAUHINSTANCE__@@PB_W@Z 0048e8a0 f i uafxcwd:dlgfile.obj
 0001:0008d990       ??0CInterfacePlaceHolder@@QAE@XZ 0048e990 f i uafxcwd:dlgfile.obj
 0001:0008d9b0       ?AfxCtxGetOpenFileNameW@@YGHPAUtagOFNW@@@Z 0048e9b0 f i uafxcwd:dlgfile.obj
 0001:0008d9d0       ?_GetOpenFileNameW@CCommDlgWrapper@@QAEHPAUtagOFNW@@@Z 0048e9d0 f i uafxcwd:dlgfile.obj
 0001:0008db10       ??BGetOpenFileNameW_Type@CCommDlgWrapper@@QAEP6GHPAUtagOFNW@@@ZXZ 0048eb10 f i uafxcwd:dlgfile.obj
 0001:0008db30       ?GetProcAddress_GetOpenFileNameW@CCommDlgWrapper@@QAE?AUGetOpenFileNameW_Type@1@XZ 0048eb30 f i uafxcwd:dlgfile.obj
 0001:0008db80       ??4GetOpenFileNameW_Type@CCommDlgWrapper@@QAEXP6GHPAUtagOFNW@@@Z@Z 0048eb80 f i uafxcwd:dlgfile.obj
 0001:0008dba0       ??7GetOpenFileNameW_Type@CCommDlgWrapper@@QBE_NXZ 0048eba0 f i uafxcwd:dlgfile.obj
 0001:0008dbc0       ?AfxCtxGetSaveFileNameW@@YGHPAUtagOFNW@@@Z 0048ebc0 f i uafxcwd:dlgfile.obj
 0001:0008dbe0       ?_GetSaveFileNameW@CCommDlgWrapper@@QAEHPAUtagOFNW@@@Z 0048ebe0 f i uafxcwd:dlgfile.obj
 0001:0008dd20       ??BGetSaveFileNameW_Type@CCommDlgWrapper@@QAEP6GHPAUtagOFNW@@@ZXZ 0048ed20 f i uafxcwd:dlgfile.obj
 0001:0008dd40       ?GetProcAddress_GetSaveFileNameW@CCommDlgWrapper@@QAE?AUGetSaveFileNameW_Type@1@XZ 0048ed40 f i uafxcwd:dlgfile.obj
 0001:0008dd90       ??4GetSaveFileNameW_Type@CCommDlgWrapper@@QAEXP6GHPAUtagOFNW@@@Z@Z 0048ed90 f i uafxcwd:dlgfile.obj
 0001:0008ddb0       ??7GetSaveFileNameW_Type@CCommDlgWrapper@@QBE_NXZ 0048edb0 f i uafxcwd:dlgfile.obj
 0001:0008ddd0       ?GetMessageMap@CCommonDialog@@MBEPBUAFX_MSGMAP@@XZ 0048edd0 f   uafxcwd:dlgcomm.obj
 0001:0008ddf0       ?GetThisMessageMap@CCommonDialog@@KGPBUAFX_MSGMAP@@XZ 0048edf0 f   uafxcwd:dlgcomm.obj
 0001:0008de00       ?_AfxCommDlgProc@@YGIPAUHWND__@@IIJ@Z 0048ee00 f   uafxcwd:dlgcomm.obj
 0001:0008e130       ?OnOK@CCommonDialog@@MAEXXZ 0048f130 f   uafxcwd:dlgcomm.obj
 0001:0008e1a0       ?OnCancel@CCommonDialog@@MAEXXZ 0048f1a0 f   uafxcwd:dlgcomm.obj
 0001:0008e1d0       ?OnHelpInfo@CCommonDialog@@IAEHPAUtagHELPINFO@@@Z 0048f1d0 f   uafxcwd:dlgcomm.obj
 0001:0008e1f0       ?OnPaint@CCommonDialog@@IAEXXZ 0048f1f0 f   uafxcwd:dlgcomm.obj
 0001:0008e210       ?GetRuntimeClass@CCommonDialog@@UBEPAUCRuntimeClass@@XZ 0048f210 f   uafxcwd:dlgcomm.obj
 0001:0008e230       ??0AFX_MAINTAIN_STATE2@@QAE@PAVAFX_MODULE_STATE@@@Z 0048f230 f   uafxcwd:afxstate.obj
 0001:0008e280       ??0_AFX_THREAD_STATE@@QAE@XZ 0048f280 f   uafxcwd:afxstate.obj
 0001:0008e2f0       ??_E_AFX_THREAD_STATE@@UAEPAXI@Z 0048f2f0 f i uafxcwd:afxstate.obj
 0001:0008e2f0       ??_G_AFX_THREAD_STATE@@UAEPAXI@Z 0048f2f0 f i uafxcwd:afxstate.obj
 0001:0008e320       ??1_AFX_THREAD_STATE@@UAE@XZ 0048f320 f   uafxcwd:afxstate.obj
 0001:0008e3e0       ?AfxGetThreadState@@YGPAV_AFX_THREAD_STATE@@XZ 0048f3e0 f   uafxcwd:afxstate.obj
 0001:0008e440       ??0AFX_MODULE_STATE@@QAE@H@Z 0048f440 f   uafxcwd:afxstate.obj
 0001:0008e6d0       ??_EAFX_MODULE_STATE@@UAEPAXI@Z 0048f6d0 f i uafxcwd:afxstate.obj
 0001:0008e6d0       ??_GAFX_MODULE_STATE@@UAEPAXI@Z 0048f6d0 f i uafxcwd:afxstate.obj
 0001:0008e700       ??1?$CThreadLocal@VAFX_MODULE_THREAD_STATE@@@@QAE@XZ 0048f700 f i uafxcwd:afxstate.obj
 0001:0008e720       ?_AfxInitContextAPI@@YGXXZ 0048f720 f   uafxcwd:afxstate.obj
 0001:0008e7e0       ?AfxCreateActCtxW@@YGPAXPBUtagACTCTXW@@@Z 0048f7e0 f   uafxcwd:afxstate.obj
 0001:0008e820       ?AfxReleaseActCtx@@YGXPAX@Z 0048f820 f   uafxcwd:afxstate.obj
 0001:0008e840       ?AfxActivateActCtx@@YGHPAXPAK@Z 0048f840 f   uafxcwd:afxstate.obj
 0001:0008e880       ?AfxDeactivateActCtx@@YGHKK@Z 0048f880 f   uafxcwd:afxstate.obj
 0001:0008e8c0       ?AfxActivateActCtxWrapper@@YG?AW4eActCtxResult@@PAXPAK@Z 0048f8c0 f   uafxcwd:afxstate.obj
 0001:0008e940       ?CreateActivationContext@AFX_MODULE_STATE@@QAEXXZ 0048f940 f   uafxcwd:afxstate.obj
 0001:0008ea80       ??1AFX_MODULE_STATE@@UAE@XZ 0048fa80 f   uafxcwd:afxstate.obj
 0001:0008ec30       ?RemoveAll@CTypeLibCacheMap@@UAEXPAX@Z 0048fc30 f   uafxcwd:afxstate.obj
 0001:0008ecd0       ??0AFX_MODULE_THREAD_STATE@@QAE@XZ 0048fcd0 f   uafxcwd:afxstate.obj
 0001:0008ed70       ??_GAFX_MODULE_THREAD_STATE@@UAEPAXI@Z 0048fd70 f i uafxcwd:afxstate.obj
 0001:0008ed70       ??_EAFX_MODULE_THREAD_STATE@@UAEPAXI@Z 0048fd70 f i uafxcwd:afxstate.obj
 0001:0008eda0       ??1AFX_MODULE_THREAD_STATE@@UAE@XZ 0048fda0 f   uafxcwd:afxstate.obj
 0001:0008efe0       ?AfxGetAppModuleState@@YGPAVAFX_MODULE_STATE@@XZ 0048ffe0 f   uafxcwd:afxstate.obj
 0001:0008f000       ?AfxGetModuleState@@YGPAVAFX_MODULE_STATE@@XZ 00490000 f   uafxcwd:afxstate.obj
 0001:0008f0b0       ?AfxGetInstanceHandleHelper@@YGPAUHINSTANCE__@@XZ 004900b0 f   uafxcwd:afxstate.obj
 0001:0008f0c0       ?AfxIsModuleDll@@YGHXZ     004900c0 f   uafxcwd:afxstate.obj
 0001:0008f0d0       ?AfxInitCurrentStateApp@@YGHXZ 004900d0 f   uafxcwd:afxstate.obj
 0001:0008f120       ?AfxGetModuleThreadState@@YGPAVAFX_MODULE_THREAD_STATE@@XZ 00490120 f   uafxcwd:afxstate.obj
 0001:0008f180       ?Unlock@CTypeLibCache@@QAEXXZ 00490180 f   uafxcwd:afxstate.obj
 0001:0008f210       ?AfxSetPerUserRegistration@@YGXH@Z 00490210 f   uafxcwd:afxstate.obj
 0001:0008f230       ?AfxGetPerUserRegistration@@YGHXZ 00490230 f   uafxcwd:afxstate.obj
 0001:0008f240       ??0?$CTypedSimpleList@PAVCFrameWnd@@@@QAE@H@Z 00490240 f i uafxcwd:afxstate.obj
 0001:0008f260       ??0?$CTypedSimpleList@PAUCRuntimeClass@@@@QAE@H@Z 00490260 f i uafxcwd:afxstate.obj
 0001:0008f280       ??0?$CTypedSimpleList@PAVCOleObjectFactory@@@@QAE@H@Z 00490280 f i uafxcwd:afxstate.obj
 0001:0008f2a0       ??0?$CTypedSimpleList@PAVCOleControlLock@@@@QAE@H@Z 004902a0 f i uafxcwd:afxstate.obj
 0001:0008f2c0       ??B?$CThreadLocal@V_AFX_THREAD_STATE@@@@QAEPAV_AFX_THREAD_STATE@@XZ 004902c0 f i uafxcwd:afxstate.obj
 0001:0008f2e0       ?GetData@?$CProcessLocal@V_AFX_BASE_MODULE_STATE@@@@QAEPAV_AFX_BASE_MODULE_STATE@@XZ 004902e0 f i uafxcwd:afxstate.obj
 0001:0008f340       ?CreateObject@?$CProcessLocal@V_AFX_BASE_MODULE_STATE@@@@SGPAVCNoTrackObject@@XZ 00490340 f i uafxcwd:afxstate.obj
 0001:0008f3c0       ??0_AFX_BASE_MODULE_STATE@@QAE@XZ 004903c0 f i uafxcwd:afxstate.obj
 0001:0008f3f0       ??_E_AFX_BASE_MODULE_STATE@@UAEPAXI@Z 004903f0 f i uafxcwd:afxstate.obj
 0001:0008f3f0       ??_G_AFX_BASE_MODULE_STATE@@UAEPAXI@Z 004903f0 f i uafxcwd:afxstate.obj
 0001:0008f420       ??1_AFX_BASE_MODULE_STATE@@UAE@XZ 00490420 f i uafxcwd:afxstate.obj
 0001:0008f440       ??0CSimpleList@@QAE@H@Z    00490440 f i uafxcwd:afxstate.obj
 0001:0008f470       ?Construct@CSimpleList@@QAEXH@Z 00490470 f i uafxcwd:afxstate.obj
 0001:0008f4b0       ??0CTypeLibCache@@QAE@XZ   004904b0 f i uafxcwd:afxstate.obj
 0001:0008f4f0       ??0CComCtlWrapper@@QAE@XZ  004904f0 f i uafxcwd:afxstate.obj
 0001:0008fa40       ??0CDllIsolationWrapperBase@@QAE@ABV?$CStringT@_WV?$StrTraitMFC@_WV?$ChTraitsCRT@_W@ATL@@@@@ATL@@@Z 00490a40 f i uafxcwd:afxstate.obj
 0001:0008fac0       ?CommonConstruct@CDllIsolationWrapperBase@@QAEXXZ 00490ac0 f i uafxcwd:afxstate.obj
 0001:0008fae0       ??1CDllIsolationWrapperBase@@UAE@XZ 00490ae0 f i uafxcwd:afxstate.obj
 0001:0008fb30       ??_GCDllIsolationWrapperBase@@UAEPAXI@Z 00490b30 f i uafxcwd:afxstate.obj
 0001:0008fb30       ??_ECDllIsolationWrapperBase@@UAEPAXI@Z 00490b30 f i uafxcwd:afxstate.obj
 0001:0008fb60       ??0InitCommonControls_Type@CComCtlWrapper@@QAE@XZ 00490b60 f i uafxcwd:afxstate.obj
 0001:0008fb80       ??0InitCommonControlsEx_Type@CComCtlWrapper@@QAE@XZ 00490b80 f i uafxcwd:afxstate.obj
 0001:0008fba0       ??0ImageList_Create_Type@CComCtlWrapper@@QAE@XZ 00490ba0 f i uafxcwd:afxstate.obj
 0001:0008fbc0       ??0ImageList_Destroy_Type@CComCtlWrapper@@QAE@XZ 00490bc0 f i uafxcwd:afxstate.obj
 0001:0008fbe0       ??0ImageList_GetImageCount_Type@CComCtlWrapper@@QAE@XZ 00490be0 f i uafxcwd:afxstate.obj
 0001:0008fc00       ??0ImageList_SetImageCount_Type@CComCtlWrapper@@QAE@XZ 00490c00 f i uafxcwd:afxstate.obj
 0001:0008fc20       ??0ImageList_Add_Type@CComCtlWrapper@@QAE@XZ 00490c20 f i uafxcwd:afxstate.obj
 0001:0008fc40       ??0ImageList_ReplaceIcon_Type@CComCtlWrapper@@QAE@XZ 00490c40 f i uafxcwd:afxstate.obj
 0001:0008fc60       ??0ImageList_SetBkColor_Type@CComCtlWrapper@@QAE@XZ 00490c60 f i uafxcwd:afxstate.obj
 0001:0008fc80       ??0ImageList_GetBkColor_Type@CComCtlWrapper@@QAE@XZ 00490c80 f i uafxcwd:afxstate.obj
 0001:0008fca0       ??0ImageList_SetOverlayImage_Type@CComCtlWrapper@@QAE@XZ 00490ca0 f i uafxcwd:afxstate.obj
 0001:0008fcc0       ??0ImageList_Draw_Type@CComCtlWrapper@@QAE@XZ 00490cc0 f i uafxcwd:afxstate.obj
 0001:0008fce0       ??0ImageList_Replace_Type@CComCtlWrapper@@QAE@XZ 00490ce0 f i uafxcwd:afxstate.obj
 0001:0008fd00       ??0ImageList_AddMasked_Type@CComCtlWrapper@@QAE@XZ 00490d00 f i uafxcwd:afxstate.obj
 0001:0008fd20       ??0ImageList_DrawEx_Type@CComCtlWrapper@@QAE@XZ 00490d20 f i uafxcwd:afxstate.obj
 0001:0008fd40       ??0ImageList_DrawIndirect_Type@CComCtlWrapper@@QAE@XZ 00490d40 f i uafxcwd:afxstate.obj
 0001:0008fd60       ??0ImageList_Remove_Type@CComCtlWrapper@@QAE@XZ 00490d60 f i uafxcwd:afxstate.obj
 0001:0008fd80       ??0ImageList_GetIcon_Type@CComCtlWrapper@@QAE@XZ 00490d80 f i uafxcwd:afxstate.obj
 0001:0008fda0       ??0ImageList_LoadImageA_Type@CComCtlWrapper@@QAE@XZ 00490da0 f i uafxcwd:afxstate.obj
 0001:0008fdc0       ??0ImageList_LoadImageW_Type@CComCtlWrapper@@QAE@XZ 00490dc0 f i uafxcwd:afxstate.obj
 0001:0008fde0       ??0ImageList_Copy_Type@CComCtlWrapper@@QAE@XZ 00490de0 f i uafxcwd:afxstate.obj
 0001:0008fe00       ??0ImageList_BeginDrag_Type@CComCtlWrapper@@QAE@XZ 00490e00 f i uafxcwd:afxstate.obj
 0001:0008fe20       ??0ImageList_EndDrag_Type@CComCtlWrapper@@QAE@XZ 00490e20 f i uafxcwd:afxstate.obj
 0001:0008fe40       ??0ImageList_DragEnter_Type@CComCtlWrapper@@QAE@XZ 00490e40 f i uafxcwd:afxstate.obj
 0001:0008fe60       ??0ImageList_DragLeave_Type@CComCtlWrapper@@QAE@XZ 00490e60 f i uafxcwd:afxstate.obj
 0001:0008fe80       ??0ImageList_DragMove_Type@CComCtlWrapper@@QAE@XZ 00490e80 f i uafxcwd:afxstate.obj
 0001:0008fea0       ??0ImageList_SetDragCursorImage_Type@CComCtlWrapper@@QAE@XZ 00490ea0 f i uafxcwd:afxstate.obj
 0001:0008fec0       ??0ImageList_DragShowNolock_Type@CComCtlWrapper@@QAE@XZ 00490ec0 f i uafxcwd:afxstate.obj
 0001:0008fee0       ??0ImageList_GetDragImage_Type@CComCtlWrapper@@QAE@XZ 00490ee0 f i uafxcwd:afxstate.obj
 0001:0008ff00       ??0ImageList_Read_Type@CComCtlWrapper@@QAE@XZ 00490f00 f i uafxcwd:afxstate.obj
 0001:0008ff20       ??0ImageList_Write_Type@CComCtlWrapper@@QAE@XZ 00490f20 f i uafxcwd:afxstate.obj
 0001:0008ff40       ??0ImageList_ReadEx_Type@CComCtlWrapper@@QAE@XZ 00490f40 f i uafxcwd:afxstate.obj
 0001:0008ff60       ??0ImageList_WriteEx_Type@CComCtlWrapper@@QAE@XZ 00490f60 f i uafxcwd:afxstate.obj
 0001:0008ff80       ??0ImageList_GetIconSize_Type@CComCtlWrapper@@QAE@XZ 00490f80 f i uafxcwd:afxstate.obj
 0001:0008ffa0       ??0ImageList_SetIconSize_Type@CComCtlWrapper@@QAE@XZ 00490fa0 f i uafxcwd:afxstate.obj
 0001:0008ffc0       ??0ImageList_GetImageInfo_Type@CComCtlWrapper@@QAE@XZ 00490fc0 f i uafxcwd:afxstate.obj
 0001:0008ffe0       ??0ImageList_Merge_Type@CComCtlWrapper@@QAE@XZ 00490fe0 f i uafxcwd:afxstate.obj
 0001:00090000       ??0ImageList_Duplicate_Type@CComCtlWrapper@@QAE@XZ 00491000 f i uafxcwd:afxstate.obj
 0001:00090020       ??0CreateToolbarEx_Type@CComCtlWrapper@@QAE@XZ 00491020 f i uafxcwd:afxstate.obj
 0001:00090040       ??0CreateMappedBitmap_Type@CComCtlWrapper@@QAE@XZ 00491040 f i uafxcwd:afxstate.obj
 0001:00090060       ??0DrawStatusTextA_Type@CComCtlWrapper@@QAE@XZ 00491060 f i uafxcwd:afxstate.obj
 0001:00090080       ??0DrawStatusTextW_Type@CComCtlWrapper@@QAE@XZ 00491080 f i uafxcwd:afxstate.obj
 0001:000900a0       ??0CreateStatusWindowA_Type@CComCtlWrapper@@QAE@XZ 004910a0 f i uafxcwd:afxstate.obj
 0001:000900c0       ??0CreateStatusWindowW_Type@CComCtlWrapper@@QAE@XZ 004910c0 f i uafxcwd:afxstate.obj
 0001:000900e0       ??0MenuHelp_Type@CComCtlWrapper@@QAE@XZ 004910e0 f i uafxcwd:afxstate.obj
 0001:00090100       ??0ShowHideMenuCtl_Type@CComCtlWrapper@@QAE@XZ 00491100 f i uafxcwd:afxstate.obj
 0001:00090120       ??0GetEffectiveClientRect_Type@CComCtlWrapper@@QAE@XZ 00491120 f i uafxcwd:afxstate.obj
 0001:00090140       ??0MakeDragList_Type@CComCtlWrapper@@QAE@XZ 00491140 f i uafxcwd:afxstate.obj
 0001:00090160       ??0DrawInsert_Type@CComCtlWrapper@@QAE@XZ 00491160 f i uafxcwd:afxstate.obj
 0001:00090180       ??0LBItemFromPt_Type@CComCtlWrapper@@QAE@XZ 00491180 f i uafxcwd:afxstate.obj
 0001:000901a0       ??0CreateUpDownControl_Type@CComCtlWrapper@@QAE@XZ 004911a0 f i uafxcwd:afxstate.obj
 0001:000901c0       ??0InitMUILanguage_Type@CComCtlWrapper@@QAE@XZ 004911c0 f i uafxcwd:afxstate.obj
 0001:000901e0       ??0GetMUILanguage_Type@CComCtlWrapper@@QAE@XZ 004911e0 f i uafxcwd:afxstate.obj
 0001:00090200       ??0DSA_Create_Type@CComCtlWrapper@@QAE@XZ 00491200 f i uafxcwd:afxstate.obj
 0001:00090220       ??0DSA_Destroy_Type@CComCtlWrapper@@QAE@XZ 00491220 f i uafxcwd:afxstate.obj
 0001:00090240       ??0DSA_DestroyCallback_Type@CComCtlWrapper@@QAE@XZ 00491240 f i uafxcwd:afxstate.obj
 0001:00090260       ??0DSA_GetItemPtr_Type@CComCtlWrapper@@QAE@XZ 00491260 f i uafxcwd:afxstate.obj
 0001:00090280       ??0DSA_InsertItem_Type@CComCtlWrapper@@QAE@XZ 00491280 f i uafxcwd:afxstate.obj
 0001:000902a0       ??0DPA_Create_Type@CComCtlWrapper@@QAE@XZ 004912a0 f i uafxcwd:afxstate.obj
 0001:000902c0       ??0DPA_Destroy_Type@CComCtlWrapper@@QAE@XZ 004912c0 f i uafxcwd:afxstate.obj
 0001:000902e0       ??0DPA_DeletePtr_Type@CComCtlWrapper@@QAE@XZ 004912e0 f i uafxcwd:afxstate.obj
 0001:00090300       ??0DPA_DeleteAllPtrs_Type@CComCtlWrapper@@QAE@XZ 00491300 f i uafxcwd:afxstate.obj
 0001:00090320       ??0DPA_EnumCallback_Type@CComCtlWrapper@@QAE@XZ 00491320 f i uafxcwd:afxstate.obj
 0001:00090340       ??0DPA_DestroyCallback_Type@CComCtlWrapper@@QAE@XZ 00491340 f i uafxcwd:afxstate.obj
 0001:00090360       ??0DPA_SetPtr_Type@CComCtlWrapper@@QAE@XZ 00491360 f i uafxcwd:afxstate.obj
 0001:00090380       ??0DPA_InsertPtr_Type@CComCtlWrapper@@QAE@XZ 00491380 f i uafxcwd:afxstate.obj
 0001:000903a0       ??0DPA_GetPtr_Type@CComCtlWrapper@@QAE@XZ 004913a0 f i uafxcwd:afxstate.obj
 0001:000903c0       ??0DPA_Sort_Type@CComCtlWrapper@@QAE@XZ 004913c0 f i uafxcwd:afxstate.obj
 0001:000903e0       ??0DPA_Search_Type@CComCtlWrapper@@QAE@XZ 004913e0 f i uafxcwd:afxstate.obj
 0001:00090400       ??0Str_SetPtrW_Type@CComCtlWrapper@@QAE@XZ 00491400 f i uafxcwd:afxstate.obj
 0001:00090420       ??0_TrackMouseEvent_Type@CComCtlWrapper@@QAE@XZ 00491420 f i uafxcwd:afxstate.obj
 0001:00090440       ??0FlatSB_EnableScrollBar_Type@CComCtlWrapper@@QAE@XZ 00491440 f i uafxcwd:afxstate.obj
 0001:00090460       ??0FlatSB_ShowScrollBar_Type@CComCtlWrapper@@QAE@XZ 00491460 f i uafxcwd:afxstate.obj
 0001:00090480       ??0FlatSB_GetScrollRange_Type@CComCtlWrapper@@QAE@XZ 00491480 f i uafxcwd:afxstate.obj
 0001:000904a0       ??0FlatSB_GetScrollInfo_Type@CComCtlWrapper@@QAE@XZ 004914a0 f i uafxcwd:afxstate.obj
 0001:000904c0       ??0FlatSB_GetScrollPos_Type@CComCtlWrapper@@QAE@XZ 004914c0 f i uafxcwd:afxstate.obj
 0001:000904e0       ??0FlatSB_GetScrollProp_Type@CComCtlWrapper@@QAE@XZ 004914e0 f i uafxcwd:afxstate.obj
 0001:00090500       ??0FlatSB_GetScrollPropPtr_Type@CComCtlWrapper@@QAE@XZ 00491500 f i uafxcwd:afxstate.obj
 0001:00090520       ??0FlatSB_SetScrollPos_Type@CComCtlWrapper@@QAE@XZ 00491520 f i uafxcwd:afxstate.obj
 0001:00090540       ??0FlatSB_SetScrollInfo_Type@CComCtlWrapper@@QAE@XZ 00491540 f i uafxcwd:afxstate.obj
 0001:00090560       ??0FlatSB_SetScrollRange_Type@CComCtlWrapper@@QAE@XZ 00491560 f i uafxcwd:afxstate.obj
 0001:00090580       ??0FlatSB_SetScrollProp_Type@CComCtlWrapper@@QAE@XZ 00491580 f i uafxcwd:afxstate.obj
 0001:000905a0       ??0InitializeFlatSB_Type@CComCtlWrapper@@QAE@XZ 004915a0 f i uafxcwd:afxstate.obj
 0001:000905c0       ??0UninitializeFlatSB_Type@CComCtlWrapper@@QAE@XZ 004915c0 f i uafxcwd:afxstate.obj
 0001:000905e0       ??0SetWindowSubclass_Type@CComCtlWrapper@@QAE@XZ 004915e0 f i uafxcwd:afxstate.obj
 0001:00090600       ??0GetWindowSubclass_Type@CComCtlWrapper@@QAE@XZ 00491600 f i uafxcwd:afxstate.obj
 0001:00090620       ??0RemoveWindowSubclass_Type@CComCtlWrapper@@QAE@XZ 00491620 f i uafxcwd:afxstate.obj
 0001:00090640       ??0DefSubclassProc_Type@CComCtlWrapper@@QAE@XZ 00491640 f i uafxcwd:afxstate.obj
 0001:00090660       ??0DrawShadowText_Type@CComCtlWrapper@@QAE@XZ 00491660 f i uafxcwd:afxstate.obj
 0001:00090680       ??0CreatePropertySheetPageA_Type@CComCtlWrapper@@QAE@XZ 00491680 f i uafxcwd:afxstate.obj
 0001:000906a0       ??0CreatePropertySheetPageW_Type@CComCtlWrapper@@QAE@XZ 004916a0 f i uafxcwd:afxstate.obj
 0001:000906c0       ??0DestroyPropertySheetPage_Type@CComCtlWrapper@@QAE@XZ 004916c0 f i uafxcwd:afxstate.obj
 0001:000906e0       ??0PropertySheetA_Type@CComCtlWrapper@@QAE@XZ 004916e0 f i uafxcwd:afxstate.obj
 0001:00090700       ??0PropertySheetW_Type@CComCtlWrapper@@QAE@XZ 00491700 f i uafxcwd:afxstate.obj
 0001:00090720       ??_GCComCtlWrapper@@UAEPAXI@Z 00491720 f i uafxcwd:afxstate.obj
 0001:00090720       ??_ECComCtlWrapper@@UAEPAXI@Z 00491720 f i uafxcwd:afxstate.obj
 0001:00090750       ??1CComCtlWrapper@@UAE@XZ  00491750 f i uafxcwd:afxstate.obj
 0001:00090770       ??0CCommDlgWrapper@@QAE@XZ 00491770 f i uafxcwd:afxstate.obj
 0001:000908d0       ??0GetOpenFileNameA_Type@CCommDlgWrapper@@QAE@XZ 004918d0 f i uafxcwd:afxstate.obj
 0001:000908f0       ??0GetOpenFileNameW_Type@CCommDlgWrapper@@QAE@XZ 004918f0 f i uafxcwd:afxstate.obj
 0001:00090910       ??0GetSaveFileNameA_Type@CCommDlgWrapper@@QAE@XZ 00491910 f i uafxcwd:afxstate.obj
 0001:00090930       ??0GetSaveFileNameW_Type@CCommDlgWrapper@@QAE@XZ 00491930 f i uafxcwd:afxstate.obj
 0001:00090950       ??0GetFileTitleA_Type@CCommDlgWrapper@@QAE@XZ 00491950 f i uafxcwd:afxstate.obj
 0001:00090970       ??0GetFileTitleW_Type@CCommDlgWrapper@@QAE@XZ 00491970 f i uafxcwd:afxstate.obj
 0001:00090990       ??0ChooseColorA_Type@CCommDlgWrapper@@QAE@XZ 00491990 f i uafxcwd:afxstate.obj
 0001:000909b0       ??0ChooseColorW_Type@CCommDlgWrapper@@QAE@XZ 004919b0 f i uafxcwd:afxstate.obj
 0001:000909d0       ??0FindTextA_Type@CCommDlgWrapper@@QAE@XZ 004919d0 f i uafxcwd:afxstate.obj
 0001:000909f0       ??0FindTextW_Type@CCommDlgWrapper@@QAE@XZ 004919f0 f i uafxcwd:afxstate.obj
 0001:00090a10       ??0ReplaceTextA_Type@CCommDlgWrapper@@QAE@XZ 00491a10 f i uafxcwd:afxstate.obj
 0001:00090a30       ??0ReplaceTextW_Type@CCommDlgWrapper@@QAE@XZ 00491a30 f i uafxcwd:afxstate.obj
 0001:00090a50       ??0ChooseFontA_Type@CCommDlgWrapper@@QAE@XZ 00491a50 f i uafxcwd:afxstate.obj
 0001:00090a70       ??0ChooseFontW_Type@CCommDlgWrapper@@QAE@XZ 00491a70 f i uafxcwd:afxstate.obj
 0001:00090a90       ??0PrintDlgA_Type@CCommDlgWrapper@@QAE@XZ 00491a90 f i uafxcwd:afxstate.obj
 0001:00090ab0       ??0PrintDlgW_Type@CCommDlgWrapper@@QAE@XZ 00491ab0 f i uafxcwd:afxstate.obj
 0001:00090ad0       ??0CommDlgExtendedError_Type@CCommDlgWrapper@@QAE@XZ 00491ad0 f i uafxcwd:afxstate.obj
 0001:00090af0       ??0PageSetupDlgA_Type@CCommDlgWrapper@@QAE@XZ 00491af0 f i uafxcwd:afxstate.obj
 0001:00090b10       ??0PageSetupDlgW_Type@CCommDlgWrapper@@QAE@XZ 00491b10 f i uafxcwd:afxstate.obj
 0001:00090b30       ??0PrintDlgExA_Type@CCommDlgWrapper@@QAE@XZ 00491b30 f i uafxcwd:afxstate.obj
 0001:00090b50       ??0PrintDlgExW_Type@CCommDlgWrapper@@QAE@XZ 00491b50 f i uafxcwd:afxstate.obj
 0001:00090b70       ??_ECCommDlgWrapper@@UAEPAXI@Z 00491b70 f i uafxcwd:afxstate.obj
 0001:00090b70       ??_GCCommDlgWrapper@@UAEPAXI@Z 00491b70 f i uafxcwd:afxstate.obj
 0001:00090ba0       ??1CCommDlgWrapper@@UAE@XZ 00491ba0 f i uafxcwd:afxstate.obj
 0001:00090bc0       ??0CShellWrapper@@QAE@XZ   00491bc0 f i uafxcwd:afxstate.obj
 0001:00090c50       ??0InitNetworkAddressControl_Type@CShellWrapper@@QAE@XZ 00491c50 f i uafxcwd:afxstate.obj
 0001:00090c70       ??_ECShellWrapper@@UAEPAXI@Z 00491c70 f i uafxcwd:afxstate.obj
 0001:00090c70       ??_GCShellWrapper@@UAEPAXI@Z 00491c70 f i uafxcwd:afxstate.obj
 0001:00090ca0       ??1CShellWrapper@@UAE@XZ   00491ca0 f i uafxcwd:afxstate.obj
 0001:00090cc0       ?Preallocate@?$CSimpleStringT@_W$0A@@ATL@@QAEXH@Z 00491cc0 f i uafxcwd:afxstate.obj
 0001:00090ce0       ??1?$CThreadLocal@V_AFX_THREAD_STATE@@@@QAE@XZ 00491ce0 f i uafxcwd:afxstate.obj
 0001:00090d00       ??1?$CProcessLocal@V_AFX_BASE_MODULE_STATE@@@@QAE@XZ 00491d00 f i uafxcwd:afxstate.obj
 0001:00090d20       ?AfxGetPropSheetFont@@YGHAAV?$CStringT@_WV?$StrTraitMFC@_WV?$ChTraitsCRT@_W@ATL@@@@@ATL@@AAGH@Z 00491d20 f   uafxcwd:ccdata.obj
 0001:00091020       ?GetData@?$CProcessLocal@U_AFX_PROPPAGEFONTINFO@@@@QAEPAU_AFX_PROPPAGEFONTINFO@@XZ 00492020 f i uafxcwd:ccdata.obj
 0001:00091080       ?CreateObject@?$CProcessLocal@U_AFX_PROPPAGEFONTINFO@@@@SGPAVCNoTrackObject@@XZ 00492080 f i uafxcwd:ccdata.obj
 0001:00091100       ??0_AFX_PROPPAGEFONTINFO@@QAE@XZ 00492100 f i uafxcwd:ccdata.obj
 0001:00091140       ??_G_AFX_PROPPAGEFONTINFO@@UAEPAXI@Z 00492140 f i uafxcwd:ccdata.obj
 0001:00091140       ??_E_AFX_PROPPAGEFONTINFO@@UAEPAXI@Z 00492140 f i uafxcwd:ccdata.obj
 0001:00091170       ??1_AFX_PROPPAGEFONTINFO@@UAE@XZ 00492170 f i uafxcwd:ccdata.obj
 0001:000911a0       ??1?$CProcessLocal@U_AFX_PROPPAGEFONTINFO@@@@QAE@XZ 004921a0 f i uafxcwd:ccdata.obj
 0001:000911c0       ?AfxWinInit@@YGHPAUHINSTANCE__@@0PA_WH@Z 004921c0 f   uafxcwd:appinit.obj
 0001:00091290       ?SetCurrentHandles@CWinApp@@QAEXXZ 00492290 f   uafxcwd:appinit.obj
 0001:00091640       ?AfxGetFileName@@YGIPB_WPA_WI@Z 00492640 f   uafxcwd:appinit.obj
 0001:00091710       ?tcscat_s@Checked@ATL@@YAXPA_WIPB_W@Z 00492710 f i uafxcwd:appinit.obj
 0001:00091740       ??0CTraceCategory@ATL@@QAE@PB_WI@Z 00492740 f i uafxcwd:appinit.obj
 0001:00091790       ?ChangeCategory@CTrace@ATL@@QAE_NKIW4ATLTRACESTATUS@2@@Z 00492790 f i uafxcwd:appinit.obj
 0001:000917c0       ?RegisterCategory@CTrace@ATL@@QAEKPB_W@Z 004927c0 f i uafxcwd:appinit.obj
 0001:000917e0       ??0CPtrArray@@QAE@XZ       004927e0 f   uafxcwd:array_p.obj
 0001:00091830       ??_ECPtrArray@@UAEPAXI@Z   00492830 f i uafxcwd:array_p.obj
 0001:00091830       ??_GCPtrArray@@UAEPAXI@Z   00492830 f i uafxcwd:array_p.obj
 0001:00091860       ??1CPtrArray@@UAE@XZ       00492860 f   uafxcwd:array_p.obj
 0001:000918e0       ?SetSize@CPtrArray@@QAEXHH@Z 004928e0 f   uafxcwd:array_p.obj
 0001:00091be0       ?Append@CPtrArray@@QAEHABV1@@Z 00492be0 f   uafxcwd:array_p.obj
 0001:00091c80       ?Copy@CPtrArray@@QAEXABV1@@Z 00492c80 f   uafxcwd:array_p.obj
 0001:00091d10       ?FreeExtra@CPtrArray@@QAEXXZ 00492d10 f   uafxcwd:array_p.obj
 0001:00091df0       ?SetAtGrow@CPtrArray@@QAEXHPAX@Z 00492df0 f   uafxcwd:array_p.obj
 0001:00091e70       ?InsertAt@CPtrArray@@QAEXHPAXH@Z 00492e70 f   uafxcwd:array_p.obj
 0001:00091fc0       ?RemoveAt@CPtrArray@@QAEXHH@Z 00492fc0 f   uafxcwd:array_p.obj
 0001:000920d0       ?InsertAt@CPtrArray@@QAEXHPAV1@@Z 004930d0 f   uafxcwd:array_p.obj
 0001:000921e0       ?Dump@CPtrArray@@UBEXAAVCDumpContext@@@Z 004931e0 f   uafxcwd:array_p.obj
 0001:000922a0       ?AssertValid@CPtrArray@@UBEXXZ 004932a0 f   uafxcwd:array_p.obj
 0001:00092390       ?GetRuntimeClass@CPtrArray@@UBEPAUCRuntimeClass@@XZ 00493390 f   uafxcwd:array_p.obj
 0001:000923b0       ?afxMapHMENU@@YGPAVCHandleMap@@H@Z 004933b0 f   uafxcwd:winmenu.obj
 0001:000924a0       ?FromHandle@CMenu@@SGPAV1@PAUHMENU__@@@Z 004934a0 f   uafxcwd:winmenu.obj
 0001:00092510       ?FromHandlePermanent@CMenu@@SGPAV1@PAUHMENU__@@@Z 00493510 f   uafxcwd:winmenu.obj
 0001:00092570       ?AssertValid@CMenu@@UBEXXZ 00493570 f   uafxcwd:winmenu.obj
 0001:000925b0       ?Dump@CMenu@@UBEXAAVCDumpContext@@@Z 004935b0 f   uafxcwd:winmenu.obj
 0001:00092600       ?Attach@CMenu@@QAEHPAUHMENU__@@@Z 00493600 f   uafxcwd:winmenu.obj
 0001:00092680       ?Detach@CMenu@@QAEPAUHMENU__@@XZ 00493680 f   uafxcwd:winmenu.obj
 0001:000926d0       ?DestroyMenu@CMenu@@QAEHXZ 004936d0 f   uafxcwd:winmenu.obj
 0001:00092700       ?GetMenuStringW@CMenu@@QBEHIAAV?$CStringT@_WV?$StrTraitMFC@_WV?$ChTraitsCRT@_W@ATL@@@@@ATL@@I@Z 00493700 f   uafxcwd:winmenu.obj
 0001:000927a0       ?DrawItem@CMenu@@UAEXPAUtagDRAWITEMSTRUCT@@@Z 004937a0 f   uafxcwd:winmenu.obj
 0001:000927b0       ?MeasureItem@CMenu@@UAEXPAUtagMEASUREITEMSTRUCT@@@Z 004937b0 f   uafxcwd:winmenu.obj
 0001:000927c0       ??0CChevronOwnerDrawMenu@@QAE@XZ 004937c0 f   uafxcwd:winmenu.obj
 0001:000928a0       ??_ECChevronOwnerDrawMenu@@UAEPAXI@Z 004938a0 f i uafxcwd:winmenu.obj
 0001:000928a0       ??_GCChevronOwnerDrawMenu@@UAEPAXI@Z 004938a0 f i uafxcwd:winmenu.obj
 0001:000928d0       ?DrawItem@CChevronOwnerDrawMenu@@UAEXPAUtagDRAWITEMSTRUCT@@@Z 004938d0 f   uafxcwd:winmenu.obj
 0001:00092f50       ?MeasureItem@CChevronOwnerDrawMenu@@UAEXPAUtagMEASUREITEMSTRUCT@@@Z 00493f50 f   uafxcwd:winmenu.obj
 0001:00093160       ?CreateObject@CMenu@@SGPAVCObject@@XZ 00494160 f   uafxcwd:winmenu.obj
 0001:000931e0       ?GetRuntimeClass@CMenu@@UBEPAUCRuntimeClass@@XZ 004941e0 f   uafxcwd:winmenu.obj
 0001:00093200       ?Construct@?$ConstructDestruct@VCMenu@@@@SGXPAVCObject@@@Z 00494200 f i uafxcwd:winmenu.obj
 0001:00093280       ?Destruct@?$ConstructDestruct@VCMenu@@@@SGXPAVCObject@@@Z 00494280 f i uafxcwd:winmenu.obj
 0001:000932b0       ?GetErrorMessage@CArchiveException@@UBEHPA_WIPAI@Z 004942b0 f   uafxcwd:arcex.obj
 0001:00093430       ?Dump@CArchiveException@@UBEXAAVCDumpContext@@@Z 00494430 f   uafxcwd:arcex.obj
 0001:000934a0       ?AfxThrowArchiveException@@YGXHPB_W@Z 004944a0 f   uafxcwd:arcex.obj
 0001:00093590       ?GetRuntimeClass@CArchiveException@@UBEPAUCRuntimeClass@@XZ 00494590 f   uafxcwd:arcex.obj
 0001:000935b0       ?ThrowOsError@CFileException@@SGXJPB_W@Z 004945b0 f   uafxcwd:filex.obj
 0001:000935e0       ?ThrowErrno@CFileException@@SGXHPB_W@Z 004945e0 f   uafxcwd:filex.obj
 0001:00093610       ?GetErrorMessage@CFileException@@UBEHPA_WIPAI@Z 00494610 f   uafxcwd:filex.obj
 0001:00093740       ?Dump@CFileException@@UBEXAAVCDumpContext@@@Z 00494740 f   uafxcwd:filex.obj
 0001:000937d0       ?AfxThrowFileException@@YGXHJPB_W@Z 004947d0 f   uafxcwd:filex.obj
 0001:000938d0       ?ErrnoToException@CFileException@@SGHH@Z 004948d0 f   uafxcwd:filex.obj
 0001:00093980       ?OsErrorToException@CFileException@@SGHJ@Z 00494980 f   uafxcwd:filex.obj
 0001:00093ee0       ?GetRuntimeClass@CFileException@@UBEPAUCRuntimeClass@@XZ 00494ee0 f   uafxcwd:filex.obj
 0001:00093f00       ?CheckCount@CArchive@@QAEXXZ 00494f00 f   uafxcwd:arcobj.obj
 0001:00093f30       ?EnsureSchemaMapExists@CArchive@@QAEXPAPAV?$CArray@W4LoadArrayObjType@CArchive@@ABW412@@@@Z 00494f30 f   uafxcwd:arcobj.obj
 0001:000940f0       ?WriteObject@CArchive@@QAEXPBVCObject@@@Z 004950f0 f   uafxcwd:arcobj.obj
 0001:00094210       ?ReadObject@CArchive@@QAEPAVCObject@@PBUCRuntimeClass@@@Z 00495210 f   uafxcwd:arcobj.obj
 0001:00094570       ?GetObjectSchema@CArchive@@QAEIXZ 00495570 f   uafxcwd:arcobj.obj
 0001:000945a0       ?MapObject@CArchive@@QAEXPBVCObject@@@Z 004955a0 f   uafxcwd:arcobj.obj
 0001:00094810       ?WriteClass@CArchive@@QAEXPBUCRuntimeClass@@@Z 00495810 f   uafxcwd:arcobj.obj
 0001:00094980       ?ReadClass@CArchive@@QAEPAUCRuntimeClass@@PBU2@PAIPAK@Z 00495980 f   uafxcwd:arcobj.obj
 0001:00094d80       ?SerializeClass@CArchive@@QAEXPBUCRuntimeClass@@@Z 00495d80 f   uafxcwd:arcobj.obj
 0001:00094dc0       ??0?$CArray@W4LoadArrayObjType@CArchive@@ABW412@@@QAE@XZ 00495dc0 f i uafxcwd:arcobj.obj
 0001:00094e10       ?GetUpperBound@?$CArray@W4LoadArrayObjType@CArchive@@ABW412@@@QBEHXZ 00495e10 f i uafxcwd:arcobj.obj
 0001:00094e30       ?SetSize@?$CArray@W4LoadArrayObjType@CArchive@@ABW412@@@QAEXHH@Z 00495e30 f i uafxcwd:arcobj.obj
 0001:00095240       ?GetAt@?$CArray@W4LoadArrayObjType@CArchive@@ABW412@@@QAEAAW4LoadArrayObjType@CArchive@@H@Z 00496240 f i uafxcwd:arcobj.obj
 0001:000952a0       ?InsertAt@?$CArray@W4LoadArrayObjType@CArchive@@ABW412@@@QAEXHABW4LoadArrayObjType@CArchive@@H@Z 004962a0 f i uafxcwd:arcobj.obj
 0001:00095450       ?Serialize@?$CArray@W4LoadArrayObjType@CArchive@@ABW412@@@UAEXAAVCArchive@@@Z 00496450 f i uafxcwd:arcobj.obj
 0001:000954d0       ?Dump@?$CArray@W4LoadArrayObjType@CArchive@@ABW412@@@UBEXAAVCDumpContext@@@Z 004964d0 f i uafxcwd:arcobj.obj
 0001:00095550       ?AssertValid@?$CArray@W4LoadArrayObjType@CArchive@@ABW412@@@UBEXXZ 00496550 f i uafxcwd:arcobj.obj
 0001:00095640       ??_E?$CArray@W4LoadArrayObjType@CArchive@@ABW412@@@UAEPAXI@Z 00496640 f i uafxcwd:arcobj.obj
 0001:00095640       ??_G?$CArray@W4LoadArrayObjType@CArchive@@ABW412@@@UAEPAXI@Z 00496640 f i uafxcwd:arcobj.obj
 0001:00095670       ??1?$CArray@W4LoadArrayObjType@CArchive@@ABW412@@@UAE@XZ 00496670 f i uafxcwd:arcobj.obj
 0001:00095720       ??$SerializeElements@W4LoadArrayObjType@CArchive@@@@YGXAAVCArchive@@PAW4LoadArrayObjType@0@H@Z 00496720 f i uafxcwd:arcobj.obj
 0001:00095870       ??$DumpElements@W4LoadArrayObjType@CArchive@@@@YGXAAVCDumpContext@@PBW4LoadArrayObjType@CArchive@@H@Z 00496870 f i uafxcwd:arcobj.obj
 0001:00095900       ??0CByteArray@@QAE@XZ      00496900 f   uafxcwd:array_b.obj
 0001:00095950       ??_ECByteArray@@UAEPAXI@Z  00496950 f i uafxcwd:array_b.obj
 0001:00095950       ??_GCByteArray@@UAEPAXI@Z  00496950 f i uafxcwd:array_b.obj
 0001:00095980       ??1CByteArray@@UAE@XZ      00496980 f   uafxcwd:array_b.obj
 0001:00095a00       ?SetSize@CByteArray@@QAEXHH@Z 00496a00 f   uafxcwd:array_b.obj
 0001:00095cf0       ?Append@CByteArray@@QAEHABV1@@Z 00496cf0 f   uafxcwd:array_b.obj
 0001:00095d90       ?Copy@CByteArray@@QAEXABV1@@Z 00496d90 f   uafxcwd:array_b.obj
 0001:00095e10       ?FreeExtra@CByteArray@@QAEXXZ 00496e10 f   uafxcwd:array_b.obj
 0001:00095ee0       ?SetAtGrow@CByteArray@@QAEXHE@Z 00496ee0 f   uafxcwd:array_b.obj
 0001:00095f60       ?InsertAt@CByteArray@@QAEXHEH@Z 00496f60 f   uafxcwd:array_b.obj
 0001:000960a0       ?RemoveAt@CByteArray@@QAEXHH@Z 004970a0 f   uafxcwd:array_b.obj
 0001:000961a0       ?InsertAt@CByteArray@@QAEXHPAV1@@Z 004971a0 f   uafxcwd:array_b.obj
 0001:000962b0       ?Serialize@CByteArray@@UAEXAAVCArchive@@@Z 004972b0 f   uafxcwd:array_b.obj
 0001:000963d0       ?Dump@CByteArray@@UBEXAAVCDumpContext@@@Z 004973d0 f   uafxcwd:array_b.obj
 0001:00096490       ?AssertValid@CByteArray@@UBEXXZ 00497490 f   uafxcwd:array_b.obj
 0001:00096580       ?CreateObject@CByteArray@@SGPAVCObject@@XZ 00497580 f   uafxcwd:array_b.obj
 0001:00096600       ?GetRuntimeClass@CByteArray@@UBEPAUCRuntimeClass@@XZ 00497600 f   uafxcwd:array_b.obj
 0001:00096620       ??5@YGAAVCArchive@@AAV0@AAPAVCByteArray@@@Z 00497620 f   uafxcwd:array_b.obj
 0001:00096640       ??0CWordArray@@QAE@XZ      00497640 f   uafxcwd:array_w.obj
 0001:00096690       ??_ECWordArray@@UAEPAXI@Z  00497690 f i uafxcwd:array_w.obj
 0001:00096690       ??_GCWordArray@@UAEPAXI@Z  00497690 f i uafxcwd:array_w.obj
 0001:000966c0       ??1CWordArray@@UAE@XZ      004976c0 f   uafxcwd:array_w.obj
 0001:00096740       ?SetSize@CWordArray@@QAEXHH@Z 00497740 f   uafxcwd:array_w.obj
 0001:00096a30       ?Append@CWordArray@@QAEHABV1@@Z 00497a30 f   uafxcwd:array_w.obj
 0001:00096ad0       ?Copy@CWordArray@@QAEXABV1@@Z 00497ad0 f   uafxcwd:array_w.obj
 0001:00096b50       ?FreeExtra@CWordArray@@QAEXXZ 00497b50 f   uafxcwd:array_w.obj
 0001:00096c30       ?SetAtGrow@CWordArray@@QAEXHG@Z 00497c30 f   uafxcwd:array_w.obj
 0001:00096cb0       ?InsertAt@CWordArray@@QAEXHGH@Z 00497cb0 f   uafxcwd:array_w.obj
 0001:00096e00       ?RemoveAt@CWordArray@@QAEXHH@Z 00497e00 f   uafxcwd:array_w.obj
 0001:00096f10       ?InsertAt@CWordArray@@QAEXHPAV1@@Z 00497f10 f   uafxcwd:array_w.obj
 0001:00097020       ?Serialize@CWordArray@@UAEXAAVCArchive@@@Z 00498020 f   uafxcwd:array_w.obj
 0001:00097150       ?Dump@CWordArray@@UBEXAAVCDumpContext@@@Z 00498150 f   uafxcwd:array_w.obj
 0001:00097210       ?AssertValid@CWordArray@@UBEXXZ 00498210 f   uafxcwd:array_w.obj
 0001:00097300       ?CreateObject@CWordArray@@SGPAVCObject@@XZ 00498300 f   uafxcwd:array_w.obj
 0001:00097380       ?GetRuntimeClass@CWordArray@@UBEPAUCRuntimeClass@@XZ 00498380 f   uafxcwd:array_w.obj
 0001:000973a0       ??5@YGAAVCArchive@@AAV0@AAPAVCWordArray@@@Z 004983a0 f   uafxcwd:array_w.obj
 0001:000973c0       ??0CDWordArray@@QAE@XZ     004983c0 f   uafxcwd:array_d.obj
 0001:00097410       ??_ECDWordArray@@UAEPAXI@Z 00498410 f i uafxcwd:array_d.obj
 0001:00097410       ??_GCDWordArray@@UAEPAXI@Z 00498410 f i uafxcwd:array_d.obj
 0001:00097440       ??1CDWordArray@@UAE@XZ     00498440 f   uafxcwd:array_d.obj
 0001:000974c0       ?SetSize@CDWordArray@@QAEXHH@Z 004984c0 f   uafxcwd:array_d.obj
 0001:000977c0       ?Append@CDWordArray@@QAEHABV1@@Z 004987c0 f   uafxcwd:array_d.obj
 0001:00097860       ?Copy@CDWordArray@@QAEXABV1@@Z 00498860 f   uafxcwd:array_d.obj
 0001:000978f0       ?FreeExtra@CDWordArray@@QAEXXZ 004988f0 f   uafxcwd:array_d.obj
 0001:000979d0       ?SetAtGrow@CDWordArray@@QAEXHK@Z 004989d0 f   uafxcwd:array_d.obj
 0001:00097a50       ?InsertAt@CDWordArray@@QAEXHKH@Z 00498a50 f   uafxcwd:array_d.obj
 0001:00097ba0       ?RemoveAt@CDWordArray@@QAEXHH@Z 00498ba0 f   uafxcwd:array_d.obj
 0001:00097cb0       ?InsertAt@CDWordArray@@QAEXHPAV1@@Z 00498cb0 f   uafxcwd:array_d.obj
 0001:00097dc0       ?Serialize@CDWordArray@@UAEXAAVCArchive@@@Z 00498dc0 f   uafxcwd:array_d.obj
 0001:00097ef0       ?Dump@CDWordArray@@UBEXAAVCDumpContext@@@Z 00498ef0 f   uafxcwd:array_d.obj
 0001:00097fb0       ?AssertValid@CDWordArray@@UBEXXZ 00498fb0 f   uafxcwd:array_d.obj
 0001:000980a0       ?CreateObject@CDWordArray@@SGPAVCObject@@XZ 004990a0 f   uafxcwd:array_d.obj
 0001:00098120       ?GetRuntimeClass@CDWordArray@@UBEPAUCRuntimeClass@@XZ 00499120 f   uafxcwd:array_d.obj
 0001:00098140       ??5@YGAAVCArchive@@AAV0@AAPAVCDWordArray@@@Z 00499140 f   uafxcwd:array_d.obj
 0001:00098160       ??0CUIntArray@@QAE@XZ      00499160 f   uafxcwd:array_u.obj
 0001:000981b0       ??_GCUIntArray@@UAEPAXI@Z  004991b0 f i uafxcwd:array_u.obj
 0001:000981b0       ??_ECUIntArray@@UAEPAXI@Z  004991b0 f i uafxcwd:array_u.obj
 0001:000981e0       ??1CUIntArray@@UAE@XZ      004991e0 f   uafxcwd:array_u.obj
 0001:00098260       ?SetSize@CUIntArray@@QAEXHH@Z 00499260 f   uafxcwd:array_u.obj
 0001:00098560       ?Append@CUIntArray@@QAEHABV1@@Z 00499560 f   uafxcwd:array_u.obj
 0001:00098600       ?Copy@CUIntArray@@QAEXABV1@@Z 00499600 f   uafxcwd:array_u.obj
 0001:00098690       ?FreeExtra@CUIntArray@@QAEXXZ 00499690 f   uafxcwd:array_u.obj
 0001:00098770       ?SetAtGrow@CUIntArray@@QAEXHI@Z 00499770 f   uafxcwd:array_u.obj
 0001:000987f0       ?InsertAt@CUIntArray@@QAEXHIH@Z 004997f0 f   uafxcwd:array_u.obj
 0001:00098940       ?RemoveAt@CUIntArray@@QAEXHH@Z 00499940 f   uafxcwd:array_u.obj
 0001:00098a50       ?InsertAt@CUIntArray@@QAEXHPAV1@@Z 00499a50 f   uafxcwd:array_u.obj
 0001:00098b60       ?Dump@CUIntArray@@UBEXAAVCDumpContext@@@Z 00499b60 f   uafxcwd:array_u.obj
 0001:00098c20       ?AssertValid@CUIntArray@@UBEXXZ 00499c20 f   uafxcwd:array_u.obj
 0001:00098d10       ?GetRuntimeClass@CUIntArray@@UBEPAUCRuntimeClass@@XZ 00499d10 f   uafxcwd:array_u.obj
 0001:00098d30       ??0CObArray@@QAE@XZ        00499d30 f   uafxcwd:array_o.obj
 0001:00098d80       ??_ECObArray@@UAEPAXI@Z    00499d80 f i uafxcwd:array_o.obj
 0001:00098d80       ??_GCObArray@@UAEPAXI@Z    00499d80 f i uafxcwd:array_o.obj
 0001:00098db0       ??1CObArray@@UAE@XZ        00499db0 f   uafxcwd:array_o.obj
 0001:00098e30       ?SetSize@CObArray@@QAEXHH@Z 00499e30 f   uafxcwd:array_o.obj
 0001:00099130       ?Append@CObArray@@QAEHABV1@@Z 0049a130 f   uafxcwd:array_o.obj
 0001:000991d0       ?Copy@CObArray@@QAEXABV1@@Z 0049a1d0 f   uafxcwd:array_o.obj
 0001:00099260       ?FreeExtra@CObArray@@QAEXXZ 0049a260 f   uafxcwd:array_o.obj
 0001:00099340       ?SetAtGrow@CObArray@@QAEXHPAVCObject@@@Z 0049a340 f   uafxcwd:array_o.obj
 0001:000993c0       ?InsertAt@CObArray@@QAEXHPAVCObject@@H@Z 0049a3c0 f   uafxcwd:array_o.obj
 0001:00099510       ?RemoveAt@CObArray@@QAEXHH@Z 0049a510 f   uafxcwd:array_o.obj
 0001:00099620       ?InsertAt@CObArray@@QAEXHPAV1@@Z 0049a620 f   uafxcwd:array_o.obj
 0001:00099730       ?Serialize@CObArray@@UAEXAAVCArchive@@@Z 0049a730 f   uafxcwd:array_o.obj
 0001:00099800       ?Dump@CObArray@@UBEXAAVCDumpContext@@@Z 0049a800 f   uafxcwd:array_o.obj
 0001:000998c0       ?AssertValid@CObArray@@UBEXXZ 0049a8c0 f   uafxcwd:array_o.obj
 0001:000999b0       ?CreateObject@CObArray@@SGPAVCObject@@XZ 0049a9b0 f   uafxcwd:array_o.obj
 0001:00099a30       ?GetRuntimeClass@CObArray@@UBEPAUCRuntimeClass@@XZ 0049aa30 f   uafxcwd:array_o.obj
 0001:00099a50       ??5@YGAAVCArchive@@AAV0@AAPAVCObArray@@@Z 0049aa50 f   uafxcwd:array_o.obj
 0001:00099a70       ??0CMapWordToPtr@@QAE@H@Z  0049aa70 f   uafxcwd:map_wp.obj
 0001:00099b30       ??_GCMapWordToPtr@@UAEPAXI@Z 0049ab30 f i uafxcwd:map_wp.obj
 0001:00099b30       ??_ECMapWordToPtr@@UAEPAXI@Z 0049ab30 f i uafxcwd:map_wp.obj
 0001:00099b60       ?InitHashTable@CMapWordToPtr@@QAEXIH@Z 0049ab60 f   uafxcwd:map_wp.obj
 0001:00099c40       ?RemoveAll@CMapWordToPtr@@QAEXXZ 0049ac40 f   uafxcwd:map_wp.obj
 0001:00099cb0       ??1CMapWordToPtr@@UAE@XZ   0049acb0 f   uafxcwd:map_wp.obj
 0001:00099d30       ?NewAssoc@CMapWordToPtr@@IAEPAUCAssoc@1@XZ 0049ad30 f   uafxcwd:map_wp.obj
 0001:00099e30       ?FreeAssoc@CMapWordToPtr@@IAEXPAUCAssoc@1@@Z 0049ae30 f   uafxcwd:map_wp.obj
 0001:00099e90       ?GetAssocAt@CMapWordToPtr@@IBEPAUCAssoc@1@GAAI0@Z 0049ae90 f   uafxcwd:map_wp.obj
 0001:00099f10       ?HashKey@CMapWordToPtr@@QBEIG@Z 0049af10 f i uafxcwd:map_wp.obj
 0001:00099f30       ?Lookup@CMapWordToPtr@@QBEHGAAPAX@Z 0049af30 f   uafxcwd:map_wp.obj
 0001:00099f90       ??ACMapWordToPtr@@QAEAAPAXG@Z 0049af90 f   uafxcwd:map_wp.obj
 0001:0009a030       ?RemoveKey@CMapWordToPtr@@QAEHG@Z 0049b030 f   uafxcwd:map_wp.obj
 0001:0009a0d0       ?GetNextAssoc@CMapWordToPtr@@QBEXAAPAU__POSITION@@AAGAAPAX@Z 0049b0d0 f   uafxcwd:map_wp.obj
 0001:0009a250       ?Dump@CMapWordToPtr@@UBEXAAVCDumpContext@@@Z 0049b250 f   uafxcwd:map_wp.obj
 0001:0009a310       ?AssertValid@CMapWordToPtr@@UBEXXZ 0049b310 f   uafxcwd:map_wp.obj
 0001:0009a370       ?GetRuntimeClass@CMapWordToPtr@@UBEPAUCRuntimeClass@@XZ 0049b370 f   uafxcwd:map_wp.obj
 0001:0009a390       ??0CMapPtrToWord@@QAE@H@Z  0049b390 f   uafxcwd:map_pw.obj
 0001:0009a450       ??_ECMapPtrToWord@@UAEPAXI@Z 0049b450 f i uafxcwd:map_pw.obj
 0001:0009a450       ??_GCMapPtrToWord@@UAEPAXI@Z 0049b450 f i uafxcwd:map_pw.obj
 0001:0009a480       ?InitHashTable@CMapPtrToWord@@QAEXIH@Z 0049b480 f   uafxcwd:map_pw.obj
 0001:0009a560       ?RemoveAll@CMapPtrToWord@@QAEXXZ 0049b560 f   uafxcwd:map_pw.obj
 0001:0009a5d0       ??1CMapPtrToWord@@UAE@XZ   0049b5d0 f   uafxcwd:map_pw.obj
 0001:0009a650       ?NewAssoc@CMapPtrToWord@@IAEPAUCAssoc@1@XZ 0049b650 f   uafxcwd:map_pw.obj
 0001:0009a750       ?FreeAssoc@CMapPtrToWord@@IAEXPAUCAssoc@1@@Z 0049b750 f   uafxcwd:map_pw.obj
 0001:0009a7b0       ?GetAssocAt@CMapPtrToWord@@IBEPAUCAssoc@1@PAXAAI1@Z 0049b7b0 f   uafxcwd:map_pw.obj
 0001:0009a830       ?HashKey@CMapPtrToWord@@QBEIPAX@Z 0049b830 f i uafxcwd:map_pw.obj
 0001:0009a850       ?Lookup@CMapPtrToWord@@QBEHPAXAAG@Z 0049b850 f   uafxcwd:map_pw.obj
 0001:0009a8b0       ??ACMapPtrToWord@@QAEAAGPAX@Z 0049b8b0 f   uafxcwd:map_pw.obj
 0001:0009a950       ?RemoveKey@CMapPtrToWord@@QAEHPAX@Z 0049b950 f   uafxcwd:map_pw.obj
 0001:0009a9f0       ?GetNextAssoc@CMapPtrToWord@@QBEXAAPAU__POSITION@@AAPAXAAG@Z 0049b9f0 f   uafxcwd:map_pw.obj
 0001:0009ab70       ?Dump@CMapPtrToWord@@UBEXAAVCDumpContext@@@Z 0049bb70 f   uafxcwd:map_pw.obj
 0001:0009ac30       ?AssertValid@CMapPtrToWord@@UBEXXZ 0049bc30 f   uafxcwd:map_pw.obj
 0001:0009ac90       ?GetRuntimeClass@CMapPtrToWord@@UBEPAUCRuntimeClass@@XZ 0049bc90 f   uafxcwd:map_pw.obj
 0001:0009acb0       ??0CMapPtrToPtr@@QAE@H@Z   0049bcb0 f   uafxcwd:map_pp.obj
 0001:0009ad70       ??_GCMapPtrToPtr@@UAEPAXI@Z 0049bd70 f i uafxcwd:map_pp.obj
 0001:0009ad70       ??_ECMapPtrToPtr@@UAEPAXI@Z 0049bd70 f i uafxcwd:map_pp.obj
 0001:0009ada0       ?InitHashTable@CMapPtrToPtr@@QAEXIH@Z 0049bda0 f   uafxcwd:map_pp.obj
 0001:0009ae80       ?RemoveAll@CMapPtrToPtr@@QAEXXZ 0049be80 f   uafxcwd:map_pp.obj
 0001:0009aef0       ??1CMapPtrToPtr@@UAE@XZ    0049bef0 f   uafxcwd:map_pp.obj
 0001:0009af70       ?NewAssoc@CMapPtrToPtr@@IAEPAUCAssoc@1@XZ 0049bf70 f   uafxcwd:map_pp.obj
 0001:0009b070       ?FreeAssoc@CMapPtrToPtr@@IAEXPAUCAssoc@1@@Z 0049c070 f   uafxcwd:map_pp.obj
 0001:0009b0d0       ?GetAssocAt@CMapPtrToPtr@@IBEPAUCAssoc@1@PAXAAI1@Z 0049c0d0 f   uafxcwd:map_pp.obj
 0001:0009b150       ?HashKey@CMapPtrToPtr@@QBEIPAX@Z 0049c150 f i uafxcwd:map_pp.obj
 0001:0009b170       ?GetValueAt@CMapPtrToPtr@@QBEPAXPAX@Z 0049c170 f   uafxcwd:map_pp.obj
 0001:0009b210       ?Lookup@CMapPtrToPtr@@QBEHPAXAAPAX@Z 0049c210 f   uafxcwd:map_pp.obj
 0001:0009b270       ??ACMapPtrToPtr@@QAEAAPAXPAX@Z 0049c270 f   uafxcwd:map_pp.obj
 0001:0009b310       ?RemoveKey@CMapPtrToPtr@@QAEHPAX@Z 0049c310 f   uafxcwd:map_pp.obj
 0001:0009b3b0       ?GetNextAssoc@CMapPtrToPtr@@QBEXAAPAU__POSITION@@AAPAX1@Z 0049c3b0 f   uafxcwd:map_pp.obj
 0001:0009b530       ?Dump@CMapPtrToPtr@@UBEXAAVCDumpContext@@@Z 0049c530 f   uafxcwd:map_pp.obj
 0001:0009b5f0       ?AssertValid@CMapPtrToPtr@@UBEXXZ 0049c5f0 f   uafxcwd:map_pp.obj
 0001:0009b650       ?GetRuntimeClass@CMapPtrToPtr@@UBEPAUCRuntimeClass@@XZ 0049c650 f   uafxcwd:map_pp.obj
 0001:0009b670       ??0CMapWordToOb@@QAE@H@Z   0049c670 f   uafxcwd:map_wo.obj
 0001:0009b730       ??_ECMapWordToOb@@UAEPAXI@Z 0049c730 f i uafxcwd:map_wo.obj
 0001:0009b730       ??_GCMapWordToOb@@UAEPAXI@Z 0049c730 f i uafxcwd:map_wo.obj
 0001:0009b760       ?InitHashTable@CMapWordToOb@@QAEXIH@Z 0049c760 f   uafxcwd:map_wo.obj
 0001:0009b840       ?RemoveAll@CMapWordToOb@@QAEXXZ 0049c840 f   uafxcwd:map_wo.obj
 0001:0009b8b0       ??1CMapWordToOb@@UAE@XZ    0049c8b0 f   uafxcwd:map_wo.obj
 0001:0009b930       ?NewAssoc@CMapWordToOb@@IAEPAUCAssoc@1@XZ 0049c930 f   uafxcwd:map_wo.obj
 0001:0009ba30       ?FreeAssoc@CMapWordToOb@@IAEXPAUCAssoc@1@@Z 0049ca30 f   uafxcwd:map_wo.obj
 0001:0009ba90       ?GetAssocAt@CMapWordToOb@@IBEPAUCAssoc@1@GAAI0@Z 0049ca90 f   uafxcwd:map_wo.obj
 0001:0009bb10       ?HashKey@CMapWordToOb@@QBEIG@Z 0049cb10 f i uafxcwd:map_wo.obj
 0001:0009bb30       ?Lookup@CMapWordToOb@@QBEHGAAPAVCObject@@@Z 0049cb30 f   uafxcwd:map_wo.obj
 0001:0009bb90       ??ACMapWordToOb@@QAEAAPAVCObject@@G@Z 0049cb90 f   uafxcwd:map_wo.obj
 0001:0009bc30       ?RemoveKey@CMapWordToOb@@QAEHG@Z 0049cc30 f   uafxcwd:map_wo.obj
 0001:0009bcd0       ?GetNextAssoc@CMapWordToOb@@QBEXAAPAU__POSITION@@AAGAAPAVCObject@@@Z 0049ccd0 f   uafxcwd:map_wo.obj
 0001:0009be50       ?Serialize@CMapWordToOb@@UAEXAAVCArchive@@@Z 0049ce50 f   uafxcwd:map_wo.obj
 0001:0009bf80       ?Dump@CMapWordToOb@@UBEXAAVCDumpContext@@@Z 0049cf80 f   uafxcwd:map_wo.obj
 0001:0009c040       ?AssertValid@CMapWordToOb@@UBEXXZ 0049d040 f   uafxcwd:map_wo.obj
 0001:0009c0a0       ?CreateObject@CMapWordToOb@@SGPAVCObject@@XZ 0049d0a0 f   uafxcwd:map_wo.obj
 0001:0009c120       ?GetRuntimeClass@CMapWordToOb@@UBEPAUCRuntimeClass@@XZ 0049d120 f   uafxcwd:map_wo.obj
 0001:0009c140       ??5@YGAAVCArchive@@AAV0@AAPAVCMapWordToOb@@@Z 0049d140 f   uafxcwd:map_wo.obj
 0001:0009c160       ??0CMapStringToPtr@@QAE@H@Z 0049d160 f   uafxcwd:map_sp.obj
 0001:0009c220       ??_GCMapStringToPtr@@UAEPAXI@Z 0049d220 f i uafxcwd:map_sp.obj
 0001:0009c220       ??_ECMapStringToPtr@@UAEPAXI@Z 0049d220 f i uafxcwd:map_sp.obj
