 DiagChan9d

 Timestamp is 5655c013 (Wed Nov 25 22:05:07 2015)

 Preferred load address is 10000000

 Start         Length     Name                   Class
 0001:00000000 00044ddaH .textbss                DATA
 0002:00000000 0008d811H .text                   CODE
 0002:0008d820 00001c00H .text$x                 CODE
 0002:0008f420 00001025H .text$yc                CODE
 0002:00090450 0000105bH .text$yd                CODE
 0003:00000000 00000104H .CRT$XCA                DATA
 0003:00000104 00000104H .CRT$XCC                DATA
 0003:00000208 00000104H .CRT$XCZ                DATA
 0003:0000030c 00000104H .CRT$XIA                DATA
 0003:00000410 00000113H .CRT$XIC                DATA
 0003:00000524 00000104H .CRT$XIZ                DATA
 0003:00000628 00000104H .CRT$XPA                DATA
 0003:0000072c 00000109H .CRT$XPX                DATA
 0003:00000838 00000104H .CRT$XPXA               DATA
 0003:0000093c 00000104H .CRT$XPZ                DATA
 0003:00000a40 00000104H .CRT$XTA                DATA
 0003:00000b44 00000104H .CRT$XTZ                DATA
 0003:00000c50 000159e8H .rdata                  DATA
 0003:00016638 00000166H .rdata$debug            DATA
 0003:000167a0 00000aedH .rdata$r                DATA
 0003:00017290 00000104H .rtc$IAA                DATA
 0003:00017394 00000139H .rtc$IMZ                DATA
 0003:000174d0 00000104H .rtc$IZZ                DATA
 0003:000175d4 00000104H .rtc$TAA                DATA
 0003:000176d8 00000139H .rtc$TMZ                DATA
 0003:00017814 00000104H .rtc$TZZ                DATA
 0003:00017918 00002092H .xdata$x                DATA
 0003:000199b0 000002d7H .edata                  DATA
 0004:00000000 000019b5H .data                   DATA
 0004:000019c0 00002678H .bss                    DATA
 0005:00000000 0000003cH .idata$2                DATA
 0005:0000003c 00000014H .idata$3                DATA
 0005:00000050 000002f0H .idata$4                DATA
 0005:00000340 000002f0H .idata$5                DATA
 0005:00000630 00000b50H .idata$6                DATA
 0006:00000000 000001c0H .rsrc$01                DATA
 0006:000001c0 00000f49H .rsrc$02                DATA

  Address         Publics by Value              Rva+Base       Lib:Object

 0000:00000000       ___safe_se_handler_table   00000000     <absolute>
 0000:00000000       __except_list              00000000     <absolute>
 0000:00000000       ___safe_se_handler_count   00000000     <absolute>
 0000:00000000       ___ImageBase               10000000     <linker-defined>
 0001:00000000       __enc$textbss$begin        10001000     <linker-defined>
 0001:00044dda       __enc$textbss$end          10045dda     <linker-defined>
 0002:00004270       ??1ICommChannel@@UAE@XZ    1004a270 f   BaseChan.obj
 0002:000042b0       ??0CBaseChannel@@QAE@XZ    1004a2b0 f   BaseChan.obj
 0002:00004620       ??_GCBaseChannel@@UAEPAXI@Z 1004a620 f i BaseChan.obj
 0002:00004620       ??_ECBaseChannel@@UAEPAXI@Z 1004a620 f i BaseChan.obj
 0002:00004690       ??0IProtocolChannel@@QAE@XZ 1004a690 f i BaseChan.obj
 0002:000046f0       ??1IProtocolChannel@@UAE@XZ 1004a6f0 f i BaseChan.obj
 0002:00004740       ??0IProtocolObserver@@QAE@XZ 1004a740 f i BaseChan.obj
 0002:00004790       ??_GIProtocolChannel@@UAEPAXI@Z 1004a790 f i BaseChan.obj
 0002:00004790       ??_EIProtocolChannel@@UAEPAXI@Z 1004a790 f i BaseChan.obj
 0002:00004800       ??0ICommChannel@@QAE@XZ    1004a800 f i BaseChan.obj
 0002:00004850       ??1CBaseChannel@@UAE@XZ    1004a850 f   BaseChan.obj
 0002:00004b20       ?InitLog@CBaseChannel@@UAEHPB_WIIPAVISpLog@@0@Z 1004ab20 f   BaseChan.obj
 0002:00004c30       ?SetReceiver@CBaseChannel@@UAEHKHPBX@Z 1004ac30 f   BaseChan.obj
 0002:00004c70       ?GetReceiver@CBaseChannel@@UAEXAAKAAHAAPAX@Z 1004ac70 f   BaseChan.obj
 0002:00004cb0       ?GetProperty@CBaseChannel@@UAEHJKPAX@Z 1004acb0 f   BaseChan.obj
 0002:00004e30       ?SetProperty@CBaseChannel@@UAEHJKPBX@Z 1004ae30 f   BaseChan.obj
 0002:00005130       ?Open@CBaseChannel@@UAEHQAU_CHANNEL_ATTRIBUTE@@@Z 1004b130 f   BaseChan.obj
 0002:00005790       ?Close@CBaseChannel@@UAEXXZ 1004b790 f   BaseChan.obj
 0002:00005e10       ?IsPhyicalChannel@CBaseChannel@@IAE_NXZ 1004be10 f i BaseChan.obj
 0002:00005e50       ?IsInternalChannel@CBaseChannel@@IAE_NXZ 1004be50 f i BaseChan.obj
 0002:00005e90       ?Clear@CBaseChannel@@UAEHXZ 1004be90 f   BaseChan.obj
 0002:000063f0       ?FreeMem@CBaseChannel@@UAEXPAX@Z 1004c3f0 f   BaseChan.obj
 0002:00006470       ?SetLowerChannel@CBaseChannel@@UAEXPAVICommChannel@@_N@Z 1004c470 f   BaseChan.obj
 0002:000067e0       ?GetLowerChannel@CBaseChannel@@UAEXPAPAVICommChannel@@_N@Z 1004c7e0 f   BaseChan.obj
 0002:000068b0       ?Write@CBaseChannel@@UAEKPAXKK@Z 1004c8b0 f   BaseChan.obj
 0002:00006e70       ?Read@CBaseChannel@@UAEKPAXKKK@Z 1004ce70 f   BaseChan.obj
 0002:00007800       ?AddCond@CBaseChannel@@MAEHPAXH@Z 1004d800 f   BaseChan.obj
 0002:00007b10       ??0PRT_COND_T@@QAE@XZ      1004db10 f i BaseChan.obj
 0002:00007b70       ??1PRT_COND_T@@QAE@XZ      1004db70 f i BaseChan.obj
 0002:00007bd0       ?AddCond@CBaseChannel@@IAEHPAUPRT_COND_T@@@Z 1004dbd0 f   BaseChan.obj
 0002:00007e60       ?RemoveCond@CBaseChannel@@MAE_NH_N@Z 1004de60 f   BaseChan.obj
 0002:000083e0       ?FindPackage@CBaseChannel@@MAEPAUPRT_BUFF@@AAH@Z 1004e3e0 f   BaseChan.obj
 0002:00008640       ?FindPackage@CBaseChannel@@MAEPAUPRT_BUFF@@PAUPRT_READ_T@@_N@Z 1004e640 f   BaseChan.obj
 0002:00008bf0       ?RemovePackages@CBaseChannel@@MAEXPAX@Z 1004ebf0 f   BaseChan.obj
 0002:00008ff0       ?CheckPackage@CBaseChannel@@MAE_NPAUPRT_BUFF@@PAX@Z 1004eff0 f   BaseChan.obj
 0002:000090a0       ?CompareCond@CBaseChannel@@MAE_NPAX0_N@Z 1004f0a0 f   BaseChan.obj
 0002:000090e0       ?GetCondition@CBaseChannel@@MAEPAXPAXI_N@Z 1004f0e0 f   BaseChan.obj
 0002:00009120       ?CopyCondition@CBaseChannel@@MAEPAXPAX@Z 1004f120 f   BaseChan.obj
 0002:00009160       ?FreeCondition@CBaseChannel@@MAEXPAX@Z 1004f160 f   BaseChan.obj
 0002:000091a0       ?IsLastPackage@CBaseChannel@@MAE_NPAX@Z 1004f1a0 f   BaseChan.obj
 0002:000091e0       ?AddObserver@CBaseChannel@@UAEHPAVIProtocolObserver@@@Z 1004f1e0 f   BaseChan.obj
 0002:00009420       ?RemoveObserver@CBaseChannel@@UAE_NH@Z 1004f420 f   BaseChan.obj
 0002:00009550       ?GetNextObserver@CBaseChannel@@IAEPAVIProtocolObserver@@AAH@Z 1004f550 f   BaseChan.obj
 0002:00009680       ?FindObserver@CBaseChannel@@IAEHPAVIProtocolObserver@@@Z 1004f680 f   BaseChan.obj
 0002:00009740       ?RecvThread@@YGIPAX@Z      1004f740 f   BaseChan.obj
 0002:00009a10       ?StartRecvThread@CBaseChannel@@IAEKXZ 1004fa10 f   BaseChan.obj
 0002:00009ad0       ?StopRecvThread@CBaseChannel@@IAEXXZ 1004fad0 f   BaseChan.obj
 0002:00009c30       ?OnChannelData@CBaseChannel@@UAEHPAXK@Z 1004fc30 f   BaseChan.obj
 0002:00009f90       ?OnChannelEvent@CBaseChannel@@UAEHIPAX@Z 1004ff90 f   BaseChan.obj
 0002:0000a140       ?AddtoPackageList@CBaseChannel@@IAEXPAPAUPRT_BUFF@@HH@Z 10050140 f   BaseChan.obj
 0002:0000a6e0       ?ProcessThread@@YGIPAX@Z   100506e0 f   BaseChan.obj
 0002:0000a730       ?StartProcessThread@CBaseChannel@@IAEKXZ 10050730 f   BaseChan.obj
 0002:0000a830       ?StopProcessThread@CBaseChannel@@IAEXXZ 10050830 f   BaseChan.obj
 0002:0000a970       ?ProcessData@CBaseChannel@@QAEXXZ 10050970 f   BaseChan.obj
 0002:0000ad90       ?GetPackage@CBaseChannel@@IAEPAUPRT_BUFF@@XZ 10050d90 f   BaseChan.obj
 0002:0000aff0       ?WakeupOnPackages@CBaseChannel@@IAEXXZ 10050ff0 f   BaseChan.obj
 0002:0000b060       ?WaitForPackages@CBaseChannel@@IAEXXZ 10051060 f   BaseChan.obj
 0002:0000b0d0       ?WakeupOnResponse@CBaseChannel@@IAEXPAX@Z 100510d0 f   BaseChan.obj
 0002:0000b130       ?WaitForResponse@CBaseChannel@@IAE_NPAXI@Z 10051130 f   BaseChan.obj
 0002:0000b1a0       ?LockLowerChannel@CBaseChannel@@IAEX_N@Z 100511a0 f   BaseChan.obj
 0002:0000b230       ?LockCondList@CBaseChannel@@IAEX_N@Z 10051230 f   BaseChan.obj
 0002:0000b2c0       ?LockPackageList@CBaseChannel@@IAEX_N@Z 100512c0 f   BaseChan.obj
 0002:0000b350       ?LockObserverList@CBaseChannel@@IAEX_N@Z 10051350 f   BaseChan.obj
 0002:0000b3e0       ?Free_PRT_BUFF@@YAXPAX@Z   100513e0 f   BaseChan.obj
 0002:0000b460       ?Alloc_PRT_BUFF@@YAPAUPRT_BUFF@@I@Z 10051460 f   BaseChan.obj
 0002:0000b500       ?LoadConfig@CBaseChannel@@MAEXPAX@Z 10051500 f   BaseChan.obj
 0002:0000b690       ?GenerateEndianEvent@CBaseChannel@@IAEXXZ 10051690 f   BaseChan.obj
 0002:0000b7f0       ?SetThreadEvent@CBaseChannel@@QAEXXZ 100517f0 f   BaseChan.obj
 0002:0000b870       ??0?$list@PAUPRT_BUFF@@V?$allocator@PAUPRT_BUFF@@@std@@@std@@QAE@XZ 10051870 f i BaseChan.obj
 0002:0000b940       ??1?$list@PAUPRT_BUFF@@V?$allocator@PAUPRT_BUFF@@@std@@@std@@QAE@XZ 10051940 f i BaseChan.obj
 0002:0000b9e0       ?begin@?$list@PAUPRT_BUFF@@V?$allocator@PAUPRT_BUFF@@@std@@@std@@QAE?AV?$_Iterator@$0A@@12@XZ 100519e0 f i BaseChan.obj
 0002:0000ba50       ?end@?$list@PAUPRT_BUFF@@V?$allocator@PAUPRT_BUFF@@@std@@@std@@QAE?AV?$_Iterator@$0A@@12@XZ 10051a50 f i BaseChan.obj
 0002:0000bab0       ?size@?$list@PAUPRT_BUFF@@V?$allocator@PAUPRT_BUFF@@@std@@@std@@QBEIXZ 10051ab0 f i BaseChan.obj
 0002:0000baf0       ?empty@?$list@PAUPRT_BUFF@@V?$allocator@PAUPRT_BUFF@@@std@@@std@@QBE_NXZ 10051af0 f i BaseChan.obj
 0002:0000bb40       ?front@?$list@PAUPRT_BUFF@@V?$allocator@PAUPRT_BUFF@@@std@@@std@@QAEAAPAUPRT_BUFF@@XZ 10051b40 f i BaseChan.obj
 0002:0000bba0       ?pop_front@?$list@PAUPRT_BUFF@@V?$allocator@PAUPRT_BUFF@@@std@@@std@@QAEXXZ 10051ba0 f i BaseChan.obj
 0002:0000bc40       ?push_back@?$list@PAUPRT_BUFF@@V?$allocator@PAUPRT_BUFF@@@std@@@std@@QAEXABQAUPRT_BUFF@@@Z 10051c40 f i BaseChan.obj
 0002:0000bcd0       ?erase@?$list@PAUPRT_BUFF@@V?$allocator@PAUPRT_BUFF@@@std@@@std@@QAE?AV?$_Iterator@$0A@@12@V?$_Const_iterator@$0A@@12@@Z 10051cd0 f i BaseChan.obj
 0002:0000be10       ?erase@?$list@PAUPRT_BUFF@@V?$allocator@PAUPRT_BUFF@@@std@@@std@@QAE?AV?$_Iterator@$0A@@12@V?$_Const_iterator@$0A@@12@0@Z 10051e10 f i BaseChan.obj
 0002:0000bf30       ?clear@?$list@PAUPRT_BUFF@@V?$allocator@PAUPRT_BUFF@@@std@@@std@@QAEXXZ 10051f30 f i BaseChan.obj
 0002:0000c030       ?swap@?$list@PAUPRT_BUFF@@V?$allocator@PAUPRT_BUFF@@@std@@@std@@QAEXAAV12@@Z 10052030 f i BaseChan.obj
 0002:0000c240       ?_Swap_aux@_Container_base_aux@std@@QAEXAAV12@@Z 10052240 f i BaseChan.obj
 0002:0000c2c0       ??0?$vector@UPRT_COND_T@@V?$allocator@UPRT_COND_T@@@std@@@std@@QAE@XZ 100522c0 f i BaseChan.obj
 0002:0000c380       ??1?$vector@UPRT_COND_T@@V?$allocator@UPRT_COND_T@@@std@@@std@@QAE@XZ 10052380 f i BaseChan.obj
 0002:0000c420       ?size@?$vector@UPRT_COND_T@@V?$allocator@UPRT_COND_T@@@std@@@std@@QBEIXZ 10052420 f i BaseChan.obj
 0002:0000c470       ??A?$vector@UPRT_COND_T@@V?$allocator@UPRT_COND_T@@@std@@@std@@QAEAAUPRT_COND_T@@I@Z 10052470 f i BaseChan.obj
 0002:0000c4c0       ?push_back@?$vector@UPRT_COND_T@@V?$allocator@UPRT_COND_T@@@std@@@std@@QAEXABUPRT_COND_T@@@Z 100524c0 f i BaseChan.obj
 0002:0000c5a0       ?clear@?$vector@UPRT_COND_T@@V?$allocator@UPRT_COND_T@@@std@@@std@@QAEXXZ 100525a0 f i BaseChan.obj
 0002:0000c670       ??0?$vector@PAVIProtocolObserver@@V?$allocator@PAVIProtocolObserver@@@std@@@std@@QAE@XZ 10052670 f i BaseChan.obj
 0002:0000c730       ??1?$vector@PAVIProtocolObserver@@V?$allocator@PAVIProtocolObserver@@@std@@@std@@QAE@XZ 10052730 f i BaseChan.obj
 0002:0000c7d0       ?size@?$vector@PAVIProtocolObserver@@V?$allocator@PAVIProtocolObserver@@@std@@@std@@QBEIXZ 100527d0 f i BaseChan.obj
 0002:0000c820       ??A?$vector@PAVIProtocolObserver@@V?$allocator@PAVIProtocolObserver@@@std@@@std@@QAEAAPAVIProtocolObserver@@I@Z 10052820 f i BaseChan.obj
 0002:0000c870       ?push_back@?$vector@PAVIProtocolObserver@@V?$allocator@PAVIProtocolObserver@@@std@@@std@@QAEXABQAVIProtocolObserver@@@Z 10052870 f i BaseChan.obj
 0002:0000c950       ??0?$_Iterator@$0A@@?$list@PAUPRT_BUFF@@V?$allocator@PAUPRT_BUFF@@@std@@@std@@QAE@XZ 10052950 f i BaseChan.obj
 0002:0000c9b0       ??D?$_Iterator@$0A@@?$list@PAUPRT_BUFF@@V?$allocator@PAUPRT_BUFF@@@std@@@std@@QBEAAPAUPRT_BUFF@@XZ 100529b0 f i BaseChan.obj
 0002:0000ca00       ??E?$_Iterator@$0A@@?$list@PAUPRT_BUFF@@V?$allocator@PAUPRT_BUFF@@@std@@@std@@QAE?AV012@H@Z 10052a00 f i BaseChan.obj
 0002:0000cab0       ??F?$_Iterator@$0A@@?$list@PAUPRT_BUFF@@V?$allocator@PAUPRT_BUFF@@@std@@@std@@QAE?AV012@H@Z 10052ab0 f i BaseChan.obj
 0002:0000cb60       ??8?$_Const_iterator@$0A@@?$list@PAUPRT_BUFF@@V?$allocator@PAUPRT_BUFF@@@std@@@std@@QBE_NABV012@@Z 10052b60 f i BaseChan.obj
 0002:0000cbb0       ??9?$_Const_iterator@$0A@@?$list@PAUPRT_BUFF@@V?$allocator@PAUPRT_BUFF@@@std@@@std@@QBE_NABV012@@Z 10052bb0 f i BaseChan.obj
 0002:0000cc20       ??1?$_List_val@PAUPRT_BUFF@@V?$allocator@PAUPRT_BUFF@@@std@@@std@@QAE@XZ 10052c20 f i BaseChan.obj
 0002:0000cc70       ??1?$_Vector_val@UPRT_COND_T@@V?$allocator@UPRT_COND_T@@@std@@@std@@QAE@XZ 10052c70 f i BaseChan.obj
 0002:0000ccc0       ??1?$_Vector_val@PAVIProtocolObserver@@V?$allocator@PAVIProtocolObserver@@@std@@@std@@QAE@XZ 10052cc0 f i BaseChan.obj
 0002:0000cd10       ??1?$_List_ptr@PAUPRT_BUFF@@V?$allocator@PAUPRT_BUFF@@@std@@@std@@QAE@XZ 10052d10 f i BaseChan.obj
 0002:0000cd60       ??1?$_List_nod@PAUPRT_BUFF@@V?$allocator@PAUPRT_BUFF@@@std@@@std@@QAE@XZ 10052d60 f i BaseChan.obj
 0002:0000cdb0       ?_Nextnode@?$list@PAUPRT_BUFF@@V?$allocator@PAUPRT_BUFF@@@std@@@std@@KAAAPAU_Node@?$_List_nod@PAUPRT_BUFF@@V?$allocator@PAUPRT_BUFF@@@std@@@2@PAU342@@Z 10052db0 f i BaseChan.obj
 0002:0000cdf0       ?_Prevnode@?$list@PAUPRT_BUFF@@V?$allocator@PAUPRT_BUFF@@@std@@@std@@KAAAPAU_Node@?$_List_nod@PAUPRT_BUFF@@V?$allocator@PAUPRT_BUFF@@@std@@@2@PAU342@@Z 10052df0 f i BaseChan.obj
 0002:0000ce30       ?_Make_iter@?$list@PAUPRT_BUFF@@V?$allocator@PAUPRT_BUFF@@@std@@@std@@QBE?AV?$_Iterator@$0A@@12@V?$_Const_iterator@$0A@@12@@Z 10052e30 f i BaseChan.obj
 0002:0000ce90       ?_Insert@?$list@PAUPRT_BUFF@@V?$allocator@PAUPRT_BUFF@@@std@@@std@@QAEXV?$_Const_iterator@$0A@@12@ABQAUPRT_BUFF@@@Z 10052e90 f i BaseChan.obj
 0002:0000cf60       ?splice@?$list@PAUPRT_BUFF@@V?$allocator@PAUPRT_BUFF@@@std@@@std@@QAEXV?$_Const_iterator@$0A@@12@AAV12@@Z 10052f60 f i BaseChan.obj
 0002:0000d060       ?splice@?$list@PAUPRT_BUFF@@V?$allocator@PAUPRT_BUFF@@@std@@@std@@QAEXV?$_Const_iterator@$0A@@12@AAV12@00@Z 10053060 f i BaseChan.obj
 0002:0000d300       ??0length_error@std@@QAE@ABV?$basic_string@DU?$char_traits@D@std@@V?$allocator@D@2@@1@@Z 10053300 f i BaseChan.obj
 0002:0000d370       ??0logic_error@std@@QAE@ABV?$basic_string@DU?$char_traits@D@std@@V?$allocator@D@2@@1@@Z 10053370 f i BaseChan.obj
 0002:0000d430       ?what@logic_error@std@@UBEPBDXZ 10053430 f i BaseChan.obj
 0002:0000d490       ??_Glogic_error@std@@UAEPAXI@Z 10053490 f i BaseChan.obj
 0002:0000d490       ??_Elogic_error@std@@UAEPAXI@Z 10053490 f i BaseChan.obj
 0002:0000d500       ??1logic_error@std@@UAE@XZ 10053500 f i BaseChan.obj
 0002:0000d570       ??1length_error@std@@UAE@XZ 10053570 f i BaseChan.obj
 0002:0000d5d0       ??_Glength_error@std@@UAEPAXI@Z 100535d0 f i BaseChan.obj
 0002:0000d5d0       ??_Elength_error@std@@UAEPAXI@Z 100535d0 f i BaseChan.obj
 0002:0000d640       ??0?$basic_string@DU?$char_traits@D@std@@V?$allocator@D@2@@std@@QAE@ABV01@@Z 10053640 f i BaseChan.obj
 0002:0000d6d0       ??1?$basic_string@DU?$char_traits@D@std@@V?$allocator@D@2@@std@@QAE@XZ 100536d0 f i BaseChan.obj
 0002:0000d730       ?c_str@?$basic_string@DU?$char_traits@D@std@@V?$allocator@D@2@@std@@QBEPBDXZ 10053730 f i BaseChan.obj
 0002:0000d780       ?assign@?$basic_string@DU?$char_traits@D@std@@V?$allocator@D@2@@std@@QAEAAV12@ABV12@II@Z 10053780 f i BaseChan.obj
 0002:0000d8a0       ?size@?$basic_string@DU?$char_traits@D@std@@V?$allocator@D@2@@std@@QBEIXZ 100538a0 f i BaseChan.obj
 0002:0000d8e0       ?_Tidy@?$basic_string@DU?$char_traits@D@std@@V?$allocator@D@2@@std@@IAEX_NI@Z 100538e0 f i BaseChan.obj
 0002:0000d9b0       ?_Myptr@?$basic_string@DU?$char_traits@D@std@@V?$allocator@D@2@@std@@IBEPBDXZ 100539b0 f i BaseChan.obj
 0002:0000da20       ??0?$_String_val@DV?$allocator@D@std@@@std@@QAE@ABV01@@Z 10053a20 f i BaseChan.obj
 0002:0000daa0       ?_Buynode@?$list@PAUPRT_BUFF@@V?$allocator@PAUPRT_BUFF@@@std@@@std@@IAEPAU_Node@?$_List_nod@PAUPRT_BUFF@@V?$allocator@PAUPRT_BUFF@@@std@@@2@XZ 10053aa0 f i BaseChan.obj
 0002:0000dc60       ?_Tidy@?$list@PAUPRT_BUFF@@V?$allocator@PAUPRT_BUFF@@@std@@@std@@IAEXXZ 10053c60 f i BaseChan.obj
 0002:0000dd20       ??0?$_List_val@PAUPRT_BUFF@@V?$allocator@PAUPRT_BUFF@@@std@@@std@@QAE@V?$allocator@PAUPRT_BUFF@@@1@@Z 10053d20 f i BaseChan.obj
 0002:0000dda0       ??1?$_Container_base_aux_alloc_real@V?$allocator@PAUPRT_BUFF@@@std@@@std@@IAE@XZ 10053da0 f i BaseChan.obj
 0002:0000de50       ??1_Container_base_aux@std@@QAE@XZ 10053e50 f i BaseChan.obj
 0002:0000de90       ??0?$allocator@PAUPRT_BUFF@@@std@@QAE@XZ 10053e90 f i BaseChan.obj
 0002:0000ded0       ?deallocate@?$allocator@U_Node@?$_List_nod@PAUPRT_BUFF@@V?$allocator@PAUPRT_BUFF@@@std@@@std@@@std@@QAEXPAU_Node@?$_List_nod@PAUPRT_BUFF@@V?$allocator@PAUPRT_BUFF@@@std@@@2@I@Z 10053ed0 f i BaseChan.obj
 0002:0000df30       ?destroy@?$allocator@U_Node@?$_List_nod@PAUPRT_BUFF@@V?$allocator@PAUPRT_BUFF@@@std@@@std@@@std@@QAEXPAU_Node@?$_List_nod@PAUPRT_BUFF@@V?$allocator@PAUPRT_BUFF@@@std@@@2@@Z 10053f30 f i BaseChan.obj
 0002:0000df90       ?capacity@?$vector@UPRT_COND_T@@V?$allocator@UPRT_COND_T@@@std@@@std@@QBEIXZ 10053f90 f i BaseChan.obj
 0002:0000e010       ?begin@?$vector@UPRT_COND_T@@V?$allocator@UPRT_COND_T@@@std@@@std@@QAE?AV?$_Vector_iterator@UPRT_COND_T@@V?$allocator@UPRT_COND_T@@@std@@@2@XZ 10054010 f i BaseChan.obj
 0002:0000e070       ?end@?$vector@UPRT_COND_T@@V?$allocator@UPRT_COND_T@@@std@@@std@@QAE?AV?$_Vector_iterator@UPRT_COND_T@@V?$allocator@UPRT_COND_T@@@std@@@2@XZ 10054070 f i BaseChan.obj
 0002:0000e0d0       ?insert@?$vector@UPRT_COND_T@@V?$allocator@UPRT_COND_T@@@std@@@std@@QAE?AV?$_Vector_iterator@UPRT_COND_T@@V?$allocator@UPRT_COND_T@@@std@@@2@V?$_Vector_const_iterator@UPRT_COND_T@@V?$allocator@UPRT_COND_T@@@std@@@2@ABUPRT_COND_T@@@Z 100540d0 f i BaseChan.obj
 0002:0000e1b0       ?erase@?$vector@UPRT_COND_T@@V?$allocator@UPRT_COND_T@@@std@@@std@@QAE?AV?$_Vector_iterator@UPRT_COND_T@@V?$allocator@UPRT_COND_T@@@std@@@2@V?$_Vector_const_iterator@UPRT_COND_T@@V?$allocator@UPRT_COND_T@@@std@@@2@0@Z 100541b0 f i BaseChan.obj
 0002:0000e2f0       ?_Buy@?$vector@UPRT_COND_T@@V?$allocator@UPRT_COND_T@@@std@@@std@@IAE_NI@Z 100542f0 f i BaseChan.obj
 0002:0000e3d0       ?_Tidy@?$vector@UPRT_COND_T@@V?$allocator@UPRT_COND_T@@@std@@@std@@IAEXXZ 100543d0 f i BaseChan.obj
 0002:0000e4a0       ?_Ufill@?$vector@UPRT_COND_T@@V?$allocator@UPRT_COND_T@@@std@@@std@@IAEPAUPRT_COND_T@@PAU3@IABU3@@Z 100544a0 f i BaseChan.obj
 0002:0000e520       ??0?$_Vector_val@UPRT_COND_T@@V?$allocator@UPRT_COND_T@@@std@@@std@@IAE@V?$allocator@UPRT_COND_T@@@1@@Z 10054520 f i BaseChan.obj
 0002:0000e5a0       ??1?$_Container_base_aux_alloc_real@V?$allocator@UPRT_COND_T@@@std@@@std@@IAE@XZ 100545a0 f i BaseChan.obj
 0002:0000e650       ??0?$allocator@UPRT_COND_T@@@std@@QAE@XZ 10054650 f i BaseChan.obj
 0002:0000e690       ?capacity@?$vector@PAVIProtocolObserver@@V?$allocator@PAVIProtocolObserver@@@std@@@std@@QBEIXZ 10054690 f i BaseChan.obj
 0002:0000e700       ?end@?$vector@PAVIProtocolObserver@@V?$allocator@PAVIProtocolObserver@@@std@@@std@@QAE?AV?$_Vector_iterator@PAVIProtocolObserver@@V?$allocator@PAVIProtocolObserver@@@std@@@2@XZ 10054700 f i BaseChan.obj
 0002:0000e760       ?insert@?$vector@PAVIProtocolObserver@@V?$allocator@PAVIProtocolObserver@@@std@@@std@@QAE?AV?$_Vector_iterator@PAVIProtocolObserver@@V?$allocator@PAVIProtocolObserver@@@std@@@2@V?$_Vector_const_iterator@PAVIProtocolObserver@@V?$allocator@PAVIProtocolObserver@@@std@@@2@ABQAVIProtocolObserver@@@Z 10054760 f i BaseChan.obj
 0002:0000e840       ?_Buy@?$vector@PAVIProtocolObserver@@V?$allocator@PAVIProtocolObserver@@@std@@@std@@IAE_NI@Z 10054840 f i BaseChan.obj
 0002:0000e920       ?_Tidy@?$vector@PAVIProtocolObserver@@V?$allocator@PAVIProtocolObserver@@@std@@@std@@IAEXXZ 10054920 f i BaseChan.obj
 0002:0000e9e0       ?_Ufill@?$vector@PAVIProtocolObserver@@V?$allocator@PAVIProtocolObserver@@@std@@@std@@IAEPAPAVIProtocolObserver@@PAPAV3@IABQAV3@@Z 100549e0 f i BaseChan.obj
 0002:0000ea60       ??0?$_Vector_val@PAVIProtocolObserver@@V?$allocator@PAVIProtocolObserver@@@std@@@std@@IAE@V?$allocator@PAVIProtocolObserver@@@1@@Z 10054a60 f i BaseChan.obj
 0002:0000eae0       ??1?$_Container_base_aux_alloc_real@V?$allocator@PAVIProtocolObserver@@@std@@@std@@IAE@XZ 10054ae0 f i BaseChan.obj
 0002:0000eb90       ??0?$allocator@PAVIProtocolObserver@@@std@@QAE@XZ 10054b90 f i BaseChan.obj
 0002:0000ebd0       ??0?$_Iterator@$0A@@?$list@PAUPRT_BUFF@@V?$allocator@PAUPRT_BUFF@@@std@@@std@@QAE@PAU_Node@?$_List_nod@PAUPRT_BUFF@@V?$allocator@PAUPRT_BUFF@@@std@@@2@@Z 10054bd0 f i BaseChan.obj
 0002:0000ec30       ??E?$_Iterator@$0A@@?$list@PAUPRT_BUFF@@V?$allocator@PAUPRT_BUFF@@@std@@@std@@QAEAAV012@XZ 10054c30 f i BaseChan.obj
 0002:0000ec90       ??F?$_Iterator@$0A@@?$list@PAUPRT_BUFF@@V?$allocator@PAUPRT_BUFF@@@std@@@std@@QAEAAV012@XZ 10054c90 f i BaseChan.obj
 0002:0000ecf0       ??0?$_Const_iterator@$0A@@?$list@PAUPRT_BUFF@@V?$allocator@PAUPRT_BUFF@@@std@@@std@@QAE@XZ 10054cf0 f i BaseChan.obj
 0002:0000ed50       ??D?$_Const_iterator@$0A@@?$list@PAUPRT_BUFF@@V?$allocator@PAUPRT_BUFF@@@std@@@std@@QBEABQAUPRT_BUFF@@XZ 10054d50 f i BaseChan.obj
 0002:0000edb0       ??E?$_Const_iterator@$0A@@?$list@PAUPRT_BUFF@@V?$allocator@PAUPRT_BUFF@@@std@@@std@@QAE?AV012@H@Z 10054db0 f i BaseChan.obj
 0002:0000ee60       ?_Mynode@?$_Const_iterator@$0A@@?$list@PAUPRT_BUFF@@V?$allocator@PAUPRT_BUFF@@@std@@@std@@QBEPAU_Node@?$_List_nod@PAUPRT_BUFF@@V?$allocator@PAUPRT_BUFF@@@std@@@3@XZ 10054e60 f i BaseChan.obj
 0002:0000eea0       ??0_String_base@std@@QAE@XZ 10054ea0 f i BaseChan.obj
 0002:0000ef00       ??0_Container_base_secure@std@@QAE@XZ 10054f00 f i BaseChan.obj
 0002:0000ef50       ??0length_error@std@@QAE@ABV01@@Z 10054f50 f i BaseChan.obj
 0002:0000efc0       ??0logic_error@std@@QAE@ABV01@@Z 10054fc0 f i BaseChan.obj
 0002:0000f090       ??0?$_Bidit@PAUPRT_BUFF@@HPBQAU1@ABQAU1@@std@@QAE@XZ 10055090 f i BaseChan.obj
 0002:0000f0f0       ??0?$_Iterator_with_base@Ubidirectional_iterator_tag@std@@PAUPRT_BUFF@@HPBQAU3@ABQAU3@V_Iterator_base_aux@2@@std@@QAE@XZ 100550f0 f i BaseChan.obj
 0002:0000f150       ??0_Iterator_base_aux@std@@QAE@XZ 10055150 f i BaseChan.obj
 0002:0000f1a0       ??0?$basic_string@DU?$char_traits@D@std@@V?$allocator@D@2@@std@@QAE@PBD@Z 100551a0 f i BaseChan.obj
 0002:0000f220       ?erase@?$basic_string@DU?$char_traits@D@std@@V?$allocator@D@2@@std@@QAEAAV12@II@Z 10055220 f i BaseChan.obj
 0002:0000f310       ?_Eos@?$basic_string@DU?$char_traits@D@std@@V?$allocator@D@2@@std@@IAEXI@Z 10055310 f i BaseChan.obj
 0002:0000f390       ?assign@?$char_traits@D@std@@SAXAADABD@Z 10055390 f i BaseChan.obj
 0002:0000f3d0       ?_Grow@?$basic_string@DU?$char_traits@D@std@@V?$allocator@D@2@@std@@IAE_NI_N@Z 100553d0 f i BaseChan.obj
 0002:0000f4d0       ?_Myptr@?$basic_string@DU?$char_traits@D@std@@V?$allocator@D@2@@std@@IAEPADXZ 100554d0 f i BaseChan.obj
 0002:0000f540       ??0?$allocator@D@std@@QAE@ABV01@@Z 10055540 f i BaseChan.obj
 0002:0000f580       ?deallocate@?$allocator@D@std@@QAEXPADI@Z 10055580 f i BaseChan.obj
 0002:0000f5e0       ?_Myval@?$list@PAUPRT_BUFF@@V?$allocator@PAUPRT_BUFF@@@std@@@std@@KAAAPAUPRT_BUFF@@PAU_Node@?$_List_nod@PAUPRT_BUFF@@V?$allocator@PAUPRT_BUFF@@@std@@@2@@Z 100555e0 f i BaseChan.obj
 0002:0000f620       ?_Splice@?$list@PAUPRT_BUFF@@V?$allocator@PAUPRT_BUFF@@@std@@@std@@QAEXV?$_Const_iterator@$0A@@12@AAV12@00I_N@Z 10055620 f i BaseChan.obj
 0002:0000f840       ?_Buynode@?$list@PAUPRT_BUFF@@V?$allocator@PAUPRT_BUFF@@@std@@@std@@IAEPAU_Node@?$_List_nod@PAUPRT_BUFF@@V?$allocator@PAUPRT_BUFF@@@std@@@2@PAU342@0ABQAUPRT_BUFF@@@Z 10055840 f i BaseChan.obj
 0002:0000fa20       ?_Incsize@?$list@PAUPRT_BUFF@@V?$allocator@PAUPRT_BUFF@@@std@@@std@@IAEXI@Z 10055a20 f i BaseChan.obj
 0002:0000fb30       ??0?$_List_ptr@PAUPRT_BUFF@@V?$allocator@PAUPRT_BUFF@@@std@@@std@@IAE@V?$allocator@PAUPRT_BUFF@@@1@@Z 10055b30 f i BaseChan.obj
 0002:0000fbb0       ??0?$allocator@PAUPRT_BUFF@@@std@@QAE@ABV01@@Z 10055bb0 f i BaseChan.obj
 0002:0000fbf0       ?deallocate@?$allocator@V_Aux_cont@std@@@std@@QAEXPAV_Aux_cont@2@I@Z 10055bf0 f i BaseChan.obj
 0002:0000fc50       ?allocate@?$allocator@U_Node@?$_List_nod@PAUPRT_BUFF@@V?$allocator@PAUPRT_BUFF@@@std@@@std@@@std@@QAEPAU_Node@?$_List_nod@PAUPRT_BUFF@@V?$allocator@PAUPRT_BUFF@@@std@@@2@I@Z 10055c50 f i BaseChan.obj
 0002:0000fcb0       ?construct@?$allocator@PAU_Node@?$_List_nod@PAUPRT_BUFF@@V?$allocator@PAUPRT_BUFF@@@std@@@std@@@std@@QAEXPAPAU_Node@?$_List_nod@PAUPRT_BUFF@@V?$allocator@PAUPRT_BUFF@@@std@@@2@ABQAU342@@Z 10055cb0 f i BaseChan.obj
 0002:0000fd10       ?destroy@?$allocator@PAU_Node@?$_List_nod@PAUPRT_BUFF@@V?$allocator@PAUPRT_BUFF@@@std@@@std@@@std@@QAEXPAPAU_Node@?$_List_nod@PAUPRT_BUFF@@V?$allocator@PAUPRT_BUFF@@@std@@@2@@Z 10055d10 f i BaseChan.obj
 0002:0000fd70       ?_Make_iter@?$vector@UPRT_COND_T@@V?$allocator@UPRT_COND_T@@@std@@@std@@QBE?AV?$_Vector_iterator@UPRT_COND_T@@V?$allocator@UPRT_COND_T@@@std@@@2@V?$_Vector_const_iterator@UPRT_COND_T@@V?$allocator@UPRT_COND_T@@@std@@@2@@Z 10055d70 f i BaseChan.obj
 0002:0000fdd0       ?max_size@?$vector@UPRT_COND_T@@V?$allocator@UPRT_COND_T@@@std@@@std@@QBEIXZ 10055dd0 f i BaseChan.obj
 0002:0000fe30       ?_Destroy@?$vector@UPRT_COND_T@@V?$allocator@UPRT_COND_T@@@std@@@std@@IAEXPAUPRT_COND_T@@0@Z 10055e30 f i BaseChan.obj
 0002:0000fea0       ?_Insert_n@?$vector@UPRT_COND_T@@V?$allocator@UPRT_COND_T@@@std@@@std@@IAEXV?$_Vector_const_iterator@UPRT_COND_T@@V?$allocator@UPRT_COND_T@@@std@@@2@IABUPRT_COND_T@@@Z 10055ea0 f i BaseChan.obj
 0002:00010430       ?_Xlen@?$vector@UPRT_COND_T@@V?$allocator@UPRT_COND_T@@@std@@@std@@KAXXZ 10056430 f i BaseChan.obj
 0002:00010510       ??0?$_Container_base_aux_alloc_real@V?$allocator@UPRT_COND_T@@@std@@@std@@IAE@V?$allocator@UPRT_COND_T@@@1@@Z 10056510 f i BaseChan.obj
 0002:00010650       ??2@YAPAXIPAX@Z            10056650 f i BaseChan.obj
 0002:00010690       ??3@YAXPAX0@Z              10056690 f i BaseChan.obj
 0002:000106c0       ??0_Aux_cont@std@@QAE@QBV_Container_base_aux@1@@Z 100566c0 f i BaseChan.obj
 0002:00010710       ??0_Container_base_aux@std@@QAE@XZ 10056710 f i BaseChan.obj
 0002:00010750       ??0?$allocator@UPRT_COND_T@@@std@@QAE@ABV01@@Z 10056750 f i BaseChan.obj
 0002:00010790       ?deallocate@?$allocator@UPRT_COND_T@@@std@@QAEXPAUPRT_COND_T@@I@Z 10056790 f i BaseChan.obj
 0002:000107f0       ?allocate@?$allocator@UPRT_COND_T@@@std@@QAEPAUPRT_COND_T@@I@Z 100567f0 f i BaseChan.obj
 0002:00010850       ?begin@?$vector@PAVIProtocolObserver@@V?$allocator@PAVIProtocolObserver@@@std@@@std@@QAE?AV?$_Vector_iterator@PAVIProtocolObserver@@V?$allocator@PAVIProtocolObserver@@@std@@@2@XZ 10056850 f i BaseChan.obj
 0002:000108b0       ?max_size@?$vector@PAVIProtocolObserver@@V?$allocator@PAVIProtocolObserver@@@std@@@std@@QBEIXZ 100568b0 f i BaseChan.obj
 0002:00010910       ?_Destroy@?$vector@PAVIProtocolObserver@@V?$allocator@PAVIProtocolObserver@@@std@@@std@@IAEXPAPAVIProtocolObserver@@0@Z 10056910 f i BaseChan.obj
 0002:00010980       ?_Insert_n@?$vector@PAVIProtocolObserver@@V?$allocator@PAVIProtocolObserver@@@std@@@std@@IAEXV?$_Vector_const_iterator@PAVIProtocolObserver@@V?$allocator@PAVIProtocolObserver@@@std@@@2@IABQAVIProtocolObserver@@@Z 10056980 f i BaseChan.obj
 0002:00010e90       ?_Xlen@?$vector@PAVIProtocolObserver@@V?$allocator@PAVIProtocolObserver@@@std@@@std@@KAXXZ 10056e90 f i BaseChan.obj
 0002:00010f70       ??0?$_Container_base_aux_alloc_real@V?$allocator@PAVIProtocolObserver@@@std@@@std@@IAE@V?$allocator@PAVIProtocolObserver@@@1@@Z 10056f70 f i BaseChan.obj
 0002:000110b0       ??0?$allocator@PAVIProtocolObserver@@@std@@QAE@ABV01@@Z 100570b0 f i BaseChan.obj
 0002:000110f0       ?deallocate@?$allocator@PAVIProtocolObserver@@@std@@QAEXPAPAVIProtocolObserver@@I@Z 100570f0 f i BaseChan.obj
 0002:00011150       ?allocate@?$allocator@PAVIProtocolObserver@@@std@@QAEPAPAVIProtocolObserver@@I@Z 10057150 f i BaseChan.obj
 0002:000111b0       ??0?$_Const_iterator@$0A@@?$list@PAUPRT_BUFF@@V?$allocator@PAUPRT_BUFF@@@std@@@std@@QAE@PAU_Node@?$_List_nod@PAUPRT_BUFF@@V?$allocator@PAUPRT_BUFF@@@std@@@2@@Z 100571b0 f i BaseChan.obj
 0002:00011210       ??E?$_Const_iterator@$0A@@?$list@PAUPRT_BUFF@@V?$allocator@PAUPRT_BUFF@@@std@@@std@@QAEAAV012@XZ 10057210 f i BaseChan.obj
 0002:00011280       ??F?$_Const_iterator@$0A@@?$list@PAUPRT_BUFF@@V?$allocator@PAUPRT_BUFF@@@std@@@std@@QAEAAV012@XZ 10057280 f i BaseChan.obj
 0002:000112f0       ??0?$_Vector_iterator@UPRT_COND_T@@V?$allocator@UPRT_COND_T@@@std@@@std@@QAE@PAUPRT_COND_T@@@Z 100572f0 f i BaseChan.obj
 0002:00011350       ??H?$_Vector_iterator@UPRT_COND_T@@V?$allocator@UPRT_COND_T@@@std@@@std@@QBE?AV01@H@Z 10057350 f i BaseChan.obj
 0002:00011400       ??G?$_Vector_const_iterator@UPRT_COND_T@@V?$allocator@UPRT_COND_T@@@std@@@std@@QBEHABV01@@Z 10057400 f i BaseChan.obj
 0002:00011450       ??9?$_Vector_const_iterator@UPRT_COND_T@@V?$allocator@UPRT_COND_T@@@std@@@std@@QBE_NABV01@@Z 10057450 f i BaseChan.obj
 0002:000114c0       ??0?$_Vector_iterator@PAVIProtocolObserver@@V?$allocator@PAVIProtocolObserver@@@std@@@std@@QAE@PAPAVIProtocolObserver@@@Z 100574c0 f i BaseChan.obj
 0002:00011520       ??H?$_Vector_iterator@PAVIProtocolObserver@@V?$allocator@PAVIProtocolObserver@@@std@@@std@@QBE?AV01@H@Z 10057520 f i BaseChan.obj
 0002:000115d0       ??G?$_Vector_const_iterator@PAVIProtocolObserver@@V?$allocator@PAVIProtocolObserver@@@std@@@std@@QBEHABV01@@Z 100575d0 f i BaseChan.obj
 0002:00011620       ??0PRT_COND_T@@QAE@ABU0@@Z 10057620 f i BaseChan.obj
 0002:000116b0       ?assign@?$basic_string@DU?$char_traits@D@std@@V?$allocator@D@2@@std@@QAEAAV12@PBD@Z 100576b0 f i BaseChan.obj
 0002:00011720       ?length@?$char_traits@D@std@@SAIPBD@Z 10057720 f i BaseChan.obj
 0002:00011770       ?max_size@?$basic_string@DU?$char_traits@D@std@@V?$allocator@D@2@@std@@QBEIXZ 10057770 f i BaseChan.obj
 0002:00011800       ?_Copy@?$basic_string@DU?$char_traits@D@std@@V?$allocator@D@2@@std@@IAEXII@Z 10057800 f i BaseChan.obj
 0002:00011a30       ??0?$_String_val@DV?$allocator@D@std@@@std@@IAE@V?$allocator@D@1@@Z 10057a30 f i BaseChan.obj
 0002:00011aa0       ??0?$allocator@D@std@@QAE@XZ 10057aa0 f i BaseChan.obj
 0002:00011ae0       ??0?$list@PAUPRT_BUFF@@V?$allocator@PAUPRT_BUFF@@@std@@@std@@QAE@ABV01@@Z 10057ae0 f i BaseChan.obj
 0002:00011ca0       ?max_size@?$list@PAUPRT_BUFF@@V?$allocator@PAUPRT_BUFF@@@std@@@std@@QBEIXZ 10057ca0 f i BaseChan.obj
 0002:00011d00       ??0?$_List_nod@PAUPRT_BUFF@@V?$allocator@PAUPRT_BUFF@@@std@@@std@@IAE@V?$allocator@PAUPRT_BUFF@@@1@@Z 10057d00 f i BaseChan.obj
 0002:00011d80       ?construct@?$allocator@PAUPRT_BUFF@@@std@@QAEXPAPAUPRT_BUFF@@ABQAU3@@Z 10057d80 f i BaseChan.obj
 0002:00011de0       ?allocate@?$allocator@V_Aux_cont@std@@@std@@QAEPAV_Aux_cont@2@I@Z 10057de0 f i BaseChan.obj
 0002:00011e40       ?max_size@?$allocator@UPRT_COND_T@@@std@@QBEIXZ 10057e40 f i BaseChan.obj
 0002:00011eb0       ?max_size@?$allocator@PAVIProtocolObserver@@@std@@QBEIXZ 10057eb0 f i BaseChan.obj
 0002:00011f20       ??Y?$_Vector_iterator@UPRT_COND_T@@V?$allocator@UPRT_COND_T@@@std@@@std@@QAEAAV01@H@Z 10057f20 f i BaseChan.obj
 0002:00011f80       ??0?$_Vector_const_iterator@UPRT_COND_T@@V?$allocator@UPRT_COND_T@@@std@@@std@@QAE@PAUPRT_COND_T@@@Z 10057f80 f i BaseChan.obj
 0002:00011fe0       ??8?$_Vector_const_iterator@UPRT_COND_T@@V?$allocator@UPRT_COND_T@@@std@@@std@@QBE_NABV01@@Z 10057fe0 f i BaseChan.obj
 0002:00012030       ??Y?$_Vector_iterator@PAVIProtocolObserver@@V?$allocator@PAVIProtocolObserver@@@std@@@std@@QAEAAV01@H@Z 10058030 f i BaseChan.obj
 0002:00012090       ??0?$_Vector_const_iterator@PAVIProtocolObserver@@V?$allocator@PAVIProtocolObserver@@@std@@@std@@QAE@PAPAVIProtocolObserver@@@Z 10058090 f i BaseChan.obj
 0002:000120f0       ??0?$_Ranit@UPRT_COND_T@@HPBU1@ABU1@@std@@QAE@XZ 100580f0 f i BaseChan.obj
 0002:00012150       ??0?$_Ranit@PAVIProtocolObserver@@HPBQAV1@ABQAV1@@std@@QAE@XZ 10058150 f i BaseChan.obj
 0002:000121b0       ??0?$_Iterator_with_base@Urandom_access_iterator_tag@std@@UPRT_COND_T@@HPBU3@ABU3@V_Iterator_base_aux@2@@std@@QAE@XZ 100581b0 f i BaseChan.obj
 0002:00012210       ??0?$_Iterator_with_base@Urandom_access_iterator_tag@std@@PAVIProtocolObserver@@HPBQAV3@ABQAV3@V_Iterator_base_aux@2@@std@@QAE@XZ 10058210 f i BaseChan.obj
 0002:00012270       ?assign@?$basic_string@DU?$char_traits@D@std@@V?$allocator@D@2@@std@@QAEAAV12@PBDI@Z 10058270 f i BaseChan.obj
 0002:00012350       ?allocate@?$allocator@D@std@@QAEPADI@Z 10058350 f i BaseChan.obj
 0002:000123b0       ?max_size@?$allocator@D@std@@QBEIXZ 100583b0 f i BaseChan.obj
 0002:00012420       ?begin@?$list@PAUPRT_BUFF@@V?$allocator@PAUPRT_BUFF@@@std@@@std@@QBE?AV?$_Const_iterator@$0A@@12@XZ 10058420 f i BaseChan.obj
 0002:00012490       ?end@?$list@PAUPRT_BUFF@@V?$allocator@PAUPRT_BUFF@@@std@@@std@@QBE?AV?$_Const_iterator@$0A@@12@XZ 10058490 f i BaseChan.obj
 0002:000124f0       ??0?$_Container_base_aux_alloc_real@V?$allocator@PAUPRT_BUFF@@@std@@@std@@IAE@V?$allocator@PAUPRT_BUFF@@@1@@Z 100584f0 f i BaseChan.obj
 0002:00012630       ?max_size@?$allocator@PAUPRT_BUFF@@@std@@QBEIXZ 10058630 f i BaseChan.obj
 0002:000126a0       ??Y?$_Vector_const_iterator@UPRT_COND_T@@V?$allocator@UPRT_COND_T@@@std@@@std@@QAEAAV01@H@Z 100586a0 f i BaseChan.obj
 0002:00012700       ??Y?$_Vector_const_iterator@PAVIProtocolObserver@@V?$allocator@PAVIProtocolObserver@@@std@@@std@@QAEAAV01@H@Z 10058700 f i BaseChan.obj
 0002:00012760       ?_Inside@?$basic_string@DU?$char_traits@D@std@@V?$allocator@D@2@@std@@IAE_NPBD@Z 10058760 f i BaseChan.obj
 0002:000127e0       ??$swap@PAV_Aux_cont@std@@@std@@YAXAAPAV_Aux_cont@0@0@Z 100587e0 f i BaseChan.obj
 0002:00012840       ??$swap@V_Aux_cont@std@@@std@@YAXAAV_Aux_cont@0@0@Z 10058840 f i BaseChan.obj
 0002:000128d0       ??$?8PAUPRT_BUFF@@PAU0@@std@@YA_NABV?$allocator@PAUPRT_BUFF@@@0@0@Z 100588d0 f i BaseChan.obj
 0002:00012900       ??$swap@PAU_Node@?$_List_nod@PAUPRT_BUFF@@V?$allocator@PAUPRT_BUFF@@@std@@@std@@@std@@YAXAAPAU_Node@?$_List_nod@PAUPRT_BUFF@@V?$allocator@PAUPRT_BUFF@@@std@@@0@0@Z 10058900 f i BaseChan.obj
 0002:00012960       ??$swap@I@std@@YAXAAI0@Z   10058960 f i BaseChan.obj
 0002:000129c0       ??$copy_s@U?$char_traits@D@std@@@_Traits_helper@std@@YAPADPADIPBDI@Z 100589c0 f i BaseChan.obj
 0002:00012a40       ??$_Destroy@U_Node@?$_List_nod@PAUPRT_BUFF@@V?$allocator@PAUPRT_BUFF@@@std@@@std@@@std@@YAXPAU_Node@?$_List_nod@PAUPRT_BUFF@@V?$allocator@PAUPRT_BUFF@@@std@@@0@@Z 10058a40 f i BaseChan.obj
 0002:00012a70       ??$unchecked_copy@PAUPRT_COND_T@@PAU1@@stdext@@YAPAUPRT_COND_T@@PAU1@00@Z 10058a70 f i BaseChan.obj
 0002:00012b30       ??$unchecked_uninitialized_fill_n@PAUPRT_COND_T@@IU1@V?$allocator@UPRT_COND_T@@@std@@@stdext@@YAXPAUPRT_COND_T@@IABU1@AAV?$allocator@UPRT_COND_T@@@std@@@Z 10058b30 f i BaseChan.obj
 0002:00012bd0       ??$unchecked_uninitialized_fill_n@PAPAVIProtocolObserver@@IPAV1@V?$allocator@PAVIProtocolObserver@@@std@@@stdext@@YAXPAPAVIProtocolObserver@@IABQAV1@AAV?$allocator@PAVIProtocolObserver@@@std@@@Z 10058bd0 f i BaseChan.obj
 0002:00012c70       ??$move_s@U?$char_traits@D@std@@@_Traits_helper@std@@YAPADPADIPBDI@Z 10058c70 f i BaseChan.obj
 0002:00012cf0       ??$insert@V?$_Const_iterator@$0A@@?$list@PAUPRT_BUFF@@V?$allocator@PAUPRT_BUFF@@@std@@@std@@@?$list@PAUPRT_BUFF@@V?$allocator@PAUPRT_BUFF@@@std@@@std@@QAEXV?$_Const_iterator@$0A@@01@00@Z 10058cf0 f i BaseChan.obj
 0002:00012d90       ??$?0PAUPRT_BUFF@@@?$allocator@PAU_Node@?$_List_nod@PAUPRT_BUFF@@V?$allocator@PAUPRT_BUFF@@@std@@@std@@@std@@QAE@ABV?$allocator@PAUPRT_BUFF@@@1@@Z 10058d90 f i BaseChan.obj
 0002:00012dd0       ??$_Allocate@U_Node@?$_List_nod@PAUPRT_BUFF@@V?$allocator@PAUPRT_BUFF@@@std@@@std@@@std@@YAPAU_Node@?$_List_nod@PAUPRT_BUFF@@V?$allocator@PAUPRT_BUFF@@@std@@@0@IPAU120@@Z 10058dd0 f i BaseChan.obj
 0002:00012e70       ??0bad_alloc@std@@QAE@PBD@Z 10058e70 f i BaseChan.obj
 0002:00012ee0       ??1bad_alloc@std@@UAE@XZ   10058ee0 f i BaseChan.obj
 0002:00012f40       ??_Gbad_alloc@std@@UAEPAXI@Z 10058f40 f i BaseChan.obj
 0002:00012f40       ??_Ebad_alloc@std@@UAEPAXI@Z 10058f40 f i BaseChan.obj
 0002:00012fb0       ??$_Construct@PAU_Node@?$_List_nod@PAUPRT_BUFF@@V?$allocator@PAUPRT_BUFF@@@std@@@std@@PAU123@@std@@YAXPAPAU_Node@?$_List_nod@PAUPRT_BUFF@@V?$allocator@PAUPRT_BUFF@@@std@@@0@ABQAU120@@Z 10058fb0 f i BaseChan.obj
 0002:00013050       ??$_Destroy@PAU_Node@?$_List_nod@PAUPRT_BUFF@@V?$allocator@PAUPRT_BUFF@@@std@@@std@@@std@@YAXPAPAU_Node@?$_List_nod@PAUPRT_BUFF@@V?$allocator@PAUPRT_BUFF@@@std@@@0@@Z 10059050 f i BaseChan.obj
 0002:00013080       ??$_Destroy_range@V?$allocator@UPRT_COND_T@@@std@@@std@@YAXPAUPRT_COND_T@@0AAV?$allocator@UPRT_COND_T@@@0@@Z 10059080 f i BaseChan.obj
 0002:00013100       ??$_Umove@PAUPRT_COND_T@@@?$vector@UPRT_COND_T@@V?$allocator@UPRT_COND_T@@@std@@@std@@IAEPAUPRT_COND_T@@PAU2@00@Z 10059100 f i BaseChan.obj
 0002:00013170       ??$fill@PAUPRT_COND_T@@U1@@std@@YAXPAUPRT_COND_T@@0ABU1@@Z 10059170 f i BaseChan.obj
 0002:000131d0       ??$_Unchecked_move_backward@PAUPRT_COND_T@@PAU1@@stdext@@YAPAUPRT_COND_T@@PAU1@00@Z 100591d0 f i BaseChan.obj
 0002:00013280       ??$?0UPRT_COND_T@@@?$allocator@V_Aux_cont@std@@@std@@QAE@ABV?$allocator@UPRT_COND_T@@@1@@Z 10059280 f i BaseChan.obj
 0002:000132c0       ??$_Allocate@UPRT_COND_T@@@std@@YAPAUPRT_COND_T@@IPAU1@@Z 100592c0 f i BaseChan.obj
 0002:00013360       ??$_Destroy_range@V?$allocator@PAVIProtocolObserver@@@std@@@std@@YAXPAPAVIProtocolObserver@@0AAV?$allocator@PAVIProtocolObserver@@@0@@Z 10059360 f i BaseChan.obj
 0002:000133e0       ??$_Umove@PAPAVIProtocolObserver@@@?$vector@PAVIProtocolObserver@@V?$allocator@PAVIProtocolObserver@@@std@@@std@@IAEPAPAVIProtocolObserver@@PAPAV2@00@Z 100593e0 f i BaseChan.obj
 0002:00013450       ??$fill@PAPAVIProtocolObserver@@PAV1@@std@@YAXPAPAVIProtocolObserver@@0ABQAV1@@Z 10059450 f i BaseChan.obj
 0002:000134b0       ??$_Unchecked_move_backward@PAPAVIProtocolObserver@@PAPAV1@@stdext@@YAPAPAVIProtocolObserver@@PAPAV1@00@Z 100594b0 f i BaseChan.obj
 0002:00013560       ??$?0PAVIProtocolObserver@@@?$allocator@V_Aux_cont@std@@@std@@QAE@ABV?$allocator@PAVIProtocolObserver@@@1@@Z 10059560 f i BaseChan.obj
 0002:000135a0       ??$_Allocate@PAVIProtocolObserver@@@std@@YAPAPAVIProtocolObserver@@IPAPAV1@@Z 100595a0 f i BaseChan.obj
 0002:00013640       ??$?0PAUPRT_BUFF@@@?$allocator@U_Node@?$_List_nod@PAUPRT_BUFF@@V?$allocator@PAUPRT_BUFF@@@std@@@std@@@std@@QAE@ABV?$allocator@PAUPRT_BUFF@@@1@@Z 10059640 f i BaseChan.obj
 0002:00013680       ??$_Construct@PAUPRT_BUFF@@PAU1@@std@@YAXPAPAUPRT_BUFF@@ABQAU1@@Z 10059680 f i BaseChan.obj
 0002:00013720       ??$_Allocate@V_Aux_cont@std@@@std@@YAPAV_Aux_cont@0@IPAV10@@Z 10059720 f i BaseChan.obj
 0002:000137c0       ??$_Allocate@D@std@@YAPADIPAD@Z 100597c0 f i BaseChan.obj
 0002:00013860       ??$?0PAUPRT_BUFF@@@?$allocator@V_Aux_cont@std@@@std@@QAE@ABV?$allocator@PAUPRT_BUFF@@@1@@Z 10059860 f i BaseChan.obj
 0002:000138a0       ??0bad_alloc@std@@QAE@ABV01@@Z 100598a0 f i BaseChan.obj
 0002:00013910       ??$_Char_traits_cat@U?$char_traits@D@std@@@std@@YA?AU_Secure_char_traits_tag@0@XZ 10059910 f i BaseChan.obj
 0002:00013980       ??$copy_s@U?$char_traits@D@std@@@_Traits_helper@std@@YAPADPADIPBDIU_Secure_char_traits_tag@1@@Z 10059980 f i BaseChan.obj
 0002:000139e0       ?_Copy_s@?$char_traits@D@std@@SAPADPADIPBDI@Z 100599e0 f i BaseChan.obj
 0002:00013a40       ??$_Iter_random@PAUPRT_COND_T@@PAU1@@std@@YA?AUrandom_access_iterator_tag@0@ABQAUPRT_COND_T@@0@Z 10059a40 f i BaseChan.obj
 0002:00013ab0       ??$_Ptr_cat@PAUPRT_COND_T@@PAU1@@std@@YA?AU_Nonscalar_ptr_iterator_tag@0@AAPAUPRT_COND_T@@0@Z 10059ab0 f i BaseChan.obj
 0002:00013b20       ??$_Copy_opt@PAUPRT_COND_T@@PAU1@Urandom_access_iterator_tag@std@@@std@@YAPAUPRT_COND_T@@PAU1@00Urandom_access_iterator_tag@0@U_Nonscalar_ptr_iterator_tag@0@U_Range_checked_iterator_tag@0@@Z 10059b20 f i BaseChan.obj
 0002:00013ba0       ??$_Uninit_fill_n@PAUPRT_COND_T@@IU1@V?$allocator@UPRT_COND_T@@@std@@@std@@YAXPAUPRT_COND_T@@IABU1@AAV?$allocator@UPRT_COND_T@@@0@U_Nonscalar_ptr_iterator_tag@0@U_Range_checked_iterator_tag@0@@Z 10059ba0 f i BaseChan.obj
 0002:00013cb0       ??$_Ptr_cat@PAPAVIProtocolObserver@@PAPAV1@@std@@YA?AU_Scalar_ptr_iterator_tag@0@AAPAPAVIProtocolObserver@@0@Z 10059cb0 f i BaseChan.obj
 0002:00013d20       ??$_Uninit_fill_n@PAPAVIProtocolObserver@@IPAV1@V?$allocator@PAVIProtocolObserver@@@std@@@std@@YAXPAPAVIProtocolObserver@@IABQAV1@AAV?$allocator@PAVIProtocolObserver@@@0@U_Scalar_ptr_iterator_tag@0@U_Range_checked_iterator_tag@0@@Z 10059d20 f i BaseChan.obj
 0002:00013d80       ??$move_s@U?$char_traits@D@std@@@_Traits_helper@std@@YAPADPADIPBDIU_Secure_char_traits_tag@1@@Z 10059d80 f i BaseChan.obj
 0002:00013de0       ?_Move_s@?$char_traits@D@std@@SAPADPADIPBDI@Z 10059de0 f i BaseChan.obj
 0002:00013e40       ??$_Iter_cat@V?$_Const_iterator@$0A@@?$list@PAUPRT_BUFF@@V?$allocator@PAUPRT_BUFF@@@std@@@std@@@std@@YA?AUbidirectional_iterator_tag@0@ABV?$_Const_iterator@$0A@@?$list@PAUPRT_BUFF@@V?$allocator@PAUPRT_BUFF@@@std@@@0@@Z 10059e40 f i BaseChan.obj
 0002:00013eb0       ??$_Insert@V?$_Const_iterator@$0A@@?$list@PAUPRT_BUFF@@V?$allocator@PAUPRT_BUFF@@@std@@@std@@@?$list@PAUPRT_BUFF@@V?$allocator@PAUPRT_BUFF@@@std@@@std@@QAEXV?$_Const_iterator@$0A@@01@00Uforward_iterator_tag@1@@Z 10059eb0 f i BaseChan.obj
 0002:00014080       ??$_Destroy_range@V?$allocator@UPRT_COND_T@@@std@@@std@@YAXPAUPRT_COND_T@@0AAV?$allocator@UPRT_COND_T@@@0@U_Nonscalar_ptr_iterator_tag@0@@Z 1005a080 f i BaseChan.obj
 0002:000140f0       ??$_Unchecked_uninitialized_move@PAUPRT_COND_T@@PAU1@V?$allocator@UPRT_COND_T@@@std@@@stdext@@YAPAUPRT_COND_T@@PAU1@00AAV?$allocator@UPRT_COND_T@@@std@@@Z 1005a0f0 f i BaseChan.obj
 0002:00014190       ??$_Fill@PAUPRT_COND_T@@U1@@std@@YAXPAUPRT_COND_T@@0ABU1@@Z 1005a190 f i BaseChan.obj
 0002:00014200       ??$_Move_cat@PAUPRT_COND_T@@@std@@YA?AU_Undefined_move_tag@0@ABQAUPRT_COND_T@@@Z 1005a200 f i BaseChan.obj
 0002:00014270       ??$_Move_backward_opt@PAUPRT_COND_T@@PAU1@Urandom_access_iterator_tag@std@@U_Undefined_move_tag@3@@std@@YAPAUPRT_COND_T@@PAU1@00Urandom_access_iterator_tag@0@U_Undefined_move_tag@0@U_Range_checked_iterator_tag@0@@Z 1005a270 f i BaseChan.obj
 0002:00014310       ??$_Destroy_range@V?$allocator@PAVIProtocolObserver@@@std@@@std@@YAXPAPAVIProtocolObserver@@0AAV?$allocator@PAVIProtocolObserver@@@0@U_Scalar_ptr_iterator_tag@0@@Z 1005a310 f i BaseChan.obj
 0002:00014340       ??$_Unchecked_uninitialized_move@PAPAVIProtocolObserver@@PAPAV1@V?$allocator@PAVIProtocolObserver@@@std@@@stdext@@YAPAPAVIProtocolObserver@@PAPAV1@00AAV?$allocator@PAVIProtocolObserver@@@std@@@Z 1005a340 f i BaseChan.obj
 0002:000143e0       ??$_Fill@PAPAVIProtocolObserver@@PAV1@@std@@YAXPAPAVIProtocolObserver@@0ABQAV1@@Z 1005a3e0 f i BaseChan.obj
 0002:00014440       ??$_Iter_random@PAPAVIProtocolObserver@@PAPAV1@@std@@YA?AUrandom_access_iterator_tag@0@ABQAPAVIProtocolObserver@@0@Z 1005a440 f i BaseChan.obj
 0002:000144b0       ??$_Move_cat@PAPAVIProtocolObserver@@@std@@YA?AU_Undefined_move_tag@0@ABQAPAVIProtocolObserver@@@Z 1005a4b0 f i BaseChan.obj
 0002:00014520       ??$_Move_backward_opt@PAPAVIProtocolObserver@@PAPAV1@Urandom_access_iterator_tag@std@@U_Undefined_move_tag@3@@std@@YAPAPAVIProtocolObserver@@PAPAV1@00Urandom_access_iterator_tag@0@U_Undefined_move_tag@0@U_Range_checked_iterator_tag@0@@Z 1005a520 f i BaseChan.obj
 0002:000145c0       ??4PRT_COND_T@@QAEAAU0@ABU0@@Z 1005a5c0 f i BaseChan.obj
 0002:00014650       ??4?$list@PAUPRT_BUFF@@V?$allocator@PAUPRT_BUFF@@@std@@@std@@QAEAAV01@ABV01@@Z 1005a650 f i BaseChan.obj
 0002:000146f0       ?construct@?$allocator@UPRT_COND_T@@@std@@QAEXPAUPRT_COND_T@@ABU3@@Z 1005a6f0 f i BaseChan.obj
 0002:00014750       ?destroy@?$allocator@UPRT_COND_T@@@std@@QAEXPAUPRT_COND_T@@@Z 1005a750 f i BaseChan.obj
 0002:000147b0       ??$unchecked_fill_n@PAPAVIProtocolObserver@@IPAV1@@stdext@@YAXPAPAVIProtocolObserver@@IABQAV1@@Z 1005a7b0 f i BaseChan.obj
 0002:00014840       ??$_Uninit_move@PAUPRT_COND_T@@PAU1@V?$allocator@UPRT_COND_T@@@std@@U_Undefined_move_tag@3@@std@@YAPAUPRT_COND_T@@PAU1@00AAV?$allocator@UPRT_COND_T@@@0@U_Undefined_move_tag@0@U_Range_checked_iterator_tag@0@@Z 1005a840 f i BaseChan.obj
 0002:000148a0       ??$_Copy_backward_opt@PAUPRT_COND_T@@PAU1@Urandom_access_iterator_tag@std@@@std@@YAPAUPRT_COND_T@@PAU1@00Urandom_access_iterator_tag@0@U_Nonscalar_ptr_iterator_tag@0@U_Range_checked_iterator_tag@0@@Z 1005a8a0 f i BaseChan.obj
 0002:00014920       ??$_Uninit_move@PAPAVIProtocolObserver@@PAPAV1@V?$allocator@PAVIProtocolObserver@@@std@@U_Undefined_move_tag@3@@std@@YAPAPAVIProtocolObserver@@PAPAV1@00AAV?$allocator@PAVIProtocolObserver@@@0@U_Undefined_move_tag@0@U_Range_checked_iterator_tag@0@@Z 1005a920 f i BaseChan.obj
 0002:00014980       ??$_Copy_backward_opt@PAPAVIProtocolObserver@@PAPAV1@Urandom_access_iterator_tag@std@@@std@@YAPAPAVIProtocolObserver@@PAPAV1@00Urandom_access_iterator_tag@0@U_Scalar_ptr_iterator_tag@0@U_Range_checked_iterator_tag@0@@Z 1005a980 f i BaseChan.obj
 0002:00014a10       ??$assign@V?$_Const_iterator@$0A@@?$list@PAUPRT_BUFF@@V?$allocator@PAUPRT_BUFF@@@std@@@std@@@?$list@PAUPRT_BUFF@@V?$allocator@PAUPRT_BUFF@@@std@@@std@@QAEXV?$_Const_iterator@$0A@@01@0@Z 1005aa10 f i BaseChan.obj
 0002:00014aa0       ??$_Construct@UPRT_COND_T@@U1@@std@@YAXPAUPRT_COND_T@@ABU1@@Z 1005aaa0 f i BaseChan.obj
 0002:00014b90       ??$_Destroy@UPRT_COND_T@@@std@@YAXPAUPRT_COND_T@@@Z 1005ab90 f i BaseChan.obj
 0002:00014be0       ??_GPRT_COND_T@@QAEPAXI@Z  1005abe0 f i BaseChan.obj
 0002:00014c50       ??$_Iter_cat@PAPAVIProtocolObserver@@@std@@YA?AUrandom_access_iterator_tag@0@ABQAPAVIProtocolObserver@@@Z 1005ac50 f i BaseChan.obj
 0002:00014cc0       ??$_Fill_n@PAPAVIProtocolObserver@@IPAV1@Urandom_access_iterator_tag@std@@@std@@YAXPAPAVIProtocolObserver@@IABQAV1@Urandom_access_iterator_tag@0@U_Range_checked_iterator_tag@0@@Z 1005acc0 f i BaseChan.obj
 0002:00014d30       ??$unchecked_uninitialized_copy@PAUPRT_COND_T@@PAU1@V?$allocator@UPRT_COND_T@@@std@@@stdext@@YAPAUPRT_COND_T@@PAU1@00AAV?$allocator@UPRT_COND_T@@@std@@@Z 1005ad30 f i BaseChan.obj
 0002:00014dd0       ??$unchecked_uninitialized_copy@PAPAVIProtocolObserver@@PAPAV1@V?$allocator@PAVIProtocolObserver@@@std@@@stdext@@YAPAPAVIProtocolObserver@@PAPAV1@00AAV?$allocator@PAVIProtocolObserver@@@std@@@Z 1005add0 f i BaseChan.obj
 0002:00014e70       ??$_Assign@V?$_Const_iterator@$0A@@?$list@PAUPRT_BUFF@@V?$allocator@PAUPRT_BUFF@@@std@@@std@@@?$list@PAUPRT_BUFF@@V?$allocator@PAUPRT_BUFF@@@std@@@std@@QAEXV?$_Const_iterator@$0A@@01@0Uinput_iterator_tag@1@@Z 1005ae70 f i BaseChan.obj
 0002:00014f20       ??$_Fill_n@PAPAVIProtocolObserver@@IPAV1@@std@@YAXPAPAVIProtocolObserver@@IABQAV1@U_Range_checked_iterator_tag@0@@Z 1005af20 f i BaseChan.obj
 0002:00014f80       ??$_Uninit_copy@PAUPRT_COND_T@@PAU1@V?$allocator@UPRT_COND_T@@@std@@@std@@YAPAUPRT_COND_T@@PAU1@00AAV?$allocator@UPRT_COND_T@@@0@U_Nonscalar_ptr_iterator_tag@0@U_Range_checked_iterator_tag@0@@Z 1005af80 f i BaseChan.obj
 0002:000150a0       ??$_Uninit_copy@PAPAVIProtocolObserver@@PAPAV1@V?$allocator@PAVIProtocolObserver@@@std@@@std@@YAPAPAVIProtocolObserver@@PAPAV1@00AAV?$allocator@PAVIProtocolObserver@@@0@U_Scalar_ptr_iterator_tag@0@U_Range_checked_iterator_tag@0@@Z 1005b0a0 f i BaseChan.obj
 0002:00015130       ??0CBmChannel@@QAE@XZ      1005b130 f   BmChannel.obj
 0002:00015250       ??_ECBmChannel@@UAEPAXI@Z  1005b250 f i BmChannel.obj
 0002:00015250       ??_GCBmChannel@@UAEPAXI@Z  1005b250 f i BmChannel.obj
 0002:000152c0       ??1CBmChannel@@UAE@XZ      1005b2c0 f   BmChannel.obj
 0002:00015380       ?SetProperty@CBmChannel@@UAEHJKPBX@Z 1005b380 f   BmChannel.obj
 0002:00015440       ?Write@CBmChannel@@UAEKPAXKK@Z 1005b440 f   BmChannel.obj
 0002:00015a90       ?CompareCond@CBmChannel@@MAE_NPAX0_N@Z 1005ba90 f   BmChannel.obj
 0002:00015ae0       ?GetCondition@CBmChannel@@MAEPAXPAXI_N@Z 1005bae0 f   BmChannel.obj
 0002:00015b60       ?CopyCondition@CBmChannel@@MAEPAXPAX@Z 1005bb60 f   BmChannel.obj
 0002:00015ba0       ?FreeCondition@CBmChannel@@MAEXPAX@Z 1005bba0 f   BmChannel.obj
 0002:00015be0       ??0CBmPackage@@QAE@XZ      1005bbe0 f   BmPackage.obj
 0002:00015c80       ??_GCBmPackage@@UAEPAXI@Z  1005bc80 f i BmPackage.obj
 0002:00015c80       ??_ECBmPackage@@UAEPAXI@Z  1005bc80 f i BmPackage.obj
 0002:00015cf0       ??1CBmPackage@@UAE@XZ      1005bcf0 f   BmPackage.obj
 0002:00015d50       ?CheckLength@CBmPackage@@MAE_NXZ 1005bd50 f   BmPackage.obj
 0002:00016060       ?SetProperty@CBmPackage@@UAE_NJIPBX@Z 1005c060 f   BmPackage.obj
 0002:00016100       ?Package@CBmPackage@@UAEIPAXHPAPAXPAH@Z 1005c100 f   BmPackage.obj
 0002:00016580       _crc_16_l_calc             1005c580 f   crc.obj
 0002:00016680       _frm_chk                   1005c680 f   crc.obj
 0002:00016790       _DllMain@12                1005c790 f   DiagChan.obj
 0002:00016820       ?LoadChannelLib@@YAHXZ     1005c820 f   DiagChan.obj
 0002:000169b0       ?FreeChannelLib@@YAXXZ     1005c9b0 f   DiagChan.obj
 0002:00016a20       _CreateDiagChannel         1005ca20 f   DiagChan.obj
 0002:00016ae0       _ReleaseDiagChannel        1005cae0 f   DiagChan.obj
 0002:00016b90       _CreateDiagPackage         1005cb90 f   DiagChan.obj
 0002:00016c50       _ReleaseDiagPackage        1005cc50 f   DiagChan.obj
 0002:00016cc0       _CreateBmChannel           1005ccc0 f   DiagChan.obj
 0002:00016d80       _ReleaseBmChannel          1005cd80 f   DiagChan.obj
 0002:00016e30       _CreateBmPackage           1005ce30 f   DiagChan.obj
 0002:00016ef0       _ReleaseBmPackage          1005cef0 f   DiagChan.obj
 0002:00016f60       _CreateProtoChannel        1005cf60 f   DiagChan.obj
 0002:00017140       _ReleaseProtoChannel       1005d140 f   DiagChan.obj
 0002:000171f0       _CreateProtoPackage        1005d1f0 f   DiagChan.obj
 0002:000173d0       _ReleaseProtoPackage       1005d3d0 f   DiagChan.obj
 0002:00017440       ??0CDiagChannel@@QAE@XZ    1005d440 f   DiagChannel.obj
 0002:00017580       ??_GCDiagChannel@@UAEPAXI@Z 1005d580 f i DiagChannel.obj
 0002:00017580       ??_ECDiagChannel@@UAEPAXI@Z 1005d580 f i DiagChannel.obj
 0002:000175f0       ??1CDiagChannel@@UAE@XZ    1005d5f0 f   DiagChannel.obj
 0002:000176b0       ?CompareCond@CDiagChannel@@MAE_NPAX0_N@Z 1005d6b0 f   DiagChannel.obj
 0002:00017800       ?GetCondition@CDiagChannel@@MAEPAXPAXI_N@Z 1005d800 f   DiagChannel.obj
 0002:00017c40       ?CopyCondition@CDiagChannel@@MAEPAXPAX@Z 1005dc40 f   DiagChannel.obj
 0002:00017cc0       ?FreeCondition@CDiagChannel@@MAEXPAX@Z 1005dcc0 f   DiagChannel.obj
 0002:00017d20       ?IsLastPackage@CDiagChannel@@MAE_NPAX@Z 1005dd20 f   DiagChannel.obj
 0002:00017df0       ?LoadTypeDef@CDiagChannel@@IAEXXZ 1005ddf0 f   DiagChannel.obj
 0002:000180b0       ?wcsrchr@@YAPA_WPA_W_W@Z   1005e0b0 f i DiagChannel.obj
 0002:00018110       ?GetProperty@CDiagChannel@@UAEHJKPAX@Z 1005e110 f   DiagChannel.obj
 0002:000181c0       ?SetProperty@CDiagChannel@@UAEHJKPBX@Z 1005e1c0 f   DiagChannel.obj
 0002:000182c0       ??0CDiagPackage@@QAE@XZ    1005e2c0 f   DiagPackage.obj
 0002:000184a0       ??_ECDiagPackage@@UAEPAXI@Z 1005e4a0 f i DiagPackage.obj
 0002:000184a0       ??_GCDiagPackage@@UAEPAXI@Z 1005e4a0 f i DiagPackage.obj
 0002:00018510       ??0IProtocolPackage@@QAE@XZ 1005e510 f i DiagPackage.obj
 0002:00018560       ??1CDiagPackage@@UAE@XZ    1005e560 f   DiagPackage.obj
 0002:000185e0       ?Append@CDiagPackage@@UAEIPAXI@Z 1005e5e0 f   DiagPackage.obj
 0002:00018c60       ?NoHeaderAppend@CDiagPackage@@MAEIPAXI@Z 1005ec60 f   DiagPackage.obj
 0002:00019230       ?NoEscapeAppend@CDiagPackage@@MAEIPAXI@Z 1005f230 f   DiagPackage.obj
 0002:00019a50       ?Clear@CDiagPackage@@UAEXXZ 1005fa50 f   DiagPackage.obj
 0002:00019c10       ?GetPackages@CDiagPackage@@UAEIPAXH@Z 1005fc10 f   DiagPackage.obj
 0002:00019d30       ?FreeMem@CDiagPackage@@UAEXPAX@Z 1005fd30 f   DiagPackage.obj
 0002:00019d90       ?GetProperty@CDiagPackage@@UAE_NJIPAX@Z 1005fd90 f   DiagPackage.obj
 0002:00019e90       ?SetProperty@CDiagPackage@@UAE_NJIPBX@Z 1005fe90 f   DiagPackage.obj
 0002:00019fe0       ?LockPakcageList@CDiagPackage@@IAEX_N@Z 1005ffe0 f   DiagPackage.obj
 0002:0001a070       ?Package@CDiagPackage@@UAEIPAXHPAPAXPAH@Z 10060070 f   DiagPackage.obj
 0002:0001a6f0       ?PackageQueryEndianCmd@CDiagPackage@@IAEIPAXHPAPAXPAH@Z 100606f0 f   DiagPackage.obj
 0002:0001aa70       ?AddPackage@CDiagPackage@@MAE_NXZ 10060a70 f   DiagPackage.obj
 0002:0001ab40       ?CheckLength@CDiagPackage@@MAE_NXZ 10060b40 f   DiagPackage.obj
 0002:0001aea0       ?AddToPackageList@CDiagPackage@@MAEXXZ 10060ea0 f   DiagPackage.obj
 0002:0001af80       ?Copy@CDiagPackage@@IAEXPAEAAHPBEH@Z 10060f80 f   DiagPackage.obj
 0002:0001b080       ?CheckIsDataModeSwitch@CDiagPackage@@IAE_NXZ 10061080 f   DiagPackage.obj
 0002:0001b130       ?RawDataAppend@CDiagPackage@@IAEIPAXI@Z 10061130 f   DiagPackage.obj
 0002:0001b230       ??0?$deque@PAUPRT_BUFF@@V?$allocator@PAUPRT_BUFF@@@std@@@std@@QAE@XZ 10061230 f i DiagPackage.obj
 0002:0001b2d0       ??1?$deque@PAUPRT_BUFF@@V?$allocator@PAUPRT_BUFF@@@std@@@std@@QAE@XZ 100612d0 f i DiagPackage.obj
 0002:0001b370       ?begin@?$deque@PAUPRT_BUFF@@V?$allocator@PAUPRT_BUFF@@@std@@@std@@QAE?AV?$_Deque_iterator@PAUPRT_BUFF@@V?$allocator@PAUPRT_BUFF@@@std@@$0A@@2@XZ 10061370 f i DiagPackage.obj
 0002:0001b3e0       ?end@?$deque@PAUPRT_BUFF@@V?$allocator@PAUPRT_BUFF@@@std@@@std@@QAE?AV?$_Deque_iterator@PAUPRT_BUFF@@V?$allocator@PAUPRT_BUFF@@@std@@$0A@@2@XZ 100613e0 f i DiagPackage.obj
 0002:0001b450       ?size@?$deque@PAUPRT_BUFF@@V?$allocator@PAUPRT_BUFF@@@std@@@std@@QBEIXZ 10061450 f i DiagPackage.obj
 0002:0001b490       ?front@?$deque@PAUPRT_BUFF@@V?$allocator@PAUPRT_BUFF@@@std@@@std@@QAEAAPAUPRT_BUFF@@XZ 10061490 f i DiagPackage.obj
 0002:0001b4f0       ?pop_front@?$deque@PAUPRT_BUFF@@V?$allocator@PAUPRT_BUFF@@@std@@@std@@QAEXXZ 100614f0 f i DiagPackage.obj
 0002:0001b5f0       ?push_back@?$deque@PAUPRT_BUFF@@V?$allocator@PAUPRT_BUFF@@@std@@@std@@QAEXABQAUPRT_BUFF@@@Z 100615f0 f i DiagPackage.obj
 0002:0001b740       ?erase@?$deque@PAUPRT_BUFF@@V?$allocator@PAUPRT_BUFF@@@std@@@std@@QAE?AV?$_Deque_iterator@PAUPRT_BUFF@@V?$allocator@PAUPRT_BUFF@@@std@@$0A@@2@V?$_Deque_const_iterator@PAUPRT_BUFF@@V?$allocator@PAUPRT_BUFF@@@std@@$0A@@2@0@Z 10061740 f i DiagPackage.obj
 0002:0001b960       ??1?$_Deque_val@PAUPRT_BUFF@@V?$allocator@PAUPRT_BUFF@@@std@@@std@@QAE@XZ 10061960 f i DiagPackage.obj
 0002:0001b9b0       ??1?$_Deque_map@PAUPRT_BUFF@@V?$allocator@PAUPRT_BUFF@@@std@@@std@@QAE@XZ 100619b0 f i DiagPackage.obj
 0002:0001ba00       ?_Make_iter@?$deque@PAUPRT_BUFF@@V?$allocator@PAUPRT_BUFF@@@std@@@std@@QBE?AV?$_Deque_iterator@PAUPRT_BUFF@@V?$allocator@PAUPRT_BUFF@@@std@@$0A@@2@V?$_Deque_const_iterator@PAUPRT_BUFF@@V?$allocator@PAUPRT_BUFF@@@std@@$0A@@2@@Z 10061a00 f i DiagPackage.obj
 0002:0001ba60       ?empty@?$deque@PAUPRT_BUFF@@V?$allocator@PAUPRT_BUFF@@@std@@@std@@QBE_NXZ 10061a60 f i DiagPackage.obj
 0002:0001bab0       ?pop_back@?$deque@PAUPRT_BUFF@@V?$allocator@PAUPRT_BUFF@@@std@@@std@@QAEXXZ 10061ab0 f i DiagPackage.obj
 0002:0001bbb0       ?_Growmap@?$deque@PAUPRT_BUFF@@V?$allocator@PAUPRT_BUFF@@@std@@@std@@IAEXI@Z 10061bb0 f i DiagPackage.obj
 0002:0001beb0       ?_Tidy@?$deque@PAUPRT_BUFF@@V?$allocator@PAUPRT_BUFF@@@std@@@std@@IAEXXZ 10061eb0 f i DiagPackage.obj
 0002:0001bfd0       ??0?$_Deque_val@PAUPRT_BUFF@@V?$allocator@PAUPRT_BUFF@@@std@@@std@@IAE@V?$allocator@PAUPRT_BUFF@@@1@@Z 10061fd0 f i DiagPackage.obj
 0002:0001c050       ?allocate@?$allocator@PAUPRT_BUFF@@@std@@QAEPAPAUPRT_BUFF@@I@Z 10062050 f i DiagPackage.obj
 0002:0001c0b0       ?destroy@?$allocator@PAUPRT_BUFF@@@std@@QAEXPAPAUPRT_BUFF@@@Z 100620b0 f i DiagPackage.obj
 0002:0001c110       ??0?$_Deque_iterator@PAUPRT_BUFF@@V?$allocator@PAUPRT_BUFF@@@std@@$0A@@std@@QAE@IPBV_Container_base_aux@1@@Z 10062110 f i DiagPackage.obj
 0002:0001c170       ??D?$_Deque_iterator@PAUPRT_BUFF@@V?$allocator@PAUPRT_BUFF@@@std@@$0A@@std@@QBEAAPAUPRT_BUFF@@XZ 10062170 f i DiagPackage.obj
 0002:0001c1c0       ??H?$_Deque_iterator@PAUPRT_BUFF@@V?$allocator@PAUPRT_BUFF@@@std@@$0A@@std@@QBE?AV01@H@Z 100621c0 f i DiagPackage.obj
 0002:0001c270       ??G?$_Deque_iterator@PAUPRT_BUFF@@V?$allocator@PAUPRT_BUFF@@@std@@$0A@@std@@QBEHABV?$_Deque_const_iterator@PAUPRT_BUFF@@V?$allocator@PAUPRT_BUFF@@@std@@$0A@@1@@Z 10062270 f i DiagPackage.obj
 0002:0001c2d0       ?max_size@?$deque@PAUPRT_BUFF@@V?$allocator@PAUPRT_BUFF@@@std@@@std@@QBEIXZ 100622d0 f i DiagPackage.obj
 0002:0001c330       ?_Xlen@?$deque@PAUPRT_BUFF@@V?$allocator@PAUPRT_BUFF@@@std@@@std@@KAXXZ 10062330 f i DiagPackage.obj
 0002:0001c410       ??0?$_Deque_map@PAUPRT_BUFF@@V?$allocator@PAUPRT_BUFF@@@std@@@std@@IAE@V?$allocator@PAUPRT_BUFF@@@1@@Z 10062410 f i DiagPackage.obj
 0002:0001c490       ?deallocate@?$allocator@PAUPRT_BUFF@@@std@@QAEXPAPAUPRT_BUFF@@I@Z 10062490 f i DiagPackage.obj
 0002:0001c4f0       ?deallocate@?$allocator@PAPAUPRT_BUFF@@@std@@QAEXPAPAPAUPRT_BUFF@@I@Z 100624f0 f i DiagPackage.obj
 0002:0001c550       ?allocate@?$allocator@PAPAUPRT_BUFF@@@std@@QAEPAPAPAUPRT_BUFF@@I@Z 10062550 f i DiagPackage.obj
 0002:0001c5b0       ?destroy@?$allocator@PAPAUPRT_BUFF@@@std@@QAEXPAPAPAUPRT_BUFF@@@Z 100625b0 f i DiagPackage.obj
 0002:0001c610       ??Y?$_Deque_iterator@PAUPRT_BUFF@@V?$allocator@PAUPRT_BUFF@@@std@@$0A@@std@@QAEAAV01@H@Z 10062610 f i DiagPackage.obj
 0002:0001c670       ??0?$_Deque_const_iterator@PAUPRT_BUFF@@V?$allocator@PAUPRT_BUFF@@@std@@$0A@@std@@QAE@IPBV_Container_base_aux@1@@Z 10062670 f i DiagPackage.obj
 0002:0001c6e0       ?_Set_container@_Iterator_base_aux@std@@QAEXQBV_Container_base_aux@2@@Z 100626e0 f i DiagPackage.obj
 0002:0001c730       ??D?$_Deque_const_iterator@PAUPRT_BUFF@@V?$allocator@PAUPRT_BUFF@@@std@@$0A@@std@@QBEABQAUPRT_BUFF@@XZ 10062730 f i DiagPackage.obj
 0002:0001c7e0       ?_Getmycont@_Iterator_base_aux@std@@QBEPBV_Container_base_aux@2@XZ 100627e0 f i DiagPackage.obj
 0002:0001c860       ?_Getcont@_Aux_cont@std@@QBEPBV_Container_base_aux@2@XZ 10062860 f i DiagPackage.obj
 0002:0001c8a0       ??G?$_Deque_const_iterator@PAUPRT_BUFF@@V?$allocator@PAUPRT_BUFF@@@std@@$0A@@std@@QBEHABV01@@Z 100628a0 f i DiagPackage.obj
 0002:0001c930       ??0?$_Ranit@PAUPRT_BUFF@@HPBQAU1@ABQAU1@@std@@QAE@XZ 10062930 f i DiagPackage.obj
 0002:0001c990       ??0?$_Iterator_with_base@Urandom_access_iterator_tag@std@@PAUPRT_BUFF@@HPBQAU3@ABQAU3@V_Iterator_base_aux@2@@std@@QAE@XZ 10062990 f i DiagPackage.obj
 0002:0001c9f0       ??Y?$_Deque_const_iterator@PAUPRT_BUFF@@V?$allocator@PAUPRT_BUFF@@@std@@$0A@@std@@QAEAAV01@H@Z 100629f0 f i DiagPackage.obj
 0002:0001ca40       ??$copy_backward@V?$_Deque_iterator@PAUPRT_BUFF@@V?$allocator@PAUPRT_BUFF@@@std@@$0A@@std@@V12@@std@@YA?AV?$_Deque_iterator@PAUPRT_BUFF@@V?$allocator@PAUPRT_BUFF@@@std@@$0A@@0@V10@00@Z 10062a40 f i DiagPackage.obj
 0002:0001cb10       ??$copy@V?$_Deque_iterator@PAUPRT_BUFF@@V?$allocator@PAUPRT_BUFF@@@std@@$0A@@std@@V12@@std@@YA?AV?$_Deque_iterator@PAUPRT_BUFF@@V?$allocator@PAUPRT_BUFF@@@std@@$0A@@0@V10@00@Z 10062b10 f i DiagPackage.obj
 0002:0001cbe0       ??$unchecked_uninitialized_copy@PAPAPAUPRT_BUFF@@PAPAPAU1@V?$allocator@PAPAUPRT_BUFF@@@std@@@stdext@@YAPAPAPAUPRT_BUFF@@PAPAPAU1@00AAV?$allocator@PAPAUPRT_BUFF@@@std@@@Z 10062be0 f i DiagPackage.obj
 0002:0001cc80       ??$unchecked_uninitialized_fill_n@PAPAPAUPRT_BUFF@@IPAPAU1@V?$allocator@PAPAUPRT_BUFF@@@std@@@stdext@@YAXPAPAPAUPRT_BUFF@@IABQAPAU1@AAV?$allocator@PAPAUPRT_BUFF@@@std@@@Z 10062c80 f i DiagPackage.obj
 0002:0001cd20       ??$_Destroy_range@V?$allocator@PAPAUPRT_BUFF@@@std@@@std@@YAXPAPAPAUPRT_BUFF@@0AAV?$allocator@PAPAUPRT_BUFF@@@0@@Z 10062d20 f i DiagPackage.obj
 0002:0001cda0       ??$_Allocate@PAUPRT_BUFF@@@std@@YAPAPAUPRT_BUFF@@IPAPAU1@@Z 10062da0 f i DiagPackage.obj
 0002:0001ce40       ??$_Destroy@PAUPRT_BUFF@@@std@@YAXPAPAUPRT_BUFF@@@Z 10062e40 f i DiagPackage.obj
 0002:0001ce70       ??$?0PAUPRT_BUFF@@@?$allocator@PAPAUPRT_BUFF@@@std@@QAE@ABV?$allocator@PAUPRT_BUFF@@@1@@Z 10062e70 f i DiagPackage.obj
 0002:0001ceb0       ??$_Allocate@PAPAUPRT_BUFF@@@std@@YAPAPAPAUPRT_BUFF@@IPAPAPAU1@@Z 10062eb0 f i DiagPackage.obj
 0002:0001cf50       ??$_Destroy@PAPAUPRT_BUFF@@@std@@YAXPAPAPAUPRT_BUFF@@@Z 10062f50 f i DiagPackage.obj
 0002:0001cf80       ??$_Iter_random@V?$_Deque_iterator@PAUPRT_BUFF@@V?$allocator@PAUPRT_BUFF@@@std@@$0A@@std@@V12@@std@@YA?AUrandom_access_iterator_tag@0@ABV?$_Deque_iterator@PAUPRT_BUFF@@V?$allocator@PAUPRT_BUFF@@@std@@$0A@@0@0@Z 10062f80 f i DiagPackage.obj
 0002:0001cff0       ??$_Ptr_cat@V?$_Deque_iterator@PAUPRT_BUFF@@V?$allocator@PAUPRT_BUFF@@@std@@$0A@@std@@V12@@std@@YA?AU_Nonscalar_ptr_iterator_tag@0@AAV?$_Deque_iterator@PAUPRT_BUFF@@V?$allocator@PAUPRT_BUFF@@@std@@$0A@@0@0@Z 10062ff0 f i DiagPackage.obj
 0002:0001d060       ??$_Copy_backward_opt@V?$_Deque_iterator@PAUPRT_BUFF@@V?$allocator@PAUPRT_BUFF@@@std@@$0A@@std@@V12@Urandom_access_iterator_tag@2@@std@@YA?AV?$_Deque_iterator@PAUPRT_BUFF@@V?$allocator@PAUPRT_BUFF@@@std@@$0A@@0@V10@00Urandom_access_iterator_tag@0@U_Nonscalar_ptr_iterator_tag@0@U_Range_checked_iterator_tag@0@@Z 10063060 f i DiagPackage.obj
 0002:0001d100       ??$_Copy_opt@V?$_Deque_iterator@PAUPRT_BUFF@@V?$allocator@PAUPRT_BUFF@@@std@@$0A@@std@@V12@Urandom_access_iterator_tag@2@@std@@YA?AV?$_Deque_iterator@PAUPRT_BUFF@@V?$allocator@PAUPRT_BUFF@@@std@@$0A@@0@V10@00Urandom_access_iterator_tag@0@U_Nonscalar_ptr_iterator_tag@0@U_Range_checked_iterator_tag@0@@Z 10063100 f i DiagPackage.obj
 0002:0001d1a0       ??$_Ptr_cat@PAPAPAUPRT_BUFF@@PAPAPAU1@@std@@YA?AU_Scalar_ptr_iterator_tag@0@AAPAPAPAUPRT_BUFF@@0@Z 100631a0 f i DiagPackage.obj
 0002:0001d210       ??$_Uninit_copy@PAPAPAUPRT_BUFF@@PAPAPAU1@V?$allocator@PAPAUPRT_BUFF@@@std@@@std@@YAPAPAPAUPRT_BUFF@@PAPAPAU1@00AAV?$allocator@PAPAUPRT_BUFF@@@0@U_Scalar_ptr_iterator_tag@0@U_Range_checked_iterator_tag@0@@Z 10063210 f i DiagPackage.obj
 0002:0001d2a0       ??$_Uninit_fill_n@PAPAPAUPRT_BUFF@@IPAPAU1@V?$allocator@PAPAUPRT_BUFF@@@std@@@std@@YAXPAPAPAUPRT_BUFF@@IABQAPAU1@AAV?$allocator@PAPAUPRT_BUFF@@@0@U_Scalar_ptr_iterator_tag@0@U_Range_checked_iterator_tag@0@@Z 100632a0 f i DiagPackage.obj
 0002:0001d300       ??$_Destroy_range@V?$allocator@PAPAUPRT_BUFF@@@std@@@std@@YAXPAPAPAUPRT_BUFF@@0AAV?$allocator@PAPAUPRT_BUFF@@@0@U_Scalar_ptr_iterator_tag@0@@Z 10063300 f i DiagPackage.obj
 0002:0001d330       ??E?$_Deque_iterator@PAUPRT_BUFF@@V?$allocator@PAUPRT_BUFF@@@std@@$0A@@std@@QAEAAV01@XZ 10063330 f i DiagPackage.obj
 0002:0001d390       ??F?$_Deque_iterator@PAUPRT_BUFF@@V?$allocator@PAUPRT_BUFF@@@std@@$0A@@std@@QAEAAV01@XZ 10063390 f i DiagPackage.obj
 0002:0001d3f0       ??9?$_Deque_const_iterator@PAUPRT_BUFF@@V?$allocator@PAUPRT_BUFF@@@std@@$0A@@std@@QBE_NABV01@@Z 100633f0 f i DiagPackage.obj
 0002:0001d460       ??E?$_Deque_const_iterator@PAUPRT_BUFF@@V?$allocator@PAUPRT_BUFF@@@std@@$0A@@std@@QAEAAV01@XZ 10063460 f i DiagPackage.obj
 0002:0001d4b0       ??F?$_Deque_const_iterator@PAUPRT_BUFF@@V?$allocator@PAUPRT_BUFF@@@std@@$0A@@std@@QAEAAV01@XZ 100634b0 f i DiagPackage.obj
 0002:0001d500       ??8?$_Deque_const_iterator@PAUPRT_BUFF@@V?$allocator@PAUPRT_BUFF@@@std@@$0A@@std@@QBE_NABV01@@Z 10063500 f i DiagPackage.obj
 0002:0001d5a0       ?_Same_container@_Iterator_base_aux@std@@QBE_NABV12@@Z 100635a0 f i DiagPackage.obj
 0002:0001d5f0       ??$unchecked_fill_n@PAPAPAUPRT_BUFF@@IPAPAU1@@stdext@@YAXPAPAPAUPRT_BUFF@@IABQAPAU1@@Z 100635f0 f i DiagPackage.obj
 0002:0001d680       ??$_Iter_cat@PAPAPAUPRT_BUFF@@@std@@YA?AUrandom_access_iterator_tag@0@ABQAPAPAUPRT_BUFF@@@Z 10063680 f i DiagPackage.obj
 0002:0001d6f0       ??$_Fill_n@PAPAPAUPRT_BUFF@@IPAPAU1@Urandom_access_iterator_tag@std@@@std@@YAXPAPAPAUPRT_BUFF@@IABQAPAU1@Urandom_access_iterator_tag@0@U_Range_checked_iterator_tag@0@@Z 100636f0 f i DiagPackage.obj
 0002:0001d760       ??$_Fill_n@PAPAPAUPRT_BUFF@@IPAPAU1@@std@@YAXPAPAPAUPRT_BUFF@@IABQAPAU1@U_Range_checked_iterator_tag@0@@Z 10063760 f i DiagPackage.obj
 0002:0001d7c0       _dlmalloc                  100637c0 f   dlmalloc.obj
 0002:00021640       _dlfree                    10067640 f   dlmalloc.obj
 0002:00023410       _dlcalloc                  10069410 f   dlmalloc.obj
 0002:000234e0       _dlrealloc                 100694e0 f   dlmalloc.obj
 0002:00023b00       _dlmemalign                10069b00 f   dlmalloc.obj
 0002:00023f80       _dlindependent_calloc      10069f80 f   dlmalloc.obj
 0002:00024430       _dlindependent_comalloc    1006a430 f   dlmalloc.obj
 0002:00024490       _dlvalloc                  1006a490 f   dlmalloc.obj
 0002:00024500       _dlpvalloc                 1006a500 f   dlmalloc.obj
 0002:00024590       _dlmalloc_trim             1006a590 f   dlmalloc.obj
 0002:00024660       _dlmalloc_footprint        1006a660 f   dlmalloc.obj
 0002:000246a0       _dlmalloc_max_footprint    1006a6a0 f   dlmalloc.obj
 0002:000246e0       _dlmallinfo                1006a6e0 f   dlmalloc.obj
 0002:00024a90       _dlmalloc_stats            1006aa90 f   dlmalloc.obj
 0002:00024da0       _dlmallopt                 1006ada0 f   dlmalloc.obj
 0002:00024f10       _dlmalloc_usable_size      1006af10 f   dlmalloc.obj
 0002:00024f90       ??0CSmpChannel@@QAE@XZ     1006af90 f   SmpChannel.obj
 0002:000250b0       ??_ECSmpChannel@@UAEPAXI@Z 1006b0b0 f i SmpChannel.obj
 0002:000250b0       ??_GCSmpChannel@@UAEPAXI@Z 1006b0b0 f i SmpChannel.obj
 0002:00025120       ??1CSmpChannel@@UAE@XZ     1006b120 f   SmpChannel.obj
 0002:000251e0       ?Read@CSmpChannel@@UAEKPAXKKK@Z 1006b1e0 f   SmpChannel.obj
 0002:00025220       ?Write@CSmpChannel@@UAEKPAXKK@Z 1006b220 f   SmpChannel.obj
 0002:00025260       ??0CSmpPackage@@QAE@XZ     1006b260 f   SmpPackage.obj
 0002:000252f0       ??_ECSmpPackage@@UAEPAXI@Z 1006b2f0 f i SmpPackage.obj
 0002:000252f0       ??_GCSmpPackage@@UAEPAXI@Z 1006b2f0 f i SmpPackage.obj
 0002:00025360       ??1CSmpPackage@@UAE@XZ     1006b360 f   SmpPackage.obj
 0002:000253c0       ?GetSMPDataStatus@CSmpPackage@@IAE?AW4Diag_Pkg_Status@@PAEH@Z 1006b3c0 f   SmpPackage.obj
 0002:000254e0       ?Append@CSmpPackage@@UAEIPAXI@Z 1006b4e0 f   SmpPackage.obj
 0002:00025de0       ?Package@CSmpPackage@@UAEIPAXHPAPAXPAH@Z 1006bde0 f   SmpPackage.obj
 0002:00025f90       ?CheckHeader@CSmpPackage@@MAE_NPAUSMP_HEADER@@@Z 1006bf90 f   SmpPackage.obj
 0002:00026000       ?SetProperty@CSmpPackage@@UAE_NJIPBX@Z 1006c000 f   SmpPackage.obj
 0002:00026060       ?CheckLength@CSmpPackage@@MAE_NXZ 1006c060 f   SmpPackage.obj
 0002:00026190       ?AddToPackageList@CSmpPackage@@MAEXXZ 1006c190 f   SmpPackage.obj
 0002:00026270       ??$search@PAEPAE@std@@YAPAEPAE000@Z 1006c270 f i SmpPackage.obj
 0002:00026300       ??$_Dist_type@PAE@std@@YAPAHPAE@Z 1006c300 f i SmpPackage.obj
 0002:00026330       ??$_Search@PAEPAEHH@std@@YAPAEPAE000PAH1@Z 1006c330 f i SmpPackage.obj
 0002:00026490       ??$_Distance@PAEH@std@@YAXPAE0AAH@Z 1006c490 f i SmpPackage.obj
 0002:00026510       ??$_Iter_cat@PAE@std@@YA?AUrandom_access_iterator_tag@0@ABQAE@Z 1006c510 f i SmpPackage.obj
 0002:00026580       ??$_Distance2@PAEH@std@@YAXPAE0AAHUrandom_access_iterator_tag@0@@Z 1006c580 f i SmpPackage.obj
 0002:000265d0       ??0CSpLog@@QAE@XZ          1006c5d0 f   SpLog.obj
 0002:00026a00       ??1ISpLog@@UAE@XZ          1006ca00 f i SpLog.obj
 0002:00026a40       ??_EISpLog@@UAEPAXI@Z      1006ca40 f i SpLog.obj
 0002:00026a40       ??_GISpLog@@UAEPAXI@Z      1006ca40 f i SpLog.obj
 0002:00026ab0       ?Release@CSpLog@@UAEXXZ    1006cab0 f i SpLog.obj
 0002:00026b60       ??_ECSpLog@@UAEPAXI@Z      1006cb60 f i SpLog.obj
 0002:00026b60       ??_GCSpLog@@UAEPAXI@Z      1006cb60 f i SpLog.obj
 0002:00026bd0       ??0ISpLog@@QAE@XZ          1006cbd0 f i SpLog.obj
 0002:00026c20       ??1CSpLog@@UAE@XZ          1006cc20 f   SpLog.obj
 0002:00026ca0       ?Open@CSpLog@@UAEHPB_WIII@Z 1006cca0 f   SpLog.obj
 0002:00027010       ?Close@CSpLog@@UAEHXZ      1006d010 f   SpLog.obj
 0002:000271b0       ?SetProperty@CSpLog@@UAEHJJPBX@Z 1006d1b0 f   SpLog.obj
 0002:00027740       ?GetProperty@CSpLog@@UAEHJJPAX@Z 1006d740 f   SpLog.obj
 0002:00027ac0       ?WriteLog@CSpLog@@IAEHAAPAXPB_WAAIPBXK@Z 1006dac0 f   SpLog.obj
 0002:00027d30       ?Lock@CSpLog@@IAEXXZ       1006dd30 f i SpLog.obj
 0002:00027da0       ?UnLock@CSpLog@@IAEXXZ     1006dda0 f i SpLog.obj
 0002:00027e10       ?LogString@CSpLog@@IAEHPBD@Z 1006de10 f   SpLog.obj
 0002:00027ff0       ?GetLocalTime@CSpLog@@IBEPBDXZ 1006dff0 f i SpLog.obj
 0002:000280e0       ?WriteConsoleWindow@CSpLog@@IAEXPBXK@Z 1006e0e0 f   SpLog.obj
 0002:000281d0       ?LogHexData@CSpLog@@UAEHPBEKI@Z 1006e1d0 f   SpLog.obj
 0002:000282a0       ?LogRawStrA@CSpLog@@UAEHIPBD@Z 1006e2a0 f   SpLog.obj
 0002:00028360       ?LogRawStrW@CSpLog@@UAEHIPB_W@Z 1006e360 f   SpLog.obj
 0002:000284d0       ?LogFmtStrA@CSpLog@@UAAHIPBDZZ 1006e4d0 f   SpLog.obj
 0002:00028650       ?LogFmtStrW@CSpLog@@UAAHIPB_WZZ 1006e650 f   SpLog.obj
 0002:00028850       ?LogBufData@CSpLog@@UAEHIPBEKIPBK@Z 1006e850 f   SpLog.obj
 0002:00029070       ?AllocConsoleWindow@CSpLog@@IAEXXZ 1006f070 f   SpLog.obj
 0002:00029290       ?CreateMultiDirectory@CSpLog@@IAEHPB_W@Z 1006f290 f   SpLog.obj
 0002:00029540       ?GetLogExtension@CSpLog@@IAEXPB_WPA_WH@Z 1006f540 f   SpLog.obj
 0002:00029760       ?GetLogFilePath@CSpLog@@IAEXPB_WPA_WH@Z 1006f760 f   SpLog.obj
 0002:00029bf0       ?GetBinFilePath@CSpLog@@IAEXPB_WPA_WH@Z 1006fbf0 f   SpLog.obj
 0002:00029e30       ?GetNextPartLog@CSpLog@@IAEXPB_WPA_WI@Z 1006fe30 f   SpLog.obj
 0002:0002a030       ?OpenFile@CSpLog@@IAEPAXPB_W@Z 10070030 f   SpLog.obj
 0002:0002a110       ??0CFnLog@@QAA@PAVISpLog@@PBD1ZZ 10070110 f   SpLog.obj
 0002:0002a320       ??_GCFnLog@@UAEPAXI@Z      10070320 f i SpLog.obj
 0002:0002a320       ??_ECFnLog@@UAEPAXI@Z      10070320 f i SpLog.obj
 0002:0002a390       ??0CFnLog@@QAA@PAVISpLog@@PB_W1ZZ 10070390 f   SpLog.obj
 0002:0002a630       ??1CFnLog@@UAE@XZ          10070630 f   SpLog.obj
 0002:0002a6e0       ?GetCurrentModule@@YAPAUHINSTANCE__@@XZ 100706e0 f   StdAfx.obj
 0002:0002a720       ?GetModuleFilePath@@YAXPAUHINSTANCE__@@PA_W@Z 10070720 f   StdAfx.obj
 0002:0002a88c       _CreateEventW@16           1007088c f   kernel32:KERNEL32.dll
 0002:0002a892       _InitializeCriticalSectionAndSpinCount@8 10070892 f   kernel32:KERNEL32.dll
 0002:0002a898       _InitializeCriticalSection@4 10070898 f   kernel32:KERNEL32.dll
 0002:0002a89e       _SetEvent@4                1007089e f   kernel32:KERNEL32.dll
 0002:0002a8a4       _CloseHandle@4             100708a4 f   kernel32:KERNEL32.dll
 0002:0002a8aa       _DeleteCriticalSection@4   100708aa f   kernel32:KERNEL32.dll
 0002:0002a8b0       _GetTickCount@0            100708b0 f   kernel32:KERNEL32.dll
 0002:0002a8b6       _WaitForSingleObject@8     100708b6 f   kernel32:KERNEL32.dll
 0002:0002a8bc       _ResetEvent@4              100708bc f   kernel32:KERNEL32.dll
 0002:0002a8c2       _Sleep@4                   100708c2 f   kernel32:KERNEL32.dll
 0002:0002a8c8       _InterlockedIncrement@4    100708c8 f   kernel32:KERNEL32.dll
 0002:0002a8ce       _InterlockedDecrement@4    100708ce f   kernel32:KERNEL32.dll
 0002:0002a8d4       _LeaveCriticalSection@4    100708d4 f   kernel32:KERNEL32.dll
 0002:0002a8da       _EnterCriticalSection@4    100708da f   kernel32:KERNEL32.dll
 0002:0002a8e0       _GetPrivateProfileIntW@16  100708e0 f   kernel32:KERNEL32.dll
 0002:0002a8e6       _GetProcAddress@8          100708e6 f   kernel32:KERNEL32.dll
 0002:0002a8ec       _LoadLibraryW@4            100708ec f   kernel32:KERNEL32.dll
 0002:0002a8f2       _FreeLibrary@4             100708f2 f   kernel32:KERNEL32.dll
 0002:0002a8f8       _GetModuleFileNameW@12     100708f8 f   kernel32:KERNEL32.dll
 0002:0002a8fe       _SleepEx@8                 100708fe f   kernel32:KERNEL32.dll
 0002:0002a904       _GetCurrentThreadId@0      10070904 f   kernel32:KERNEL32.dll
 0002:0002a90a       _GetSystemInfo@4           1007090a f   kernel32:KERNEL32.dll
 0002:0002a910       _VirtualAlloc@16           10070910 f   kernel32:KERNEL32.dll
 0002:0002a916       _VirtualFree@12            10070916 f   kernel32:KERNEL32.dll
 0002:0002a91c       _VirtualQuery@12           1007091c f   kernel32:KERNEL32.dll
 0002:0002a922       _FreeConsole@0             10070922 f   kernel32:KERNEL32.dll
 0002:0002a928       _FlushFileBuffers@4        10070928 f   kernel32:KERNEL32.dll
 0002:0002a92e       _GetConsoleWindow@0        1007092e f   kernel32:KERNEL32.dll
 0002:0002a934       _GetTempPathW@8            10070934 f   kernel32:KERNEL32.dll
 0002:0002a93a       _IsBadWritePtr@8           1007093a f   kernel32:KERNEL32.dll
 0002:0002a940       _WriteFile@20              10070940 f   kernel32:KERNEL32.dll
 0002:0002a946       _GetFileSize@8             10070946 f   kernel32:KERNEL32.dll
 0002:0002a94c       _lstrlenA@4                1007094c f   kernel32:KERNEL32.dll
 0002:0002a952       _GetLocalTime@4            10070952 f   kernel32:KERNEL32.dll
 0002:0002a958       _WriteConsoleW@20          10070958 f   kernel32:KERNEL32.dll
 0002:0002a95e       _WideCharToMultiByte@32    1007095e f   kernel32:KERNEL32.dll
 0002:0002a964       _lstrcatA@8                10070964 f   kernel32:KERNEL32.dll
 0002:0002a96a       _SetConsoleTitleW@4        1007096a f   kernel32:KERNEL32.dll
 0002:0002a970       _SetConsoleWindowInfo@12   10070970 f   kernel32:KERNEL32.dll
 0002:0002a976       _SetConsoleScreenBufferSize@8 10070976 f   kernel32:KERNEL32.dll
 0002:0002a97c       _GetStdHandle@4            1007097c f   kernel32:KERNEL32.dll
 0002:0002a982       _AllocConsole@0            10070982 f   kernel32:KERNEL32.dll
 0002:0002a988       _GetLastError@0            10070988 f   kernel32:KERNEL32.dll
 0002:0002a98e       _CreateDirectoryW@8        1007098e f   kernel32:KERNEL32.dll
 0002:0002a994       _GetFileAttributesW@4      10070994 f   kernel32:KERNEL32.dll
 0002:0002a99a       _lstrlenW@4                1007099a f   kernel32:KERNEL32.dll
 0002:0002a9a0       _SetFilePointer@16         100709a0 f   kernel32:KERNEL32.dll
 0002:0002a9a6       _CreateFileW@28            100709a6 f   kernel32:KERNEL32.dll
 0002:0002a9ac       _GetMessageW@16            100709ac f   user32:USER32.dll
 0002:0002a9b2       _PostThreadMessageW@16     100709b2 f   user32:USER32.dll
 0002:0002a9b8       _ShowWindow@8              100709b8 f   user32:USER32.dll
 0002:0002a9be       _EnableMenuItem@12         100709be f   user32:USER32.dll
 0002:0002a9c4       _GetSystemMenu@8           100709c4 f   user32:USER32.dll
 0002:0002a9d0       ?_Xlen@_String_base@std@@SAXXZ 100709d0 f   libcpmtd:string.obj
 0002:0002aa60       ?_Xran@_String_base@std@@SAXXZ 10070a60 f   libcpmtd:string.obj
 0002:0002aaf0       ??0out_of_range@std@@QAE@ABV?$basic_string@DU?$char_traits@D@std@@V?$allocator@D@2@@1@@Z 10070af0 f i libcpmtd:string.obj
 0002:0002ab20       ??1out_of_range@std@@UAE@XZ 10070b20 f i libcpmtd:string.obj
 0002:0002ab50       ??_Eout_of_range@std@@UAEPAXI@Z 10070b50 f i libcpmtd:string.obj
 0002:0002ab50       ??_Gout_of_range@std@@UAEPAXI@Z 10070b50 f i libcpmtd:string.obj
 0002:0002ab90       ??0out_of_range@std@@QAE@ABV01@@Z 10070b90 f i libcpmtd:string.obj
 0002:0002abc0       ?_Xinvarg@_String_base@std@@SAXXZ 10070bc0 f   libcpmtd:string.obj
 0002:0002ac50       ??0invalid_argument@std@@QAE@ABV?$basic_string@DU?$char_traits@D@std@@V?$allocator@D@2@@1@@Z 10070c50 f i libcpmtd:string.obj
 0002:0002ac80       ??1invalid_argument@std@@UAE@XZ 10070c80 f i libcpmtd:string.obj
 0002:0002acb0       ??_Einvalid_argument@std@@UAEPAXI@Z 10070cb0 f i libcpmtd:string.obj
 0002:0002acb0       ??_Ginvalid_argument@std@@UAEPAXI@Z 10070cb0 f i libcpmtd:string.obj
 0002:0002acf0       ??0invalid_argument@std@@QAE@ABV01@@Z 10070cf0 f i libcpmtd:string.obj
 0002:0002ad20       ?allocate@?$_DebugHeapAllocator@D@std@@QAAPADIPBX@Z 10070d20 f i libcpmtd:string.obj
 0002:0002ada0       ?allocate@?$_DebugHeapAllocator@D@std@@QAEPADI@Z 10070da0 f i libcpmtd:string.obj
 0002:0002ae20       ?deallocate@?$_DebugHeapAllocator@D@std@@QAEXPADI@Z 10070e20 f i libcpmtd:string.obj
 0002:0002ae50       ??1?$_String_val@DV?$allocator@D@std@@@std@@QAE@XZ 10070e50 f i libcpmtd:string.obj
 0002:0002ae70       ??0?$_DebugHeapAllocator@D@std@@QAE@XZ 10070e70 f i libcpmtd:string.obj
 0002:0002ae90       ??1_String_base@std@@QAE@XZ 10070e90 f i libcpmtd:string.obj
 0002:0002aeb0       ??1_Container_base_secure@std@@QAE@XZ 10070eb0 f i libcpmtd:string.obj
 0002:0002aed0       ?_Orphan_all@_Container_base_secure@std@@QBEXXZ 10070ed0 f i libcpmtd:string.obj
 0002:0002af50       ??0?$_DebugHeapAllocator@D@std@@QAE@ABV01@@Z 10070f50 f i libcpmtd:string.obj
 0002:0002af80       ??$_Debug_pointer@D@std@@YAXPBDPB_WI@Z 10070f80 f i libcpmtd:string.obj
 0002:0002afb0       ??$_DebugHeapDelete@X@std@@YAXPAX@Z 10070fb0 f i libcpmtd:string.obj
 0002:0002afd0       ??2@YAPAXIABU_DebugHeapTag_t@std@@PADH@Z 10070fd0 f   libcpmtd:xdebug.obj
 0002:0002b070       ??0bad_alloc@std@@QAE@XZ   10071070 f i libcpmtd:xdebug.obj
 0002:0002b0b0       ??_U@YAPAXIABU_DebugHeapTag_t@std@@PADH@Z 100710b0 f   libcpmtd:xdebug.obj
 0002:0002b0e0       ??3@YAXPAXABU_DebugHeapTag_t@std@@PADH@Z 100710e0 f   libcpmtd:xdebug.obj
 0002:0002b100       ??_V@YAXPAXABU_DebugHeapTag_t@std@@PADH@Z 10071100 f   libcpmtd:xdebug.obj
 0002:0002b130       ?_DebugHeapTag_func@std@@YAABU_DebugHeapTag_t@1@XZ 10071130 f   libcpmtd:xdebug.obj
 0002:0002b140       ??0_Init_locks@std@@QAE@XZ 10071140 f   libcpmtd:xlock.obj
 0002:0002b1b0       ??1_Init_locks@std@@QAE@XZ 100711b0 f   libcpmtd:xlock.obj
 0002:0002b210       ?_Init_locks_ctor@_Init_locks@std@@CAXPAV12@@Z 10071210 f   libcpmtd:xlock.obj
 0002:0002b270       ?_Init_locks_dtor@_Init_locks@std@@CAXPAV12@@Z 10071270 f   libcpmtd:xlock.obj
 0002:0002b2d0       ??0_Lockit@std@@QAE@XZ     100712d0 f   libcpmtd:xlock.obj
 0002:0002b300       ??0_Lockit@std@@QAE@H@Z    10071300 f   libcpmtd:xlock.obj
 0002:0002b350       ??1_Lockit@std@@QAE@XZ     10071350 f   libcpmtd:xlock.obj
 0002:0002b390       ?_Lockit_ctor@_Lockit@std@@CAXPAV12@@Z 10071390 f   libcpmtd:xlock.obj
 0002:0002b3b0       ?_Lockit_ctor@_Lockit@std@@CAXPAV12@H@Z 100713b0 f   libcpmtd:xlock.obj
 0002:0002b3f0       ?_Lockit_dtor@_Lockit@std@@CAXPAV12@@Z 100713f0 f   libcpmtd:xlock.obj
 0002:0002b420       ?_Lockit_ctor@_Lockit@std@@SAXH@Z 10071420 f   libcpmtd:xlock.obj
 0002:0002b450       ?_Lockit_dtor@_Lockit@std@@SAXH@Z 10071450 f   libcpmtd:xlock.obj
 0002:0002b480       ?_Debug_message@std@@YAXPBD0@Z 10071480 f   libcpmtd:stdthrow.obj
 0002:0002b510       ?_Debug_message@std@@YAXPB_W0I@Z 10071510 f   libcpmtd:stdthrow.obj
 0002:0002b540       ?_Debug_message@std@@YAXPBG0I@Z 10071540 f   libcpmtd:stdthrow.obj
 0002:0002b570       ?_Throw@std@@YAXABVexception@stdext@@@Z 10071570 f   libcpmtd:stdthrow.obj
 0002:0002b5a0       __Once                     100715a0 f   libcpmtd:xmtx.obj
 0002:0002b610       __Mtxinit                  10071610 f   libcpmtd:xmtx.obj
 0002:0002b630       __Mtxdst                   10071630 f   libcpmtd:xmtx.obj
 0002:0002b650       __Mtxlock                  10071650 f   libcpmtd:xmtx.obj
 0002:0002b670       __Mtxunlock                10071670 f   libcpmtd:xmtx.obj
 0002:0002b690       __RTC_InitBase             10071690 f   LIBCMTD:_init_.obj
 0002:0002b6d0       __RTC_Shutdown             100716d0 f   LIBCMTD:_init_.obj
 0002:0002b6f0       ?name@type_info@@QBEPBDPAU__type_info_node@@@Z 100716f0 f   LIBCMTD:typinfo.obj
 0002:0002b720       ??1type_info@@UAE@XZ       10071720 f   LIBCMTD:typinfo.obj
 0002:0002b750       ??_Gtype_info@@UAEPAXI@Z   10071750 f i LIBCMTD:typinfo.obj
 0002:0002b750       ??_Etype_info@@UAEPAXI@Z   10071750 f i LIBCMTD:typinfo.obj
 0002:0002b790       ?_name_internal_method@type_info@@QBEPBDPAU__type_info_node@@@Z 10071790 f   LIBCMTD:typinfo.obj
 0002:0002b7c0       ?_type_info_dtor_internal_method@type_info@@QAEXXZ 100717c0 f   LIBCMTD:typinfo.obj
 0002:0002b7e0       ??8type_info@@QBE_NABV0@@Z 100717e0 f   LIBCMTD:typinfo.obj
 0002:0002b820       ??9type_info@@QBE_NABV0@@Z 10071820 f   LIBCMTD:typinfo.obj
 0002:0002b860       ?before@type_info@@QBEHABV1@@Z 10071860 f   LIBCMTD:typinfo.obj
 0002:0002b8a0       ?raw_name@type_info@@QBEPBDXZ 100718a0 f   LIBCMTD:typinfo.obj
 0002:0002b8c0       ??0type_info@@AAE@ABV0@@Z  100718c0 f   LIBCMTD:typinfo.obj
 0002:0002b8f0       ??4type_info@@AAEAAV0@ABV0@@Z 100718f0 f   LIBCMTD:typinfo.obj
 0002:0002b910       __purecall                 10071910 f   LIBCMTD:purevirt.obj
 0002:0002b960       __set_purecall_handler     10071960 f   LIBCMTD:purevirt.obj
 0002:0002b9b0       __get_purecall_handler     100719b0 f   LIBCMTD:purevirt.obj
 0002:0002b9d0       _memset                    100719d0 f   LIBCMTD:memset.obj
 0002:0002ba70       ?_JumpToContinuation@@YGXPAXPAUEHRegistrationNode@@@Z 10071a70 f   LIBCMTD:_trnsctrl_.obj
 0002:0002bac0       ?_CallMemberFunction0@@YGXPAX0@Z 10071ac0 f   LIBCMTD:_trnsctrl_.obj
 0002:0002bad0       ?_CallMemberFunction1@@YGXPAX00@Z 10071ad0 f   LIBCMTD:_trnsctrl_.obj
 0002:0002bae0       ?_CallMemberFunction2@@YGXPAX00H@Z 10071ae0 f   LIBCMTD:_trnsctrl_.obj
 0002:0002baf0       ?_UnwindNestedFrames@@YGXPAUEHRegistrationNode@@PAUEHExceptionRecord@@@Z 10071af0 f   LIBCMTD:_trnsctrl_.obj
 0002:0002bb60       ___CxxFrameHandler         10071b60 f   LIBCMTD:_trnsctrl_.obj
 0002:0002bbb0       ___CxxFrameHandler3        10071bb0 f   LIBCMTD:_trnsctrl_.obj
 0002:0002bc00       ___CxxFrameHandler2        10071c00 f   LIBCMTD:_trnsctrl_.obj
 0002:0002bc50       ___CxxLongjmpUnwind@4      10071c50 f   LIBCMTD:_trnsctrl_.obj
 0002:0002bc90       ?_CallCatchBlock2@@YAPAXPAUEHRegistrationNode@@PBU_s_FuncInfo@@PAXHK@Z 10071c90 f   LIBCMTD:_trnsctrl_.obj
 0002:0002bd80       ?_CallSETranslator@@YAHPAUEHExceptionRecord@@PAUEHRegistrationNode@@PAX2PBU_s_FuncInfo@@H1@Z 10071d80 f   LIBCMTD:_trnsctrl_.obj
 0002:0002bf90       ?_GetRangeOfTrysToCheck@@YAPBU_s_TryBlockMapEntry@@PBU_s_FuncInfo@@HHPAI1@Z 10071f90 f   LIBCMTD:_trnsctrl_.obj
 0002:0002c030       __CreateFrameInfo          10072030 f   LIBCMTD:_trnsctrl_.obj
 0002:0002c070       __IsExceptionObjectToBeDestroyed 10072070 f   LIBCMTD:_trnsctrl_.obj
 0002:0002c0b0       __FindAndUnlinkFrame       100720b0 f   LIBCMTD:_trnsctrl_.obj
 0002:0002c120       @__security_check_cookie@4 10072120 f   LIBCMTD:secchk.obj
 0002:0002c140       __RTC_CheckEsp             10072140 f   LIBCMTD:_stack_.obj
 0002:0002c170       @_RTC_CheckStackVars@8     10072170 f   LIBCMTD:_stack_.obj
 0002:0002c1f0       @_RTC_AllocaHelper@12      100721f0 f   LIBCMTD:_stack_.obj
 0002:0002c230       @_RTC_CheckStackVars2@12   10072230 f   LIBCMTD:_stack_.obj
 0002:0002c340       ??3@YAXPAX@Z               10072340 f   LIBCMTD:dbgdel.obj
 0002:0002c460       _wcscat                    10072460 f   LIBCMTD:wcscat.obj
 0002:0002c4d0       _wcscpy                    100724d0 f   LIBCMTD:wcscat.obj
 0002:0002c520       __wassert                  10072520 f   LIBCMTD:wassert.obj
 0002:0002d390       __invoke_watson_if_error   10073390 f i LIBCMTD:wassert.obj
 0002:0002d420       __beginthreadex            10073420 f   LIBCMTD:threadex.obj
 0002:0002d760       __endthreadex              10073760 f   LIBCMTD:threadex.obj
 0002:0002d7d0       _memcpy                    100737d0 f   LIBCMTD:memcpy.obj
 0002:0002dc10       __CxxThrowException@8      10073c10 f   LIBCMTD:throw.obj
 0002:0002dc80       ??0exception@std@@QAE@XZ   10073c80 f   LIBCMTD:stdexcpt.obj
 0002:0002dcc0       ??_Gexception@std@@UAEPAXI@Z 10073cc0 f i LIBCMTD:stdexcpt.obj
 0002:0002dcc0       ??_Eexception@std@@UAEPAXI@Z 10073cc0 f i LIBCMTD:stdexcpt.obj
 0002:0002dd00       ??0exception@std@@QAE@ABQBD@Z 10073d00 f   LIBCMTD:stdexcpt.obj
 0002:0002ddb0       ??0exception@std@@QAE@ABQBDH@Z 10073db0 f   LIBCMTD:stdexcpt.obj
 0002:0002ddf0       ??0exception@std@@QAE@ABV01@@Z 10073df0 f   LIBCMTD:stdexcpt.obj
 0002:0002dec0       ??4exception@std@@QAEAAV01@ABV01@@Z 10073ec0 f   LIBCMTD:stdexcpt.obj
 0002:0002df90       ??1exception@std@@UAE@XZ   10073f90 f   LIBCMTD:stdexcpt.obj
 0002:0002dfd0       ?what@exception@std@@UBEPBDXZ 10073fd0 f   LIBCMTD:stdexcpt.obj
 0002:0002e000       ??0bad_cast@std@@QAE@PBD@Z 10074000 f   LIBCMTD:stdexcpt.obj
 0002:0002e030       ??_Ebad_cast@std@@UAEPAXI@Z 10074030 f i LIBCMTD:stdexcpt.obj
 0002:0002e030       ??_Gbad_cast@std@@UAEPAXI@Z 10074030 f i LIBCMTD:stdexcpt.obj
 0002:0002e070       ??0bad_cast@std@@QAE@ABV01@@Z 10074070 f   LIBCMTD:stdexcpt.obj
 0002:0002e0a0       ??1bad_cast@std@@UAE@XZ    100740a0 f   LIBCMTD:stdexcpt.obj
 0002:0002e0d0       ??0bad_typeid@std@@QAE@PBD@Z 100740d0 f   LIBCMTD:stdexcpt.obj
 0002:0002e100       ??_Gbad_typeid@std@@UAEPAXI@Z 10074100 f i LIBCMTD:stdexcpt.obj
 0002:0002e100       ??_Ebad_typeid@std@@UAEPAXI@Z 10074100 f i LIBCMTD:stdexcpt.obj
 0002:0002e140       ??0bad_typeid@std@@QAE@ABV01@@Z 10074140 f   LIBCMTD:stdexcpt.obj
 0002:0002e170       ??1bad_typeid@std@@UAE@XZ  10074170 f   LIBCMTD:stdexcpt.obj
 0002:0002e1a0       ??0__non_rtti_object@std@@QAE@PBD@Z 100741a0 f   LIBCMTD:stdexcpt.obj
 0002:0002e1d0       ??_G__non_rtti_object@std@@UAEPAXI@Z 100741d0 f i LIBCMTD:stdexcpt.obj
 0002:0002e1d0       ??_E__non_rtti_object@std@@UAEPAXI@Z 100741d0 f i LIBCMTD:stdexcpt.obj
 0002:0002e210       ??0__non_rtti_object@std@@QAE@ABV01@@Z 10074210 f   LIBCMTD:stdexcpt.obj
 0002:0002e240       ??1__non_rtti_object@std@@UAE@XZ 10074240 f   LIBCMTD:stdexcpt.obj
 0002:0002e270       _strlen                    10074270 f   LIBCMTD:strlen.obj
 0002:0002e320       ??2@YAPAXI@Z               10074320 f   LIBCMTD:new.obj
 0002:0002e3c0       _memcpy_s                  100743c0 f   LIBCMTD:memcpy_s.obj
 0002:0002e5b0       _memmove_s                 100745b0 f   LIBCMTD:memmove_s.obj
 0002:0002e760       __alloca_probe             10074760     LIBCMTD:chkstk.obj
 0002:0002e760       __chkstk                   10074760 f   LIBCMTD:chkstk.obj
 0002:0002e7a0       _fclose                    100747a0 f   LIBCMTD:fclose.obj
 0002:0002e8f0       __fclose_nolock            100748f0 f   LIBCMTD:fclose.obj
 0002:0002ea30       _vfscanf                   10074a30 f   LIBCMTD:fscanf.obj
 0002:0002ed50       _fscanf                    10074d50 f   LIBCMTD:fscanf.obj
 0002:0002ed90       __fscanf_l                 10074d90 f   LIBCMTD:fscanf.obj
 0002:0002edd0       _fscanf_s                  10074dd0 f   LIBCMTD:fscanf.obj
 0002:0002ee10       __fscanf_s_l               10074e10 f   LIBCMTD:fscanf.obj
 0002:0002ee50       _fgets                     10074e50 f   LIBCMTD:fgets.obj
 0002:0002f2c0       __wfsopen                  100752c0 f   LIBCMTD:wfopen.obj
 0002:0002f550       __wfopen                   10075550 f   LIBCMTD:wfopen.obj
 0002:0002f570       __wfopen_s                 10075570 f   LIBCMTD:wfopen.obj
 0002:0002f640       _wcsrchr                   10075640 f   LIBCMTD:wcsrchr.obj
 0002:0002f6c0       _abort                     100756c0 f   LIBCMTD:abort.obj
 0002:0002f840       __set_abort_behavior       10075840 f   LIBCMTD:abort.obj
 0002:0002f880       _fprintf                   10075880 f   LIBCMTD:fprintf.obj
 0002:0002fbd0       __fprintf_l                10075bd0 f   LIBCMTD:fprintf.obj
 0002:0002fc10       __fprintf_s_l              10075c10 f   LIBCMTD:fprintf.obj
 0002:0002fc50       _fprintf_s                 10075c50 f   LIBCMTD:fprintf.obj
 0002:0002fc80       __fprintf_p_l              10075c80 f   LIBCMTD:fprintf.obj
 0002:0002fcc0       __fprintf_p                10075cc0 f   LIBCMTD:fprintf.obj
 0002:0002fcf0       ___iob_func                10075cf0 f   LIBCMTD:_file.obj
 0002:0002fd00       ___initstdio               10075d00 f   LIBCMTD:_file.obj
 0002:0002fea0       ___endstdio                10075ea0 f   LIBCMTD:_file.obj
 0002:0002fee0       __lock_file                10075ee0 f   LIBCMTD:_file.obj
 0002:0002ff50       __lock_file2               10075f50 f   LIBCMTD:_file.obj
 0002:0002ffa0       __unlock_file              10075fa0 f   LIBCMTD:_file.obj
 0002:00030010       __unlock_file2             10076010 f   LIBCMTD:_file.obj
 0002:00030060       _memmove                   10076060 f   LIBCMTD:memmove.obj
 0002:000304a0       __snwprintf                100764a0 f   LIBCMTD:snwprint.obj
 0002:00030720       __snwprintf_l              10076720 f   LIBCMTD:snwprint.obj
 0002:00030760       _wcslen                    10076760 f   LIBCMTD:wcslen.obj
 0002:000307a0       __snprintf                 100767a0 f   LIBCMTD:snprintf.obj
 0002:000309b0       __snprintf_l               100769b0 f   LIBCMTD:snprintf.obj
 0002:000309f0       __vsnprintf_l              100769f0 f   LIBCMTD:vsnprint.obj
 0002:00030c00       __vsnprintf                10076c00 f   LIBCMTD:vsnprint.obj
 0002:00030c30       __vsnwprintf_l             10076c30 f   LIBCMTD:vsnwprnt.obj
 0002:00030eb0       __vsnwprintf               10076eb0 f   LIBCMTD:vsnwprnt.obj
 0002:00030ee0       __isalpha_l                10076ee0 f i LIBCMTD:_ctype.obj
 0002:00030f90       ??0_LocaleUpdate@@QAE@PAUlocaleinfo_struct@@@Z 10076f90 f i LIBCMTD:_ctype.obj
 0002:000310a0       ??1_LocaleUpdate@@QAE@XZ   100770a0 f i LIBCMTD:_ctype.obj
 0002:000310e0       ?GetLocaleT@_LocaleUpdate@@QAEPAUlocaleinfo_struct@@XZ 100770e0 f i LIBCMTD:_ctype.obj
 0002:00031100       _isalpha                   10077100 f i LIBCMTD:_ctype.obj
 0002:00031140       __isupper_l                10077140 f i LIBCMTD:_ctype.obj
 0002:000311e0       _isupper                   100771e0 f i LIBCMTD:_ctype.obj
 0002:00031220       __islower_l                10077220 f i LIBCMTD:_ctype.obj
 0002:000312c0       _islower                   100772c0 f i LIBCMTD:_ctype.obj
 0002:00031300       __isdigit_l                10077300 f i LIBCMTD:_ctype.obj
 0002:000313a0       _isdigit                   100773a0 f i LIBCMTD:_ctype.obj
 0002:000313e0       __isxdigit_l               100773e0 f i LIBCMTD:_ctype.obj
 0002:00031490       _isxdigit                  10077490 f i LIBCMTD:_ctype.obj
 0002:000314d0       __isspace_l                100774d0 f i LIBCMTD:_ctype.obj
 0002:00031570       _isspace                   10077570 f i LIBCMTD:_ctype.obj
 0002:000315b0       __ispunct_l                100775b0 f i LIBCMTD:_ctype.obj
 0002:00031650       _ispunct                   10077650 f i LIBCMTD:_ctype.obj
 0002:00031690       __isalnum_l                10077690 f i LIBCMTD:_ctype.obj
 0002:00031740       _isalnum                   10077740 f i LIBCMTD:_ctype.obj
 0002:00031780       __isprint_l                10077780 f i LIBCMTD:_ctype.obj
 0002:00031830       _isprint                   10077830 f i LIBCMTD:_ctype.obj
 0002:00031870       __isgraph_l                10077870 f i LIBCMTD:_ctype.obj
 0002:00031920       _isgraph                   10077920 f i LIBCMTD:_ctype.obj
 0002:00031960       __iscntrl_l                10077960 f i LIBCMTD:_ctype.obj
 0002:00031a00       _iscntrl                   10077a00 f i LIBCMTD:_ctype.obj
 0002:00031a40       ___isascii                 10077a40 f i LIBCMTD:_ctype.obj
 0002:00031a60       ___toascii                 10077a60 f i LIBCMTD:_ctype.obj
 0002:00031a70       __iscsymf_l                10077a70 f i LIBCMTD:_ctype.obj
 0002:00031ac0       ___iscsymf                 10077ac0 f i LIBCMTD:_ctype.obj
 0002:00031b00       __iscsym_l                 10077b00 f i LIBCMTD:_ctype.obj
 0002:00031b50       ___iscsym                  10077b50 f i LIBCMTD:_ctype.obj
 0002:00031ba0       _sprintf                   10077ba0 f   LIBCMTD:sprintf.obj
 0002:00031d80       __sprintf_l                10077d80 f   LIBCMTD:sprintf.obj
 0002:00031dc0       _sprintf_s                 10077dc0 f   LIBCMTD:sprintf.obj
 0002:00031e00       __sprintf_s_l              10077e00 f   LIBCMTD:sprintf.obj
 0002:00031e40       __snprintf_s               10077e40 f   LIBCMTD:sprintf.obj
 0002:00031e80       __snprintf_s_l             10077e80 f   LIBCMTD:sprintf.obj
 0002:00031ec0       __sprintf_p                10077ec0 f   LIBCMTD:sprintf.obj
 0002:00031f00       __sprintf_p_l              10077f00 f   LIBCMTD:sprintf.obj
 0002:00031f40       __scprintf                 10077f40 f   LIBCMTD:sprintf.obj
 0002:00031f70       __scprintf_p               10077f70 f   LIBCMTD:sprintf.obj
 0002:00031fa0       __scprintf_l               10077fa0 f   LIBCMTD:sprintf.obj
 0002:00031fd0       __scprintf_p_l             10077fd0 f   LIBCMTD:sprintf.obj
 0002:00032000       _wcsncpy                   10078000 f   LIBCMTD:wcsncpy.obj
 0002:00032090       __wcsicmp_l                10078090 f   LIBCMTD:wcsicmp.obj
 0002:00032350       __wcsicmp                  10078350 f   LIBCMTD:wcsicmp.obj
 0002:00032550       __CRT_INIT@12              10078550 f   LIBCMTD:dllcrt0.obj
 0002:00032790       __DllMainCRTStartup@12     10078790 f   LIBCMTD:dllcrt0.obj
 0002:000329f0       _free                      100789f0 f   LIBCMTD:dbgfree.obj
 0002:00032a10       __onexit                   10078a10 f   LIBCMTD:onexit.obj
 0002:00032c60       _atexit                    10078c60 f   LIBCMTD:onexit.obj
 0002:00032c90       ___onexitinit              10078c90 f   LIBCMTD:onexit.obj
 0002:00032d00       __malloc_dbg               10078d00 f   LIBCMTD:dbgheap.obj
 0002:00032d40       __nh_malloc                10078d40 f   LIBCMTD:dbgheap.obj
 0002:00032d70       __nh_malloc_dbg            10078d70 f   LIBCMTD:dbgheap.obj
 0002:00032e60       __heap_alloc               10078e60 f   LIBCMTD:dbgheap.obj
 0002:00033320       __heap_alloc_dbg           10079320 f   LIBCMTD:dbgheap.obj
 0002:00033390       __calloc_dbg_impl          10079390 f   LIBCMTD:dbgheap.obj
 0002:00033490       __calloc_dbg               10079490 f   LIBCMTD:dbgheap.obj
 0002:00033500       __recalloc                 10079500 f   LIBCMTD:dbgheap.obj
 0002:00033540       __realloc_dbg              10079540 f   LIBCMTD:dbgheap.obj
 0002:00033d80       __recalloc_dbg             10079d80 f   LIBCMTD:dbgheap.obj
 0002:00033ec0       __expand                   10079ec0 f   LIBCMTD:dbgheap.obj
 0002:00033ef0       __expand_dbg               10079ef0 f   LIBCMTD:dbgheap.obj
 0002:00034040       __free_nolock              1007a040 f   LIBCMTD:dbgheap.obj
 0002:00034060       __free_dbg                 1007a060 f   LIBCMTD:dbgheap.obj
 0002:00034100       __free_dbg_nolock          1007a100 f   LIBCMTD:dbgheap.obj
 0002:00034720       __msize                    1007a720 f   LIBCMTD:dbgheap.obj
 0002:00034740       __msize_dbg                1007a740 f   LIBCMTD:dbgheap.obj
 0002:000349a0       __CrtSetBreakAlloc         1007a9a0 f   LIBCMTD:dbgheap.obj
 0002:000349d0       __CrtSetDbgBlockType       1007a9d0 f   LIBCMTD:dbgheap.obj
 0002:00034af0       __CrtSetAllocHook          1007aaf0 f   LIBCMTD:dbgheap.obj
 0002:00034b20       __CrtGetAllocHook          1007ab20 f   LIBCMTD:dbgheap.obj
 0002:00034b90       __CrtCheckMemory           1007ab90 f   LIBCMTD:dbgheap.obj
 0002:00035100       __CrtSetDbgFlag            1007b100 f   LIBCMTD:dbgheap.obj
 0002:000352a0       __CrtDoForAllClientObjects 1007b2a0 f   LIBCMTD:dbgheap.obj
 0002:00035410       __CrtIsValidPointer        1007b410 f   LIBCMTD:dbgheap.obj
 0002:00035430       __CrtIsValidHeapPointer    1007b430 f   LIBCMTD:dbgheap.obj
 0002:000354f0       __CrtIsMemoryBlock         1007b4f0 f   LIBCMTD:dbgheap.obj
 0002:000356c0       __CrtReportBlockType       1007b6c0 f   LIBCMTD:dbgheap.obj
 0002:00035700       __CrtSetDumpClient         1007b700 f   LIBCMTD:dbgheap.obj
 0002:00035730       __CrtGetDumpClient         1007b730 f   LIBCMTD:dbgheap.obj
 0002:00035740       __CrtMemCheckpoint         1007b740 f   LIBCMTD:dbgheap.obj
 0002:000359e0       __CrtMemDifference         1007b9e0 f   LIBCMTD:dbgheap.obj
 0002:00035c80       __CrtMemDumpAllObjectsSince 1007bc80 f   LIBCMTD:dbgheap.obj
 0002:000362b0       __invoke_watson_if_oneof   1007c2b0 f i LIBCMTD:dbgheap.obj
 0002:00036310       __CrtDumpMemoryLeaks       1007c310 f   LIBCMTD:dbgheap.obj
 0002:000363a0       __CrtMemDumpStatistics     1007c3a0 f   LIBCMTD:dbgheap.obj
 0002:000364f0       __aligned_malloc           1007c4f0 f   LIBCMTD:dbgheap.obj
 0002:00036520       __aligned_malloc_dbg       1007c520 f   LIBCMTD:dbgheap.obj
 0002:00036550       __aligned_realloc          1007c550 f   LIBCMTD:dbgheap.obj
 0002:00036580       __aligned_recalloc         1007c580 f   LIBCMTD:dbgheap.obj
 0002:000365b0       __aligned_realloc_dbg      1007c5b0 f   LIBCMTD:dbgheap.obj
 0002:000365e0       __aligned_recalloc_dbg     1007c5e0 f   LIBCMTD:dbgheap.obj
 0002:00036620       __aligned_offset_malloc    1007c620 f   LIBCMTD:dbgheap.obj
 0002:00036650       __aligned_offset_malloc_dbg 1007c650 f   LIBCMTD:dbgheap.obj
 0002:00036860       __aligned_offset_realloc   1007c860 f   LIBCMTD:dbgheap.obj
 0002:00036890       __aligned_offset_recalloc  1007c890 f   LIBCMTD:dbgheap.obj
 0002:000368c0       __aligned_offset_realloc_dbg 1007c8c0 f   LIBCMTD:dbgheap.obj
 0002:00036c40       __aligned_offset_recalloc_dbg 1007cc40 f   LIBCMTD:dbgheap.obj
 0002:00036d90       __aligned_free             1007cd90 f   LIBCMTD:dbgheap.obj
 0002:00036db0       __aligned_free_dbg         1007cdb0 f   LIBCMTD:dbgheap.obj
 0002:00036e90       __CrtSetDebugFillThreshold 1007ce90 f   LIBCMTD:dbgheap.obj
 0002:00036ec0       __CrtSetCheckCount         1007cec0 f   LIBCMTD:dbgheap.obj
 0002:00036ee0       __CrtGetCheckCount         1007cee0 f   LIBCMTD:dbgheap.obj
 0002:00036ef0       __aligned_msize            1007cef0 f   LIBCMTD:dbgheap.obj
 0002:00036f20       __aligned_msize_dbg        1007cf20 f   LIBCMTD:dbgheap.obj
 0002:00037070       _fputs                     1007d070 f   LIBCMTD:fputs.obj
 0002:000373b0       _fflush                    1007d3b0 f   LIBCMTD:fflush.obj
 0002:00037470       __fflush_nolock            1007d470 f   LIBCMTD:fflush.obj
 0002:000374e0       __flush                    1007d4e0 f   LIBCMTD:fflush.obj
 0002:000375d0       __flushall                 1007d5d0 f   LIBCMTD:fflush.obj
 0002:00037800       __CrtSetReportHookW2       1007d800 f   LIBCMTD:dbgrptw.obj
 0002:00037bf0       __CrtDbgReportW            1007dbf0 f   LIBCMTD:dbgrptw.obj
 0002:00037c40       __CrtDbgReportWV           1007dc40 f i LIBCMTD:dbgrptw.obj
 0002:00037c70       ___crtMessageWindowW       1007dc70 f   LIBCMTD:dbgrptw.obj
 0002:00038170       ?_CrtDbgReportW@@YAHHPBGH00ZZ 1007e170 f   LIBCMTD:dbgrptw.obj
 0002:000381c0       __RTC_NumErrors            1007e1c0 f   LIBCMTD:_userapi_.obj
 0002:000381d0       __RTC_GetErrDesc           1007e1d0 f   LIBCMTD:_userapi_.obj
 0002:000381f0       __RTC_SetErrorType         1007e1f0 f   LIBCMTD:_userapi_.obj
 0002:00038220       __RTC_SetErrorFunc         1007e220 f   LIBCMTD:_userapi_.obj
 0002:00038250       __RTC_SetErrorFuncW        1007e250 f   LIBCMTD:_userapi_.obj
 0002:00038280       ?_RTC_GetErrorFunc@@YAP6AHHPBDH00ZZPBX@Z 1007e280 f   LIBCMTD:_userapi_.obj
 0002:00038290       ?_RTC_GetErrorFuncW@@YAP6AHHPB_WH00ZZPBX@Z 1007e290 f   LIBCMTD:_userapi_.obj
 0002:000382a0       __chkesp                   1007e2a0 f   LIBCMTD:chkesp.obj
 0002:000382f0       __CRT_RTC_INIT             1007e2f0 f   LIBCMTD:chkesp.obj
 0002:00038300       __CRT_RTC_INITW            1007e300 f   LIBCMTD:chkesp.obj
 0002:00038310       ?_Type_info_dtor@type_info@@CAXPAV1@@Z 1007e310 f   LIBCMTD:typname.obj
 0002:00038460       ?_Name_base@type_info@@CAPBDPBV1@PAU__type_info_node@@@Z 1007e460 f   LIBCMTD:typname.obj
 0002:00038670       ?_Type_info_dtor_internal@type_info@@CAXPAV1@@Z 1007e670 f   LIBCMTD:typname.obj
 0002:000387c0       ___unDNameHelper           1007e7c0 f   LIBCMTD:typname.obj
 0002:00038810       ?_Name_base_internal@type_info@@CAPBDPBV1@PAU__type_info_node@@@Z 1007e810 f   LIBCMTD:typname.obj
 0002:00038a40       ___clean_type_info_names_internal 1007ea40 f   LIBCMTD:typname.obj
 0002:00038b20       _strcmp                    1007eb20 f   LIBCMTD:strcmp.obj
 0002:00038bd0       __FF_MSGBANNER             1007ebd0 f   LIBCMTD:crt0msg.obj
 0002:00038c30       __NMSG_WRITE               1007ec30 f   LIBCMTD:crt0msg.obj
 0002:00038f70       __GET_RTERRMSG             1007ef70 f   LIBCMTD:crt0msg.obj
 0002:00038fd0       __encode_pointer           1007efd0 f   LIBCMTD:tidtable.obj
 0002:00039090       __crt_wait_module_handle   1007f090 f i LIBCMTD:tidtable.obj
 0002:000390d0       __encoded_null             1007f0d0 f   LIBCMTD:tidtable.obj
 0002:000390f0       __decode_pointer           1007f0f0 f   LIBCMTD:tidtable.obj
 0002:000391b0       ___crtTlsAlloc@4           1007f1b0 f   LIBCMTD:tidtable.obj
 0002:000391d0       ___fls_getvalue@4          1007f1d0 f   LIBCMTD:tidtable.obj
 0002:00039200       ___get_flsindex            1007f200 f   LIBCMTD:tidtable.obj
 0002:00039210       ___set_flsgetvalue         1007f210 f   LIBCMTD:tidtable.obj
 0002:00039270       ___fls_setvalue@8          1007f270 f   LIBCMTD:tidtable.obj
 0002:000392a0       __mtinit                   1007f2a0 f   LIBCMTD:tidtable.obj
 0002:00039530       __mtterm                   1007f530 f   LIBCMTD:tidtable.obj
 0002:000395a0       __initptd                  1007f5a0 f   LIBCMTD:tidtable.obj
 0002:00039750       __getptd_noexit            1007f750 f   LIBCMTD:tidtable.obj
 0002:00039840       __getptd                   1007f840 f   LIBCMTD:tidtable.obj
 0002:00039870       __freefls@4                1007f870 f   LIBCMTD:tidtable.obj
 0002:00039b00       __freeptd                  1007fb00 f   LIBCMTD:tidtable.obj
 0002:00039ba0       ___threadid                1007fba0 f   LIBCMTD:tidtable.obj
 0002:00039bb0       ___threadhandle            1007fbb0 f   LIBCMTD:tidtable.obj
 0002:00039bc0       ___getlocaleinfo           1007fbc0 f   LIBCMTD:inithelp.obj
 0002:00039f10       __initp_misc_purevirt      1007ff10 f   LIBCMTD:inithelp.obj
 0002:00039f30       __VEC_memzero              1007ff30 f   LIBCMTD:p4_memset.obj
 0002:0003a060       __get_sse2_info            10080060 f   LIBCMTD:cpu_disp.obj
 0002:0003a1d0       ___sse2_available_init     100801d0 f   LIBCMTD:cpu_disp.obj
 0002:0003a1f0       ___InternalCxxFrameHandler 100801f0 f   LIBCMTD:frame.obj
 0002:0003a960       ??0bad_exception@std@@QAE@PBD@Z 10080960 f i LIBCMTD:frame.obj
 0002:0003a990       ??1bad_exception@std@@UAE@XZ 10080990 f i LIBCMTD:frame.obj
 0002:0003a9c0       ??_Ebad_exception@std@@UAEPAXI@Z 100809c0 f i LIBCMTD:frame.obj
 0002:0003a9c0       ??_Gbad_exception@std@@UAEPAXI@Z 100809c0 f i LIBCMTD:frame.obj
 0002:0003aa00       ??0bad_exception@std@@QAE@ABV01@@Z 10080a00 f i LIBCMTD:frame.obj
 0002:0003ac10       ___TypeMatch               10080c10 f   LIBCMTD:frame.obj
 0002:0003acf0       ___FrameUnwindFilter       10080cf0 f   LIBCMTD:frame.obj
 0002:0003ad80       ___FrameUnwindToState      10080d80 f   LIBCMTD:frame.obj
 0002:0003b410       ___BuildCatchObjectHelper  10081410 f   LIBCMTD:frame.obj
 0002:0003b720       ___BuildCatchObject        10081720 f   LIBCMTD:frame.obj
 0002:0003b870       ___DestructExceptionObject 10081870 f   LIBCMTD:frame.obj
 0002:0003b950       ___AdjustPointer           10081950 f   LIBCMTD:frame.obj
 0002:0003b9b0       ?__uncaught_exception@@YA_NXZ 100819b0 f   LIBCMTD:frame.obj
 0002:0003b9d0       ___CxxExceptionFilter      100819d0 f   LIBCMTD:frame.obj
 0002:0003bc30       ___CxxRegisterExceptionObject 10081c30 f   LIBCMTD:frame.obj
 0002:0003bdb0       ___CxxDetectRethrow        10081db0 f   LIBCMTD:frame.obj
 0002:0003be60       ___CxxUnregisterExceptionObject 10081e60 f   LIBCMTD:frame.obj
 0002:0003c040       ___CxxQueryExceptionSize   10082040 f   LIBCMTD:frame.obj
 0002:0003c050       ___CxxCallUnwindDtor       10082050 f   LIBCMTD:frame.obj
 0002:0003c0f0       ___CxxCallUnwindDelDtor    100820f0 f   LIBCMTD:frame.obj
 0002:0003c190       ___CxxCallUnwindStdDelDtor 10082190 f   LIBCMTD:frame.obj
 0002:0003c230       ___CxxCallUnwindVecDtor    10082230 f   LIBCMTD:frame.obj
 0002:0003c500       ?_is_exception_typeof@@YAHABVtype_info@@PAU_EXCEPTION_POINTERS@@@Z 10082500 f   LIBCMTD:frame.obj
 0002:0003c610       __CallSettingFrame@12      10082610 f   LIBCMTD:lowhelpr.obj
 0002:0003c637       __NLG_Return               10082637     LIBCMTD:lowhelpr.obj
 0002:0003c670       __initp_eh_hooks           10082670 f   LIBCMTD:hooks.obj
 0002:0003c690       ?terminate@@YAXXZ          10082690 f   LIBCMTD:hooks.obj
 0002:0003c730       ?unexpected@@YAXXZ         10082730 f   LIBCMTD:hooks.obj
 0002:0003c760       ?_inconsistency@@YAXXZ     10082760 f   LIBCMTD:hooks.obj
 0002:0003c810       ___report_gsfailure        10082810 f   LIBCMTD:gs_report.obj
 0002:0003c970       _DebuggerKnownHandle       10082970 f   LIBCMTD:_error_.obj
 0002:0003ca50       ?_RTC_Failure@@YAXPAXH@Z   10082a50 f   LIBCMTD:_error_.obj
 0002:0003ce20       ?_RTC_StackFailure@@YAXPAXPBD@Z 10082e20 f   LIBCMTD:_error_.obj
 0002:0003cf60       ?_RTC_AllocaFailure@@YAXPAXPAU_RTC_ALLOCA_NODE@@H@Z 10082f60 f   LIBCMTD:_error_.obj
 0002:0003d170       __RTC_UninitUse            10083170 f   LIBCMTD:_error_.obj
 0002:0003d2a0       __mtinitlocks              100832a0 f   LIBCMTD:mlock.obj
 0002:0003d350       __mtdeletelocks            10083350 f   LIBCMTD:mlock.obj
 0002:0003d440       __mtinitlocknum            10083440 f   LIBCMTD:mlock.obj
 0002:0003d5e0       __lock                     100835e0 f   LIBCMTD:mlock.obj
 0002:0003d630       __unlock                   10083630 f   LIBCMTD:mlock.obj
 0002:0003d650       __lockerr_exit             10083650 f   LIBCMTD:mlock.obj
 0002:0003d680       __except_handler4          10083680 f   LIBCMTD:chandler4.obj
 0002:0003d930       __crt_waiting_on_module_handle 10083930 f   LIBCMTD:crt0dat.obj
 0002:0003d9a0       __cinit                    100839a0 f   LIBCMTD:crt0dat.obj
 0002:0003da70       _exit                      10083a70 f   LIBCMTD:crt0dat.obj
 0002:0003da90       __exit                     10083a90 f   LIBCMTD:crt0dat.obj
 0002:0003dab0       __cexit                    10083ab0 f   LIBCMTD:crt0dat.obj
 0002:0003dad0       __c_exit                   10083ad0 f   LIBCMTD:crt0dat.obj
 0002:0003daf0       __amsg_exit                10083af0 f   LIBCMTD:crt0dat.obj
 0002:0003db40       ___freeCrtMemory           10083b40 f   LIBCMTD:crt0dat.obj
 0002:0003df60       ___crtCorExitProcess       10083f60 f   LIBCMTD:crt0dat.obj
 0002:0003dfb0       ___crtExitProcess          10083fb0 f   LIBCMTD:crt0dat.obj
 0002:0003dfe0       __lockexit                 10083fe0 f   LIBCMTD:crt0dat.obj
 0002:0003e000       __unlockexit               10084000 f   LIBCMTD:crt0dat.obj
 0002:0003e020       __init_pointers            10084020 f   LIBCMTD:crt0dat.obj
 0002:0003e110       __initterm_e               10084110 f   LIBCMTD:crt0dat.obj
 0002:0003e160       __get_wpgmptr              10084160 f   LIBCMTD:crt0dat.obj
 0002:0003e290       __get_pgmptr               10084290 f   LIBCMTD:crt0dat.obj
 0002:0003e3c0       __initp_misc_winsig        100843c0 f   LIBCMTD:winsig.obj
 0002:0003e400       _signal                    10084400 f   LIBCMTD:winsig.obj
 0002:0003e9d0       _raise                     100849d0 f   LIBCMTD:winsig.obj
 0002:0003ee20       ___get_sigabrt             10084e20 f   LIBCMTD:winsig.obj
 0002:0003ee40       ___fpecode                 10084e40 f   LIBCMTD:winsig.obj
 0002:0003ee60       ___pxcptinfoptrs           10084e60 f   LIBCMTD:winsig.obj
 0002:0003ee80       ___crtMessageBoxW          10084e80 f   LIBCMTD:crtmboxw.obj
 0002:0003f130       __itow_s                   10085130 f   LIBCMTD:xtows.obj
 0002:0003f600       __ltow_s                   10085600 f   LIBCMTD:xtows.obj
 0002:0003f650       __ultow_s                  10085650 f   LIBCMTD:xtows.obj
 0002:0003f680       __i64tow_s                 10085680 f   LIBCMTD:xtows.obj
 0002:0003fba0       __ui64tow_s                10085ba0 f   LIBCMTD:xtows.obj
 0002:0003fbd0       _wcsncat_s                 10085bd0 f   LIBCMTD:wcsncat_s.obj
 0002:000401b0       _wcsncpy_s                 100861b0 f   LIBCMTD:wcsncpy_s.obj
 0002:000406c0       _wcscat_s                  100866c0 f   LIBCMTD:wcscat_s.obj
 0002:00040ba0       _wcscpy_s                  10086ba0 f   LIBCMTD:wcscpy_s.obj
 0002:00040f40       _fwprintf                  10086f40 f   LIBCMTD:fwprintf.obj
 0002:00041120       __fwprintf_l               10087120 f   LIBCMTD:fwprintf.obj
 0002:00041160       __fwprintf_s_l             10087160 f   LIBCMTD:fwprintf.obj
 0002:000411a0       _fwprintf_s                100871a0 f   LIBCMTD:fwprintf.obj
 0002:000411d0       __fwprintf_p_l             100871d0 f   LIBCMTD:fwprintf.obj
 0002:00041210       __fwprintf_p               10087210 f   LIBCMTD:fwprintf.obj
 0002:00041240       _setvbuf                   10087240 f   LIBCMTD:setvbuf.obj
 0002:000415d0       __set_error_mode           100875d0 f   LIBCMTD:errmode.obj
 0002:000416c0       ___set_app_type            100876c0 f   LIBCMTD:errmode.obj
 0002:000416e0       ___get_app_type            100876e0 f   LIBCMTD:errmode.obj
 0002:000416f0       __initp_misc_invarg        100876f0 f   LIBCMTD:invarg.obj
 0002:00041710       __invalid_parameter        10087710 f   LIBCMTD:invarg.obj
 0002:000417a0       __invoke_watson            100877a0 f   LIBCMTD:invarg.obj
 0002:00041940       __set_invalid_parameter_handler 10087940 f   LIBCMTD:invarg.obj
 0002:000419a0       __get_invalid_parameter_handler 100879a0 f   LIBCMTD:invarg.obj
 0002:000419e0       ?_invalid_parameter@@YAXPBG00II@Z 100879e0 f   LIBCMTD:invarg.obj
 0002:00041a10       ?_invoke_watson@@YAXPBG00II@Z 10087a10 f   LIBCMTD:invarg.obj
 0002:00041a40       __vswprintf_helper         10087a40 f   LIBCMTD:vswprnc.obj
 0002:00041d00       __vswprintf_c              10087d00 f   LIBCMTD:vswprnc.obj
 0002:00041d60       __vswprintf_c_l            10087d60 f   LIBCMTD:vswprnc.obj
 0002:00041dc0       __vswprintf_s_l            10087dc0 f   LIBCMTD:vswprnc.obj
 0002:000420c0       _vswprintf_s               100880c0 f   LIBCMTD:vswprnc.obj
 0002:000420f0       __vsnwprintf_s_l           100880f0 f   LIBCMTD:vswprnc.obj
 0002:00042590       __vsnwprintf_s             10088590 f   LIBCMTD:vswprnc.obj
 0002:000425c0       __vswprintf_p              100885c0 f   LIBCMTD:vswprnc.obj
 0002:00042620       __vswprintf_p_l            10088620 f   LIBCMTD:vswprnc.obj
 0002:00042680       __dosmaperr                10088680 f   LIBCMTD:dosmap.obj
 0002:000426c0       __get_errno_from_oserr     100886c0 f   LIBCMTD:dosmap.obj
 0002:00042760       __set_errno                10088760 f   LIBCMTD:dosmap.obj
 0002:000427a0       __get_errno                100887a0 f   LIBCMTD:dosmap.obj
 0002:00042840       __set_doserrno             10088840 f   LIBCMTD:dosmap.obj
 0002:00042880       __get_doserrno             10088880 f   LIBCMTD:dosmap.obj
 0002:00042920       __errno                    10088920 f   LIBCMTD:dosmap.obj
 0002:00042950       ___doserrno                10088950 f   LIBCMTD:dosmap.obj
 0002:00042980       __ValidateImageBase        10088980 f   LIBCMTD:pesect.obj
 0002:00042a00       __FindPESection            10088a00 f   LIBCMTD:pesect.obj
 0002:00042aa0       __IsNonwritableInCurrentImage 10088aa0 f   LIBCMTD:pesect.obj
 0002:00042c00       __initp_misc_winxfltr      10088c00 f   LIBCMTD:winxfltr.obj
 0002:00042c10       ___CppXcptFilter           10088c10 f   LIBCMTD:winxfltr.obj
 0002:00042c40       __XcptFilter               10088c40 f   LIBCMTD:winxfltr.obj
 0002:00042ef0       __VEC_memcpy               10088ef0 f   LIBCMTD:p4_memcpy.obj
 0002:000430c0       _strcpy_s                  100890c0 f   LIBCMTD:strcpy_s.obj
 0002:00043450       _malloc                    10089450 f   LIBCMTD:dbgmalloc.obj
 0002:00043490       __initp_heap_handler       10089490 f   LIBCMTD:handler.obj
 0002:000434b0       ?_set_new_handler@@YAP6AHI@ZP6AHI@Z@Z 100894b0 f   LIBCMTD:handler.obj
 0002:00043510       ?_set_new_handler@@YAP6AHI@ZH@Z 10089510 f   LIBCMTD:handler.obj
 0002:00043560       ?_query_new_handler@@YAP6AHI@ZXZ 10089560 f   LIBCMTD:handler.obj
 0002:00043580       __callnewh                 10089580 f   LIBCMTD:handler.obj
 0002:000435d0       __close                    100895d0 f   LIBCMTD:close.obj
 0002:00043870       __close_nolock             10089870 f   LIBCMTD:close.obj
 0002:00043970       __fileno                   10089970 f   LIBCMTD:fileno.obj
 0002:00043a00       __freebuf                  10089a00 f   LIBCMTD:_freebuf.obj
 0002:00043ab0       __ioinit                   10089ab0 f   LIBCMTD:ioinit.obj
 0002:00044080       __ioterm                   1008a080 f   LIBCMTD:ioinit.obj
 0002:00044150       __input_l                  1008a150 f   LIBCMTD:input.obj
 0002:00045fa0       __INTRN_LOCALE_CONV        1008bfa0 f i LIBCMTD:input.obj
 0002:00046110       __input_s_l                1008c110 f   LIBCMTD:inputs.obj
 0002:00048550       __filbuf                   1008e550 f   LIBCMTD:_filbuf.obj
 0002:00048830       __wopenfile                1008e830 f   LIBCMTD:_wopen.obj
 0002:000491e0       __getstream                1008f1e0 f   LIBCMTD:stream.obj
 0002:000494d4       __local_unwind4            1008f4d4 f   LIBCMTD:exsup4.obj
 0002:000495aa       __seh_longjmp_unwind4@4    1008f5aa f   LIBCMTD:exsup4.obj
 0002:000495c6       @_EH4_CallFilterFunc@8     1008f5c6 f   LIBCMTD:exsup4.obj
 0002:000495dd       @_EH4_TransferToHandler@8  1008f5dd f   LIBCMTD:exsup4.obj
 0002:000495f6       @_EH4_GlobalUnwind@4       1008f5f6 f   LIBCMTD:exsup4.obj
 0002:00049610       @_EH4_LocalUnwind@16       1008f610 f   LIBCMTD:exsup4.obj
 0002:00049680       __stbuf                    1008f680 f   LIBCMTD:_sftbuf.obj
 0002:00049830       __ftbuf                    1008f830 f   LIBCMTD:_sftbuf.obj
 0002:000498e0       __output_l                 1008f8e0 f   LIBCMTD:output.obj
 0002:0004b220       _get_int_arg               10091220 f i LIBCMTD:output.obj
 0002:0004b250       _get_int64_arg             10091250 f i LIBCMTD:output.obj
 0002:0004b280       _get_short_arg             10091280 f i LIBCMTD:output.obj
 0002:0004b2b0       _vfprintf_helper           100912b0 f   LIBCMTD:vfprintf.obj
 0002:0004b5f0       __vfprintf_l               100915f0 f   LIBCMTD:vfprintf.obj
 0002:0004b620       __vfprintf_s_l             10091620 f   LIBCMTD:vfprintf.obj
 0002:0004b650       __vfprintf_p_l             10091650 f   LIBCMTD:vfprintf.obj
 0002:0004b680       _vfprintf                  10091680 f   LIBCMTD:vfprintf.obj
 0002:0004b6b0       _vfprintf_s                100916b0 f   LIBCMTD:vfprintf.obj
 0002:0004b6e0       __vfprintf_p               100916e0 f   LIBCMTD:vfprintf.obj
 0002:0004b710       __fcloseall                10091710 f   LIBCMTD:closeall.obj
 0002:0004b890       __flsbuf                   10091890 f   LIBCMTD:_flsbuf.obj
 0002:0004bc00       __woutput_l                10091c00 f   LIBCMTD:woutput.obj
 0002:0004d260       __chvalidator              10093260 f   LIBCMTD:isctype.obj
 0002:0004d2c0       __chvalidator_l            100932c0 f   LIBCMTD:isctype.obj
 0002:0004d3a0       __isctype_l                100933a0 f   LIBCMTD:isctype.obj
 0002:0004d500       __isctype                  10093500 f   LIBCMTD:isctype.obj
 0002:0004d550       ___updatetmbcinfo          10093550 f   LIBCMTD:mbctype.obj
 0002:0004d6a0       __setmbcp                  100936a0 f   LIBCMTD:mbctype.obj
 0002:0004db30       __setmbcp_nolock           10093b30 f   LIBCMTD:mbctype.obj
 0002:0004e510       __getmbcp                  10094510 f   LIBCMTD:mbctype.obj
 0002:0004e5a0       ___initmbctable            100945a0 f   LIBCMTD:mbctype.obj
 0002:0004e5d0       ____setlc_active_func      100945d0 f   LIBCMTD:setlocal.obj
 0002:0004e5e0       ____unguarded_readlc_active_add_func 100945e0 f   LIBCMTD:setlocal.obj
 0002:0004e5f0       ___freetlocinfo            100945f0 f   LIBCMTD:setlocal.obj
 0002:0004e990       ___addlocaleref            10094990 f   LIBCMTD:setlocal.obj
 0002:0004eb00       ___removelocaleref         10094b00 f   LIBCMTD:setlocal.obj
 0002:0004ec80       ___updatetlocinfo          10094c80 f   LIBCMTD:setlocal.obj
 0002:0004ee20       __configthreadlocale       10094e20 f   LIBCMTD:setlocal.obj
 0002:0004ef70       __locterm                  10094f70 f   LIBCMTD:setlocal.obj
 0002:0004f030       __free_locale              10095030 f   LIBCMTD:setlocal.obj
 0002:0004f1c0       ___free_locale             100951c0 f   LIBCMTD:setlocal.obj
 0002:0004f1e0       __create_locale            100951e0 f   LIBCMTD:setlocal.obj
 0002:0004f490       ___create_locale           10095490 f   LIBCMTD:setlocal.obj
 0002:0004f4b0       __get_current_locale       100954b0 f   LIBCMTD:setlocal.obj
 0002:0004f610       ___get_current_locale      10095610 f   LIBCMTD:setlocal.obj
 0002:0004f620       _setlocale                 10095620 f   LIBCMTD:setlocal.obj
 0002:000508f0       __expandlocale             100968f0 f   LIBCMTD:setlocal.obj
 0002:00050c40       ___init_dummy              10096c40 f   LIBCMTD:setlocal.obj
 0002:00050c50       __strcats                  10096c50 f   LIBCMTD:setlocal.obj
 0002:00050cf0       ___lc_strtolc              10096cf0 f   LIBCMTD:setlocal.obj
 0002:00050f70       ___lc_lctostr              10096f70 f   LIBCMTD:setlocal.obj
 0002:00051030       __vsprintf_l               10097030 f   LIBCMTD:vsprintf.obj
 0002:00051200       _vsprintf                  10097200 f   LIBCMTD:vsprintf.obj
 0002:00051230       __vscprintf_helper         10097230 f   LIBCMTD:vsprintf.obj
 0002:00051320       __vscprintf                10097320 f   LIBCMTD:vsprintf.obj
 0002:00051350       __vscprintf_l              10097350 f   LIBCMTD:vsprintf.obj
 0002:00051380       __vscprintf_p              10097380 f   LIBCMTD:vsprintf.obj
 0002:000513b0       __vscprintf_p_l            100973b0 f   LIBCMTD:vsprintf.obj
 0002:000513e0       __vsnprintf_helper         100973e0 f   LIBCMTD:vsnprnc.obj
 0002:00051620       __vsnprintf_c              10097620 f   LIBCMTD:vsnprnc.obj
 0002:00051680       __vsnprintf_c_l            10097680 f   LIBCMTD:vsnprnc.obj
 0002:000516e0       __vsprintf_s_l             100976e0 f   LIBCMTD:vsnprnc.obj
 0002:000519e0       _vsprintf_s                100979e0 f   LIBCMTD:vsnprnc.obj
 0002:00051a10       __vsnprintf_s_l            10097a10 f   LIBCMTD:vsnprnc.obj
 0002:00051e90       __vsnprintf_s              10097e90 f   LIBCMTD:vsnprnc.obj
 0002:00051ec0       __vsprintf_p               10097ec0 f   LIBCMTD:vsnprnc.obj
 0002:00051f20       __vsprintf_p_l             10097f20 f   LIBCMTD:vsnprnc.obj
 0002:00051f80       __towlower_l               10097f80 f   LIBCMTD:towlower.obj
 0002:00052130       _towlower                  10098130 f   LIBCMTD:towlower.obj
 0002:00052150       __setenvp                  10098150 f   LIBCMTD:stdenvp.obj
 0002:00052360       __setargv                  10098360 f   LIBCMTD:stdargv.obj
 0002:000524c0       __set_pgmptr               100984c0 f i LIBCMTD:stdargv.obj
 0002:00052920       ___crtGetEnvironmentStringsA 10098920 f   LIBCMTD:a_env.obj
 0002:00052bc0       __RTC_Initialize           10098bc0 f   LIBCMTD:_initsect_.obj
 0002:00052bf0       __RTC_Terminate            10098bf0 f   LIBCMTD:_initsect_.obj
 0002:00052c20       ___heap_select             10098c20 f   LIBCMTD:heapinit.obj
 0002:00052c40       __heap_init                10098c40 f   LIBCMTD:heapinit.obj
 0002:00052ce0       __heap_term                10098ce0 f   LIBCMTD:heapinit.obj
 0002:00052db0       __get_heap_handle          10098db0 f   LIBCMTD:heapinit.obj
 0002:00052e00       ___security_init_cookie    10098e00 f   LIBCMTD:gs_support.obj
 0002:00052f20       _V6_HeapAlloc              10098f20 f   LIBCMTD:malloc.obj
 0002:00052fe0       __malloc_base              10098fe0 f   LIBCMTD:malloc.obj
 0002:00053090       __heap_alloc_base          10099090 f i LIBCMTD:malloc.obj
 0002:00053180       __CrtSetReportHook2        10099180 f   LIBCMTD:dbgrpt.obj
 0002:00053570       __CrtDbgReport             10099570 f   LIBCMTD:dbgrpt.obj
 0002:000535c0       __CrtDbgReportV            100995c0 f i LIBCMTD:dbgrpt.obj
 0002:000535f0       ___crtMessageWindowA       100995f0 f   LIBCMTD:dbgrpt.obj
 0002:00053af0       __CrtDefaultAllocHook      10099af0 f   LIBCMTD:dbghook.obj
 0002:00053b00       __crt_debugger_hook        10099b00 f   LIBCMTD:dbghook.obj
 0002:00053b20       __expand_base              10099b20 f   LIBCMTD:expand.obj
 0002:00053ea0       __realloc_base             10099ea0 f   LIBCMTD:realloc.obj
 0002:00054320       __free_base                1009a320 f   LIBCMTD:free.obj
 0002:00054490       __heapchk                  1009a490 f   LIBCMTD:heapchk.obj
 0002:000545a0       __heapset                  1009a5a0 f   LIBCMTD:heapchk.obj
 0002:000545b0       __get_sbh_threshold        1009a5b0 f   LIBCMTD:sbheap.obj
 0002:00054610       __set_sbh_threshold        1009a610 f   LIBCMTD:sbheap.obj
 0002:00054810       __set_amblksiz             1009a810 f   LIBCMTD:sbheap.obj
 0002:00054960       __get_amblksiz             1009a960 f   LIBCMTD:sbheap.obj
 0002:00054a90       ___sbh_heap_init           1009aa90 f   LIBCMTD:sbheap.obj
 0002:00054b10       ___sbh_find_block          1009ab10 f   LIBCMTD:sbheap.obj
 0002:00054b80       ___sbh_verify_block        1009ab80 f   LIBCMTD:sbheap.obj
 0002:00054bf0       ___sbh_free_block          1009abf0 f   LIBCMTD:sbheap.obj
 0002:00055320       ___sbh_alloc_block         1009b320 f   LIBCMTD:sbheap.obj
 0002:00055990       ___sbh_alloc_new_region    1009b990 f   LIBCMTD:sbheap.obj
 0002:00055af0       ___sbh_alloc_new_group     1009baf0 f   LIBCMTD:sbheap.obj
 0002:00055d60       ___sbh_resize_block        1009bd60 f   LIBCMTD:sbheap.obj
 0002:000564a0       ___sbh_heapmin             1009c4a0 f   LIBCMTD:sbheap.obj
 0002:00056620       ___sbh_heap_check          1009c620 f   LIBCMTD:sbheap.obj
 0002:00056c50       _fwrite                    1009cc50 f   LIBCMTD:fwrite.obj
 0002:00056da0       __fwrite_nolock            1009cda0 f   LIBCMTD:fwrite.obj
 0002:00057260       __commit                   1009d260 f   LIBCMTD:commit.obj
 0002:00057500       __write                    1009d500 f   LIBCMTD:write.obj
 0002:000577b0       __write_nolock             1009d7b0 f   LIBCMTD:write.obj
 0002:000585c0       __CrtDbgBreak              1009e5c0 f   LIBCMTD:dbgrptt.obj
 0002:000585d0       __CrtSetReportMode         1009e5d0 f   LIBCMTD:dbgrptt.obj
 0002:00058760       __CrtSetReportFile         1009e760 f   LIBCMTD:dbgrptt.obj
 0002:00058890       __CrtSetReportHook         1009e890 f   LIBCMTD:dbgrptt.obj
 0002:000588c0       __CrtGetReportHook         1009e8c0 f   LIBCMTD:dbgrptt.obj
 0002:000588d0       __VCrtDbgReportA           1009e8d0 f   LIBCMTD:dbgrptt.obj
 0002:00059300       __VCrtDbgReportW           1009f300 f   LIBCMTD:dbgrptt.obj
 0002:00059e80       __swprintf                 1009fe80 f   LIBCMTD:swprintf.obj
 0002:0005a0d0       ___swprintf_l              100a00d0 f   LIBCMTD:swprintf.obj
 0002:0005a110       _swprintf_s                100a0110 f   LIBCMTD:swprintf.obj
 0002:0005a150       __snwprintf_s              100a0150 f   LIBCMTD:swprintf.obj
 0002:0005a190       __swprintf_p               100a0190 f   LIBCMTD:swprintf.obj
 0002:0005a1d0       __swprintf_s_l             100a01d0 f   LIBCMTD:swprintf.obj
 0002:0005a210       __snwprintf_s_l            100a0210 f   LIBCMTD:swprintf.obj
 0002:0005a250       __swprintf_p_l             100a0250 f   LIBCMTD:swprintf.obj
 0002:0005a290       __scwprintf                100a0290 f   LIBCMTD:swprintf.obj
 0002:0005a2c0       __scwprintf_p              100a02c0 f   LIBCMTD:swprintf.obj
 0002:0005a2f0       __scwprintf_l              100a02f0 f   LIBCMTD:swprintf.obj
 0002:0005a320       __scwprintf_p_l            100a0320 f   LIBCMTD:swprintf.obj
 0002:0005a350       ___unDName                 100a0350 f   LIBCMTD:undname.obj
 0002:0005a460       ?Constructor@HeapManager@@QAEXP6APAXI@ZP6AXPAX@Z@Z 100a0460 f i LIBCMTD:undname.obj
 0002:0005a4b0       ?Destructor@HeapManager@@QAEXXZ 100a04b0 f i LIBCMTD:undname.obj
 0002:0005a510       ___unDNameEx               100a0510 f   LIBCMTD:undname.obj
 0002:0005a620       ??0UnDecorator@@QAE@PADPBDHP6APADJ@ZK@Z 100a0620 f i LIBCMTD:undname.obj
 0002:0005a6e0       ??BUnDecorator@@QAEPADXZ   100a06e0 f i LIBCMTD:undname.obj
 0002:0005a9a0       ?dbGetString@DName@@QBEPADXZ 100a09a0 f   LIBCMTD:undname.obj
 0002:0005a9d0       ?getDecoratedName@UnDecorator@@CA?AVDName@@XZ 100a09d0 f   LIBCMTD:undname.obj
 0002:0005adb0       ?getSymbolName@UnDecorator@@CA?AVDName@@XZ 100a0db0 f i LIBCMTD:undname.obj
 0002:0005ae40       ?getZName@UnDecorator@@CA?AVDName@@_N0@Z 100a0e40 f   LIBCMTD:undname.obj
 0002:0005b190       ?getOperatorName@UnDecorator@@CA?AVDName@@_NPA_N@Z 100a1190 f i LIBCMTD:undname.obj
 0002:0005bd50       ?getStringEncoding@UnDecorator@@CA?AVDName@@PADH@Z 100a1d50 f   LIBCMTD:undname.obj
 0002:0005be90       ?getScope@UnDecorator@@CA?AVDName@@XZ 100a1e90 f   LIBCMTD:undname.obj
 0002:0005c360       ?getSignedDimension@UnDecorator@@CA?AVDName@@XZ 100a2360 f   LIBCMTD:undname.obj
 0002:0005c400       ?getDimension@UnDecorator@@CA?AVDName@@_N@Z 100a2400 f   LIBCMTD:undname.obj
 0002:0005c760       ?getNumberOfDimensions@UnDecorator@@CAHXZ 100a2760 f   LIBCMTD:undname.obj
 0002:0005c8a0       ?getTemplateName@UnDecorator@@CA?AVDName@@_N@Z 100a28a0 f   LIBCMTD:undname.obj
 0002:0005cad0       ?getTemplateArgumentList@UnDecorator@@CA?AVDName@@XZ 100a2ad0 f   LIBCMTD:undname.obj
 0002:0005cdf0       ?getTemplateConstant@UnDecorator@@CA?AVDName@@XZ 100a2df0 f   LIBCMTD:undname.obj
 0002:0005d3a0       ?composeDeclaration@UnDecorator@@CA?AVDName@@ABV2@@Z 100a33a0 f i LIBCMTD:undname.obj
 0002:0005ef10       ?getTypeEncoding@UnDecorator@@CAHXZ 100a4f10 f i LIBCMTD:undname.obj
 0002:0005fbe0       ?getBasedType@UnDecorator@@CA?AVDName@@XZ 100a5be0 f   LIBCMTD:undname.obj
 0002:0005fcd0       ?getScopedName@UnDecorator@@CA?AVDName@@XZ 100a5cd0 f   LIBCMTD:undname.obj
 0002:0005fe30       ?getCallingConvention@UnDecorator@@CA?AVDName@@XZ 100a5e30 f   LIBCMTD:undname.obj
 0002:0005ffe0       ?getReturnType@UnDecorator@@CA?AVDName@@PAV2@@Z 100a5fe0 f   LIBCMTD:undname.obj
 0002:00060040       ?getDataType@UnDecorator@@CA?AVDName@@PAV2@@Z 100a6040 f   LIBCMTD:undname.obj
 0002:000601a0       ?getPrimaryDataType@UnDecorator@@CA?AVDName@@ABV2@@Z 100a61a0 f   LIBCMTD:undname.obj
 0002:000604f0       ?getArgumentTypes@UnDecorator@@CA?AVDName@@XZ 100a64f0 f   LIBCMTD:undname.obj
 0002:000606a0       ?getArgumentList@UnDecorator@@CA?AVDName@@XZ 100a66a0 f   LIBCMTD:undname.obj
 0002:00060840       ?getThrowTypes@UnDecorator@@CA?AVDName@@XZ 100a6840 f   LIBCMTD:undname.obj
 0002:00060920       ?getBasicDataType@UnDecorator@@CA?AVDName@@ABV2@@Z 100a6920 f   LIBCMTD:undname.obj
 0002:00061030       ?getECSUDataType@UnDecorator@@CA?AVDName@@XZ 100a7030 f   LIBCMTD:undname.obj
 0002:00061280       ?getECSUName@UnDecorator@@CA?AVDName@@XZ 100a7280 f i LIBCMTD:undname.obj
 0002:000612a0       ?getEnumType@UnDecorator@@CA?AVDName@@XZ 100a72a0 f i LIBCMTD:undname.obj
 0002:00061440       ?getFunctionIndirectType@UnDecorator@@CA?AVDName@@ABV2@@Z 100a7440 f   LIBCMTD:undname.obj
 0002:00061990       ?getPtrRefType@UnDecorator@@CA?AVDName@@ABV2@0D@Z 100a7990 f   LIBCMTD:undname.obj
 0002:00061b50       ?getExtendedDataIndirectType@UnDecorator@@CA?AVDName@@AADAA_NH@Z 100a7b50 f   LIBCMTD:undname.obj
 0002:00061de0       ?getDataIndirectType@UnDecorator@@CA?AVDName@@ABV2@D0H@Z 100a7de0 f   LIBCMTD:undname.obj
 0002:000626a0       ?getPtrRefDataType@UnDecorator@@CA?AVDName@@ABV2@H@Z 100a86a0 f i LIBCMTD:undname.obj
 0002:00062830       ?getArrayType@UnDecorator@@CA?AVDName@@ABV2@@Z 100a8830 f i LIBCMTD:undname.obj
 0002:00062af0       ?getLexicalFrame@UnDecorator@@CA?AVDName@@XZ 100a8af0 f i LIBCMTD:undname.obj
 0002:00062b40       ?getThisType@UnDecorator@@CA?AVDName@@XZ 100a8b40 f i LIBCMTD:undname.obj
 0002:00062b80       ?getPointerType@UnDecorator@@CA?AVDName@@ABV2@0@Z 100a8b80 f i LIBCMTD:undname.obj
 0002:00062bb0       ?getPointerTypeArray@UnDecorator@@CA?AVDName@@ABV2@0@Z 100a8bb0 f i LIBCMTD:undname.obj
 0002:00062be0       ?getReferenceType@UnDecorator@@CA?AVDName@@ABV2@0@Z 100a8be0 f i LIBCMTD:undname.obj
 0002:00062c10       ?getDisplacement@UnDecorator@@CA?AVDName@@XZ 100a8c10 f i LIBCMTD:undname.obj
 0002:00062c30       ?getCallIndex@UnDecorator@@CA?AVDName@@XZ 100a8c30 f i LIBCMTD:undname.obj
 0002:00062c50       ?getGuardNumber@UnDecorator@@CA?AVDName@@XZ 100a8c50 f i LIBCMTD:undname.obj
 0002:00062c70       ?getVbTableType@UnDecorator@@CA?AVDName@@ABV2@@Z 100a8c70 f i LIBCMTD:undname.obj
 0002:00062c90       ?getVCallThunkType@UnDecorator@@CA?AVDName@@XZ 100a8c90 f i LIBCMTD:undname.obj
 0002:00062d10       ?getVfTableType@UnDecorator@@CA?AVDName@@ABV2@@Z 100a8d10 f i LIBCMTD:undname.obj
 0002:00062f40       ?getStorageConvention@UnDecorator@@CA?AVDName@@XZ 100a8f40 f i LIBCMTD:undname.obj
 0002:00062f60       ?getDataIndirectType@UnDecorator@@CA?AVDName@@XZ 100a8f60 f i LIBCMTD:undname.obj
 0002:00062fa0       ?getVdispMapType@UnDecorator@@CA?AVDName@@ABV2@@Z 100a8fa0 f i LIBCMTD:undname.obj
 0002:00063030       ?getExternalDataType@UnDecorator@@CA?AVDName@@ABV2@@Z 100a9030 f i LIBCMTD:undname.obj
 0002:000630f0       ?doMSKeywords@UnDecorator@@SAHXZ 100a90f0 f i LIBCMTD:undname.obj
 0002:00063110       ?doPtr64@UnDecorator@@SAHXZ 100a9110 f i LIBCMTD:undname.obj
 0002:00063130       ?doFunctionReturns@UnDecorator@@SAHXZ 100a9130 f i LIBCMTD:undname.obj
 0002:00063150       ?doAllocationModel@UnDecorator@@SAHXZ 100a9150 f i LIBCMTD:undname.obj
 0002:00063170       ?doAllocationLanguage@UnDecorator@@SAHXZ 100a9170 f i LIBCMTD:undname.obj
 0002:00063190       ?doThisTypes@UnDecorator@@SAHXZ 100a9190 f i LIBCMTD:undname.obj
 0002:000631b0       ?doAccessSpecifiers@UnDecorator@@SAHXZ 100a91b0 f i LIBCMTD:undname.obj
 0002:000631d0       ?doThrowTypes@UnDecorator@@SAHXZ 100a91d0 f i LIBCMTD:undname.obj
 0002:000631f0       ?doMemberTypes@UnDecorator@@SAHXZ 100a91f0 f i LIBCMTD:undname.obj
 0002:00063210       ?doNameOnly@UnDecorator@@SAHXZ 100a9210 f i LIBCMTD:undname.obj
 0002:00063230       ?doTypeOnly@UnDecorator@@SAHXZ 100a9230 f i LIBCMTD:undname.obj
 0002:00063250       ?haveTemplateParameters@UnDecorator@@SAHXZ 100a9250 f i LIBCMTD:undname.obj
 0002:00063270       ?doEcsu@UnDecorator@@SAHXZ 100a9270 f i LIBCMTD:undname.obj
 0002:00063290       ?doEllipsis@UnDecorator@@SAHXZ 100a9290 f i LIBCMTD:undname.obj
 0002:000632b0       ?UScore@UnDecorator@@SAPBDW4Tokens@@@Z 100a92b0 f   LIBCMTD:undname.obj
 0002:000632f0       ?doUnderScore@UnDecorator@@SAHXZ 100a92f0 f i LIBCMTD:undname.obj
 0002:00063310       ??2@YAPAXIAAVHeapManager@@H@Z 100a9310 f i LIBCMTD:undname.obj
 0002:00063330       ?getMemory@HeapManager@@QAEPAXIH@Z 100a9330 f   LIBCMTD:undname.obj
 0002:00063480       ??0Block@HeapManager@@QAE@XZ 100a9480 f i LIBCMTD:undname.obj
 0002:000634a0       ??H@YA?AVDName@@DABV0@@Z   100a94a0 f i LIBCMTD:undname.obj
 0002:000634e0       ??H@YA?AVDName@@W4DNameStatus@@ABV0@@Z 100a94e0 f i LIBCMTD:undname.obj
 0002:00063520       ??H@YA?AVDName@@PBDABV0@@Z 100a9520 f i LIBCMTD:undname.obj
 0002:00063560       ??0DName@@QAE@XZ           100a9560 f i LIBCMTD:undname.obj
 0002:00063650       ??0DName@@QAE@D@Z          100a9650 f   LIBCMTD:undname.obj
 0002:00063760       ??0DName@@QAE@ABV0@@Z      100a9760 f i LIBCMTD:undname.obj
 0002:00063790       ??0DName@@QAE@PAV0@@Z      100a9790 f   LIBCMTD:undname.obj
 0002:00063910       ??0DName@@QAE@PBD@Z        100a9910 f   LIBCMTD:undname.obj
 0002:00063a30       ??0DName@@QAE@AAPBDD@Z     100a9a30 f   LIBCMTD:undname.obj
 0002:00063da0       ?doNoIdentCharCheck@UnDecorator@@SAHXZ 100a9da0 f i LIBCMTD:undname.obj
 0002:00063dc0       ??0DName@@QAE@_K@Z         100a9dc0 f   LIBCMTD:undname.obj
 0002:00063f50       ??0DName@@QAE@_J@Z         100a9f50 f   LIBCMTD:undname.obj
 0002:00064130       ??0DName@@QAE@W4DNameStatus@@@Z 100aa130 f   LIBCMTD:undname.obj
 0002:00064290       ?isValid@DName@@QBEHXZ     100aa290 f i LIBCMTD:undname.obj
 0002:000642c0       ?isEmpty@DName@@QBEHXZ     100aa2c0 f i LIBCMTD:undname.obj
 0002:000642e0       ?status@DName@@QBE?AW4DNameStatus@@XZ 100aa2e0 f i LIBCMTD:undname.obj
 0002:00064300       ?setPtrRef@DName@@QAEAAV1@XZ 100aa300 f i LIBCMTD:undname.obj
 0002:00064330       ?isPtrRef@DName@@QBEHXZ    100aa330 f i LIBCMTD:undname.obj
 0002:00064350       ?isUDC@DName@@QBEHXZ       100aa350 f i LIBCMTD:undname.obj
 0002:000643a0       ?setIsUDC@DName@@QAEXXZ    100aa3a0 f i LIBCMTD:undname.obj
 0002:000643e0       ?isUDTThunk@DName@@QBEHXZ  100aa3e0 f i LIBCMTD:undname.obj
 0002:00064430       ?setIsArray@DName@@QAEXXZ  100aa430 f i LIBCMTD:undname.obj
 0002:00064460       ?isArray@DName@@QBEHXZ     100aa460 f i LIBCMTD:undname.obj
 0002:00064480       ?isNoTE@DName@@QBEHXZ      100aa480 f i LIBCMTD:undname.obj
 0002:000644a0       ?setIsNoTE@DName@@QAEXXZ   100aa4a0 f i LIBCMTD:undname.obj
 0002:000644d0       ?isPinPtr@DName@@QBEHXZ    100aa4d0 f i LIBCMTD:undname.obj
 0002:000644f0       ?setIsPinPtr@DName@@QAEXXZ 100aa4f0 f i LIBCMTD:undname.obj
 0002:00064520       ?isComArray@DName@@QBEHXZ  100aa520 f i LIBCMTD:undname.obj
 0002:00064540       ?setIsComArray@DName@@QAEXXZ 100aa540 f i LIBCMTD:undname.obj
 0002:00064570       ?isVCallThunk@DName@@QBEHXZ 100aa570 f i LIBCMTD:undname.obj
 0002:00064590       ?setIsVCallThunk@DName@@QAEXXZ 100aa590 f i LIBCMTD:undname.obj
 0002:000645c0       ?length@DName@@QBEHXZ      100aa5c0 f i LIBCMTD:undname.obj
 0002:00064600       ?getLastChar@DName@@QBEDXZ 100aa600 f i LIBCMTD:undname.obj
 0002:00064640       ?getString@DName@@QBEPADPADH@Z 100aa640 f i LIBCMTD:undname.obj
 0002:000646f0       ?getString@DName@@QBEPADPAD0@Z 100aa6f0 f i LIBCMTD:undname.obj
 0002:00064740       ??HDName@@QBE?AV0@D@Z      100aa740 f   LIBCMTD:undname.obj
 0002:00064790       ??HDName@@QBE?AV0@PBD@Z    100aa790 f   LIBCMTD:undname.obj
 0002:000647e0       ??HDName@@QBE?AV0@ABV0@@Z  100aa7e0 f   LIBCMTD:undname.obj
 0002:00064830       ??HDName@@QBE?AV0@PAV0@@Z  100aa830 f   LIBCMTD:undname.obj
 0002:00064880       ??HDName@@QBE?AV0@W4DNameStatus@@@Z 100aa880 f   LIBCMTD:undname.obj
 0002:000648d0       ?append@DName@@AAEXPAVDNameNode@@@Z 100aa8d0 f   LIBCMTD:undname.obj
 0002:00064980       ??YDName@@QAEAAV0@D@Z      100aa980 f   LIBCMTD:undname.obj
 0002:00064a30       ??YDName@@QAEAAV0@PBD@Z    100aaa30 f   LIBCMTD:undname.obj
 0002:00064af0       ??YDName@@QAEAAV0@ABV0@@Z  100aaaf0 f   LIBCMTD:undname.obj
 0002:00064b70       ??YDName@@QAEAAV0@PAV0@@Z  100aab70 f   LIBCMTD:undname.obj
 0002:00064c50       ??YDName@@QAEAAV0@W4DNameStatus@@@Z 100aac50 f   LIBCMTD:undname.obj
 0002:00064cd0       ??_5DName@@QAEAAV0@ABV0@@Z 100aacd0 f   LIBCMTD:undname.obj
 0002:00064d40       ??4DName@@QAEAAV0@D@Z      100aad40 f i LIBCMTD:undname.obj
 0002:00064e50       ??4DName@@QAEAAV0@PBD@Z    100aae50 f   LIBCMTD:undname.obj
 0002:00064f60       ??4DName@@QAEAAV0@ABV0@@Z  100aaf60 f   LIBCMTD:undname.obj
 0002:00064f90       ??4DName@@QAEAAV0@PAV0@@Z  100aaf90 f   LIBCMTD:undname.obj
 0002:00065110       ??4DName@@QAEAAV0@W4DNameStatus@@@Z 100ab110 f   LIBCMTD:undname.obj
 0002:00065250       ?doPchar@DName@@AAEXPBDH@Z 100ab250 f   LIBCMTD:undname.obj
 0002:000653e0       ?isFull@Replicator@@QBEHXZ 100ab3e0 f i LIBCMTD:undname.obj
 0002:00065400       ??0Replicator@@QAE@XZ      100ab400 f i LIBCMTD:undname.obj
 0002:00065420       ??YReplicator@@QAEAAV0@ABVDName@@@Z 100ab420 f   LIBCMTD:undname.obj
 0002:000654d0       ??AReplicator@@QBE?AVDName@@H@Z 100ab4d0 f   LIBCMTD:undname.obj
 0002:00065550       ??0DNameNode@@IAE@XZ       100ab550 f   LIBCMTD:undname.obj
 0002:00065570       ??0charNode@@QAE@D@Z       100ab570 f   LIBCMTD:undname.obj
 0002:000655b0       ?length@charNode@@UBEHXZ   100ab5b0 f i LIBCMTD:undname.obj
 0002:000655d0       ?getLastChar@charNode@@UBEDXZ 100ab5d0 f i LIBCMTD:undname.obj
 0002:000655f0       ?getString@charNode@@UBEPADPAD0@Z 100ab5f0 f i LIBCMTD:undname.obj
 0002:00065630       ??0pcharNode@@QAE@PBDH@Z   100ab630 f   LIBCMTD:undname.obj
 0002:000656f0       ?length@pcharNode@@UBEHXZ  100ab6f0 f i LIBCMTD:undname.obj
 0002:00065710       ?getLastChar@pcharNode@@UBEDXZ 100ab710 f i LIBCMTD:undname.obj
 0002:00065760       ?getString@pcharNode@@UBEPADPAD0@Z 100ab760 f i LIBCMTD:undname.obj
 0002:000657a0       ?getStringHelper@@YAPADPAD00H@Z 100ab7a0 f i LIBCMTD:undname.obj
 0002:000657f0       ??0pDNameNode@@QAE@PAVDName@@@Z 100ab7f0 f   LIBCMTD:undname.obj
 0002:00065870       ?length@pDNameNode@@UBEHXZ 100ab870 f i LIBCMTD:undname.obj
 0002:000658b0       ?getLastChar@pDNameNode@@UBEDXZ 100ab8b0 f i LIBCMTD:undname.obj
 0002:000658f0       ?getString@pDNameNode@@UBEPADPAD0@Z 100ab8f0 f i LIBCMTD:undname.obj
 0002:00065940       ??0DNameStatusNode@@AAE@W4DNameStatus@@@Z 100ab940 f   LIBCMTD:undname.obj
 0002:000659a0       ?length@DNameStatusNode@@UBEHXZ 100ab9a0 f i LIBCMTD:undname.obj
 0002:000659c0       ?getLastChar@DNameStatusNode@@UBEDXZ 100ab9c0 f i LIBCMTD:undname.obj
 0002:000659f0       ?getString@DNameStatusNode@@UBEPADPAD0@Z 100ab9f0 f i LIBCMTD:undname.obj
 0002:00065a40       ?make@DNameStatusNode@@SAPAV1@W4DNameStatus@@@Z 100aba40 f i LIBCMTD:undname.obj
 0002:00065b20       ??0pairNode@@QAE@PAVDNameNode@@0@Z 100abb20 f   LIBCMTD:undname.obj
 0002:00065b70       ?length@pairNode@@UBEHXZ   100abb70 f i LIBCMTD:undname.obj
 0002:00065bd0       ?getLastChar@pairNode@@UBEDXZ 100abbd0 f i LIBCMTD:undname.obj
 0002:00065c30       ?getString@pairNode@@UBEPADPAD0@Z 100abc30 f i LIBCMTD:undname.obj
 0002:00065db0       ___crtMessageBoxA          100abdb0 f   LIBCMTD:crtmbox.obj
 0002:00066060       _strcat_s                  100ac060 f   LIBCMTD:strcat_s.obj
 0002:00066530       _strncpy_s                 100ac530 f   LIBCMTD:strncpy_s.obj
 0002:00066a20       ___crtGetLocaleInfoW       100aca20 f   LIBCMTD:w_loc.obj
 0002:00066ab0       ___crtGetLocaleInfoA       100acab0 f   LIBCMTD:a_loc.obj
 0002:00066d00       __MarkAllocaS              100acd00 f i LIBCMTD:a_loc.obj
 0002:00066d30       __freea                    100acd30 f i LIBCMTD:a_loc.obj
 0002:00066db0       ?_ValidateRead@@YAHPBXI@Z  100acdb0 f   LIBCMTD:validate.obj
 0002:00066de0       ?_ValidateWrite@@YAHPAXI@Z 100acde0 f   LIBCMTD:validate.obj
 0002:00066e10       ?_ValidateExecute@@YAHP6GHXZ@Z 100ace10 f   LIBCMTD:validate.obj
 0002:00066e3c       __global_unwind2           100ace3c f   LIBCMTD:exsup.obj
 0002:00066ea1       __local_unwind2            100acea1 f   LIBCMTD:exsup.obj
 0002:00066f25       __abnormal_termination     100acf25 f   LIBCMTD:exsup.obj
 0002:00066f48       __NLG_Notify1              100acf48 f   LIBCMTD:exsup.obj
 0002:00066f51       __NLG_Notify               100acf51 f   LIBCMTD:exsup.obj
 0002:00066f68       __NLG_Dispatch2            100acf68     LIBCMTD:exsup.obj
 0002:00066f68       __NLG_Dispatch             100acf68     LIBCMTD:exsup.obj
 0002:00066f70       __NLG_Call                 100acf70 f   LIBCMTD:exsup.obj
 0002:00066f72       __NLG_Return2              100acf72     LIBCMTD:exsup.obj
 0002:00066fc0       ?_RTC_GetSrcLine@@YAHPAEPA_WKPAH1K@Z 100acfc0 f   LIBCMTD:_pdblkup_.obj
 0002:00067580       __initp_misc_initcrit      100ad580 f   LIBCMTD:initcrit.obj
 0002:000675a0       ___crtInitCritSecAndSpinCount 100ad5a0 f   LIBCMTD:initcrit.obj
 0002:00067670       __initp_misc_cfltcvt_tab   100ad670 f   LIBCMTD:cmiscdat.obj
 0002:000676d0       __initp_misc_rand_s        100ad6d0 f   LIBCMTD:rand_s.obj
 0002:000676f0       _rand_s                    100ad6f0 f   LIBCMTD:rand_s.obj
 0002:000679a0       __aulldiv                  100ad9a0 f   LIBCMTD:ulldiv.obj
 0002:00067a30       __aullrem                  100ada30 f   LIBCMTD:ullrem.obj
 0002:00067ad0       _vfwprintf_helper          100adad0 f   LIBCMTD:vfwprint.obj
 0002:00067cb0       __vfwprintf_l              100adcb0 f   LIBCMTD:vfwprint.obj
 0002:00067ce0       __vfwprintf_s_l            100adce0 f   LIBCMTD:vfwprint.obj
 0002:00067d10       __vfwprintf_p_l            100add10 f   LIBCMTD:vfwprint.obj
 0002:00067d40       _vfwprintf                 100add40 f   LIBCMTD:vfwprint.obj
 0002:00067d70       _vfwprintf_s               100add70 f   LIBCMTD:vfwprint.obj
 0002:00067da0       __vfwprintf_p              100adda0 f   LIBCMTD:vfwprint.obj
 0002:00067dd0       __woutput_s_l              100addd0 f   LIBCMTD:woutputs.obj
 0002:000695e0       __validate_param_reuseW    100af5e0 f   LIBCMTD:woutputp.obj
 0002:000698f0       __woutput_p_l              100af8f0 f   LIBCMTD:woutputp.obj
 0002:0006de40       __alloc_osfhnd             100b3e40 f   LIBCMTD:osfinfo.obj
 0002:0006e1a0       __set_osfhnd               100b41a0 f   LIBCMTD:osfinfo.obj
 0002:0006e2a0       __free_osfhnd              100b42a0 f   LIBCMTD:osfinfo.obj
 0002:0006e3c0       __get_osfhandle            100b43c0 f   LIBCMTD:osfinfo.obj
 0002:0006e580       __open_osfhandle           100b4580 f   LIBCMTD:osfinfo.obj
 0002:0006e840       ___lock_fhandle            100b4840 f   LIBCMTD:osfinfo.obj
 0002:0006e980       __unlock_fhandle           100b4980 f   LIBCMTD:osfinfo.obj
 0002:0006e9c0       __mbtowc_l                 100b49c0 f   LIBCMTD:mbtowc.obj
 0002:0006ec60       _mbtowc                    100b4c60 f   LIBCMTD:mbtowc.obj
 0002:0006ec90       __isleadbyte_l             100b4c90 f i LIBCMTD:_wctype.obj
 0002:0006ecf0       _isleadbyte                100b4cf0 f i LIBCMTD:_wctype.obj
 0002:0006ed10       __iswalpha_l               100b4d10 f i LIBCMTD:_wctype.obj
 0002:0006ed40       _iswalpha                  100b4d40 f i LIBCMTD:_wctype.obj
 0002:0006ed60       __iswupper_l               100b4d60 f i LIBCMTD:_wctype.obj
 0002:0006ed80       _iswupper                  100b4d80 f i LIBCMTD:_wctype.obj
 0002:0006eda0       __iswlower_l               100b4da0 f i LIBCMTD:_wctype.obj
 0002:0006edc0       _iswlower                  100b4dc0 f i LIBCMTD:_wctype.obj
 0002:0006ede0       __iswdigit_l               100b4de0 f i LIBCMTD:_wctype.obj
 0002:0006ee00       _iswdigit                  100b4e00 f i LIBCMTD:_wctype.obj
 0002:0006ee20       __iswxdigit_l              100b4e20 f i LIBCMTD:_wctype.obj
 0002:0006ee50       _iswxdigit                 100b4e50 f i LIBCMTD:_wctype.obj
 0002:0006ee70       __iswspace_l               100b4e70 f i LIBCMTD:_wctype.obj
 0002:0006ee90       _iswspace                  100b4e90 f i LIBCMTD:_wctype.obj
 0002:0006eeb0       __iswpunct_l               100b4eb0 f i LIBCMTD:_wctype.obj
 0002:0006eed0       _iswpunct                  100b4ed0 f i LIBCMTD:_wctype.obj
 0002:0006eef0       __iswalnum_l               100b4ef0 f i LIBCMTD:_wctype.obj
 0002:0006ef20       _iswalnum                  100b4f20 f i LIBCMTD:_wctype.obj
 0002:0006ef40       __iswprint_l               100b4f40 f i LIBCMTD:_wctype.obj
 0002:0006ef70       _iswprint                  100b4f70 f i LIBCMTD:_wctype.obj
 0002:0006ef90       __iswgraph_l               100b4f90 f i LIBCMTD:_wctype.obj
 0002:0006efc0       _iswgraph                  100b4fc0 f i LIBCMTD:_wctype.obj
 0002:0006efe0       __iswcntrl_l               100b4fe0 f i LIBCMTD:_wctype.obj
 0002:0006f000       _iswcntrl                  100b5000 f i LIBCMTD:_wctype.obj
 0002:0006f020       _iswascii                  100b5020 f i LIBCMTD:_wctype.obj
 0002:0006f040       __iswcsym_l                100b5040 f i LIBCMTD:_wctype.obj
 0002:0006f090       ___iswcsym                 100b5090 f i LIBCMTD:_wctype.obj
 0002:0006f0e0       __iswcsymf_l               100b50e0 f i LIBCMTD:_wctype.obj
 0002:0006f130       ___iswcsymf                100b5130 f i LIBCMTD:_wctype.obj
 0002:0006f180       __allshl                   100b5180 f   LIBCMTD:llshl.obj
 0002:0006f1b0       _ungetc                    100b51b0 f   LIBCMTD:ungetc.obj
 0002:0006f2e0       __ungetc_nolock            100b52e0 f   LIBCMTD:ungetc.obj
 0002:0006f590       __read                     100b5590 f   LIBCMTD:read.obj
 0002:0006f8d0       __read_nolock              100b58d0 f   LIBCMTD:read.obj
 0002:00070bf0       __getbuf                   100b6bf0 f   LIBCMTD:_getbuf.obj
 0002:00070ce0       __wopen                    100b6ce0 f   LIBCMTD:wopen.obj
 0002:00070ec0       __wsopen_helper            100b6ec0 f   LIBCMTD:wopen.obj
 0002:000725b0       __wsopen                   100b85b0 f   LIBCMTD:wopen.obj
 0002:00072640       __wsopen_s                 100b8640 f   LIBCMTD:wopen.obj
 0002:00072670       __wcsnicmp_l               100b8670 f   LIBCMTD:wcsnicmp.obj
 0002:00072930       __wcsnicmp                 100b8930 f   LIBCMTD:wcsnicmp.obj
 0002:00072b60       _wcsncmp                   100b8b60 f   LIBCMTD:wcsncmp.obj
 0002:00072bd0       __isatty                   100b8bd0 f   LIBCMTD:isatty.obj
 0002:00072cf0       _printf                    100b8cf0 f   LIBCMTD:printf.obj
 0002:00072e80       __printf_l                 100b8e80 f   LIBCMTD:printf.obj
 0002:00072eb0       __printf_s_l               100b8eb0 f   LIBCMTD:printf.obj
 0002:00072ee0       _printf_s                  100b8ee0 f   LIBCMTD:printf.obj
 0002:00072f10       __printf_p_l               100b8f10 f   LIBCMTD:printf.obj
 0002:00072f40       __printf_p                 100b8f40 f   LIBCMTD:printf.obj
 0002:00072f70       __set_printf_count_output  100b8f70 f   LIBCMTD:printf.obj
 0002:00072fd0       __get_printf_count_output  100b8fd0 f   LIBCMTD:printf.obj
 0002:00073000       __wctomb_s_l               100b9000 f   LIBCMTD:wctomb.obj
 0002:000733c0       _wctomb_s                  100b93c0 f   LIBCMTD:wctomb.obj
 0002:000733f0       __wctomb_l                 100b93f0 f   LIBCMTD:wctomb.obj
 0002:00073490       _wctomb                    100b9490 f   LIBCMTD:wctomb.obj
 0002:000734f0       __output_s_l               100b94f0 f   LIBCMTD:outputs.obj
 0002:00074fe0       __validate_param_reuseA    100bafe0 f   LIBCMTD:outputp.obj
 0002:000752f0       __output_p_l               100bb2f0 f   LIBCMTD:outputp.obj
 0002:00079db0       _get_crtdouble_arg         100bfdb0 f i LIBCMTD:outputp.obj
 0002:00079de0       __lseeki64                 100bfde0 f   LIBCMTD:lseeki64.obj
 0002:0007a0c0       __lseeki64_nolock          100c00c0 f   LIBCMTD:lseeki64.obj
 0002:0007a1f0       _fputwc                    100c01f0 f   LIBCMTD:fputwc.obj
 0002:0007a330       __fputwc_nolock            100c0330 f   LIBCMTD:fputwc.obj
 0002:0007a6d0       _putwc                     100c06d0 f   LIBCMTD:fputwc.obj
 0002:0007a6f0       ___crtGetStringTypeA       100c06f0 f   LIBCMTD:a_str.obj
 0002:0007aa20       ___crtLCMapStringA         100c0a20 f   LIBCMTD:a_map.obj
 0002:0007b130       ___pwctype_func            100c1130 f   LIBCMTD:ctype.obj
 0002:0007b140       ___pctype_func             100c1140 f   LIBCMTD:ctype.obj
 0002:0007b1a0       ___init_time               100c11a0 f   LIBCMTD:inittime.obj
 0002:0007ba80       ___free_lc_time            100c1a80 f   LIBCMTD:inittime.obj
 0002:0007be50       ___init_numeric            100c1e50 f   LIBCMTD:initnum.obj
 0002:0007c280       ___free_lconv_num          100c2280 f   LIBCMTD:initnum.obj
 0002:0007c310       ___init_monetary           100c2310 f   LIBCMTD:initmon.obj
 0002:0007c950       ___free_lconv_mon          100c2950 f   LIBCMTD:initmon.obj
 0002:0007ca80       ___init_ctype              100c2a80 f   LIBCMTD:initctyp.obj
 0002:0007d1a0       ____mb_cur_max_func        100c31a0 f   LIBCMTD:initctyp.obj
 0002:0007d200       ____mb_cur_max_l_func      100c3200 f   LIBCMTD:initctyp.obj
 0002:0007d240       ____lc_codepage_func       100c3240 f   LIBCMTD:initctyp.obj
 0002:0007d2a0       ____lc_collate_cp_func     100c32a0 f   LIBCMTD:initctyp.obj
 0002:0007d300       ____lc_handle_func         100c3300 f   LIBCMTD:initctyp.obj
 0002:0007d360       ___init_collate            100c3360 f   LIBCMTD:initcoll.obj
 0002:0007d370       __Getdays_l                100c3370 f   LIBCMTD:strftime.obj
 0002:0007d5a0       __Getdays                  100c35a0 f   LIBCMTD:strftime.obj
 0002:0007d5c0       __Getmonths_l              100c35c0 f   LIBCMTD:strftime.obj
 0002:0007d7f0       __Getmonths                100c37f0 f   LIBCMTD:strftime.obj
 0002:0007d810       __Gettnames_l              100c3810 f   LIBCMTD:strftime.obj
 0002:0007ded0       __Gettnames                100c3ed0 f   LIBCMTD:strftime.obj
 0002:0007def0       __strftime_l               100c3ef0 f   LIBCMTD:strftime.obj
 0002:0007df20       _strftime                  100c3f20 f   LIBCMTD:strftime.obj
 0002:0007df50       __Strftime                 100c3f50 f   LIBCMTD:strftime.obj
 0002:0007df80       __Strftime_l               100c3f80 f   LIBCMTD:strftime.obj
 0002:00080500       _localeconv                100c6500 f   LIBCMTD:lconv.obj
 0002:00080560       _strcspn                   100c6560 f   LIBCMTD:strcspn.obj
 0002:000805c0       _strncmp                   100c65c0 f   LIBCMTD:strncmp.obj
 0002:00080790       _strpbrk                   100c6790 f   LIBCMTD:strpbrk.obj
 0002:000807e0       _memcmp                    100c67e0 f   LIBCMTD:memcmp.obj
 0002:00081500       ___get_qualified_locale    100c7500 f   LIBCMTD:getqloc.obj
 0002:00082720       ___crtLCMapStringW         100c8720 f   LIBCMTD:w_map.obj
 0002:00082840       __iswctype_l               100c8840 f   LIBCMTD:iswctype.obj
 0002:00082910       _iswctype                  100c8910 f   LIBCMTD:iswctype.obj
 0002:000829c0       _is_wctype                 100c89c0 f   LIBCMTD:iswctype.obj
 0002:000829e0       __ismbbkalnum_l            100c89e0 f   LIBCMTD:ismbbyte.obj
 0002:00082a10       __ismbbkalnum              100c8a10 f   LIBCMTD:ismbbyte.obj
 0002:00082a30       __ismbbkprint_l            100c8a30 f   LIBCMTD:ismbbyte.obj
 0002:00082a60       __ismbbkprint              100c8a60 f   LIBCMTD:ismbbyte.obj
 0002:00082a80       __ismbbkpunct_l            100c8a80 f   LIBCMTD:ismbbyte.obj
 0002:00082ab0       __ismbbkpunct              100c8ab0 f   LIBCMTD:ismbbyte.obj
 0002:00082ad0       __ismbbalnum_l             100c8ad0 f   LIBCMTD:ismbbyte.obj
 0002:00082b00       __ismbbalnum               100c8b00 f   LIBCMTD:ismbbyte.obj
 0002:00082b30       __ismbbalpha_l             100c8b30 f   LIBCMTD:ismbbyte.obj
 0002:00082b60       __ismbbalpha               100c8b60 f   LIBCMTD:ismbbyte.obj
 0002:00082b90       __ismbbgraph_l             100c8b90 f   LIBCMTD:ismbbyte.obj
 0002:00082bc0       __ismbbgraph               100c8bc0 f   LIBCMTD:ismbbyte.obj
 0002:00082bf0       __ismbbprint_l             100c8bf0 f   LIBCMTD:ismbbyte.obj
 0002:00082c20       __ismbbprint               100c8c20 f   LIBCMTD:ismbbyte.obj
 0002:00082c50       __ismbbpunct_l             100c8c50 f   LIBCMTD:ismbbyte.obj
 0002:00082c80       __ismbbpunct               100c8c80 f   LIBCMTD:ismbbyte.obj
 0002:00082ca0       __ismbblead_l              100c8ca0 f   LIBCMTD:ismbbyte.obj
 0002:00082cd0       __ismbblead                100c8cd0 f   LIBCMTD:ismbbyte.obj
 0002:00082cf0       __ismbbtrail_l             100c8cf0 f   LIBCMTD:ismbbyte.obj
 0002:00082d20       __ismbbtrail               100c8d20 f   LIBCMTD:ismbbyte.obj
 0002:00082d40       __ismbbkana_l              100c8d40 f   LIBCMTD:ismbbyte.obj
 0002:00082dd0       __ismbbkana                100c8dd0 f   LIBCMTD:ismbbyte.obj
 0002:00082ef0       __putwch                   100c8ef0 f   LIBCMTD:putwch.obj
 0002:00082fa0       __putwch_nolock            100c8fa0 f   LIBCMTD:putwch.obj
 0002:000830e0       __cputws                   100c90e0 f   LIBCMTD:putwch.obj
 0002:00083280       __mbstowcs_l_helper        100c9280 f   LIBCMTD:mbstowcs.obj
 0002:000836b0       __mbstowcs_l               100c96b0 f   LIBCMTD:mbstowcs.obj
 0002:000836e0       _mbstowcs                  100c96e0 f   LIBCMTD:mbstowcs.obj
 0002:00083740       __mbstowcs_s_l             100c9740 f   LIBCMTD:mbstowcs.obj
 0002:00083ba0       _mbstowcs_s                100c9ba0 f   LIBCMTD:mbstowcs.obj
 0002:00083bd0       __itoa_s                   100c9bd0 f   LIBCMTD:xtoas.obj
 0002:00084080       __ltoa_s                   100ca080 f   LIBCMTD:xtoas.obj
 0002:000840d0       __ultoa_s                  100ca0d0 f   LIBCMTD:xtoas.obj
 0002:00084100       __i64toa_s                 100ca100 f   LIBCMTD:xtoas.obj
 0002:00084600       __ui64toa_s                100ca600 f   LIBCMTD:xtoas.obj
 0002:00084630       __wcstombs_l_helper        100ca630 f   LIBCMTD:wcstombs.obj
 0002:00084c60       __wcstombs_l               100cac60 f   LIBCMTD:wcstombs.obj
 0002:00084c90       _wcstombs                  100cac90 f   LIBCMTD:wcstombs.obj
 0002:00084cc0       __wcstombs_s_l             100cacc0 f   LIBCMTD:wcstombs.obj
 0002:000850b0       _wcstombs_s                100cb0b0 f   LIBCMTD:wcstombs.obj
 0002:000850e0       __vswprintf_l              100cb0e0 f   LIBCMTD:vswprint.obj
 0002:00085320       __vswprintf                100cb320 f   LIBCMTD:vswprint.obj
 0002:00085350       ___vswprintf_l             100cb350 f   LIBCMTD:vswprint.obj
 0002:00085380       __vscwprintf_helper        100cb380 f   LIBCMTD:vswprint.obj
 0002:00085470       __vscwprintf               100cb470 f   LIBCMTD:vswprint.obj
 0002:000854a0       __vscwprintf_l             100cb4a0 f   LIBCMTD:vswprint.obj
 0002:000854d0       __vscwprintf_p             100cb4d0 f   LIBCMTD:vswprint.obj
 0002:00085500       __vscwprintf_p_l           100cb500 f   LIBCMTD:vswprint.obj
 0002:00085530       _atol                      100cb530 f   LIBCMTD:atox.obj
 0002:00085550       __atol_l                   100cb550 f   LIBCMTD:atox.obj
 0002:00085580       _atoi                      100cb580 f   LIBCMTD:atox.obj
 0002:000855a0       __atoi_l                   100cb5a0 f   LIBCMTD:atox.obj
 0002:000855c0       __atoi64                   100cb5c0 f   LIBCMTD:atox.obj
 0002:000855e0       __atoi64_l                 100cb5e0 f   LIBCMTD:atox.obj
 0002:00085610       __fptrap                   100cb610 f   LIBCMTD:crt0fp.obj
 0002:00085630       _wcstol                    100cb630 f   LIBCMTD:wcstol.obj
 0002:00085bd0       __wcstol_l                 100cbbd0 f   LIBCMTD:wcstol.obj
 0002:00085c00       _wcstoul                   100cbc00 f   LIBCMTD:wcstol.obj
 0002:00085c60       __wcstoul_l                100cbc60 f   LIBCMTD:wcstol.obj
 0002:00085c90       __chsize_s                 100cbc90 f   LIBCMTD:chsize.obj
 0002:00085fd0       __chsize_nolock            100cbfd0 f   LIBCMTD:chsize.obj
 0002:00086310       __chsize                   100cc310 f   LIBCMTD:chsize.obj
 0002:00086340       __lseek                    100cc340 f   LIBCMTD:lseek.obj
 0002:000865f0       __lseek_nolock             100cc5f0 f   LIBCMTD:lseek.obj
 0002:00086700       __setmode                  100cc700 f   LIBCMTD:setmode.obj
 0002:00086a30       __setmode_nolock           100cca30 f   LIBCMTD:setmode.obj
 0002:00086d30       __set_fmode                100ccd30 f   LIBCMTD:setmode.obj
 0002:00086e10       __get_fmode                100cce10 f   LIBCMTD:setmode.obj
 0002:00086eb0       _vprintf_helper            100cceb0 f   LIBCMTD:vprintf.obj
 0002:00087010       __vprintf_l                100cd010 f   LIBCMTD:vprintf.obj
 0002:00087040       __vprintf_s_l              100cd040 f   LIBCMTD:vprintf.obj
 0002:00087070       __vprintf_p_l              100cd070 f   LIBCMTD:vprintf.obj
 0002:000870a0       _vprintf                   100cd0a0 f   LIBCMTD:vprintf.obj
 0002:000870d0       _vprintf_s                 100cd0d0 f   LIBCMTD:vprintf.obj
 0002:00087100       __vprintf_p                100cd100 f   LIBCMTD:vprintf.obj
 0002:00087130       _strtol                    100cd130 f   LIBCMTD:strtol.obj
 0002:000877b0       __strtol_l                 100cd7b0 f   LIBCMTD:strtol.obj
 0002:000877e0       _strtoul                   100cd7e0 f   LIBCMTD:strtol.obj
 0002:00087840       __strtoul_l                100cd840 f   LIBCMTD:strtol.obj
 0002:00087870       __flswbuf                  100cd870 f   LIBCMTD:_flswbuf.obj
 0002:00087c00       ___ansicp                  100cdc00 f   LIBCMTD:convrtcp.obj
 0002:00087c70       ___convertcp               100cdc70 f   LIBCMTD:convrtcp.obj
 0002:00087f50       __get_daylight             100cdf50 f   LIBCMTD:timeset.obj
 0002:00087ff0       __get_dstbias              100cdff0 f   LIBCMTD:timeset.obj
 0002:00088090       __get_timezone             100ce090 f   LIBCMTD:timeset.obj
 0002:00088130       __get_tzname               100ce130 f   LIBCMTD:timeset.obj
 0002:00088380       ___daylight                100ce380 f   LIBCMTD:timeset.obj
 0002:00088390       ___dstbias                 100ce390 f   LIBCMTD:timeset.obj
 0002:000883a0       ___timezone                100ce3a0 f   LIBCMTD:timeset.obj
 0002:000883b0       ___tzname                  100ce3b0 f   LIBCMTD:timeset.obj
 0002:000883c0       ___tzset                   100ce3c0 f   LIBCMTD:tzset.obj
 0002:00088480       __tzset                    100ce480 f   LIBCMTD:tzset.obj
 0002:00088b90       __set_daylight             100ceb90 f i LIBCMTD:tzset.obj
 0002:00088bb0       __set_dstbias              100cebb0 f i LIBCMTD:tzset.obj
 0002:00088bd0       __set_timezone             100cebd0 f i LIBCMTD:tzset.obj
 0002:00088bf0       __isindst                  100cebf0 f   LIBCMTD:tzset.obj
 0002:00089440       __stricmp_l                100cf440 f   LIBCMTD:stricmp.obj
 0002:00089650       ___ascii_stricmp           100cf650 f   LIBCMTD:stricmp.obj
 0002:000896e0       __stricmp                  100cf6e0 f   LIBCMTD:stricmp.obj
 0002:00089830       __strnicmp_l               100cf830 f   LIBCMTD:strnicmp.obj
 0002:00089b00       __strnicmp                 100cfb00 f   LIBCMTD:strnicmp.obj
 0002:00089cf0       ___crtGetStringTypeW       100cfcf0 f   LIBCMTD:w_str.obj
 0002:00089d90       ___initconin               100cfd90 f   LIBCMTD:initcon.obj
 0002:00089dc0       ___initconout              100cfdc0 f   LIBCMTD:initcon.obj
 0002:00089df0       ___termcon                 100cfdf0 f   LIBCMTD:initcon.obj
 0002:00089e50       __strtoi64                 100cfe50 f   LIBCMTD:strtoq.obj
 0002:0008a520       __strtoi64_l               100d0520 f   LIBCMTD:strtoq.obj
 0002:0008a550       __strtoui64                100d0550 f   LIBCMTD:strtoq.obj
 0002:0008a5b0       __strtoui64_l              100d05b0 f   LIBCMTD:strtoq.obj
 0002:0008a5e0       __wchartodigit             100d05e0 f   LIBCMTD:wchtodig.obj
 0002:0008a9d0       _getenv                    100d09d0 f   LIBCMTD:getenv.obj
 0002:0008ab80       __getenv_helper_nolock     100d0b80 f   LIBCMTD:getenv.obj
 0002:0008ace0       _getenv_s                  100d0ce0 f   LIBCMTD:getenv.obj
 0002:0008af90       __dupenv_s                 100d0f90 f   LIBCMTD:getenv.obj
 0002:0008afc0       __dupenv_s_dbg             100d0fc0 f   LIBCMTD:getenv.obj
 0002:0008b2a0       __tolower                  100d12a0 f   LIBCMTD:tolower.obj
 0002:0008b2b0       __tolower_l                100d12b0 f   LIBCMTD:tolower.obj
 0002:0008b500       _tolower                   100d1500 f   LIBCMTD:tolower.obj
 0002:0008b560       ___ascii_strnicmp          100d1560 f   LIBCMTD:_strnicm.obj
 0002:0008b5e0       __allmul                   100d15e0 f   LIBCMTD:llmul.obj
 0002:0008b630       _strnlen                   100d1630 f   LIBCMTD:strlen_s.obj
 0002:0008b680       __mbsnbicoll_l             100d1680 f   LIBCMTD:mbsnbico.obj
 0002:0008b950       __mbsnbicoll               100d1950 f   LIBCMTD:mbsnbico.obj
 0002:0008b980       ___wtomb_environ           100d1980 f   LIBCMTD:wtombenv.obj
 0002:0008bab0       ___crtCompareStringA       100d1ab0 f   LIBCMTD:a_cmp.obj
 0002:0008c1d0       __strnicoll_l              100d21d0 f   LIBCMTD:strnicol.obj
 0002:0008c4b0       __strnicoll                100d24b0 f   LIBCMTD:strnicol.obj
 0002:0008c500       ___crtsetenv               100d2500 f   LIBCMTD:setenv.obj
 0002:0008cd20       __mbschr_l                 100d2d20 f   LIBCMTD:mbschr.obj
 0002:0008cf10       __mbschr                   100d2f10 f   LIBCMTD:mbschr.obj
 0002:0008cf40       _strchr                    100d2f40 f   LIBCMTD:strchr.obj
 0002:0008cf46       ___from_strstr_to_strchr   100d2f46     LIBCMTD:strchr.obj
 0002:0008d032       _PathRemoveFileSpecW@4     100d3032 f   shlwapi:SHLWAPI.dll
 0002:0008d038       _PathFindFileNameW@4       100d3038 f   shlwapi:SHLWAPI.dll
 0002:0008d03e       _PathFindExtensionW@4      100d303e f   shlwapi:SHLWAPI.dll
 0002:0008d044       _PathIsRelativeW@4         100d3044 f   shlwapi:SHLWAPI.dll
 0002:0008d04a       _InterlockedExchange@8     100d304a f   kernel32:KERNEL32.dll
 0002:0008d050       _RtlUnwind@16              100d3050 f   kernel32:KERNEL32.dll
 0002:0008d056       _GetFileType@4             100d3056 f   kernel32:KERNEL32.dll
 0002:0008d05c       _CreateThread@24           100d305c f   kernel32:KERNEL32.dll
 0002:0008d062       _ExitThread@4              100d3062 f   kernel32:KERNEL32.dll
 0002:0008d068       _RaiseException@16         100d3068 f   kernel32:KERNEL32.dll
 0002:0008d06e       _UnhandledExceptionFilter@4 100d306e f   kernel32:KERNEL32.dll
 0002:0008d074       _SetUnhandledExceptionFilter@4 100d3074 f   kernel32:KERNEL32.dll
 0002:0008d07a       _GetCommandLineA@0         100d307a f   kernel32:KERNEL32.dll
 0002:0008d080       _HeapValidate@12           100d3080 f   kernel32:KERNEL32.dll
 0002:0008d086       _IsBadReadPtr@8            100d3086 f   kernel32:KERNEL32.dll
 0002:0008d08c       _GetModuleFileNameA@12     100d308c f   kernel32:KERNEL32.dll
 0002:0008d092       _TlsGetValue@4             100d3092 f   kernel32:KERNEL32.dll
 0002:0008d098       _GetModuleHandleW@4        100d3098 f   kernel32:KERNEL32.dll
 0002:0008d09e       _TlsAlloc@0                100d309e f   kernel32:KERNEL32.dll
 0002:0008d0a4       _TlsSetValue@8             100d30a4 f   kernel32:KERNEL32.dll
 0002:0008d0aa       _TlsFree@4                 100d30aa f   kernel32:KERNEL32.dll
 0002:0008d0b0       _SetLastError@4            100d30b0 f   kernel32:KERNEL32.dll
 0002:0008d0b6       _GetCurrentThread@0        100d30b6 f   kernel32:KERNEL32.dll
 0002:0008d0bc       _TerminateProcess@8        100d30bc f   kernel32:KERNEL32.dll
 0002:0008d0c2       _GetCurrentProcess@0       100d30c2 f   kernel32:KERNEL32.dll
 0002:0008d0c8       _IsDebuggerPresent@0       100d30c8 f   kernel32:KERNEL32.dll
 0002:0008d0ce       _DebugBreak@0              100d30ce f   kernel32:KERNEL32.dll
 0002:0008d0d4       _MultiByteToWideChar@24    100d30d4 f   kernel32:KERNEL32.dll
 0002:0008d0da       _LoadLibraryA@4            100d30da f   kernel32:KERNEL32.dll
 0002:0008d0e0       _FatalAppExitA@8           100d30e0 f   kernel32:KERNEL32.dll
 0002:0008d0e6       _ExitProcess@4             100d30e6 f   kernel32:KERNEL32.dll
 0002:0008d0ec       _SetConsoleCtrlHandler@8   100d30ec f   kernel32:KERNEL32.dll
 0002:0008d0f2       _SetHandleCount@4          100d30f2 f   kernel32:KERNEL32.dll
 0002:0008d0f8       _GetStartupInfoA@4         100d30f8 f   kernel32:KERNEL32.dll
 0002:0008d0fe       _GetACP@0                  100d30fe f   kernel32:KERNEL32.dll
 0002:0008d104       _GetOEMCP@0                100d3104 f   kernel32:KERNEL32.dll
 0002:0008d10a       _GetCPInfo@8               100d310a f   kernel32:KERNEL32.dll
 0002:0008d110       _IsValidCodePage@4         100d3110 f   kernel32:KERNEL32.dll
 0002:0008d116       _FreeEnvironmentStringsA@4 100d3116 f   kernel32:KERNEL32.dll
 0002:0008d11c       _GetEnvironmentStrings@0   100d311c f   kernel32:KERNEL32.dll
 0002:0008d122       _FreeEnvironmentStringsW@4 100d3122 f   kernel32:KERNEL32.dll
 0002:0008d128       _GetEnvironmentStringsW@0  100d3128 f   kernel32:KERNEL32.dll
 0002:0008d12e       _HeapDestroy@4             100d312e f   kernel32:KERNEL32.dll
 0002:0008d134       _HeapCreate@12             100d3134 f   kernel32:KERNEL32.dll
 0002:0008d13a       _HeapFree@12               100d313a f   kernel32:KERNEL32.dll
 0002:0008d140       _QueryPerformanceCounter@4 100d3140 f   kernel32:KERNEL32.dll
 0002:0008d146       _GetCurrentProcessId@0     100d3146 f   kernel32:KERNEL32.dll
 0002:0008d14c       _GetSystemTimeAsFileTime@4 100d314c f   kernel32:KERNEL32.dll
 0002:0008d152       _HeapAlloc@12              100d3152 f   kernel32:KERNEL32.dll
 0002:0008d158       _HeapSize@12               100d3158 f   kernel32:KERNEL32.dll
 0002:0008d15e       _HeapReAlloc@16            100d315e f   kernel32:KERNEL32.dll
 0002:0008d164       _GetConsoleCP@0            100d3164 f   kernel32:KERNEL32.dll
 0002:0008d16a       _GetConsoleMode@8          100d316a f   kernel32:KERNEL32.dll
 0002:0008d170       _OutputDebugStringA@4      100d3170 f   kernel32:KERNEL32.dll
 0002:0008d176       _OutputDebugStringW@4      100d3176 f   kernel32:KERNEL32.dll
 0002:0008d17c       _GetLocaleInfoW@16         100d317c f   kernel32:KERNEL32.dll
 0002:0008d182       _GetLocaleInfoA@16         100d3182 f   kernel32:KERNEL32.dll
 0002:0008d188       _GetProcessHeap@0          100d3188 f   kernel32:KERNEL32.dll
 0002:0008d18e       _SetStdHandle@8            100d318e f   kernel32:KERNEL32.dll
 0002:0008d194       _ReadFile@20               100d3194 f   kernel32:KERNEL32.dll
 0002:0008d19a       _GetStringTypeA@20         100d319a f   kernel32:KERNEL32.dll
 0002:0008d1a0       _GetStringTypeW@16         100d31a0 f   kernel32:KERNEL32.dll
 0002:0008d1a6       _LCMapStringA@24           100d31a6 f   kernel32:KERNEL32.dll
 0002:0008d1ac       _LCMapStringW@24           100d31ac f   kernel32:KERNEL32.dll
 0002:0008d1b2       _GetTimeFormatA@24         100d31b2 f   kernel32:KERNEL32.dll
 0002:0008d1b8       _GetDateFormatA@24         100d31b8 f   kernel32:KERNEL32.dll
 0002:0008d1be       _IsValidLocale@8           100d31be f   kernel32:KERNEL32.dll
 0002:0008d1c4       _EnumSystemLocalesA@8      100d31c4 f   kernel32:KERNEL32.dll
 0002:0008d1ca       _GetUserDefaultLCID@0      100d31ca f   kernel32:KERNEL32.dll
 0002:0008d1d0       _WriteConsoleA@20          100d31d0 f   kernel32:KERNEL32.dll
 0002:0008d1d6       _GetConsoleOutputCP@0      100d31d6 f   kernel32:KERNEL32.dll
 0002:0008d1dc       _SetEndOfFile@4            100d31dc f   kernel32:KERNEL32.dll
 0002:0008d1e2       _GetTimeZoneInformation@4  100d31e2 f   kernel32:KERNEL32.dll
 0002:0008d1e8       _CreateFileA@28            100d31e8 f   kernel32:KERNEL32.dll
 0002:0008d1ee       _CompareStringA@24         100d31ee f   kernel32:KERNEL32.dll
 0002:0008d1f4       _CompareStringW@24         100d31f4 f   kernel32:KERNEL32.dll
 0002:0008d1fa       _SetEnvironmentVariableA@8 100d31fa f   kernel32:KERNEL32.dll
 0003:00000000       ___xc_a                    100d8000     LIBCMTD:crt0init.obj
 0003:00000208       ___xc_z                    100d8208     LIBCMTD:crt0init.obj
 0003:0000030c       ___xi_a                    100d830c     LIBCMTD:crt0init.obj
 0003:00000524       ___xi_z                    100d8524     LIBCMTD:crt0init.obj
 0003:00000628       ___xp_a                    100d8628     LIBCMTD:crt0init.obj
 0003:0000093c       ___xp_z                    100d893c     LIBCMTD:crt0init.obj
 0003:00000a40       ___xt_a                    100d8a40     LIBCMTD:crt0init.obj
 0003:00000b44       ___xt_z                    100d8b44     LIBCMTD:crt0init.obj
 0003:00000c6c       ??_C@_0P@GHFPNOJB@bad?5allocation?$AA@ 100d8c6c     BaseChan.obj
 0003:00000c7e       ?_Value@?$_Is_swap_move@U_Swap_move_tag@std@@@std@@2_NB 100d8c7e     BaseChan.obj
 0003:00000c7f       ?value@?$integral_constant@_N$0A@@tr1@std@@2_NB 100d8c7f     BaseChan.obj
 0003:00000c80       ?value@?$integral_constant@_N$00@tr1@std@@2_NB 100d8c80     BaseChan.obj
 0003:00000c88       ??_7ICommChannel@@6B@      100d8c88     BaseChan.obj
 0003:00000cc8       ??_7CBaseChannel@@6BIProtocolObserver@@@ 100d8cc8     BaseChan.obj
 0003:00000cdc       ??_7CBaseChannel@@6BIProtocolChannel@@@ 100d8cdc     BaseChan.obj
 0003:00000d6c       ??_7IProtocolChannel@@6B@  100d8d6c     BaseChan.obj
 0003:00000dc0       ??_7IProtocolObserver@@6B@ 100d8dc0     BaseChan.obj
 0003:00000dd0       ??_C@_1FE@IAJFNMGB@?$AAC?$AAl?$AAe?$AAa?$AAr?$AA?5?$AAa?$AAn?$AAd?$AA?5?$AAk?$AAe?$AAe?$AAp?$AA?5?$AAp?$AAa?$AAc?$AAk?$AAa?$AAg?$AAe?$AA?5?$AAf?$AAl?$AAa?$AAg?$AA?5?$AAi?$AAs?$AA?5?$AAs@ 100d8dd0     BaseChan.obj
 0003:00000e38       ??_C@_1EK@NPAEIONA@?$AAa?$AAs?$AAy?$AAn?$AAc?$AA?5?$AAp?$AAa?$AAc?$AAk?$AAa?$AAg?$AAe?$AA?5?$AAc?$AAa?$AAp?$AAa?$AAc?$AAi?$AAt?$AAy?$AA?5?$AAi?$AAs?$AA?5?$AAs?$AAe?$AAt?$AA?5?$AAt?$AAo@ 100d8e38     BaseChan.obj
 0003:00000e90       ??_C@_1EC@MAEHGKKG@?$AAD?$AAe?$AAv?$AAi?$AAc?$AAe?$AA?5?$AAc?$AAh?$AAa?$AAn?$AAg?$AAe?$AA?5?$AAf?$AAl?$AAa?$AAg?$AA?5?$AAi?$AAs?$AA?5?$AAs?$AAe?$AAt?$AA?5?$AAt?$AAo?$AA?5?$AA?$CF?$AAd?$AA?4@ 100d8e90     BaseChan.obj
 0003:00000ee0       ??_C@_1HM@BAMOAJE@?$AAE?$AAn?$AAd?$AAi?$AAa?$AAn?$AA?5?$AAi?$AAs?$AA?5?$AAs?$AAe?$AAt?$AA?0?$AAL?$AAo?$AAw?$AA?5?$AAl?$AAe?$AAv?$AAe?$AAl?$AA?5?$AAe?$AAn?$AAd?$AAi?$AAa?$AAn?$AA?5?$AAi@ 100d8ee0     BaseChan.obj
 0003:00000f74       ??_C@_1CK@HGJLNPBF@?$AAO?$AAp?$AAe?$AAn?$AA?3?$AA?5?$AAs?$AAu?$AAc?$AAc?$AAe?$AAs?$AAs?$AAe?$AAd?$AA?0?$AA?5?$AA?9?$AA?9?$AA?9?$AA?$AA@ 100d8f74     BaseChan.obj
 0003:00000fa8       ??_C@_1CC@IAJFLIDK@?$AAO?$AAp?$AAe?$AAn?$AA?3?$AA?5?$AAf?$AAa?$AAi?$AAl?$AAe?$AAd?$AA?0?$AA?9?$AA?9?$AA?9?$AA?$AA@ 100d8fa8     BaseChan.obj
 0003:00000fd0       ??_C@_1DC@FNBBPCGJ@?$AAO?$AAp?$AAe?$AAn?$AA?3?$AA?5?$AAc?$AAh?$AAa?$AAn?$AAn?$AAe?$AAl?$AA?5?$AAt?$AAy?$AAp?$AAe?$AA?5?$AAi?$AAs?$AA?5?$AA?$CF?$AAd?$AA?$AA@ 100d8fd0     BaseChan.obj
 0003:00001010       ??_C@_1FM@DKIEPPJG@?$AAO?$AAp?$AAe?$AAn?$AA?3?$AA?5?$AAc?$AAh?$AAa?$AAn?$AAn?$AAe?$AAl?$AA?5?$AAt?$AAy?$AAp?$AAe?$AA?5?$AAi?$AAs?$AA?5?$AAS?$AAO?$AAC?$AAK?$AAE?$AAT?$AA?0?$AA?5?$AAi?$AAp@ 100d9010     BaseChan.obj
 0003:00001080       ??_C@_1GC@KPENJFHA@?$AAO?$AAp?$AAe?$AAn?$AA?3?$AA?5?$AAc?$AAh?$AAa?$AAn?$AAn?$AAe?$AAl?$AA?5?$AAt?$AAy?$AAp?$AAe?$AA?5?$AAi?$AAs?$AA?5?$AAU?$AAA?$AAR?$AAT?$AA?0?$AA?5?$AAp?$AAo?$AAr?$AAt@ 100d9080     BaseChan.obj
 0003:000010f8       ??_C@_1EG@PJLHBCND@?$AAO?$AAp?$AAe?$AAn?$AA?3?$AA?5?$AAc?$AAr?$AAe?$AAa?$AAt?$AAe?$AA?5?$AAr?$AAe?$AAc?$AAe?$AAi?$AAv?$AAe?$AA?5?$AAt?$AAh?$AAr?$AAe?$AAa?$AAd?$AA?5?$AAf?$AAa?$AAi?$AAl@ 100d90f8     BaseChan.obj
 0003:00001150       ??_C@_1EG@PENANOBO@?$AAO?$AAp?$AAe?$AAn?$AA?3?$AA?5?$AAc?$AAr?$AAe?$AAa?$AAt?$AAe?$AA?5?$AAp?$AAr?$AAo?$AAc?$AAe?$AAs?$AAs?$AA?5?$AAt?$AAh?$AAr?$AAe?$AAa?$AAd?$AA?5?$AAf?$AAa?$AAi?$AAl@ 100d9150     BaseChan.obj
 0003:000011a4       ??_C@_1DI@MFMPEAFH@?$AAO?$AAp?$AAe?$AAn?$AA?3?$AA?5?$AAc?$AAr?$AAe?$AAa?$AAt?$AAe?$AA?5?$AAc?$AAh?$AAa?$AAn?$AAn?$AAe?$AAl?$AA?5?$AAf?$AAa?$AAi?$AAl?$AAe?$AAd?$AA?$AA@ 100d91a4     BaseChan.obj
 0003:000011e8       ??_C@_1FA@HONEMKGJ@?$AAO?$AAp?$AAe?$AAn?$AA?3?$AA?5?$AAf?$AAa?$AAi?$AAl?$AAe?$AAd?$AA?0?$AA?5?$AAc?$AAh?$AAa?$AAn?$AAn?$AAe?$AAl?$AA?5?$AAp?$AAa?$AAr?$AAa?$AAm?$AAe?$AAt?$AAe?$AAr?$AA?5@ 100d91e8     BaseChan.obj
 0003:00001248       ??_C@_1BE@EOCBGBAM@?$AAO?$AAp?$AAe?$AAn?$AA?3?$AA?5?$AA?9?$AA?9?$AA?9?$AA?$AA@ 100d9248     BaseChan.obj
 0003:00001260       ??_C@_1FE@BJMPOCJD@?$AAO?$AAp?$AAe?$AAn?$AA?3?$AA?5?$AAf?$AAa?$AAi?$AAl?$AAe?$AAd?$AA?0?$AA?5?$AAm?$AA_?$AAp?$AAL?$AAo?$AAw?$AAe?$AAr?$AAC?$AAh?$AAa?$AAn?$AAn?$AAe?$AAl?$AA?5?$AAi?$AAs@ 100d9260     BaseChan.obj
 0003:000012c4       ??_C@_1BE@HLHMNEEK@?$AAO?$AAp?$AAe?$AAn?$AA?3?$AA?5?$AA?$CL?$AA?$CL?$AA?$CL?$AA?$AA@ 100d92c4     BaseChan.obj
 0003:000012dc       ??_C@_1BG@INOMEMMA@?$AAC?$AAl?$AAo?$AAs?$AAe?$AA?3?$AA?5?$AA?9?$AA?9?$AA?9?$AA?$AA@ 100d92dc     BaseChan.obj
 0003:000012f8       ??_C@_1DG@MBAMAADL@?$AAC?$AAl?$AAo?$AAs?$AAe?$AA?3?$AA?5?$AAn?$AAo?$AA?5?$AAc?$AAh?$AAa?$AAn?$AAn?$AAe?$AAl?$AA?5?$AAt?$AAo?$AA?5?$AAc?$AAl?$AAo?$AAs?$AAe?$AA?$AA@ 100d92f8     BaseChan.obj
 0003:00001338       ??_C@_1GA@CFPCABBJ@?$AAC?$AAl?$AAo?$AAs?$AAe?$AA?3?$AA?5?$AAs?$AAt?$AAo?$AAp?$AA?5?$AAr?$AAe?$AAc?$AAe?$AAi?$AAv?$AAi?$AAn?$AAg?$AA?5?$AAd?$AAa?$AAt?$AAa?$AA?5?$AAf?$AAr?$AAo?$AAm?$AA?5@ 100d9338     BaseChan.obj
 0003:000013ac       ??_C@_1DK@OJJIOHC@?$AAC?$AAl?$AAo?$AAs?$AAe?$AA?3?$AA?5?$AAs?$AAt?$AAo?$AAp?$AA?5?$AAi?$AAn?$AAt?$AAe?$AAr?$AAn?$AAa?$AAl?$AA?5?$AAt?$AAh?$AAr?$AAe?$AAa?$AAd?$AAs?$AA?$AA@ 100d93ac     BaseChan.obj
 0003:000013f8       ??_C@_1JA@HHGFIPMP@?$AAC?$AAl?$AAo?$AAs?$AAe?$AA?3?$AA?5?$AAs?$AAt?$AAo?$AAp?$AA?5?$AAr?$AAe?$AAc?$AAi?$AAe?$AAv?$AAi?$AAn?$AAg?$AA?5?$AAd?$AAa?$AAt?$AAa?$AA?5?$AAf?$AAr?$AAo?$AAm?$AA?5@ 100d93f8     BaseChan.obj
 0003:000014a8       ??_C@_1FC@ICMPLOPI@?$AAC?$AAl?$AAo?$AAs?$AAe?$AA?3?$AA?5?$AAc?$AAl?$AAo?$AAs?$AAe?$AA?5?$AAt?$AAh?$AAe?$AA?5?$AAc?$AAh?$AAa?$AAn?$AAn?$AAe?$AAl?$AA?5?$AAc?$AAr?$AAe?$AAa?$AAt?$AAe?$AAd@ 100d94a8     BaseChan.obj
 0003:0000150c       ??_C@_1BG@LILBPJIG@?$AAC?$AAl?$AAo?$AAs?$AAe?$AA?3?$AA?5?$AA?$CL?$AA?$CL?$AA?$CL?$AA?$AA@ 100d950c     BaseChan.obj
 0003:00001528       ??_C@_1FO@FPBIMALA@?$AAC?$AAl?$AAe?$AAa?$AAr?$AA?3?$AA?5?$AAe?$AAr?$AAa?$AAs?$AAe?$AA?5?$AA?$CF?$AAd?$AA?5?$AAp?$AAa?$AAc?$AAk?$AAa?$AAg?$AAe?$AAs?$AA?5?$AAi?$AAn?$AA?5?$AAa?$AAs?$AAy?$AAn@ 100d9528     BaseChan.obj
 0003:00001598       ??_C@_1DM@OKCAFJKO@?$AAC?$AAl?$AAe?$AAa?$AAr?$AA?3?$AA?5?$AAc?$AAl?$AAe?$AAa?$AAr?$AA?5?$AAp?$AAr?$AAo?$AAt?$AAo?$AAc?$AAo?$AAl?$AA?5?$AAp?$AAa?$AAc?$AAk?$AAa?$AAg?$AAe?$AA?$AA@ 100d9598     BaseChan.obj
 0003:000015e0       ??_C@_1DE@GAHPMBDJ@?$AAC?$AAl?$AAe?$AAa?$AAr?$AA?3?$AA?5?$AAc?$AAl?$AAe?$AAa?$AAr?$AA?5?$AAc?$AAh?$AAa?$AAn?$AAn?$AAe?$AAl?$AA?5?$AAd?$AAa?$AAt?$AAa?$AA?$AA@ 100d95e0     BaseChan.obj
 0003:00001620       ??_C@_1EK@EBMADGIB@?$AAS?$AAe?$AAt?$AAL?$AAo?$AAw?$AAe?$AAr?$AAC?$AAh?$AAa?$AAn?$AAn?$AAe?$AAl?$AA?3?$AA?5?$AAa?$AAt?$AAt?$AAa?$AAc?$AAh?$AA?5?$AAt?$AAo?$AA?5?$AAa?$AA?5?$AAc?$AAh?$AAa@ 100d9620     BaseChan.obj
 0003:00001678       ??_C@_1FM@GEBHHDHP@?$AAS?$AAe?$AAt?$AAL?$AAo?$AAw?$AAe?$AAr?$AAC?$AAh?$AAa?$AAn?$AAn?$AAe?$AAl?$AA?3?$AA?5?$AAc?$AAr?$AAe?$AAa?$AAt?$AAe?$AA?5?$AAr?$AAe?$AAc?$AAe?$AAi?$AAv?$AAe?$AA?5@ 100d9678     BaseChan.obj
 0003:000016e8       ??_C@_1IA@OBGJLBGB@?$AAS?$AAe?$AAt?$AAL?$AAo?$AAw?$AAe?$AAr?$AAC?$AAh?$AAa?$AAn?$AAn?$AAe?$AAl?$AA?3?$AA?5?$AAa?$AAt?$AAt?$AAa?$AAc?$AAh?$AA?5?$AAt?$AAo?$AA?5?$AAa?$AA?5?$AAp?$AAr?$AAo@ 100d96e8     BaseChan.obj
 0003:00001788       ??_C@_1FK@BBEGEHGN@?$AAS?$AAe?$AAt?$AAL?$AAo?$AAw?$AAe?$AAr?$AAC?$AAh?$AAa?$AAn?$AAn?$AAe?$AAl?$AA?3?$AA?5?$AAc?$AAl?$AAo?$AAs?$AAe?$AA?5?$AAc?$AAu?$AAr?$AAr?$AAe?$AAn?$AAt?$AA?5?$AAC@ 100d9788     BaseChan.obj
 0003:000017f8       ??_C@_1JI@JKCPFCNC@?$AAS?$AAe?$AAt?$AAL?$AAo?$AAw?$AAe?$AAr?$AAC?$AAh?$AAa?$AAn?$AAn?$AAe?$AAl?$AA?3?$AA?5?$AAt?$AAh?$AAe?$AA?5?$AAc?$AAh?$AAa?$AAn?$AAn?$AAe?$AAl?$AA?5?$AAi?$AAs?$AA?5@ 100d97f8     BaseChan.obj
 0003:000018b0       ??_C@_1IE@MACMNBAG@?$AAS?$AAe?$AAt?$AAL?$AAo?$AAw?$AAe?$AAr?$AAC?$AAh?$AAa?$AAn?$AAn?$AAe?$AAl?$AA?3?$AA?5?$AAs?$AAt?$AAo?$AAp?$AA?5?$AAr?$AAe?$AAc?$AAe?$AAi?$AAv?$AAi?$AAn?$AAg?$AA?5@ 100d98b0     BaseChan.obj
 0003:00001950       ??_C@_1FO@EOPCDGON@?$AAS?$AAe?$AAt?$AAL?$AAo?$AAw?$AAe?$AAr?$AAC?$AAh?$AAa?$AAn?$AAn?$AAe?$AAl?$AA?3?$AA?5?$AAI?$AAn?$AAp?$AAu?$AAt?$AA?5?$AAc?$AAh?$AAa?$AAn?$AAn?$AAe?$AAl?$AA?5?$AAp@ 100d9950     BaseChan.obj
 0003:000019c0       ??_C@_1GO@JLOLNHFI@?$AAW?$AAr?$AAi?$AAt?$AAe?$AA?3?$AA?5?$AAf?$AAa?$AAi?$AAl?$AAe?$AAd?$AA?0?$AA?5?$AAr?$AAe?$AAm?$AAo?$AAv?$AAe?$AA?5?$AAp?$AAr?$AAe?$AAv?$AAi?$AAo?$AAu?$AAs?$AAl?$AAy@ 100d99c0     BaseChan.obj
 0003:00001a48       ??_C@_1GG@EPBHFGDG@?$AAW?$AAr?$AAi?$AAt?$AAe?$AA?3?$AA?5?$AAr?$AAe?$AAm?$AAo?$AAv?$AAe?$AA?5?$AAa?$AAl?$AAl?$AA?5?$AAp?$AAa?$AAc?$AAk?$AAa?$AAg?$AAe?$AAs?$AA?5?$AAs?$AAa?$AAt?$AAi?$AAs@ 100d9a48     BaseChan.obj
 0003:00001ac8       ??_C@_1GC@NAIPIELL@?$AAW?$AAr?$AAi?$AAt?$AAe?$AA?3?$AA?5?$AAl?$AAo?$AAw?$AAe?$AAr?$AA?5?$AAw?$AAr?$AAi?$AAt?$AAe?$AA?5?$AAi?$AAs?$AA?5?$AAc?$AAa?$AAl?$AAl?$AAe?$AAd?$AA?0?$AA?5?$AAr?$AAe@ 100d9ac8     BaseChan.obj
 0003:00001b40       ??_C@_1FC@NKMKFBOP@?$AAW?$AAr?$AAi?$AAt?$AAe?$AA?3?$AA?5?$AAa?$AAd?$AAd?$AA?5?$AAa?$AA?5?$AAc?$AAo?$AAn?$AAd?$AAi?$AAt?$AAi?$AAo?$AAn?$AA?5?$AAt?$AAo?$AA?5?$AAl?$AAi?$AAs?$AAt?$AA?0?$AA?5@ 100d9b40     BaseChan.obj
 0003:00001ba8       ??_C@_1FC@DBAKNMEI@?$AAW?$AAr?$AAi?$AAt?$AAe?$AA?3?$AA?5?$AAp?$AAa?$AAc?$AAk?$AAa?$AAg?$AAe?$AA?5?$AAf?$AAa?$AAi?$AAl?$AAe?$AAd?$AA?0?$AA?5?$AAe?$AAr?$AAr?$AAo?$AAr?$AA?5?$AAc?$AAo?$AAd@ 100d9ba8     BaseChan.obj
 0003:00001c0c       ??_C@_1CI@DDOBFIHO@?$AAm?$AA_?$AAl?$AAp?$AAP?$AAr?$AAo?$AAt?$AAo?$AAc?$AAo?$AAl?$AAP?$AAa?$AAc?$AAk?$AAa?$AAg?$AAe?$AA?$AA@ 100d9c0c     BaseChan.obj
 0003:00001c40       ??_C@_1LM@ONEBILIM@?$AAe?$AA?3?$AA?2?$AAw?$AAo?$AAr?$AAk?$AA?2?$AAw?$AAo?$AAr?$AAk?$AAs?$AAp?$AAa?$AAc?$AAe?$AA?2?$AAt?$AAo?$AAo?$AAl?$AAs?$AA?9?$AAm?$AAa?$AAi?$AAn?$AA?2?$AAt?$AAr?$AAu@ 100d9c40     BaseChan.obj
 0003:00001d24       ??_C@_1CI@LFKBEMNO@?$AAW?$AAr?$AAi?$AAt?$AAe?$AA?3?$AA?5?$AAa?$AAc?$AAt?$AAi?$AAo?$AAn?$AA?5?$AAi?$AAs?$AA?5?$AA?$CF?$AAd?$AA?$AA@ 100d9d24     BaseChan.obj
 0003:00001d58       ??_C@_1FC@KFMNLBFB@?$AAW?$AAr?$AAi?$AAt?$AAe?$AA?3?$AA?5?$AAc?$AAh?$AAa?$AAn?$AAn?$AAe?$AAl?$AA?5?$AAi?$AAs?$AA?5?$AAn?$AAu?$AAl?$AAl?$AA?0?$AA?5?$AAn?$AAo?$AAt?$AAh?$AAi?$AAn?$AAg?$AA?5@ 100d9d58     BaseChan.obj
 0003:00001dbc       ??_C@_1BG@HCABDBDD@?$AAW?$AAr?$AAi?$AAt?$AAe?$AA?3?$AA?5?$AA?9?$AA?9?$AA?9?$AA?$AA@ 100d9dbc     BaseChan.obj
 0003:00001dd8       ??_C@_1II@KDIKIDNA@?$AAW?$AAr?$AAi?$AAt?$AAe?$AA?3?$AA?5?$AAi?$AAn?$AAp?$AAu?$AAt?$AA?5?$AAd?$AAa?$AAt?$AAa?$AA?5?$AAp?$AAo?$AAi?$AAn?$AAt?$AAe?$AAr?$AA?5?$AAi?$AAs?$AA?5?$AAn?$AAu?$AAl@ 100d9dd8     BaseChan.obj
 0003:00001e7c       ??_C@_1BG@EHFMIEHF@?$AAW?$AAr?$AAi?$AAt?$AAe?$AA?3?$AA?5?$AA?$CL?$AA?$CL?$AA?$CL?$AA?$AA@ 100d9e7c     BaseChan.obj
 0003:00001e98       ??_C@_1GM@DJMKLPPL@?$AAR?$AAe?$AAa?$AAd?$AA?3?$AA?5?$AAo?$AAn?$AAe?$AA?5?$AAp?$AAa?$AAc?$AAk?$AAa?$AAg?$AAe?$AA?5?$AAi?$AAs?$AA?5?$AAf?$AAo?$AAu?$AAn?$AAd?$AA?5?$AAa?$AAf?$AAt?$AAe?$AAr@ 100d9e98     BaseChan.obj
 0003:00001f1c       ??_C@_1CG@EABLHIPH@?$AAR?$AAe?$AAa?$AAd?$AA?3?$AA?5?$AAw?$AAa?$AAi?$AAt?$AA?5?$AAt?$AAi?$AAm?$AAe?$AAo?$AAu?$AAt?$AA?$AA@ 100d9f1c     BaseChan.obj
 0003:00001f4c       ??_C@_1DG@FHKDMGCA@?$AAR?$AAe?$AAa?$AAd?$AA?3?$AA?5?$AAn?$AAo?$AAt?$AA?5?$AAf?$AAo?$AAu?$AAn?$AAd?$AA?5?$AAa?$AA?5?$AAp?$AAa?$AAc?$AAk?$AAa?$AAg?$AAe?$AA?$CB?$AA?$AA@ 100d9f4c     BaseChan.obj
 0003:00001f90       ??_C@_1HK@JAPOHJEG@?$AAR?$AAe?$AAa?$AAd?$AA?3?$AA?5?$AAw?$AAa?$AAi?$AAt?$AA?5?$AAa?$AAl?$AAl?$AA?5?$AAp?$AAa?$AAc?$AAk?$AAa?$AAg?$AAe?$AAs?$AA?5?$AAa?$AAr?$AAe?$AA?5?$AAp?$AAu?$AAs?$AAh@ 100d9f90     BaseChan.obj
 0003:00002028       ??_C@_1IC@JEHPNONB@?$AAR?$AAe?$AAa?$AAd?$AA?3?$AA?5?$AAw?$AAa?$AAi?$AAt?$AA?5?$AAa?$AAl?$AAl?$AA?5?$AAp?$AAa?$AAc?$AAk?$AAa?$AAg?$AAe?$AAs?$AA?5?$AAa?$AAr?$AAe?$AA?5?$AAp?$AAu?$AAs?$AAh@ 100da028     BaseChan.obj
 0003:000020c8       ??_C@_1HK@KFKDMMAA@?$AAR?$AAe?$AAa?$AAd?$AA?3?$AA?5?$AAw?$AAa?$AAi?$AAt?$AA?5?$AAa?$AAl?$AAl?$AA?5?$AAp?$AAa?$AAc?$AAk?$AAa?$AAg?$AAe?$AAs?$AA?5?$AAa?$AAr?$AAe?$AA?5?$AAp?$AAu?$AAs?$AAh@ 100da0c8     BaseChan.obj
 0003:00002160       ??_C@_1EM@PBICNOID@?$AAR?$AAe?$AAa?$AAd?$AA?3?$AA?5?$AAo?$AAn?$AAe?$AA?5?$AAp?$AAa?$AAc?$AAk?$AAa?$AAg?$AAe?$AA?5?$AAi?$AAs?$AA?5?$AAf?$AAo?$AAu?$AAn?$AAd?$AA?5?$AAa?$AAf?$AAt?$AAe?$AAr@ 100da160     BaseChan.obj
 0003:000021c0       ??_C@_1FO@PFDLDHCG@?$AAR?$AAe?$AAa?$AAd?$AA?3?$AA?5?$AAw?$AAa?$AAi?$AAt?$AA?5?$AAi?$AAs?$AA?5?$AAw?$AAa?$AAk?$AAe?$AAd?$AAu?$AAp?$AA?5?$AAa?$AAn?$AAd?$AA?5?$AAc?$AAh?$AAe?$AAc?$AAk?$AA?5@ 100da1c0     BaseChan.obj
 0003:00002230       ??_C@_1CI@GGKIIMCK@?$AAR?$AAe?$AAa?$AAd?$AA?3?$AA?5?$AAw?$AAa?$AAi?$AAt?$AA?5?$AAf?$AAo?$AAr?$AA?5?$AAd?$AAa?$AAt?$AAa?$AA?$AA@ 100da230     BaseChan.obj
 0003:00002260       ??_C@_1DC@NOCBKFOB@?$AAR?$AAe?$AAa?$AAd?$AA?3?$AA?5?$AAc?$AAo?$AAn?$AAd?$AA?5?$AA?$CF?$AAd?$AA?5?$AAi?$AAs?$AA?5?$AAr?$AAe?$AAm?$AAo?$AAv?$AAe?$AAd?$AA?$AA@ 100da260     BaseChan.obj
 0003:000022a0       ??_C@_1IA@MPGPJPJF@?$AAR?$AAe?$AAa?$AAd?$AA?3?$AA?5?$AAo?$AAn?$AAe?$AA?5?$AAp?$AAa?$AAc?$AAk?$AAa?$AAg?$AAe?$AA?5?$AAi?$AAs?$AA?5?$AAf?$AAo?$AAu?$AAn?$AAd?$AA?5?$AAi?$AAn?$AA?5?$AAa?$AAs@ 100da2a0     BaseChan.obj
 0003:00002340       ??_C@_1FI@LOILFBOH@?$AAR?$AAe?$AAa?$AAd?$AA?3?$AA?5?$AAs?$AAe?$AAa?$AAr?$AAc?$AAh?$AA?5?$AAp?$AAa?$AAc?$AAk?$AAa?$AAg?$AAe?$AA?5?$AAi?$AAn?$AA?5?$AAa?$AAs?$AAy?$AAn?$AAc?$AA?5?$AAp?$AAa@ 100da340     BaseChan.obj
 0003:000023b0       ??_C@_1GM@PCPKPJGM@?$AAR?$AAe?$AAa?$AAd?$AA?3?$AA?5?$AA?$CL?$AAw?$AAa?$AAi?$AAt?$AA?5?$AAa?$AAl?$AAl?$AA?5?$AAp?$AAa?$AAc?$AAk?$AAa?$AAg?$AAe?$AAs?$AA?5?$AAa?$AAr?$AAe?$AA?5?$AAp?$AAu?$AAs@ 100da3b0     BaseChan.obj
 0003:00002438       ??_C@_1HE@MLMCMIG@?$AAR?$AAe?$AAa?$AAd?$AA?3?$AA?5?$AA?$CL?$AAw?$AAa?$AAi?$AAt?$AA?5?$AAa?$AAl?$AAl?$AA?5?$AAp?$AAa?$AAc?$AAk?$AAa?$AAg?$AAe?$AAs?$AA?5?$AAa?$AAr?$AAe?$AA?5?$AAp?$AAu?$AAs@ 100da438     BaseChan.obj
 0003:000024c8       ??_C@_1GM@MHKHEMCK@?$AAR?$AAe?$AAa?$AAd?$AA?3?$AA?5?$AA?$CL?$AAw?$AAa?$AAi?$AAt?$AA?5?$AAa?$AAl?$AAl?$AA?5?$AAp?$AAa?$AAc?$AAk?$AAa?$AAg?$AAe?$AAs?$AA?5?$AAa?$AAr?$AAe?$AA?5?$AAp?$AAu?$AAs@ 100da4c8     BaseChan.obj
 0003:00002550       ??_C@_1HO@LGIJOJDB@?$AAR?$AAe?$AAa?$AAd?$AA?3?$AA?5?$AAo?$AAn?$AAe?$AA?5?$AAp?$AAa?$AAc?$AAk?$AAa?$AAg?$AAe?$AA?5?$AAi?$AAs?$AA?5?$AAf?$AAo?$AAu?$AAn?$AAd?$AA?5?$AAi?$AAn?$AA?5?$AAs?$AAy@ 100da550     BaseChan.obj
 0003:000025e8       ??_C@_1FG@NNILPEOO@?$AAR?$AAe?$AAa?$AAd?$AA?3?$AA?5?$AAs?$AAe?$AAa?$AAr?$AAc?$AAh?$AA?5?$AAp?$AAa?$AAc?$AAk?$AAa?$AAg?$AAe?$AA?5?$AAi?$AAn?$AA?5?$AAs?$AAy?$AAn?$AAc?$AA?5?$AAp?$AAa?$AAc@ 100da5e8     BaseChan.obj
 0003:00002650       ??_C@_1DC@ODNKOJOB@?$AAR?$AAe?$AAa?$AAd?$AA?3?$AA?5?$AAl?$AAp?$AAR?$AAe?$AAa?$AAd?$AA?9?$AA?$DO?$AAn?$AAC?$AAo?$AAn?$AAd?$AA?5?$AA?$DN?$AA?5?$AA?$CF?$AAd?$AA?$AA@ 100da650     BaseChan.obj
 0003:0000268c       ??_C@_1BE@NEOJGHGH@?$AAR?$AAe?$AAa?$AAd?$AA?3?$AA?5?$AA?9?$AA?9?$AA?9?$AA?$AA@ 100da68c     BaseChan.obj
 0003:000026a8       ??_C@_1KA@BPEOGMIA@?$AAR?$AAe?$AAa?$AAd?$AA?3?$AA?5?$AAi?$AAn?$AAp?$AAu?$AAt?$AA?5?$AAd?$AAa?$AAt?$AAa?$AA?5?$AAp?$AAo?$AAi?$AAn?$AAt?$AAe?$AAr?$AA?5?$AAi?$AAs?$AA?5?$AAn?$AAu?$AAl?$AAl@ 100da6a8     BaseChan.obj
 0003:00002768       ??_C@_1BE@OBLENCCB@?$AAR?$AAe?$AAa?$AAd?$AA?3?$AA?5?$AA?$CL?$AA?$CL?$AA?$CL?$AA?$AA@ 100da768     BaseChan.obj
 0003:00002780       ??_C@_1EM@LFNMLJHM@?$AAA?$AAd?$AAd?$AAC?$AAo?$AAn?$AAd?$AA?3?$AA?5?$AAi?$AAd?$AA?5?$AA?$DN?$AA?5?$AA?$CF?$AAd?$AA?0?$AA?5?$AAr?$AAe?$AAf?$AA_?$AAc?$AAo?$AAu?$AAn?$AAt?$AA?5?$AA?$DN?$AA?5?$AA?$CF?$AAd@ 100da780     BaseChan.obj
 0003:000027e0       ??_C@_1GK@IJLILNDN@?$AAA?$AAd?$AAd?$AAC?$AAo?$AAn?$AAd?$AA?3?$AA?5?$AAf?$AAi?$AAn?$AAd?$AA?5?$AAa?$AA?5?$AAs?$AAa?$AAm?$AAe?$AA?5?$AAc?$AAo?$AAn?$AAd?$AAi?$AAt?$AAi?$AAo?$AAn?$AA?5?$AAi@ 100da7e0     BaseChan.obj
 0003:00002860       ??_C@_1DK@IEBGIEGH@?$AAA?$AAd?$AAd?$AAC?$AAo?$AAn?$AAd?$AA?3?$AA?5?$AAr?$AAe?$AAf?$AA_?$AAc?$AAo?$AAu?$AAn?$AAt?$AA?5?$AA?$DN?$AA?5?$AA?$CF?$AAd?$AA?0?$AA?5?$AA?$CL?$AA?$CL?$AA?$CL?$AA?$AA@ 100da860     BaseChan.obj
 0003:000028a8       ??_C@_1CM@PIDBOIJF@?$AAA?$AAd?$AAd?$AAC?$AAo?$AAn?$AAd?$AA?3?$AA?5?$AAi?$AAd?$AA?5?$AA?$DN?$AA?5?$AA?$CF?$AAd?$AA?0?$AA?5?$AA?9?$AA?9?$AA?9?$AA?$AA@ 100da8a8     BaseChan.obj
 0003:000028e0       ??_C@_1GI@NKEGFHED@?$AAA?$AAd?$AAd?$AAC?$AAo?$AAn?$AAd?$AA?3?$AA?5?$AAf?$AAi?$AAn?$AAd?$AA?5?$AAa?$AA?5?$AAs?$AAa?$AAm?$AAe?$AA?5?$AAc?$AAo?$AAn?$AAd?$AAi?$AAt?$AAi?$AAo?$AAn?$AA?5?$AAi@ 100da8e0     BaseChan.obj
 0003:0000295c       ??_C@_1BK@NEPILMGI@?$AAA?$AAd?$AAd?$AAC?$AAo?$AAn?$AAd?$AA?3?$AA?5?$AA?$CL?$AA?$CL?$AA?$CL?$AA?$AA@ 100da95c     BaseChan.obj
 0003:00002980       ??_C@_1GO@PKKJMGLH@?$AAR?$AAe?$AAm?$AAo?$AAv?$AAe?$AAC?$AAo?$AAn?$AAd?$AA?3?$AA?5?$AAc?$AAo?$AAn?$AAd?$AA?5?$AAi?$AAd?$AA?5?$AA?$DN?$AA?5?$AA?$CF?$AAd?$AA?0?$AA?5?$AAr?$AAe?$AAf?$AA?5?$AAc?$AAo@ 100da980     BaseChan.obj
 0003:00002a08       ??_C@_1HG@KCODEJIF@?$AAR?$AAe?$AAm?$AAo?$AAv?$AAe?$AAC?$AAo?$AAn?$AAd?$AA?3?$AA?5?$AAc?$AAo?$AAn?$AAd?$AAi?$AAt?$AAi?$AAo?$AAn?$AA?5?$AAi?$AAs?$AA?5?$AAs?$AAt?$AAi?$AAl?$AAl?$AA?5?$AAi@ 100daa08     BaseChan.obj
 0003:00002a98       ??_C@_1FG@KAFHJOC@?$AAR?$AAe?$AAm?$AAo?$AAv?$AAe?$AAC?$AAo?$AAn?$AAd?$AA?3?$AA?5?$AAr?$AAe?$AAm?$AAo?$AAv?$AAe?$AA?5?$AAc?$AAo?$AAn?$AAd?$AAi?$AAt?$AAi?$AAo?$AAn?$AA?5?$AAf?$AAr?$AAo@ 100daa98     BaseChan.obj
 0003:00002b00       ??_C@_1KA@LEBAECNK@?$AAR?$AAe?$AAm?$AAo?$AAv?$AAe?$AAC?$AAo?$AAn?$AAd?$AA?3?$AA?5?$AAf?$AAo?$AAr?$AAc?$AAe?$AA?5?$AAt?$AAo?$AA?5?$AAr?$AAe?$AAm?$AAo?$AAv?$AAe?$AA?5?$AAc?$AAo?$AAn?$AAd@ 100dab00     BaseChan.obj
 0003:00002bc0       ??_C@_1GO@BBDIEJFI@?$AAR?$AAe?$AAm?$AAo?$AAv?$AAe?$AAC?$AAo?$AAn?$AAd?$AA?3?$AA?5?$AAe?$AAr?$AAr?$AAo?$AAr?$AA?0?$AA?5?$AAc?$AAo?$AAn?$AAd?$AAi?$AAt?$AAo?$AAn?$AA?5?$AAr?$AAe?$AAf?$AAe@ 100dabc0     BaseChan.obj
 0003:00002c48       ??_C@_1HA@LEJJEPLH@?$AAR?$AAe?$AAm?$AAo?$AAv?$AAe?$AAC?$AAo?$AAn?$AAd?$AA?3?$AA?5?$AAe?$AAr?$AAr?$AAo?$AAr?$AA?0?$AA?5?$AAn?$AAC?$AAo?$AAn?$AAd?$AAI?$AAd?$AA?5?$AA?$CI?$AA?$CF?$AAd?$AA?$CJ?$AA?5@ 100dac48     BaseChan.obj
 0003:00002cd0       ??_C@_1CA@DGBHEJKD@?$AAR?$AAe?$AAm?$AAo?$AAv?$AAe?$AAC?$AAo?$AAn?$AAd?$AA?3?$AA?5?$AA?9?$AA?9?$AA?9?$AA?$AA@ 100dacd0     BaseChan.obj
 0003:00002cf8       ??_C@_1FK@LKDNDDBO@?$AAR?$AAe?$AAm?$AAo?$AAv?$AAe?$AAC?$AAo?$AAn?$AAd?$AA?3?$AA?5?$AAe?$AAr?$AAr?$AAo?$AAr?$AA?0?$AA?5?$AAi?$AAn?$AAv?$AAa?$AAl?$AAi?$AAd?$AA?5?$AAc?$AAo?$AAn?$AAd?$AAi@ 100dacf8     BaseChan.obj
 0003:00002d68       ??_C@_1FC@DGLKOHDI@?$AAR?$AAe?$AAm?$AAo?$AAv?$AAe?$AAC?$AAo?$AAn?$AAd?$AA?3?$AA?5?$AAc?$AAo?$AAn?$AAd?$AA?5?$AAi?$AAd?$AA?5?$AA?$DN?$AA?5?$AA?$CF?$AAd?$AA?0?$AA?5?$AAf?$AAo?$AAr?$AAc?$AAe?$AA?5@ 100dad68     BaseChan.obj
 0003:00002dd0       ??_C@_1EG@HHCGBKGN@?$AAF?$AAi?$AAn?$AAd?$AAP?$AAa?$AAc?$AAk?$AAa?$AAg?$AAe?$AA?3?$AA?5?$AAc?$AAo?$AAn?$AAd?$AAi?$AAt?$AAi?$AAo?$AAn?$AA?5?$AAi?$AAd?$AA?5?$AA?$CI?$AA?$CF?$AAd?$AA?$CJ?$AA?5?$AA?9@ 100dadd0     BaseChan.obj
 0003:00002e28       ??_C@_1EA@NMLLBMCF@?$AAF?$AAi?$AAn?$AAd?$AAP?$AAa?$AAc?$AAk?$AAa?$AAg?$AAe?$AA?3?$AA?5?$AAc?$AAo?$AAn?$AAd?$AAi?$AAt?$AAi?$AAo?$AAn?$AA?5?$AAi?$AAs?$AA?5?$AAe?$AAm?$AAp?$AAt?$AAy?$AA?$AA@ 100dae28     BaseChan.obj
 0003:00002e78       ??_C@_1FO@CDMNKPP@?$AAF?$AAi?$AAn?$AAd?$AAP?$AAa?$AAc?$AAk?$AAa?$AAg?$AAe?$AA?3?$AA?5?$AAp?$AAa?$AAc?$AAk?$AAa?$AAg?$AAe?$AA?5?$AAf?$AAo?$AAu?$AAn?$AAd?$AA?0?$AA?5?$AAr?$AAe?$AAm?$AAa@ 100dae78     BaseChan.obj
 0003:00002ee8       ??_C@_1EG@ECHLKPCL@?$AAF?$AAi?$AAn?$AAd?$AAP?$AAa?$AAc?$AAk?$AAa?$AAg?$AAe?$AA?3?$AA?5?$AAc?$AAo?$AAn?$AAd?$AAi?$AAt?$AAi?$AAo?$AAn?$AA?5?$AAi?$AAd?$AA?5?$AA?$CI?$AA?$CF?$AAd?$AA?$CJ?$AA?5?$AA?$CL@ 100daee8     BaseChan.obj
 0003:00002f40       ??_C@_1HK@MIBBKPHI@?$AAF?$AAi?$AAn?$AAd?$AAP?$AAa?$AAc?$AAk?$AAa?$AAg?$AAe?$AA?3?$AA?5?$AAi?$AAn?$AAv?$AAa?$AAl?$AAi?$AAd?$AA?5?$AAc?$AAo?$AAn?$AAd?$AAi?$AAt?$AAi?$AAo?$AAn?$AA?5?$AAi@ 100daf40     BaseChan.obj
 0003:00002fd4       ??_C@_1DA@FHGGMJKP@?$AAF?$AAi?$AAn?$AAd?$AAP?$AAa?$AAc?$AAk?$AAa?$AAg?$AAe?$AA?3?$AA?5?$AAl?$AAp?$AAR?$AAe?$AAa?$AAd?$AA?5?$AA?9?$AA?9?$AA?9?$AA?$AA@ 100dafd4     BaseChan.obj
 0003:00003010       ??_C@_1EC@EKBKJEAK@?$AAF?$AAi?$AAn?$AAd?$AAP?$AAa?$AAc?$AAk?$AAa?$AAg?$AAe?$AA?3?$AA?5?$AAa?$AAd?$AAd?$AA?5?$AAc?$AAo?$AAn?$AAd?$AA?5?$AA?$CF?$AAd?$AA?5?$AAt?$AAo?$AA?5?$AAl?$AAi?$AAs?$AAt@ 100db010     BaseChan.obj
 0003:00003060       ??_C@_1HA@IMHOHGMF@?$AAF?$AAi?$AAn?$AAd?$AAP?$AAa?$AAc?$AAk?$AAa?$AAg?$AAe?$AA?3?$AA?5?$AAr?$AAe?$AAm?$AAo?$AAv?$AAe?$AA?5?$AAo?$AAn?$AAe?$AA?5?$AAp?$AAa?$AAc?$AAk?$AAa?$AAg?$AAe?$AA?5@ 100db060     BaseChan.obj
 0003:000030e8       ??_C@_1DG@FNFMMCAE@?$AAF?$AAi?$AAn?$AAd?$AAP?$AAa?$AAc?$AAk?$AAa?$AAg?$AAe?$AA?3?$AA?5?$AAp?$AAa?$AAc?$AAk?$AAa?$AAg?$AAe?$AA?5?$AAf?$AAo?$AAu?$AAn?$AAd?$AA?$AA@ 100db0e8     BaseChan.obj
 0003:00003128       ??_C@_1FG@PJOPIJPM@?$AAF?$AAi?$AAn?$AAd?$AAP?$AAa?$AAc?$AAk?$AAa?$AAg?$AAe?$AA?3?$AA?5?$AAa?$AAs?$AAy?$AAn?$AAc?$AA?5?$AAp?$AAa?$AAc?$AAk?$AAa?$AAg?$AAe?$AA?5?$AAl?$AAi?$AAs?$AAt?$AA?5@ 100db128     BaseChan.obj
 0003:00003190       ??_C@_1EG@NEIFNNLB@?$AAF?$AAi?$AAn?$AAd?$AAP?$AAa?$AAc?$AAk?$AAa?$AAg?$AAe?$AA?3?$AA?5?$AAl?$AAp?$AAR?$AAe?$AAa?$AAd?$AA?9?$AA?$DO?$AAn?$AAC?$AAo?$AAn?$AAd?$AA?$CI?$AA?$CF?$AAd?$AA?$CJ?$AA?5?$AA?$CL@ 100db190     BaseChan.obj
 0003:000031e4       ??_C@_1CI@OBPHFKHE@?$AAR?$AAe?$AAm?$AAo?$AAv?$AAe?$AAP?$AAa?$AAc?$AAk?$AAa?$AAg?$AAe?$AAs?$AA?3?$AA?5?$AA?9?$AA?9?$AA?9?$AA?$AA@ 100db1e4     BaseChan.obj
 0003:00003218       ??_C@_1HC@KPHAPHHI@?$AAR?$AAe?$AAm?$AAo?$AAv?$AAe?$AAP?$AAa?$AAc?$AAk?$AAa?$AAg?$AAe?$AAs?$AA?3?$AA?5?$AAr?$AAe?$AAm?$AAo?$AAv?$AAe?$AA?5?$AAa?$AAl?$AAl?$AA?5?$AA?$CF?$AAd?$AA?5?$AAp?$AAa@ 100db218     BaseChan.obj
 0003:000032a0       ??_C@_1JK@ICCMGGHN@?$AAR?$AAe?$AAm?$AAo?$AAv?$AAe?$AAP?$AAa?$AAc?$AAk?$AAa?$AAg?$AAe?$AAs?$AA?3?$AA?5?$AAr?$AAe?$AAm?$AAo?$AAv?$AAe?$AA?5?$AA?$CF?$AAd?$AA?5?$AAp?$AAa?$AAc?$AAk?$AAa?$AAg@ 100db2a0     BaseChan.obj
 0003:00003358       ??_C@_1CI@NEKKOPDC@?$AAR?$AAe?$AAm?$AAo?$AAv?$AAe?$AAP?$AAa?$AAc?$AAk?$AAa?$AAg?$AAe?$AAs?$AA?3?$AA?5?$AA?$CL?$AA?$CL?$AA?$CL?$AA?$AA@ 100db358     BaseChan.obj
 0003:00003388       ??_C@_1DE@HHAHLNCL@?$AAA?$AAd?$AAd?$AAO?$AAb?$AAs?$AAe?$AAr?$AAv?$AAe?$AAr?$AA?3?$AA?5?$AAi?$AAd?$AA?5?$AA?$DN?$AA?5?$AA?$CF?$AAd?$AA?0?$AA?5?$AA?9?$AA?9?$AA?9?$AA?$AA@ 100db388     BaseChan.obj
 0003:000033c8       ??_C@_1FC@MHKGOAK@?$AAA?$AAd?$AAd?$AAO?$AAb?$AAs?$AAe?$AAr?$AAv?$AAe?$AAr?$AA?3?$AA?5?$AAo?$AAb?$AAs?$AAe?$AAr?$AAv?$AAe?$AAr?$AA?5?$AAi?$AAs?$AA?5?$AAa?$AAl?$AAr?$AAe?$AAa?$AAd?$AAy@ 100db3c8     BaseChan.obj
 0003:00003430       ??_C@_1EE@DAGKGLLM@?$AAA?$AAd?$AAd?$AAO?$AAb?$AAs?$AAe?$AAr?$AAv?$AAe?$AAr?$AA?3?$AA?5?$AAa?$AAd?$AAd?$AA?5?$AAo?$AAb?$AAs?$AAe?$AAr?$AAv?$AAe?$AAr?$AA?5?$AAt?$AAo?$AA?5?$AAl?$AAi?$AAs@ 100db430     BaseChan.obj
 0003:00003484       ??_C@_1CC@EGPDGHHP@?$AAA?$AAd?$AAd?$AAO?$AAb?$AAs?$AAe?$AAr?$AAv?$AAe?$AAr?$AA?3?$AA?5?$AA?9?$AA?9?$AA?9?$AA?$AA@ 100db484     BaseChan.obj
 0003:000034b0       ??_C@_1FI@DOGFPCHD@?$AAA?$AAd?$AAd?$AAO?$AAb?$AAs?$AAe?$AAr?$AAv?$AAe?$AAr?$AA?3?$AA?5?$AAi?$AAn?$AAp?$AAu?$AAt?$AA?5?$AAo?$AAb?$AAs?$AAe?$AAr?$AAv?$AAe?$AAr?$AA?5?$AAp?$AAo?$AAi?$AAn@ 100db4b0     BaseChan.obj
 0003:0000351c       ??_C@_1CC@HDKONCDJ@?$AAA?$AAd?$AAd?$AAO?$AAb?$AAs?$AAe?$AAr?$AAv?$AAe?$AAr?$AA?3?$AA?5?$AA?$CL?$AA?$CL?$AA?$CL?$AA?$AA@ 100db51c     BaseChan.obj
 0003:00003544       ??_C@_1CI@KGBBJDDK@?$AAR?$AAe?$AAm?$AAo?$AAv?$AAe?$AAO?$AAb?$AAs?$AAe?$AAr?$AAv?$AAe?$AAr?$AA?3?$AA?5?$AA?9?$AA?9?$AA?9?$AA?$AA@ 100db544     BaseChan.obj
 0003:00003578       ??_C@_1FK@BKJBDHNM@?$AAR?$AAe?$AAm?$AAo?$AAv?$AAe?$AAO?$AAb?$AAs?$AAe?$AAr?$AAv?$AAe?$AAr?$AA?3?$AA?5?$AAI?$AAn?$AAp?$AAu?$AAt?$AA?5?$AAo?$AAb?$AAs?$AAe?$AAr?$AAv?$AAe?$AAr?$AA?5?$AAi@ 100db578     BaseChan.obj
 0003:000035e4       ??_C@_1CI@JDEMCGHM@?$AAR?$AAe?$AAm?$AAo?$AAv?$AAe?$AAO?$AAb?$AAs?$AAe?$AAr?$AAv?$AAe?$AAr?$AA?3?$AA?5?$AA?$CL?$AA?$CL?$AA?$CL?$AA?$AA@ 100db5e4     BaseChan.obj
 0003:00003614       ??_C@_1CA@PAHHPODO@?$AAR?$AAe?$AAc?$AAv?$AAT?$AAh?$AAr?$AAe?$AAa?$AAd?$AA?3?$AA?5?$AA?9?$AA?9?$AA?9?$AA?$AA@ 100db614     BaseChan.obj
 0003:0000363c       ??_C@_1CA@MFCKELHI@?$AAR?$AAe?$AAc?$AAv?$AAT?$AAh?$AAr?$AAe?$AAa?$AAd?$AA?3?$AA?5?$AA?$CL?$AA?$CL?$AA?$CL?$AA?$AA@ 100db63c     BaseChan.obj
 0003:00003668       ??_C@_1FG@MCLJEGLE@?$AAS?$AAt?$AAo?$AAp?$AAR?$AAe?$AAc?$AAv?$AAT?$AAh?$AAr?$AAe?$AAa?$AAd?$AA?3?$AA?5?$AAW?$AAa?$AAi?$AAt?$AAF?$AAo?$AAr?$AAS?$AAi?$AAn?$AAg?$AAl?$AAe?$AAO?$AAb?$AAj@ 100db668     BaseChan.obj
 0003:000036d0       ??_C@_1CG@MKJFLOIF@?$AAO?$AAn?$AAC?$AAh?$AAa?$AAn?$AAn?$AAe?$AAl?$AAD?$AAa?$AAt?$AAa?$AA?3?$AA?5?$AA?9?$AA?9?$AA?9?$AA?$AA@ 100db6d0     BaseChan.obj
 0003:00003700       ??_C@_1IK@ECLMBOBJ@?$AAO?$AAn?$AAC?$AAh?$AAa?$AAn?$AAn?$AAe?$AAl?$AAD?$AAa?$AAt?$AAa?$AA?3?$AA?5?$AA?$CF?$AAd?$AA?5?$AAp?$AAa?$AAc?$AAk?$AAa?$AAg?$AAe?$AAs?$AA?5?$AAr?$AAe?$AAc?$AAe?$AAi@ 100db700     BaseChan.obj
 0003:000037a8       ??_C@_1EC@IEADODKC@?$AAO?$AAn?$AAC?$AAh?$AAa?$AAn?$AAn?$AAe?$AAl?$AAD?$AAa?$AAt?$AAa?$AA?3?$AA?5?$AA?$CF?$AAd?$AA?5?$AAb?$AAy?$AAt?$AAe?$AAs?$AA?5?$AAr?$AAe?$AAc?$AAe?$AAi?$AAv?$AAe?$AAd@ 100db7a8     BaseChan.obj
 0003:000037f8       ??_C@_1CG@PPMIALMD@?$AAO?$AAn?$AAC?$AAh?$AAa?$AAn?$AAn?$AAe?$AAl?$AAD?$AAa?$AAt?$AAa?$AA?3?$AA?5?$AA?$CL?$AA?$CL?$AA?$CL?$AA?$AA@ 100db7f8     BaseChan.obj
 0003:00003828       ??_C@_1EE@LPMKHIGB@?$AAO?$AAn?$AAC?$AAh?$AAa?$AAn?$AAn?$AAe?$AAl?$AAE?$AAv?$AAe?$AAn?$AAt?$AA?3?$AA?5?$AAE?$AAv?$AAe?$AAn?$AAt?$AA?5?$AA?$CF?$AAd?$AA?5?$AAh?$AAa?$AAp?$AAp?$AAe?$AAn?$AAe@ 100db828     BaseChan.obj
 0003:0000387c       ??_C@_1CM@FFJKEIDC@?$AAA?$AAd?$AAd?$AAt?$AAo?$AAP?$AAa?$AAc?$AAk?$AAa?$AAg?$AAe?$AAL?$AAi?$AAs?$AAt?$AA?3?$AA?5?$AA?9?$AA?9?$AA?9?$AA?$AA@ 100db87c     BaseChan.obj
 0003:000038b0       ??_C@_1EG@KBHJOBKK@?$AAA?$AAd?$AAd?$AAt?$AAo?$AAP?$AAa?$AAc?$AAk?$AAa?$AAg?$AAe?$AAL?$AAi?$AAs?$AAt?$AA?3?$AA?5?$AAW?$AAa?$AAk?$AAe?$AAu?$AAp?$AAO?$AAn?$AAP?$AAa?$AAc?$AAk?$AAa?$AAg@ 100db8b0     BaseChan.obj
 0003:00003908       ??_C@_1GA@LHPLKIEL@?$AAA?$AAd?$AAd?$AAt?$AAo?$AAP?$AAa?$AAc?$AAk?$AAa?$AAg?$AAe?$AAL?$AAi?$AAs?$AAt?$AA?3?$AA?5?$AAa?$AAd?$AAd?$AA?5?$AAo?$AAn?$AAe?$AA?5?$AAp?$AAa?$AAc?$AAk?$AAa?$AAg@ 100db908     BaseChan.obj
 0003:00003980       ??_C@_1EG@MKNPHBGN@?$AAA?$AAd?$AAd?$AAt?$AAo?$AAP?$AAa?$AAc?$AAk?$AAa?$AAg?$AAe?$AAL?$AAi?$AAs?$AAt?$AA?3?$AA?5?$AAW?$AAa?$AAk?$AAe?$AAu?$AAp?$AAO?$AAn?$AAR?$AAe?$AAs?$AAp?$AAo?$AAn@ 100db980     BaseChan.obj
 0003:000039d8       ??_C@_1II@COBCODFA@?$AAA?$AAd?$AAd?$AAt?$AAo?$AAP?$AAa?$AAc?$AAk?$AAa?$AAg?$AAe?$AAL?$AAi?$AAs?$AAt?$AA?3?$AA?5?$AAd?$AAe?$AAc?$AAr?$AAe?$AAm?$AAe?$AAn?$AAt?$AA?5?$AAr?$AAe?$AAf?$AA_@ 100db9d8     BaseChan.obj
 0003:00003a80       ??_C@_1FM@NANLOHNK@?$AAO?$AAn?$AAC?$AAh?$AAa?$AAn?$AAn?$AAe?$AAl?$AAD?$AAa?$AAt?$AAa?$AA?3?$AA?5?$AAs?$AAe?$AAt?$AA?5?$AAe?$AAv?$AAe?$AAn?$AAt?$AA?5?$AAf?$AAo?$AAr?$AA?5?$AAa?$AAl?$AAl@ 100dba80     BaseChan.obj
 0003:00003af0       ??_C@_1II@ICHHBCPK@?$AAA?$AAd?$AAd?$AAt?$AAo?$AAP?$AAa?$AAc?$AAk?$AAa?$AAg?$AAe?$AAL?$AAi?$AAs?$AAt?$AA?3?$AA?5?$AAa?$AAd?$AAd?$AA?5?$AAo?$AAn?$AAe?$AA?5?$AAp?$AAa?$AAc?$AAk?$AAa?$AAg@ 100dbaf0     BaseChan.obj
 0003:00003b98       ??_C@_1FI@LABJKPJJ@?$AAA?$AAd?$AAd?$AAt?$AAo?$AAP?$AAa?$AAc?$AAk?$AAa?$AAg?$AAe?$AAL?$AAi?$AAs?$AAt?$AA?3?$AA?5?$AAc?$AAo?$AAn?$AAd?$AAi?$AAt?$AAi?$AAo?$AAn?$AA?5?$AAl?$AAi?$AAs?$AAt@ 100dbb98     BaseChan.obj
 0003:00003c04       ??_C@_1CM@GAMHPNHE@?$AAA?$AAd?$AAd?$AAt?$AAo?$AAP?$AAa?$AAc?$AAk?$AAa?$AAg?$AAe?$AAL?$AAi?$AAs?$AAt?$AA?3?$AA?5?$AA?$CL?$AA?$CL?$AA?$CL?$AA?$AA@ 100dbc04     BaseChan.obj
 0003:00003c38       ??_C@_1FM@CHAMHFKD@?$AAS?$AAt?$AAo?$AAp?$AAP?$AAr?$AAo?$AAc?$AAe?$AAs?$AAs?$AAT?$AAh?$AAr?$AAe?$AAa?$AAd?$AA?3?$AA?5?$AAW?$AAa?$AAi?$AAt?$AAF?$AAo?$AAr?$AAS?$AAi?$AAn?$AAg?$AAl?$AAe@ 100dbc38     BaseChan.obj
 0003:00003ca8       ??_C@_1CK@PAKPKNBO@?$AAS?$AAt?$AAo?$AAp?$AAP?$AAr?$AAo?$AAc?$AAe?$AAs?$AAs?$AAT?$AAh?$AAr?$AAe?$AAa?$AAd?$AA?4?$AA?4?$AA?4?$AA?$AA@ 100dbca8     BaseChan.obj
 0003:00003cdc       ??_C@_1CC@LCAMDPMB@?$AAP?$AAr?$AAo?$AAc?$AAe?$AAs?$AAs?$AAD?$AAa?$AAt?$AAa?$AA?3?$AA?5?$AA?9?$AA?9?$AA?9?$AA?$AA@ 100dbcdc     BaseChan.obj
 0003:00003d08       ??_C@_1EM@IHLKAMGL@?$AAP?$AAr?$AAo?$AAc?$AAe?$AAs?$AAs?$AAD?$AAa?$AAt?$AAa?$AA?3?$AA?5?$AAc?$AAl?$AAe?$AAa?$AAr?$AA?5?$AAa?$AAs?$AAy?$AAn?$AAc?$AA?5?$AAp?$AAa?$AAc?$AAk?$AAa?$AAg?$AAe@ 100dbd08     BaseChan.obj
 0003:00003d68       ??_C@_1GI@FHLEJGCP@?$AAP?$AAr?$AAo?$AAc?$AAe?$AAs?$AAs?$AAD?$AAa?$AAt?$AAa?$AA?3?$AA?5?$AAO?$AAn?$AAC?$AAh?$AAa?$AAn?$AAn?$AAe?$AAl?$AAD?$AAa?$AAt?$AAa?$AA?5?$AAo?$AAf?$AA?5?$AAO?$AAb@ 100dbd68     BaseChan.obj
 0003:00003de4       ??_C@_1CC@IHFBIKIH@?$AAP?$AAr?$AAo?$AAc?$AAe?$AAs?$AAs?$AAD?$AAa?$AAt?$AAa?$AA?3?$AA?5?$AA?$CL?$AA?$CL?$AA?$CL?$AA?$AA@ 100dbde4     BaseChan.obj
 0003:00003e0c       ??_C@_1CM@GMAEOEGA@?$AAG?$AAe?$AAt?$AAP?$AAa?$AAc?$AAk?$AAa?$AAg?$AAe?$AA?3?$AA?5?$AAN?$AAU?$AAL?$AAL?$AA?0?$AA?5?$AA?9?$AA?9?$AA?9?$AA?$AA@ 100dbe0c     BaseChan.obj
 0003:00003e40       ??_C@_1DK@JMPLLEMA@?$AAG?$AAe?$AAt?$AAP?$AAa?$AAc?$AAk?$AAa?$AAg?$AAe?$AA?3?$AA?5?$AAo?$AAn?$AAe?$AA?5?$AAp?$AAa?$AAc?$AAa?$AAk?$AAg?$AAe?$AA?0?$AA?5?$AA?9?$AA?9?$AA?9?$AA?$AA@ 100dbe40     BaseChan.obj
 0003:00003e88       ??_C@_1JM@HCLGJJMI@?$AAG?$AAe?$AAt?$AAP?$AAa?$AAc?$AAk?$AAa?$AAg?$AAe?$AA?3?$AA?5?$AAa?$AAs?$AAy?$AAn?$AAc?$AA?5?$AAp?$AAa?$AAc?$AAk?$AAa?$AAg?$AAe?$AA?5?$AAl?$AAi?$AAs?$AAt?$AA?5?$AAi@ 100dbe88     BaseChan.obj
 0003:00003f44       ??_C@_1CA@MDJHJNKI@?$AAG?$AAe?$AAt?$AAP?$AAa?$AAc?$AAk?$AAa?$AAg?$AAe?$AA?3?$AA?5?$AA?$CL?$AA?$CL?$AA?$CL?$AA?$AA@ 100dbf44     BaseChan.obj
 0003:00003f6c       ??_C@_1BC@PILJOBKD@?$AAB?$AAa?$AAs?$AAe?$AAC?$AAh?$AAa?$AAn?$AA?$AA@ 100dbf6c     BaseChan.obj
 0003:00003f84       ??_C@_19BIEPDBPA@?$AAT?$AAy?$AAp?$AAe?$AA?$AA@ 100dbf84     BaseChan.obj
 0003:00003f90       ??_C@_17LLLMIFAB@?$AAL?$AAo?$AAg?$AA?$AA@ 100dbf90     BaseChan.obj
 0003:00003f9c       ??_C@_1M@MFHLECJA@?$AAL?$AAe?$AAv?$AAe?$AAl?$AA?$AA@ 100dbf9c     BaseChan.obj
 0003:00003fac       ??_C@_1BM@NMAKBNCI@?$AA?2?$AAD?$AAi?$AAa?$AAg?$AAC?$AAh?$AAa?$AAn?$AA?4?$AAi?$AAn?$AAi?$AA?$AA@ 100dbfac     BaseChan.obj
 0003:00003fd0       ??_C@_1FA@NCFLIPEA@?$AAO?$AAn?$AAC?$AAh?$AAa?$AAn?$AAn?$AAe?$AAl?$AAE?$AAv?$AAe?$AAn?$AAt?$AA?5?$AAo?$AAf?$AA?5?$AAO?$AAb?$AAs?$AAe?$AAr?$AAv?$AAe?$AAr?$AA?5?$AA?$CF?$AAd?$AA?5?$AAi?$AAs@ 100dbfd0     BaseChan.obj
 0003:00004030       ??_C@_1DE@CIIGFGAG@?$AAG?$AAe?$AAn?$AAe?$AAr?$AAa?$AAt?$AAe?$AA?5?$AAa?$AAn?$AA?5?$AAe?$AAn?$AAd?$AAi?$AAa?$AAn?$AA?5?$AAe?$AAv?$AAe?$AAn?$AAt?$AA?$CB?$AA?$AA@ 100dc030     BaseChan.obj
 0003:00004070       ??_C@_0BD@IPGJINKL@list?$DMT?$DO?5bad?5splice?$AA@ 100dc070     BaseChan.obj
 0003:0000408c       ??_7length_error@std@@6B@  100dc08c     BaseChan.obj
 0003:0000409c       ??_7logic_error@std@@6B@   100dc09c     BaseChan.obj
 0003:000040a8       ?npos@?$basic_string@DU?$char_traits@D@std@@V?$allocator@D@2@@std@@2IB 100dc0a8     BaseChan.obj
 0003:000040ac       ??_C@_0BB@MOGOBHAF@list?$DMT?$DO?5too?5long?$AA@ 100dc0ac     BaseChan.obj
 0003:000040c0       ??_C@_0BD@OLBABOEK@vector?$DMT?$DO?5too?5long?$AA@ 100dc0c0     BaseChan.obj
 0003:000040dc       ??_7bad_alloc@std@@6B@     100dc0dc     BaseChan.obj
 0003:000040e8       ?_EEM_DS@?$deque@PAUPRT_BUFF@@V?$allocator@PAUPRT_BUFF@@@std@@@std@@2HB 100dc0e8     BmChannel.obj
 0003:000040ec       ??_C@_1BA@DOLJLIKA@?$AAB?$AAm?$AAC?$AAh?$AAa?$AAn?$AAD?$AA?$AA@ 100dc0ec     BmChannel.obj
 0003:00004104       ??_7CBmChannel@@6BIProtocolObserver@@@ 100dc104     BmChannel.obj
 0003:00004114       ??_7CBmChannel@@6BIProtocolChannel@@@ 100dc114     BmChannel.obj
 0003:000041a0       ??_C@_1GM@MABLMOMC@?$AAW?$AAr?$AAi?$AAt?$AAe?$AA?3?$AA?5?$AAf?$AAa?$AAi?$AAl?$AAe?$AAd?$AA?0?$AAr?$AAe?$AAm?$AAo?$AAv?$AAe?$AA?5?$AAp?$AAr?$AAe?$AAv?$AAi?$AAo?$AAu?$AAs?$AAl?$AAy?$AA?5@ 100dc1a0     BmChannel.obj
 0003:00004228       ??_C@_1HC@IBHAOAOO@?$AAW?$AAr?$AAi?$AAt?$AAe?$AA?3?$AA?5?$AAr?$AAe?$AAm?$AAo?$AAv?$AAe?$AA?5?$AAa?$AAl?$AAl?$AA?5?$AAp?$AAa?$AAc?$AAk?$AAa?$AAg?$AAe?$AAs?$AA?5?$AAw?$AAh?$AAi?$AAc?$AAh@ 100dc228     BmChannel.obj
 0003:000042b0       ??_C@_1GA@GKIKPLIN@?$AAW?$AAr?$AAi?$AAt?$AAe?$AA?3?$AA?5?$AAl?$AAo?$AAw?$AAe?$AAr?$AA?5?$AAW?$AAr?$AAi?$AAt?$AAe?$AA?5?$AAi?$AAs?$AA?5?$AAc?$AAa?$AAl?$AAl?$AAe?$AAd?$AA?0?$AAr?$AAe?$AAt@ 100dc2b0     BmChannel.obj
 0003:00004328       ??_C@_1FA@HHKNHJEI@?$AAW?$AAr?$AAi?$AAt?$AAe?$AA?3?$AA?5?$AAp?$AAa?$AAc?$AAk?$AAa?$AAg?$AAe?$AA?5?$AAf?$AAa?$AAi?$AAl?$AAe?$AAd?$AA?0?$AAe?$AAr?$AAr?$AAo?$AAr?$AA?5?$AAc?$AAo?$AAd?$AAe@ 100dc328     BmChannel.obj
 0003:00004388       ??_C@_1LO@DEDHNAME@?$AAe?$AA?3?$AA?2?$AAw?$AAo?$AAr?$AAk?$AA?2?$AAw?$AAo?$AAr?$AAk?$AAs?$AAp?$AAa?$AAc?$AAe?$AA?2?$AAt?$AAo?$AAo?$AAl?$AAs?$AA?9?$AAm?$AAa?$AAi?$AAn?$AA?2?$AAt?$AAr?$AAu@ 100dc388     BmChannel.obj
 0003:00004470       ??_C@_1FM@KJKPGOPM@?$AAW?$AAr?$AAi?$AAt?$AAe?$AA?3?$AA?5?$AAl?$AAo?$AAw?$AAe?$AAr?$AA?5?$AAc?$AAh?$AAa?$AAn?$AAn?$AAe?$AAl?$AA?5?$AAi?$AAs?$AA?5?$AAn?$AAu?$AAl?$AAl?$AA?0?$AAn?$AAo?$AAt@ 100dc470     BmChannel.obj
 0003:000044e0       ??_C@_1BE@MACJIDKK@?$AAW?$AAr?$AAi?$AAt?$AAe?$AA?3?$AA?5?$AA?9?$AA?9?$AA?$AA@ 100dc4e0     BmChannel.obj
 0003:000044f8       ??_C@_1JA@OCKMGPD@?$AAW?$AAr?$AAi?$AAt?$AAe?$AA?3?$AA?5?$AAi?$AAn?$AAp?$AAu?$AAt?$AA?5?$AAd?$AAa?$AAt?$AAa?$AA?5?$AAp?$AAo?$AAi?$AAn?$AAt?$AAe?$AAr?$AA?5?$AAi?$AAs?$AA?5?$AAn?$AAu?$AAl@ 100dc4f8     BmChannel.obj
 0003:000045a8       ??_7CBmPackage@@6B@        100dc5a8     BmPackage.obj
 0003:000045e8       ??_C@_0P@BOGJPMMF@ReleaseChannel?$AA@ 100dc5e8     DiagChan.obj
 0003:000045fc       ??_C@_0O@KHIFFBDL@CreateChannel?$AA@ 100dc5fc     DiagChan.obj
 0003:0000460c       ??_C@_1BO@GJFAOOEE@?$AA?2?$AAC?$AAh?$AAa?$AAn?$AAn?$AAe?$AAl?$AA9?$AAD?$AA?4?$AAd?$AAl?$AAl?$AA?$AA@ 100dc60c     DiagChan.obj
 0003:00004630       ??_C@_1BE@FFMKOGJO@?$AAD?$AAi?$AAa?$AAg?$AAC?$AAh?$AAa?$AAn?$AAD?$AA?$AA@ 100dc630     DiagChannel.obj
 0003:0000464c       ??_7CDiagChannel@@6BIProtocolObserver@@@ 100dc64c     DiagChannel.obj
 0003:0000465c       ??_7CDiagChannel@@6BIProtocolChannel@@@ 100dc65c     DiagChannel.obj
 0003:000046e8       ??_C@_1FK@FOBNFGFL@?$AAG?$AAe?$AAt?$AAC?$AAo?$AAn?$AAd?$AAi?$AAt?$AAi?$AAo?$AAn?$AA?3?$AA?5?$AAs?$AAn?$AA?5?$AA?$DN?$AA?5?$AA?$CF?$AAd?$AA?0?$AAt?$AAy?$AAp?$AAe?$AA?5?$AA?$DN?$AA?5?$AA?$CF?$AAd?$AA?0@ 100dc6e8     DiagChannel.obj
 0003:00004758       ??_C@_1HO@GKIOHGNP@?$AAI?$AAn?$AAp?$AAu?$AAt?$AA?5?$AAd?$AAa?$AAt?$AAa?$AA?5?$AAc?$AAo?$AAn?$AAt?$AAa?$AAi?$AAn?$AAs?$AA?5?$AAn?$AAo?$AA?5?$AAv?$AAa?$AAl?$AAi?$AAd?$AA?5?$AAp?$AAa?$AAc@ 100dc758     DiagChannel.obj
 0003:000047f0       ??_C@_0BD@DLPAENGM@type?$DN?$CFd?0subtype?$DN?$CFd?$AA@ 100dc7f0     DiagChannel.obj
 0003:00004808       ??_C@_13BPINEIPE@?$AAr?$AA?$AA@ 100dc808     DiagChannel.obj
 0003:0000480c       ??_C@_1BK@IDEKGIHN@?$AAt?$AAy?$AAp?$AAe?$AA_?$AAd?$AAe?$AAf?$AA?4?$AAd?$AAe?$AAf?$AA?$AA@ 100dc80c     DiagChannel.obj
 0003:00004830       ??_7CDiagPackage@@6B@      100dc830     DiagPackage.obj
 0003:00004874       ??_7IProtocolPackage@@6B@  100dc874     DiagPackage.obj
 0003:00004898       ??_C@_0BC@KBDMBKEH@deque?$DMT?$DO?5too?5long?$AA@ 100dc898     DiagPackage.obj
 0003:000048b0       ??_C@_0BK@GOGELADF@in?5use?5bytes?5?5?5?5?5?$DN?5?$CF10lu?6?$AA@ 100dc8b0     dlmalloc.obj
 0003:000048d0       ??_C@_0BK@HGDMIJJL@system?5bytes?5?5?5?5?5?$DN?5?$CF10lu?6?$AA@ 100dc8d0     dlmalloc.obj
 0003:000048f0       ??_C@_0BK@NOJBAIDO@max?5system?5bytes?5?$DN?5?$CF10lu?6?$AA@ 100dc8f0     dlmalloc.obj
 0003:00004910       ??_C@_1BC@IDCMJNNC@?$AAS?$AAm?$AAp?$AAC?$AAh?$AAa?$AAn?$AAD?$AA?$AA@ 100dc910     SmpChannel.obj
 0003:0000492c       ??_7CSmpChannel@@6BIProtocolObserver@@@ 100dc92c     SmpChannel.obj
 0003:0000493c       ??_7CSmpChannel@@6BIProtocolChannel@@@ 100dc93c     SmpChannel.obj
 0003:000049c8       ??_7CSmpPackage@@6B@       100dc9c8     SmpPackage.obj
 0003:00004a0c       ??_C@_1M@DFKENGJN@?$AA?$CF?$AAs?$AA?2?$AA?$CF?$AAs?$AA?$AA@ 100dca0c     SpLog.obj
 0003:00004a20       ??_7CSpLog@@6B@            100dca20     SpLog.obj
 0003:00004a60       ??_7ISpLog@@6B@            100dca60     SpLog.obj
 0003:00004a9c       ??_C@_15GANGMFKL@?$AA?$CF?$AAs?$AA?$AA@ 100dca9c     SpLog.obj
 0003:00004aa4       ??_C@_1BC@GLIGFLDD@?$AA?$CF?$AAs?$AA?2?$AA?$CF?$AAs?$AA?2?$AA?$CF?$AAs?$AA?$AA@ 100dcaa4     SpLog.obj
 0003:00004abc       ??_C@_19CLCNNNIO@?$AA?4?$AAb?$AAi?$AAn?$AA?$AA@ 100dcabc     SpLog.obj
 0003:00004ac8       ??_C@_04LLEBNMDN@?$CFs?$AN?6?$AA@ 100dcac8     SpLog.obj
 0003:00004ad0       ??_C@_07HDPLFHPL@?$CFs?5?$CFs?$AN?6?$AA@ 100dcad0     SpLog.obj
 0003:00004adc       ??_C@_0CF@KFHMIEDK@?$FL?$CF04d?9?$CF02d?9?$CF02d?5?$CF02d?3?$CF02d?3?$CF02d?3?$CF@ 100dcadc     SpLog.obj
 0003:00004b08       ??_C@_1CG@LDPICAAE@?$AAN?$AAU?$AAL?$AAL?$AA?5?$AA?$CB?$AA?$DN?$AA?5?$AAl?$AAp?$AAs?$AAz?$AAS?$AAt?$AAr?$AAi?$AAn?$AAg?$AA?$AA@ 100dcb08     SpLog.obj
 0003:00004b38       ??_C@_1LG@JCIBIPEA@?$AAe?$AA?3?$AA?2?$AAw?$AAo?$AAr?$AAk?$AA?2?$AAw?$AAo?$AAr?$AAk?$AAs?$AAp?$AAa?$AAc?$AAe?$AA?2?$AAt?$AAo?$AAo?$AAl?$AAs?$AA?9?$AAm?$AAa?$AAi?$AAn?$AA?2?$AAt?$AAr?$AAu@ 100dcb38     SpLog.obj
 0003:00004c14       ??_C@_1CA@EIFPBGND@?$AAN?$AAU?$AAL?$AAL?$AA?5?$AA?$CB?$AA?$DN?$AA?5?$AAl?$AAp?$AAs?$AAz?$AAF?$AAm?$AAt?$AA?$AA@ 100dcc14     SpLog.obj
 0003:00004c3c       ??_C@_07MKMFIMPB@?$CFs?$CFs?$DL?$AN?6?$AA@ 100dcc3c     SpLog.obj
 0003:00004c48       ??_C@_0L@LLCACCMD@?$CFs?$CFs?$DL?5?$CFs?$AN?6?$AA@ 100dcc48     SpLog.obj
 0003:00004c58       ??_C@_03NDEAONJP@?5?5?5?$AA@ 100dcc58     SpLog.obj
 0003:00004c5c       ??_C@_05BFHEBJNP@?$CF02X?5?$AA@ 100dcc5c     SpLog.obj
 0003:00004c64       ??_C@_07OAEJFMDA@?$CF08xh?3?5?$AA@ 100dcc64     SpLog.obj
 0003:00004c70       ??_C@_0BP@GEGAOEKJ@?$CFs?5?$CFd?$CI0x?$CF08x?$CJ?1?$CFd?$CI0x?$CF08x?$CJ?5Bytes?$AA@ 100dcc70     SpLog.obj
 0003:00004c98       ??_C@_03JMFMNIFM@?9?9?9?$AA@ 100dcc98     SpLog.obj
 0003:00004c9c       ??_C@_03GJBNCBOB@?$DM?$DM?9?$AA@ 100dcc9c     SpLog.obj
 0003:00004ca0       ??_C@_03PNLDJJMO@?9?9?$DO?$AA@ 100dcca0     SpLog.obj
 0003:00004ca4       ??_C@_0BE@NFLAEEAD@?$CFs?5?$CFd?$CI0x?$CF08x?$CJ?5Bytes?$AA@ 100dcca4     SpLog.obj
 0003:00004cbc       ??_C@_03HEPJOIKG@?$DM?9?9?$AA@ 100dccbc     SpLog.obj
 0003:00004cc0       ??_C@_19JFPGGDCL@?$AA?4?$AAl?$AAo?$AAg?$AA?$AA@ 100dccc0     SpLog.obj
 0003:00004ccc       ??_C@_1DA@OBJFBAMF@?$AAN?$AAU?$AAL?$AAL?$AA?5?$AA?$CB?$AA?$DN?$AA?5?$AAl?$AAp?$AAs?$AAz?$AAF?$AAi?$AAl?$AAe?$AAE?$AAx?$AAt?$AAN?$AAa?$AAm?$AAe?$AA?$AA@ 100dcccc     SpLog.obj
 0003:00004d08       ??_C@_1DA@KJKJPGPD@?$AAN?$AAU?$AAL?$AAL?$AA?5?$AA?$CB?$AA?$DN?$AA?5?$AAl?$AAp?$AAs?$AAz?$AAO?$AAr?$AAg?$AAF?$AAi?$AAl?$AAe?$AAP?$AAa?$AAt?$AAh?$AA?$AA@ 100dcd08     SpLog.obj
 0003:00004d44       ??_C@_1BA@HEBNFGMC@?$AA?$CF?$AAs?$AA?2?$AA?$CF?$AAs?$AA?$CF?$AAs?$AA?$AA@ 100dcd44     SpLog.obj
 0003:00004d58       ??_C@_1CO@DNECLGJH@?$AA?$CF?$AAs?$AA?2?$AA?$CF?$AAs?$AA_?$AA?$CF?$AA0?$AA4?$AAd?$AA_?$AA?$CF?$AA0?$AA2?$AAd?$AA_?$AA?$CF?$AA0?$AA2?$AAd?$AA?$CF?$AAs?$AA?$AA@ 100dcd58     SpLog.obj
 0003:00004d90       ??_C@_1FG@FHONEJOP@?$AA?$CF?$AAs?$AA?2?$AA?$CF?$AAs?$AA_?$AA?$CF?$AA0?$AA4?$AAd?$AA_?$AA?$CF?$AA0?$AA2?$AAd?$AA_?$AA?$CF?$AA0?$AA2?$AAd?$AA_?$AA?$CF?$AA0?$AA2?$AAd?$AA_?$AA?$CF?$AA0?$AA2?$AAd?$AA_?$AA?$CF@ 100dcd90     SpLog.obj
 0003:00004df8       ??_C@_1DA@HLPNOBEK@?$AAN?$AAU?$AAL?$AAL?$AA?5?$AA?$CB?$AA?$DN?$AA?5?$AAl?$AAp?$AAs?$AAz?$AAD?$AAs?$AAt?$AAF?$AAi?$AAl?$AAe?$AAP?$AAa?$AAt?$AAh?$AA?$AA@ 100dcdf8     SpLog.obj
 0003:00004e34       ??_C@_1BG@JEMCAELI@?$AA?$CF?$AAs?$AA?2?$AA?$CF?$AAs?$AA_?$AAW?$AAt?$AA?$CF?$AAs?$AA?$AA@ 100dce34     SpLog.obj
 0003:00004e50       ??_C@_1BG@OFAPONH@?$AA?$CF?$AAs?$AA?2?$AA?$CF?$AAs?$AA_?$AAR?$AAd?$AA?$CF?$AAs?$AA?$AA@ 100dce50     SpLog.obj
 0003:00004e6c       ??_C@_1BG@BKMFGADG@?$AA?$CF?$AAs?$AA?2?$AA?$CF?$AAs?$AA_?$AA?$CF?$AAd?$AA?$CF?$AAs?$AA?$AA@ 100dce6c     SpLog.obj
 0003:00004e88       ??_C@_0O@CLJDBCAD@Enter?5?$FL?$CFs?$FN?5?$CFs?$AA@ 100dce88     SpLog.obj
 0003:00004e98       ??_C@_0L@DENLGDIJ@Enter?5?$FL?$CFs?$FN?$AA@ 100dce98     SpLog.obj
 0003:00004ea8       ??_C@_02DKCKIIND@?$CFs?$AA@ 100dcea8     SpLog.obj
 0003:00004eac       ??_C@_1CG@DKHBLELO@?$AAN?$AAU?$AAL?$AAL?$AA?5?$AA?$CB?$AA?$DN?$AA?5?$AAl?$AAp?$AAs?$AAz?$AAF?$AAn?$AAN?$AAa?$AAm?$AAe?$AA?$AA@ 100dceac     SpLog.obj
 0003:00004ee0       ??_7CFnLog@@6B@            100dcee0     SpLog.obj
 0003:00004ee8       ??_C@_0L@BGMDFEN@Leave?5?$FL?$CFs?$FN?$AA@ 100dcee8     SpLog.obj
 0003:00004ef8       ?collate@?$_Locbase@H@std@@2HB 100dcef8     libcpmtd:string.obj
 0003:00004efc       ?ctype@?$_Locbase@H@std@@2HB 100dcefc     libcpmtd:string.obj
 0003:00004f00       ?monetary@?$_Locbase@H@std@@2HB 100dcf00     libcpmtd:string.obj
 0003:00004f04       ?numeric@?$_Locbase@H@std@@2HB 100dcf04     libcpmtd:string.obj
 0003:00004f08       ?time@?$_Locbase@H@std@@2HB 100dcf08     libcpmtd:string.obj
 0003:00004f0c       ?messages@?$_Locbase@H@std@@2HB 100dcf0c     libcpmtd:string.obj
 0003:00004f10       ?all@?$_Locbase@H@std@@2HB 100dcf10     libcpmtd:string.obj
 0003:00004f14       ?none@?$_Locbase@H@std@@2HB 100dcf14     libcpmtd:string.obj
 0003:00004f18       ?table_size@?$ctype@D@std@@2IB 100dcf18     libcpmtd:string.obj
 0003:00004f1c       ?skipws@?$_Iosb@H@std@@2W4_Fmtflags@12@B 100dcf1c     libcpmtd:string.obj
 0003:00004f20       ?unitbuf@?$_Iosb@H@std@@2W4_Fmtflags@12@B 100dcf20     libcpmtd:string.obj
 0003:00004f24       ?uppercase@?$_Iosb@H@std@@2W4_Fmtflags@12@B 100dcf24     libcpmtd:string.obj
 0003:00004f28       ?showbase@?$_Iosb@H@std@@2W4_Fmtflags@12@B 100dcf28     libcpmtd:string.obj
 0003:00004f2c       ?showpoint@?$_Iosb@H@std@@2W4_Fmtflags@12@B 100dcf2c     libcpmtd:string.obj
 0003:00004f30       ?showpos@?$_Iosb@H@std@@2W4_Fmtflags@12@B 100dcf30     libcpmtd:string.obj
 0003:00004f34       ?left@?$_Iosb@H@std@@2W4_Fmtflags@12@B 100dcf34     libcpmtd:string.obj
 0003:00004f38       ?right@?$_Iosb@H@std@@2W4_Fmtflags@12@B 100dcf38     libcpmtd:string.obj
 0003:00004f3c       ?internal@?$_Iosb@H@std@@2W4_Fmtflags@12@B 100dcf3c     libcpmtd:string.obj
 0003:00004f40       ?dec@?$_Iosb@H@std@@2W4_Fmtflags@12@B 100dcf40     libcpmtd:string.obj
 0003:00004f44       ?oct@?$_Iosb@H@std@@2W4_Fmtflags@12@B 100dcf44     libcpmtd:string.obj
 0003:00004f48       ?hex@?$_Iosb@H@std@@2W4_Fmtflags@12@B 100dcf48     libcpmtd:string.obj
 0003:00004f4c       ?scientific@?$_Iosb@H@std@@2W4_Fmtflags@12@B 100dcf4c     libcpmtd:string.obj
 0003:00004f50       ?fixed@?$_Iosb@H@std@@2W4_Fmtflags@12@B 100dcf50     libcpmtd:string.obj
 0003:00004f54       ?hexfloat@?$_Iosb@H@std@@2W4_Fmtflags@12@B 100dcf54     libcpmtd:string.obj
 0003:00004f58       ?boolalpha@?$_Iosb@H@std@@2W4_Fmtflags@12@B 100dcf58     libcpmtd:string.obj
 0003:00004f5c       ?_Stdio@?$_Iosb@H@std@@2W4_Fmtflags@12@B 100dcf5c     libcpmtd:string.obj
 0003:00004f60       ?adjustfield@?$_Iosb@H@std@@2W4_Fmtflags@12@B 100dcf60     libcpmtd:string.obj
 0003:00004f64       ?basefield@?$_Iosb@H@std@@2W4_Fmtflags@12@B 100dcf64     libcpmtd:string.obj
 0003:00004f68       ?floatfield@?$_Iosb@H@std@@2W4_Fmtflags@12@B 100dcf68     libcpmtd:string.obj
 0003:00004f6c       ?goodbit@?$_Iosb@H@std@@2W4_Iostate@12@B 100dcf6c     libcpmtd:string.obj
 0003:00004f70       ?eofbit@?$_Iosb@H@std@@2W4_Iostate@12@B 100dcf70     libcpmtd:string.obj
 0003:00004f74       ?failbit@?$_Iosb@H@std@@2W4_Iostate@12@B 100dcf74     libcpmtd:string.obj
 0003:00004f78       ?badbit@?$_Iosb@H@std@@2W4_Iostate@12@B 100dcf78     libcpmtd:string.obj
 0003:00004f7c       ?_Hardfail@?$_Iosb@H@std@@2W4_Iostate@12@B 100dcf7c     libcpmtd:string.obj
 0003:00004f80       ?in@?$_Iosb@H@std@@2W4_Openmode@12@B 100dcf80     libcpmtd:string.obj
 0003:00004f84       ?out@?$_Iosb@H@std@@2W4_Openmode@12@B 100dcf84     libcpmtd:string.obj
 0003:00004f88       ?ate@?$_Iosb@H@std@@2W4_Openmode@12@B 100dcf88     libcpmtd:string.obj
 0003:00004f8c       ?app@?$_Iosb@H@std@@2W4_Openmode@12@B 100dcf8c     libcpmtd:string.obj
 0003:00004f90       ?trunc@?$_Iosb@H@std@@2W4_Openmode@12@B 100dcf90     libcpmtd:string.obj
 0003:00004f94       ?_Nocreate@?$_Iosb@H@std@@2W4_Openmode@12@B 100dcf94     libcpmtd:string.obj
 0003:00004f98       ?_Noreplace@?$_Iosb@H@std@@2W4_Openmode@12@B 100dcf98     libcpmtd:string.obj
 0003:00004f9c       ?binary@?$_Iosb@H@std@@2W4_Openmode@12@B 100dcf9c     libcpmtd:string.obj
 0003:00004fa0       ?beg@?$_Iosb@H@std@@2W4_Seekdir@12@B 100dcfa0     libcpmtd:string.obj
 0003:00004fa4       ?cur@?$_Iosb@H@std@@2W4_Seekdir@12@B 100dcfa4     libcpmtd:string.obj
 0003:00004fa8       ?end@?$_Iosb@H@std@@2W4_Seekdir@12@B 100dcfa8     libcpmtd:string.obj
 0003:00004fac       ??_C@_0BA@JFNIOLAK@string?5too?5long?$AA@ 100dcfac     libcpmtd:string.obj
 0003:00004fc0       ??_C@_0BI@CFPLBAOH@invalid?5string?5position?$AA@ 100dcfc0     libcpmtd:string.obj
 0003:00004fe0       ??_7out_of_range@std@@6B@  100dcfe0     libcpmtd:string.obj
 0003:00004fec       ??_C@_0BI@ILCMCLF@invalid?5string?5argument?$AA@ 100dcfec     libcpmtd:string.obj
 0003:0000500c       ??_7invalid_argument@std@@6B@ 100dd00c     libcpmtd:string.obj
 0003:00005018       ??_C@_0CO@JPCIKGOF@f?3?2dd?2vctools?2crt_bld?2self_x86?2c@ 100dd018     libcpmtd:string.obj
 0003:00005050       ??_C@_1FO@BEGKGBFG@?$AAf?$AA?3?$AA?2?$AAd?$AAd?$AA?2?$AAv?$AAc?$AAt?$AAo?$AAo?$AAl?$AAs?$AA?2?$AAc?$AAr?$AAt?$AA_?$AAb?$AAl?$AAd?$AA?2?$AAs?$AAe?$AAl?$AAf?$AA_?$AAx?$AA8?$AA6?$AA?2?$AAc@ 100dd050     libcpmtd:string.obj
 0003:000050c0       ??_C@_1CK@EOPGIILJ@?$AAi?$AAn?$AAv?$AAa?$AAl?$AAi?$AAd?$AA?5?$AAn?$AAu?$AAl?$AAl?$AA?5?$AAp?$AAo?$AAi?$AAn?$AAt?$AAe?$AAr?$AA?$AA@ 100dd0c0     libcpmtd:string.obj
 0003:000050f8       ??_C@_01EEMJAFIK@?6?$AA@   100dd0f8     libcpmtd:stdthrow.obj
 0003:000050fc       ??_C@_07CIFAGBMG@unknown?$AA@ 100dd0fc     libcpmtd:stdthrow.obj
 0003:00005108       ??_C@_0M@LLHBPFNE@exception?3?5?$AA@ 100dd108     libcpmtd:stdthrow.obj
 0003:0000511c       ??_7type_info@@6B@         100dd11c     LIBCMTD:typinfo.obj
 0003:00005124       ?ProcessDetach@NativeDll@<CrtImplementationDetails>@@0IB 100dd124     LIBCMTD:_trnsctrl_.obj
 0003:00005128       ?ProcessAttach@NativeDll@<CrtImplementationDetails>@@0IB 100dd128     LIBCMTD:_trnsctrl_.obj
 0003:0000512c       ?ThreadAttach@NativeDll@<CrtImplementationDetails>@@0IB 100dd12c     LIBCMTD:_trnsctrl_.obj
 0003:00005130       ?ThreadDetach@NativeDll@<CrtImplementationDetails>@@0IB 100dd130     LIBCMTD:_trnsctrl_.obj
 0003:00005134       ?ProcessVerifier@NativeDll@<CrtImplementationDetails>@@0IB 100dd134     LIBCMTD:_trnsctrl_.obj
 0003:00005138       ??_C@_1GE@BDAODJCD@?$AAf?$AA?3?$AA?2?$AAd?$AAd?$AA?2?$AAv?$AAc?$AAt?$AAo?$AAo?$AAl?$AAs?$AA?2?$AAc?$AAr?$AAt?$AA_?$AAb?$AAl?$AAd?$AA?2?$AAs?$AAe?$AAl?$AAf?$AA_?$AAx?$AA8?$AA6?$AA?2?$AAc@ 100dd138     LIBCMTD:dbgdel.obj
 0003:000051b0       ??_C@_1EO@LHDAJOCM@?$AA_?$AAB?$AAL?$AAO?$AAC?$AAK?$AA_?$AAT?$AAY?$AAP?$AAE?$AA_?$AAI?$AAS?$AA_?$AAV?$AAA?$AAL?$AAI?$AAD?$AA?$CI?$AAp?$AAH?$AAe?$AAa?$AAd?$AA?9?$AA?$DO?$AAn?$AAB?$AAl?$AAo@ 100dd1b0     LIBCMTD:dbgdel.obj
 0003:00005210       ??_C@_15IABLJNFO@?$AA?6?$AA?6?$AA?$AA@ 100dd210     LIBCMTD:wassert.obj
 0003:00005218       ??_C@_13LBAGMAIH@?$AA?6?$AA?$AA@ 100dd218     LIBCMTD:wassert.obj
 0003:0000521c       ??_C@_17LGKOMLJ@?$AA?4?$AA?4?$AA?4?$AA?$AA@ 100dd21c     LIBCMTD:wassert.obj
 0003:00005228       ??_C@_1EK@MBDPDCGA@?$AAM?$AAi?$AAc?$AAr?$AAo?$AAs?$AAo?$AAf?$AAt?$AA?5?$AAV?$AAi?$AAs?$AAu?$AAa?$AAl?$AA?5?$AAC?$AA?$CL?$AA?$CL?$AA?5?$AAR?$AAu?$AAn?$AAt?$AAi?$AAm?$AAe?$AA?5?$AAL?$AAi?$AAb@ 100dd228     LIBCMTD:wassert.obj
 0003:00005280       ??_C@_1HK@POCJMFGK@?$AA?$CI?$AAP?$AAr?$AAe?$AAs?$AAs?$AA?5?$AAR?$AAe?$AAt?$AAr?$AAy?$AA?5?$AAt?$AAo?$AA?5?$AAd?$AAe?$AAb?$AAu?$AAg?$AA?5?$AAt?$AAh?$AAe?$AA?5?$AAa?$AAp?$AAp?$AAl?$AAi?$AAc@ 100dd280     LIBCMTD:wassert.obj
 0003:00005318       ??_C@_1LO@HBAMOOPN@?$AAw?$AAc?$AAs?$AAc?$AAa?$AAt?$AA_?$AAs?$AA?$CI?$AAa?$AAs?$AAs?$AAe?$AAr?$AAt?$AAb?$AAu?$AAf?$AA?0?$AA?5?$AA?$CI?$AA6?$AA0?$AA?5?$AA?$CK?$AA?5?$AA9?$AA?$CJ?$AA?0?$AA?5?$AAL?$AA?$CC@ 100dd318     LIBCMTD:wassert.obj
 0003:00005400       ??_C@_1FG@GMPCGFKH@?$AAw?$AAc?$AAs?$AAc?$AAa?$AAt?$AA_?$AAs?$AA?$CI?$AAa?$AAs?$AAs?$AAe?$AAr?$AAt?$AAb?$AAu?$AAf?$AA?0?$AA?5?$AA?$CI?$AA6?$AA0?$AA?5?$AA?$CK?$AA?5?$AA9?$AA?$CJ?$AA?0?$AA?5?$AAd?$AAb@ 100dd400     LIBCMTD:wassert.obj
 0003:00005468       ??_C@_1OA@EGMLFBHJ@?$AAF?$AAo?$AAr?$AA?5?$AAi?$AAn?$AAf?$AAo?$AAr?$AAm?$AAa?$AAt?$AAi?$AAo?$AAn?$AA?5?$AAo?$AAn?$AA?5?$AAh?$AAo?$AAw?$AA?5?$AAy?$AAo?$AAu?$AAr?$AA?5?$AAp?$AAr?$AAo?$AAg@ 100dd468     LIBCMTD:wassert.obj
 0003:00005578       ??_C@_1BCO@FMFFDPPF@?$AAw?$AAc?$AAs?$AAc?$AAa?$AAt?$AA_?$AAs?$AA?$CI?$AAa?$AAs?$AAs?$AAe?$AAr?$AAt?$AAb?$AAu?$AAf?$AA?0?$AA?5?$AA?$CI?$AA6?$AA0?$AA?5?$AA?$CK?$AA?5?$AA9?$AA?$CJ?$AA?0?$AA?5?$AAL?$AA?$CC@ 100dd578     LIBCMTD:wassert.obj
 0003:000056e8       ??_C@_1EM@MBEKCGIC@?$AAw?$AAc?$AAs?$AAc?$AAa?$AAt?$AA_?$AAs?$AA?$CI?$AA?5?$AAa?$AAs?$AAs?$AAe?$AAr?$AAt?$AAb?$AAu?$AAf?$AA?0?$AA?5?$AA?$CI?$AA6?$AA0?$AA?5?$AA?$CK?$AA?5?$AA9?$AA?$CJ?$AA?0?$AA?5?$AAe@ 100dd6e8     LIBCMTD:wassert.obj
 0003:00005748       ??_C@_1CHM@CEIMNDLH@?$AAw?$AAc?$AAs?$AAn?$AAc?$AAa?$AAt?$AA_?$AAs?$AA?$CI?$AA?5?$AAa?$AAs?$AAs?$AAe?$AAr?$AAt?$AAb?$AAu?$AAf?$AA?0?$AA?5?$AA?$CI?$AA6?$AA0?$AA?5?$AA?$CK?$AA?5?$AA9?$AA?$CJ?$AA?0?$AA?5@ 100dd748     LIBCMTD:wassert.obj
 0003:00005a44       ??_C@_1BK@PEDCIPMA@?$AAE?$AAx?$AAp?$AAr?$AAe?$AAs?$AAs?$AAi?$AAo?$AAn?$AA?3?$AA?5?$AA?$AA@ 100dda44     LIBCMTD:wassert.obj
 0003:00005a68       ??_C@_1GC@HOBBPFHJ@?$AAw?$AAc?$AAs?$AAc?$AAa?$AAt?$AA_?$AAs?$AA?$CI?$AA?5?$AAa?$AAs?$AAs?$AAe?$AAr?$AAt?$AAb?$AAu?$AAf?$AA?0?$AA?5?$AA?$CI?$AA6?$AA0?$AA?5?$AA?$CK?$AA?5?$AA9?$AA?$CJ?$AA?0?$AA?5?$AAL@ 100dda68     LIBCMTD:wassert.obj
 0003:00005ae0       ??_C@_1KG@CFEIMPNH@?$AA_?$AAi?$AAt?$AAo?$AAw?$AA_?$AAs?$AA?$CI?$AA?5?$AAl?$AAi?$AAn?$AAe?$AAn?$AAo?$AA?0?$AA?5?$AAa?$AAs?$AAs?$AAe?$AAr?$AAt?$AAb?$AAu?$AAf?$AA?5?$AA?$CL?$AA?5?$AAw?$AAc?$AAs@ 100ddae0     LIBCMTD:wassert.obj
 0003:00005ba8       ??_C@_1O@KCAFKHJE@?$AAL?$AAi?$AAn?$AAe?$AA?3?$AA?5?$AA?$AA@ 100ddba8     LIBCMTD:wassert.obj
 0003:00005bb8       ??_C@_1FG@NHDGJLMI@?$AAw?$AAc?$AAs?$AAc?$AAa?$AAt?$AA_?$AAs?$AA?$CI?$AA?5?$AAa?$AAs?$AAs?$AAe?$AAr?$AAt?$AAb?$AAu?$AAf?$AA?0?$AA?5?$AA?$CI?$AA6?$AA0?$AA?5?$AA?$CK?$AA?5?$AA9?$AA?$CJ?$AA?0?$AA?5?$AAL@ 100ddbb8     LIBCMTD:wassert.obj
 0003:00005c20       ??_C@_1FE@IIFBBPFI@?$AAw?$AAc?$AAs?$AAc?$AAa?$AAt?$AA_?$AAs?$AA?$CI?$AA?5?$AAa?$AAs?$AAs?$AAe?$AAr?$AAt?$AAb?$AAu?$AAf?$AA?0?$AA?5?$AA?$CI?$AA6?$AA0?$AA?5?$AA?$CK?$AA?5?$AA9?$AA?$CJ?$AA?0?$AA?5?$AAf@ 100ddc20     LIBCMTD:wassert.obj
 0003:00005c88       ??_C@_1IC@CFFJBMAD@?$AAw?$AAc?$AAs?$AAc?$AAa?$AAt?$AA_?$AAs?$AA?$CI?$AA?5?$AAa?$AAs?$AAs?$AAe?$AAr?$AAt?$AAb?$AAu?$AAf?$AA?0?$AA?5?$AA?$CI?$AA6?$AA0?$AA?5?$AA?$CK?$AA?5?$AA9?$AA?$CJ?$AA?0?$AA?5?$AAp@ 100ddc88     LIBCMTD:wassert.obj
 0003:00005d28       ??_C@_1HG@OJJMBIKO@?$AAw?$AAc?$AAs?$AAn?$AAc?$AAa?$AAt?$AA_?$AAs?$AA?$CI?$AA?5?$AAa?$AAs?$AAs?$AAe?$AAr?$AAt?$AAb?$AAu?$AAf?$AA?0?$AA?5?$AA?$CI?$AA6?$AA0?$AA?5?$AA?$CK?$AA?5?$AA9?$AA?$CJ?$AA?0?$AA?5@ 100ddd28     LIBCMTD:wassert.obj
 0003:00005db8       ??_C@_1GO@BIHLMMND@?$AAw?$AAc?$AAs?$AAn?$AAc?$AAa?$AAt?$AA_?$AAs?$AA?$CI?$AA?5?$AAa?$AAs?$AAs?$AAe?$AAr?$AAt?$AAb?$AAu?$AAf?$AA?0?$AA?5?$AA?$CI?$AA6?$AA0?$AA?5?$AA?$CK?$AA?5?$AA9?$AA?$CJ?$AA?0?$AA?5@ 100dddb8     LIBCMTD:wassert.obj
 0003:00005e40       ??_C@_1FO@IJLLDBEB@?$AAw?$AAc?$AAs?$AAc?$AAa?$AAt?$AA_?$AAs?$AA?$CI?$AA?5?$AAa?$AAs?$AAs?$AAe?$AAr?$AAt?$AAb?$AAu?$AAf?$AA?0?$AA?5?$AA?$CI?$AA6?$AA0?$AA?5?$AA?$CK?$AA?5?$AA9?$AA?$CJ?$AA?0?$AA?5?$AAp@ 100dde40     LIBCMTD:wassert.obj
 0003:00005eb0       ??_C@_1FG@CLEECKIJ@?$AAw?$AAc?$AAs?$AAc?$AAa?$AAt?$AA_?$AAs?$AA?$CI?$AA?5?$AAa?$AAs?$AAs?$AAe?$AAr?$AAt?$AAb?$AAu?$AAf?$AA?0?$AA?5?$AA?$CI?$AA6?$AA0?$AA?5?$AA?$CK?$AA?5?$AA9?$AA?$CJ?$AA?0?$AA?5?$AAd@ 100ddeb0     LIBCMTD:wassert.obj
 0003:00005f18       ??_C@_1GG@PMHOPJKA@?$AAw?$AAc?$AAs?$AAn?$AAc?$AAa?$AAt?$AA_?$AAs?$AA?$CI?$AA?5?$AAa?$AAs?$AAs?$AAe?$AAr?$AAt?$AAb?$AAu?$AAf?$AA?0?$AA?5?$AA?$CI?$AA6?$AA0?$AA?5?$AA?$CK?$AA?5?$AA9?$AA?$CJ?$AA?0?$AA?5@ 100ddf18     LIBCMTD:wassert.obj
 0003:00005f94       ??_C@_1O@HEMHKNDC@?$AAF?$AAi?$AAl?$AAe?$AA?3?$AA?5?$AA?$AA@ 100ddf94     LIBCMTD:wassert.obj
 0003:00005fa8       ??_C@_1FG@HIDBOJF@?$AAw?$AAc?$AAs?$AAc?$AAa?$AAt?$AA_?$AAs?$AA?$CI?$AA?5?$AAa?$AAs?$AAs?$AAe?$AAr?$AAt?$AAb?$AAu?$AAf?$AA?0?$AA?5?$AA?$CI?$AA6?$AA0?$AA?5?$AA?$CK?$AA?5?$AA9?$AA?$CJ?$AA?0?$AA?5?$AAL@ 100ddfa8     LIBCMTD:wassert.obj
 0003:00006010       ??_C@_1FC@FFKGGIKO@?$AAw?$AAc?$AAs?$AAc?$AAa?$AAt?$AA_?$AAs?$AA?$CI?$AA?5?$AAa?$AAs?$AAs?$AAe?$AAr?$AAt?$AAb?$AAu?$AAf?$AA?0?$AA?5?$AA?$CI?$AA6?$AA0?$AA?5?$AA?$CK?$AA?5?$AA9?$AA?$CJ?$AA?0?$AA?5?$AAn@ 100de010     LIBCMTD:wassert.obj
 0003:00006078       ??_C@_1EK@BDNABPEK@?$AAw?$AAc?$AAs?$AAc?$AAa?$AAt?$AA_?$AAs?$AA?$CI?$AA?5?$AAa?$AAs?$AAs?$AAe?$AAr?$AAt?$AAb?$AAu?$AAf?$AA?0?$AA?5?$AA?$CI?$AA6?$AA0?$AA?5?$AA?$CK?$AA?5?$AA9?$AA?$CJ?$AA?0?$AA?5?$AAp@ 100de078     LIBCMTD:wassert.obj
 0003:000060d0       ??_C@_1HK@JKBDGMGN@?$AAw?$AAc?$AAs?$AAn?$AAc?$AAp?$AAy?$AA_?$AAs?$AA?$CI?$AA?5?$AAp?$AAc?$AAh?$AA?0?$AA?5?$AA?$CI?$AA2?$AA6?$AA0?$AA?5?$AA?$CL?$AA?5?$AA1?$AA?$CJ?$AA?5?$AA?9?$AA?5?$AA?$CI?$AAp?$AAc?$AAh@ 100de0d0     LIBCMTD:wassert.obj
 0003:00006164       ??_C@_1CO@EAEJAADC@?$AA?$DM?$AAp?$AAr?$AAo?$AAg?$AAr?$AAa?$AAm?$AA?5?$AAn?$AAa?$AAm?$AAe?$AA?5?$AAu?$AAn?$AAk?$AAn?$AAo?$AAw?$AAn?$AA?$DO?$AA?$AA@ 100de164     LIBCMTD:wassert.obj
 0003:000061a0       ??_C@_1HA@EPFCONEE@?$AAw?$AAc?$AAs?$AAc?$AAp?$AAy?$AA_?$AAs?$AA?$CI?$AA?5?$AAp?$AAr?$AAo?$AAg?$AAn?$AAa?$AAm?$AAe?$AA?0?$AA?5?$AA2?$AA6?$AA0?$AA?5?$AA?$CL?$AA?5?$AA1?$AA?0?$AA?5?$AAL?$AA?$CC?$AA?$DM@ 100de1a0     LIBCMTD:wassert.obj
 0003:00006228       ??_C@_1BE@PHKBBGE@?$AAP?$AAr?$AAo?$AAg?$AAr?$AAa?$AAm?$AA?3?$AA?5?$AA?$AA@ 100de228     LIBCMTD:wassert.obj
 0003:00006240       ??_C@_1FM@LKICECBD@?$AAw?$AAc?$AAs?$AAc?$AAa?$AAt?$AA_?$AAs?$AA?$CI?$AA?5?$AAa?$AAs?$AAs?$AAe?$AAr?$AAt?$AAb?$AAu?$AAf?$AA?0?$AA?5?$AA?$CI?$AA6?$AA0?$AA?5?$AA?$CK?$AA?5?$AA9?$AA?$CJ?$AA?0?$AA?5?$AAL@ 100de240     LIBCMTD:wassert.obj
 0003:000062b0       ??_C@_1FI@JIGMFG@?$AAw?$AAc?$AAs?$AAc?$AAa?$AAt?$AA_?$AAs?$AA?$CI?$AA?5?$AAa?$AAs?$AAs?$AAe?$AAr?$AAt?$AAb?$AAu?$AAf?$AA?0?$AA?5?$AA?$CI?$AA6?$AA0?$AA?5?$AA?$CK?$AA?5?$AA9?$AA?$CJ?$AA?0?$AA?5?$AAd@ 100de2b0     LIBCMTD:wassert.obj
 0003:0000631c       ??_C@_1CE@OJBNHDMO@?$AAA?$AAs?$AAs?$AAe?$AAr?$AAt?$AAi?$AAo?$AAn?$AA?5?$AAf?$AAa?$AAi?$AAl?$AAe?$AAd?$AA?$CB?$AA?$AA@ 100de31c     LIBCMTD:wassert.obj
 0003:00006348       ??_C@_1GM@EFCJNBAA@?$AAw?$AAc?$AAs?$AAc?$AAp?$AAy?$AA_?$AAs?$AA?$CI?$AA?5?$AAa?$AAs?$AAs?$AAe?$AAr?$AAt?$AAb?$AAu?$AAf?$AA?0?$AA?5?$AA?$CI?$AA6?$AA0?$AA?5?$AA?$CK?$AA?5?$AA9?$AA?$CJ?$AA?0?$AA?5?$AAL@ 100de348     LIBCMTD:wassert.obj
 0003:000063cc       ??_C@_1BC@LNOOMFNA@?$AA_?$AAw?$AAa?$AAs?$AAs?$AAe?$AAr?$AAt?$AA?$AA@ 100de3cc     LIBCMTD:wassert.obj
 0003:000063e8       ??_C@_1GA@COEIABIF@?$AAf?$AA?3?$AA?2?$AAd?$AAd?$AA?2?$AAv?$AAc?$AAt?$AAo?$AAo?$AAl?$AAs?$AA?2?$AAc?$AAr?$AAt?$AA_?$AAb?$AAl?$AAd?$AA?2?$AAs?$AAe?$AAl?$AAf?$AA_?$AAx?$AA8?$AA6?$AA?2?$AAc@ 100de3e8     LIBCMTD:wassert.obj
 0003:0000645c       ??_C@_0DC@EFKEANPM@f?3?2dd?2vctools?2crt_bld?2self_x86?2c@ 100de45c     LIBCMTD:threadex.obj
 0003:00006498       ??_C@_1BO@FIKPNENM@?$AA_?$AAb?$AAe?$AAg?$AAi?$AAn?$AAt?$AAh?$AAr?$AAe?$AAa?$AAd?$AAe?$AAx?$AA?$AA@ 100de498     LIBCMTD:threadex.obj
 0003:000064c0       ??_C@_1GE@KFNOMGAL@?$AAf?$AA?3?$AA?2?$AAd?$AAd?$AA?2?$AAv?$AAc?$AAt?$AAo?$AAo?$AAl?$AAs?$AA?2?$AAc?$AAr?$AAt?$AA_?$AAb?$AAl?$AAd?$AA?2?$AAs?$AAe?$AAl?$AAf?$AA_?$AAx?$AA8?$AA6?$AA?2?$AAc@ 100de4c0     LIBCMTD:threadex.obj
 0003:00006538       ??_C@_1CI@JCFHILLH@?$AAi?$AAn?$AAi?$AAt?$AAi?$AAa?$AAl?$AAc?$AAo?$AAd?$AAe?$AA?5?$AA?$CB?$AA?$DN?$AA?5?$AAN?$AAU?$AAL?$AAL?$AA?$AA@ 100de538     LIBCMTD:threadex.obj
 0003:00006594       ??_7exception@std@@6B@     100de594     LIBCMTD:stdexcpt.obj
 0003:000065a0       ??_C@_0BC@EOODALEL@Unknown?5exception?$AA@ 100de5a0     LIBCMTD:stdexcpt.obj
 0003:000065bc       ??_7bad_cast@std@@6B@      100de5bc     LIBCMTD:stdexcpt.obj
 0003:000065cc       ??_7bad_typeid@std@@6B@    100de5cc     LIBCMTD:stdexcpt.obj
 0003:000065dc       ??_7__non_rtti_object@std@@6B@ 100de5dc     LIBCMTD:stdexcpt.obj
 0003:000065e8       ??_C@_1CK@DDKKOLAN@?$AAs?$AAi?$AAz?$AAe?$AAI?$AAn?$AAB?$AAy?$AAt?$AAe?$AAs?$AA?5?$AA?$DO?$AA?$DN?$AA?5?$AAc?$AAo?$AAu?$AAn?$AAt?$AA?$AA@ 100de5e8     LIBCMTD:memcpy_s.obj
 0003:0000661c       ??_C@_1BI@DCHLDCPP@?$AAs?$AAr?$AAc?$AA?5?$AA?$CB?$AA?$DN?$AA?5?$AAN?$AAU?$AAL?$AAL?$AA?$AA@ 100de61c     LIBCMTD:memcpy_s.obj
 0003:00006638       ??_C@_1BC@GKHDJMGB@?$AAm?$AAe?$AAm?$AAc?$AAp?$AAy?$AA_?$AAs?$AA?$AA@ 100de638     LIBCMTD:memcpy_s.obj
 0003:00006650       ??_C@_1GE@NEOPGGBM@?$AAf?$AA?3?$AA?2?$AAd?$AAd?$AA?2?$AAv?$AAc?$AAt?$AAo?$AAo?$AAl?$AAs?$AA?2?$AAc?$AAr?$AAt?$AA_?$AAb?$AAl?$AAd?$AA?2?$AAs?$AAe?$AAl?$AAf?$AA_?$AAx?$AA8?$AA6?$AA?2?$AAc@ 100de650     LIBCMTD:memcpy_s.obj
 0003:000066c8       ??_C@_1BI@GKKCBDMD@?$AAd?$AAs?$AAt?$AA?5?$AA?$CB?$AA?$DN?$AA?5?$AAN?$AAU?$AAL?$AAL?$AA?$AA@ 100de6c8     LIBCMTD:memcpy_s.obj
 0003:000066e4       ??_C@_1BE@NMKKBGPA@?$AAm?$AAe?$AAm?$AAm?$AAo?$AAv?$AAe?$AA_?$AAs?$AA?$AA@ 100de6e4     LIBCMTD:memmove_s.obj
 0003:00006700       ??_C@_1GG@JKNLCIHH@?$AAf?$AA?3?$AA?2?$AAd?$AAd?$AA?2?$AAv?$AAc?$AAt?$AAo?$AAo?$AAl?$AAs?$AA?2?$AAc?$AAr?$AAt?$AA_?$AAb?$AAl?$AAd?$AA?2?$AAs?$AAe?$AAl?$AAf?$AA_?$AAx?$AA8?$AA6?$AA?2?$AAc@ 100de700     LIBCMTD:memmove_s.obj
 0003:0000677c       ??_C@_1O@EGMJNCOI@?$AAf?$AAc?$AAl?$AAo?$AAs?$AAe?$AA?$AA@ 100de77c     LIBCMTD:fclose.obj
 0003:00006790       ??_C@_1GA@KMIDAPAP@?$AAf?$AA?3?$AA?2?$AAd?$AAd?$AA?2?$AAv?$AAc?$AAt?$AAo?$AAo?$AAl?$AAs?$AA?2?$AAc?$AAr?$AAt?$AA_?$AAb?$AAl?$AAd?$AA?2?$AAs?$AAe?$AAl?$AAf?$AA_?$AAx?$AA8?$AA6?$AA?2?$AAc@ 100de790     LIBCMTD:fclose.obj
 0003:00006804       ??_C@_1CC@FADMNIL@?$AA?$CI?$AAs?$AAt?$AAr?$AAe?$AAa?$AAm?$AA?5?$AA?$CB?$AA?$DN?$AA?5?$AAN?$AAU?$AAL?$AAL?$AA?$CJ?$AA?$AA@ 100de804     LIBCMTD:fclose.obj
 0003:0000682c       ??_C@_1BO@JINCABEC@?$AA_?$AAf?$AAc?$AAl?$AAo?$AAs?$AAe?$AA_?$AAn?$AAo?$AAl?$AAo?$AAc?$AAk?$AA?$AA@ 100de82c     LIBCMTD:fclose.obj
 0003:00006850       ??_C@_1BM@JMKHIAHP@?$AA?$CI?$AAs?$AAt?$AAr?$AA?5?$AA?$CB?$AA?$DN?$AA?5?$AAN?$AAU?$AAL?$AAL?$AA?$CJ?$AA?$AA@ 100de850     LIBCMTD:fclose.obj
 0003:00006878       ??_C@_1BAA@ODEGEDCK@?$AA?$CI?$AA?5?$AA?$CI?$AA_?$AAS?$AAt?$AAr?$AAe?$AAa?$AAm?$AA?9?$AA?$DO?$AA_?$AAf?$AAl?$AAa?$AAg?$AA?5?$AA?$CG?$AA?5?$AA_?$AAI?$AAO?$AAS?$AAT?$AAR?$AAG?$AA?$CJ?$AA?5?$AA?$HM?$AA?$HM?$AA?5@ 100de878     LIBCMTD:fscanf.obj
 0003:000069ac       ??_C@_1CC@MGIEJOME@?$AA?$CI?$AAf?$AAo?$AAr?$AAm?$AAa?$AAt?$AA?5?$AA?$CB?$AA?$DN?$AA?5?$AAN?$AAU?$AAL?$AAL?$AA?$CJ?$AA?$AA@ 100de9ac     LIBCMTD:fscanf.obj
 0003:000069d4       ??_C@_1BA@LCFKCAGP@?$AAv?$AAf?$AAs?$AAc?$AAa?$AAn?$AAf?$AA?$AA@ 100de9d4     LIBCMTD:fscanf.obj
 0003:000069e8       ??_C@_1GA@KJNOFLMC@?$AAf?$AA?3?$AA?2?$AAd?$AAd?$AA?2?$AAv?$AAc?$AAt?$AAo?$AAo?$AAl?$AAs?$AA?2?$AAc?$AAr?$AAt?$AA_?$AAb?$AAl?$AAd?$AA?2?$AAs?$AAe?$AAl?$AAf?$AA_?$AAx?$AA8?$AA6?$AA?2?$AAc@ 100de9e8     LIBCMTD:fscanf.obj
 0003:00006a5c       ??_C@_1CA@EHPEFHFN@?$AA?$CI?$AA?5?$AAs?$AAt?$AAr?$AA?5?$AA?$CB?$AA?$DN?$AA?5?$AAN?$AAU?$AAL?$AAL?$AA?5?$AA?$CJ?$AA?$AA@ 100dea5c     LIBCMTD:fgets.obj
 0003:00006a84       ??_C@_1BO@CLMMCNLO@?$AA?$CI?$AA?5?$AAc?$AAo?$AAu?$AAn?$AAt?$AA?5?$AA?$DO?$AA?$DN?$AA?5?$AA0?$AA?5?$AA?$CJ?$AA?$AA@ 100dea84     LIBCMTD:fgets.obj
 0003:00006aa8       ??_C@_1M@BEMABAL@?$AAf?$AAg?$AAe?$AAt?$AAs?$AA?$AA@ 100deaa8     LIBCMTD:fgets.obj
 0003:00006ab8       ??_C@_1FO@FKDDHLBI@?$AAf?$AA?3?$AA?2?$AAd?$AAd?$AA?2?$AAv?$AAc?$AAt?$AAo?$AAo?$AAl?$AAs?$AA?2?$AAc?$AAr?$AAt?$AA_?$AAb?$AAl?$AAd?$AA?2?$AAs?$AAe?$AAl?$AAf?$AA_?$AAx?$AA8?$AA6?$AA?2?$AAc@ 100deab8     LIBCMTD:fgets.obj
 0003:00006b28       ??_C@_1EK@KICPAPCG@?$AA?$CI?$AA?5?$AAs?$AAt?$AAr?$AAi?$AAn?$AAg?$AA?5?$AA?$CB?$AA?$DN?$AA?5?$AAN?$AAU?$AAL?$AAL?$AA?5?$AA?$CJ?$AA?5?$AA?$HM?$AA?$HM?$AA?5?$AA?$CI?$AA?5?$AAc?$AAo?$AAu?$AAn?$AAt?$AA?5?$AA?$DN?$AA?$DN@ 100deb28     LIBCMTD:fgets.obj
 0003:00006b80       ??_C@_1CI@HBNALCBB@?$AA?$CI?$AA?$CK?$AAm?$AAo?$AAd?$AAe?$AA?5?$AA?$CB?$AA?$DN?$AA?5?$AA_?$AAT?$AA?$CI?$AA?8?$AA?2?$AA0?$AA?8?$AA?$CJ?$AA?$CJ?$AA?$AA@ 100deb80     LIBCMTD:wfopen.obj
 0003:00006bb0       ??_C@_1BO@MJMKAKCJ@?$AA?$CI?$AAm?$AAo?$AAd?$AAe?$AA?5?$AA?$CB?$AA?$DN?$AA?5?$AAN?$AAU?$AAL?$AAL?$AA?$CJ?$AA?$AA@ 100debb0     LIBCMTD:wfopen.obj
 0003:00006bd4       ??_C@_1BC@PAJNLEOB@?$AA_?$AAw?$AAf?$AAs?$AAo?$AAp?$AAe?$AAn?$AA?$AA@ 100debd4     LIBCMTD:wfopen.obj
 0003:00006bf0       ??_C@_1FO@NCADDBOO@?$AAf?$AA?3?$AA?2?$AAd?$AAd?$AA?2?$AAv?$AAc?$AAt?$AAo?$AAo?$AAl?$AAs?$AA?2?$AAc?$AAr?$AAt?$AA_?$AAb?$AAl?$AAd?$AA?2?$AAs?$AAe?$AAl?$AAf?$AA_?$AAx?$AA8?$AA6?$AA?2?$AAc@ 100debf0     LIBCMTD:wfopen.obj
 0003:00006c60       ??_C@_1BO@CLGIAEOJ@?$AA?$CI?$AAf?$AAi?$AAl?$AAe?$AA?5?$AA?$CB?$AA?$DN?$AA?5?$AAN?$AAU?$AAL?$AAL?$AA?$CJ?$AA?$AA@ 100dec60     LIBCMTD:wfopen.obj
 0003:00006c84       ??_C@_1BE@JDODBHOJ@?$AA_?$AAw?$AAf?$AAo?$AAp?$AAe?$AAn?$AA_?$AAs?$AA?$AA@ 100dec84     LIBCMTD:wfopen.obj
 0003:00006c9c       ??_C@_1CA@LLJLFCDN@?$AA?$CI?$AAp?$AAf?$AAi?$AAl?$AAe?$AA?5?$AA?$CB?$AA?$DN?$AA?5?$AAN?$AAU?$AAL?$AAL?$AA?$CJ?$AA?$AA@ 100dec9c     LIBCMTD:wfopen.obj
 0003:00006cc4       ??_C@_1BA@DNOHIGNM@?$AAf?$AAp?$AAr?$AAi?$AAn?$AAt?$AAf?$AA?$AA@ 100decc4     LIBCMTD:fprintf.obj
 0003:00006cd8       ??_C@_1GC@NHJDDBOH@?$AAf?$AA?3?$AA?2?$AAd?$AAd?$AA?2?$AAv?$AAc?$AAt?$AAo?$AAo?$AAl?$AAs?$AA?2?$AAc?$AAr?$AAt?$AA_?$AAb?$AAl?$AAd?$AA?2?$AAs?$AAe?$AAl?$AAf?$AA_?$AAx?$AA8?$AA6?$AA?2?$AAc@ 100decd8     LIBCMTD:fprintf.obj
 0003:00006d50       ??_C@_0CP@BNKDODJJ@f?3?2dd?2vctools?2crt_bld?2self_x86?2c@ 100ded50     LIBCMTD:_file.obj
 0003:00006d88       ??_C@_1EC@FABAOFFO@?$AA?$CI?$AAc?$AAo?$AAu?$AAn?$AAt?$AA?5?$AA?$DN?$AA?$DN?$AA?5?$AA0?$AA?$CJ?$AA?5?$AA?$HM?$AA?$HM?$AA?5?$AA?$CI?$AAs?$AAt?$AAr?$AAi?$AAn?$AAg?$AA?5?$AA?$CB?$AA?$DN?$AA?5?$AAN?$AAU?$AAL?$AAL?$AA?$CJ@ 100ded88     LIBCMTD:snwprint.obj
 0003:00006dd8       ??_C@_1BG@BAJEGOIL@?$AA_?$AAs?$AAn?$AAw?$AAp?$AAr?$AAi?$AAn?$AAt?$AAf?$AA?$AA@ 100dedd8     LIBCMTD:snwprint.obj
 0003:00006df8       ??_C@_1GE@DKGHLBLP@?$AAf?$AA?3?$AA?2?$AAd?$AAd?$AA?2?$AAv?$AAc?$AAt?$AAo?$AAo?$AAl?$AAs?$AA?2?$AAc?$AAr?$AAt?$AA_?$AAb?$AAl?$AAd?$AA?2?$AAs?$AAe?$AAl?$AAf?$AA_?$AAx?$AA8?$AA6?$AA?2?$AAc@ 100dedf8     LIBCMTD:snwprint.obj
 0003:00006e70       ??_C@_1BE@CHNFPLHD@?$AA_?$AAs?$AAn?$AAp?$AAr?$AAi?$AAn?$AAt?$AAf?$AA?$AA@ 100dee70     LIBCMTD:snprintf.obj
 0003:00006e88       ??_C@_1GC@BMNPEKNN@?$AAf?$AA?3?$AA?2?$AAd?$AAd?$AA?2?$AAv?$AAc?$AAt?$AAo?$AAo?$AAl?$AAs?$AA?2?$AAc?$AAr?$AAt?$AA_?$AAb?$AAl?$AAd?$AA?2?$AAs?$AAe?$AAl?$AAf?$AA_?$AAx?$AA8?$AA6?$AA?2?$AAc@ 100dee88     LIBCMTD:snprintf.obj
 0003:00006f00       ??_C@_1BK@FHMHFMNL@?$AA_?$AAv?$AAs?$AAn?$AAp?$AAr?$AAi?$AAn?$AAt?$AAf?$AA_?$AAl?$AA?$AA@ 100def00     LIBCMTD:vsnprint.obj
 0003:00006f20       ??_C@_1GE@DPADKNCG@?$AAf?$AA?3?$AA?2?$AAd?$AAd?$AA?2?$AAv?$AAc?$AAt?$AAo?$AAo?$AAl?$AAs?$AA?2?$AAc?$AAr?$AAt?$AA_?$AAb?$AAl?$AAd?$AA?2?$AAs?$AAe?$AAl?$AAf?$AA_?$AAx?$AA8?$AA6?$AA?2?$AAc@ 100def20     LIBCMTD:vsnprint.obj
 0003:00006f98       ??_C@_1BM@JBFIAFJJ@?$AA_?$AAv?$AAs?$AAn?$AAw?$AAp?$AAr?$AAi?$AAn?$AAt?$AAf?$AA_?$AAl?$AA?$AA@ 100def98     LIBCMTD:vsnwprnt.obj
 0003:00006fc0       ??_C@_1GE@KINELFI@?$AAf?$AA?3?$AA?2?$AAd?$AAd?$AA?2?$AAv?$AAc?$AAt?$AAo?$AAo?$AAl?$AAs?$AA?2?$AAc?$AAr?$AAt?$AA_?$AAb?$AAl?$AAd?$AA?2?$AAs?$AAe?$AAl?$AAf?$AA_?$AAx?$AA8?$AA6?$AA?2?$AAc@ 100defc0     LIBCMTD:vsnwprnt.obj
 0003:00007038       ??_C@_1CC@OLIJCKA@?$AA?$CI?$AAs?$AAt?$AAr?$AAi?$AAn?$AAg?$AA?5?$AA?$CB?$AA?$DN?$AA?5?$AAN?$AAU?$AAL?$AAL?$AA?$CJ?$AA?$AA@ 100df038     LIBCMTD:sprintf.obj
 0003:00007060       ??_C@_1BA@KBJJGFFE@?$AAs?$AAp?$AAr?$AAi?$AAn?$AAt?$AAf?$AA?$AA@ 100df060     LIBCMTD:sprintf.obj
 0003:00007074       ??_C@_1BG@EELGPCPD@?$AA_?$AAw?$AAc?$AAs?$AAi?$AAc?$AAm?$AAp?$AA_?$AAl?$AA?$AA@ 100df074     LIBCMTD:wcsicmp.obj
 0003:00007090       ??_C@_1GC@MHLPCCAP@?$AAf?$AA?3?$AA?2?$AAd?$AAd?$AA?2?$AAv?$AAc?$AAt?$AAo?$AAo?$AAl?$AAs?$AA?2?$AAc?$AAr?$AAt?$AA_?$AAb?$AAl?$AAd?$AA?2?$AAs?$AAe?$AAl?$AAf?$AA_?$AAx?$AA8?$AA6?$AA?2?$AAc@ 100df090     LIBCMTD:wcsicmp.obj
 0003:00007108       ??_C@_1BC@NHIBDOMC@?$AA_?$AAw?$AAc?$AAs?$AAi?$AAc?$AAm?$AAp?$AA?$AA@ 100df108     LIBCMTD:wcsicmp.obj
 0003:00007120       __pDefaultRawDllMain       100df120     LIBCMTD:dllcrt0.obj
 0003:00007120       __pRawDllMain              100df120     LIBCMTD:dllcrt0.obj
 0003:00007124       ??_C@_0DB@OLNOAEGF@f?3?2dd?2vctools?2crt_bld?2self_x86?2c@ 100df124     LIBCMTD:dllcrt0.obj
 0003:00007160       ??_C@_0DA@HMCPFNKN@f?3?2dd?2vctools?2crt_bld?2self_x86?2c@ 100df160     LIBCMTD:onexit.obj
 0003:0000719c       ??_C@_06PJIGMIJB@Client?$AA@ 100df19c     LIBCMTD:dbgheap.obj
 0003:000071a4       ??_C@_06KMEJCCGM@Ignore?$AA@ 100df1a4     LIBCMTD:dbgheap.obj
 0003:000071ac       ??_C@_03OGPFLFLO@CRT?$AA@  100df1ac     LIBCMTD:dbgheap.obj
 0003:000071b0       ??_C@_06EFAGIKOH@Normal?$AA@ 100df1b0     LIBCMTD:dbgheap.obj
 0003:000071b8       ??_C@_04HJMOFLDF@Free?$AA@ 100df1b8     LIBCMTD:dbgheap.obj
 0003:000071d8       ??_C@_0DC@JEMAGEKG@Error?3?5memory?5allocation?3?5bad?5me@ 100df1d8     LIBCMTD:dbgheap.obj
 0003:00007214       ??_C@_0CF@BICKFLAF@Invalid?5allocation?5size?3?5?$CFIu?5byt@ 100df214     LIBCMTD:dbgheap.obj
 0003:00007240       ??_C@_0CB@CCLOLAHO@Client?5hook?5allocation?5failure?4?6@ 100df240     LIBCMTD:dbgheap.obj
 0003:00007268       ??_C@_0DF@BBEGIFEK@Client?5hook?5allocation?5failure?5a@ 100df268     LIBCMTD:dbgheap.obj
 0003:000072a8       ??_C@_1GC@DNJKKEAA@?$AAf?$AA?3?$AA?2?$AAd?$AAd?$AA?2?$AAv?$AAc?$AAt?$AAo?$AAo?$AAl?$AAs?$AA?2?$AAc?$AAr?$AAt?$AA_?$AAb?$AAl?$AAd?$AA?2?$AAs?$AAe?$AAl?$AAf?$AA_?$AAx?$AA8?$AA6?$AA?2?$AAc@ 100df2a8     LIBCMTD:dbgheap.obj
 0003:00007320       ??_C@_1CE@LJFEPPMP@?$AA_?$AAC?$AAr?$AAt?$AAC?$AAh?$AAe?$AAc?$AAk?$AAM?$AAe?$AAm?$AAo?$AAr?$AAy?$AA?$CI?$AA?$CJ?$AA?$AA@ 100df320     LIBCMTD:dbgheap.obj
 0003:0000734c       ??_C@_1CC@CKBDKDFF@?$AA_?$AAc?$AAa?$AAl?$AAl?$AAo?$AAc?$AA_?$AAd?$AAb?$AAg?$AA_?$AAi?$AAm?$AAp?$AAl?$AA?$AA@ 100df34c     LIBCMTD:dbgheap.obj
 0003:00007374       ??_C@_1DO@MEOGCGBN@?$AA?$CI?$AA_?$AAH?$AAE?$AAA?$AAP?$AA_?$AAM?$AAA?$AAX?$AAR?$AAE?$AAQ?$AA?5?$AA?1?$AA?5?$AAn?$AAN?$AAu?$AAm?$AA?$CJ?$AA?5?$AA?$DO?$AA?$DN?$AA?5?$AAn?$AAS?$AAi?$AAz?$AAe?$AA?$AA@ 100df374     LIBCMTD:dbgheap.obj
 0003:000073c0       ??_C@_1DE@KOOKLFBB@?$AA_?$AAp?$AAF?$AAi?$AAr?$AAs?$AAt?$AAB?$AAl?$AAo?$AAc?$AAk?$AA?5?$AA?$DN?$AA?$DN?$AA?5?$AAp?$AAO?$AAl?$AAd?$AAB?$AAl?$AAo?$AAc?$AAk?$AA?$AA@ 100df3c0     LIBCMTD:dbgheap.obj
 0003:00007400       ??_C@_1DC@GEFKNOOL@?$AA_?$AAp?$AAL?$AAa?$AAs?$AAt?$AAB?$AAl?$AAo?$AAc?$AAk?$AA?5?$AA?$DN?$AA?$DN?$AA?5?$AAp?$AAO?$AAl?$AAd?$AAB?$AAl?$AAo?$AAc?$AAk?$AA?$AA@ 100df400     LIBCMTD:dbgheap.obj
 0003:00007440       ??_C@_1GE@PCKLOLAO@?$AAf?$AAR?$AAe?$AAa?$AAl?$AAl?$AAo?$AAc?$AA?5?$AA?$HM?$AA?$HM?$AA?5?$AA?$CI?$AA?$CB?$AAf?$AAR?$AAe?$AAa?$AAl?$AAl?$AAo?$AAc?$AA?5?$AA?$CG?$AA?$CG?$AA?5?$AAp?$AAN?$AAe?$AAw?$AAB?$AAl@ 100df440     LIBCMTD:dbgheap.obj
 0003:000074b8       ??_C@_0DA@HFBKENN@Error?3?5possible?5heap?5corruption?5@ 100df4b8     LIBCMTD:dbgheap.obj
 0003:000074f8       ??_C@_1IK@DCPKDGNH@?$AAp?$AAO?$AAl?$AAd?$AAB?$AAl?$AAo?$AAc?$AAk?$AA?9?$AA?$DO?$AAn?$AAL?$AAi?$AAn?$AAe?$AA?5?$AA?$DN?$AA?$DN?$AA?5?$AAI?$AAG?$AAN?$AAO?$AAR?$AAE?$AA_?$AAL?$AAI?$AAN?$AAE?$AA?5@ 100df4f8     LIBCMTD:dbgheap.obj
 0003:000075a0       ??_C@_1EE@GFOPCECE@?$AA_?$AAC?$AAr?$AAt?$AAI?$AAs?$AAV?$AAa?$AAl?$AAi?$AAd?$AAH?$AAe?$AAa?$AAp?$AAP?$AAo?$AAi?$AAn?$AAt?$AAe?$AAr?$AA?$CI?$AAp?$AAU?$AAs?$AAe?$AAr?$AAD?$AAa?$AAt?$AAa@ 100df5a0     LIBCMTD:dbgheap.obj
 0003:000075f8       ??_C@_0EM@LGFLMAGJ@The?5Block?5at?50x?$CFp?5was?5allocated?5@ 100df5f8     LIBCMTD:dbgheap.obj
 0003:00007658       ??_C@_0FA@EFEIGJKG@Error?3?5memory?5allocation?3?5bad?5me@ 100df658     LIBCMTD:dbgheap.obj
 0003:000076b8       ??_C@_0ED@GPCPBAGP@Invalid?5allocation?5size?3?5?$CFIu?5byt@ 100df6b8     LIBCMTD:dbgheap.obj
 0003:00007708       ??_C@_0CE@DOFMDOL@Client?5hook?5re?9allocation?5failur@ 100df708     LIBCMTD:dbgheap.obj
 0003:00007734       ??_C@_0DI@KKJPDPGM@Client?5hook?5re?9allocation?5failur@ 100df734     LIBCMTD:dbgheap.obj
 0003:00007778       ??_C@_1BM@OKFKJCEN@?$AA_?$AAr?$AAe?$AAc?$AAa?$AAl?$AAl?$AAo?$AAc?$AA_?$AAd?$AAb?$AAg?$AA?$AA@ 100df778     LIBCMTD:dbgheap.obj
 0003:0000779c       ??_C@_1DO@GOKJCEHJ@?$AA?$CI?$AA_?$AAH?$AAE?$AAA?$AAP?$AA_?$AAM?$AAA?$AAX?$AAR?$AAE?$AAQ?$AA?5?$AA?1?$AA?5?$AAc?$AAo?$AAu?$AAn?$AAt?$AA?$CJ?$AA?5?$AA?$DO?$AA?$DN?$AA?5?$AAs?$AAi?$AAz?$AAe?$AA?$AA@ 100df79c     LIBCMTD:dbgheap.obj
 0003:000077e8       ??_C@_1BI@HAPNGHDP@?$AA_?$AAe?$AAx?$AAp?$AAa?$AAn?$AAd?$AA_?$AAd?$AAb?$AAg?$AA?$AA@ 100df7e8     LIBCMTD:dbgheap.obj
 0003:00007804       ??_C@_1CE@CJACEFBA@?$AAp?$AAU?$AAs?$AAe?$AAr?$AAD?$AAa?$AAt?$AAa?$AA?5?$AA?$CB?$AA?$DN?$AA?5?$AAN?$AAU?$AAL?$AAL?$AA?$AA@ 100df804     LIBCMTD:dbgheap.obj
 0003:00007830       ??_C@_1CM@MMAADDMD@?$AA_?$AAp?$AAF?$AAi?$AAr?$AAs?$AAt?$AAB?$AAl?$AAo?$AAc?$AAk?$AA?5?$AA?$DN?$AA?$DN?$AA?5?$AAp?$AAH?$AAe?$AAa?$AAd?$AA?$AA@ 100df830     LIBCMTD:dbgheap.obj
 0003:00007864       ??_C@_1CK@DMAGEMBG@?$AA_?$AAp?$AAL?$AAa?$AAs?$AAt?$AAB?$AAl?$AAo?$AAc?$AAk?$AA?5?$AA?$DN?$AA?$DN?$AA?5?$AAp?$AAH?$AAe?$AAa?$AAd?$AA?$AA@ 100df864     LIBCMTD:dbgheap.obj
 0003:00007898       ??_C@_1DM@ODCJIDCP@?$AAp?$AAH?$AAe?$AAa?$AAd?$AA?9?$AA?$DO?$AAn?$AAB?$AAl?$AAo?$AAc?$AAk?$AAU?$AAs?$AAe?$AA?5?$AA?$DN?$AA?$DN?$AA?5?$AAn?$AAB?$AAl?$AAo?$AAc?$AAk?$AAU?$AAs?$AAe?$AA?$AA@ 100df898     LIBCMTD:dbgheap.obj
 0003:000078e0       ??_C@_1HK@HPCBMDFG@?$AAp?$AAH?$AAe?$AAa?$AAd?$AA?9?$AA?$DO?$AAn?$AAL?$AAi?$AAn?$AAe?$AA?5?$AA?$DN?$AA?$DN?$AA?5?$AAI?$AAG?$AAN?$AAO?$AAR?$AAE?$AA_?$AAL?$AAI?$AAN?$AAE?$AA?5?$AA?$CG?$AA?$CG?$AA?5?$AAp@ 100df8e0     LIBCMTD:dbgheap.obj
 0003:00007978       ??_C@_0IG@LEMBDCJK@HEAP?5CORRUPTION?5DETECTED?3?5after?5@ 100df978     LIBCMTD:dbgheap.obj
 0003:00007a18       ??_C@_0KE@MBMNHHHN@HEAP?5CORRUPTION?5DETECTED?3?5after?5@ 100dfa18     LIBCMTD:dbgheap.obj
 0003:00007ae0       ??_C@_0IK@PJCGLBOB@HEAP?5CORRUPTION?5DETECTED?3?5before@ 100dfae0     LIBCMTD:dbgheap.obj
 0003:00007b88       ??_C@_0KI@JGFOHMEB@HEAP?5CORRUPTION?5DETECTED?3?5before@ 100dfb88     LIBCMTD:dbgheap.obj
 0003:00007c54       ??_C@_0BL@KEIPLFAC@Client?5hook?5free?5failure?4?6?$AA@ 100dfc54     LIBCMTD:dbgheap.obj
 0003:00007c78       ??_C@_0EJ@HEIBCIMJ@The?5Block?5at?50x?$CFp?5was?5allocated?5@ 100dfc78     LIBCMTD:dbgheap.obj
 0003:00007cd0       ??_C@_1BG@MBKOGDLD@?$AA_?$AAm?$AAs?$AAi?$AAz?$AAe?$AA_?$AAd?$AAb?$AAg?$AA?$AA@ 100dfcd0     LIBCMTD:dbgheap.obj
 0003:00007cec       ??_C@_0CI@JMLBEDHJ@?$CFhs?5located?5at?50x?$CFp?5is?5?$CFIu?5bytes@ 100dfcec     LIBCMTD:dbgheap.obj
 0003:00007d20       ??_C@_0EG@DGJMPDBH@?$CFhs?5located?5at?50x?$CFp?5is?5?$CFIu?5bytes@ 100dfd20     LIBCMTD:dbgheap.obj
 0003:00007d78       ??_C@_0IC@BBJIOOJH@HEAP?5CORRUPTION?5DETECTED?3?5on?5top@ 100dfd78     LIBCMTD:dbgheap.obj
 0003:00007e18       ??_C@_0KA@IHNJJKPL@HEAP?5CORRUPTION?5DETECTED?3?5on?5top@ 100dfe18     LIBCMTD:dbgheap.obj
 0003:00007ed8       ??_C@_07OHKEFPKJ@DAMAGED?$AA@ 100dfed8     LIBCMTD:dbgheap.obj
 0003:00007ee4       ??_C@_0CL@HNNNMKMJ@_heapchk?5fails?5with?5unknown?5retu@ 100dfee4     LIBCMTD:dbgheap.obj
 0003:00007f18       ??_C@_0CC@MFFCHFHO@_heapchk?5fails?5with?5_HEAPBADPTR?4@ 100dff18     LIBCMTD:dbgheap.obj
 0003:00007f40       ??_C@_0CC@MJGLGBDG@_heapchk?5fails?5with?5_HEAPBADEND?4@ 100dff40     LIBCMTD:dbgheap.obj
 0003:00007f68       ??_C@_0CD@CPKEAPBD@_heapchk?5fails?5with?5_HEAPBADNODE@ 100dff68     LIBCMTD:dbgheap.obj
 0003:00007f94       ??_C@_0CE@MKKHMBMK@_heapchk?5fails?5with?5_HEAPBADBEGI@ 100dff94     LIBCMTD:dbgheap.obj
 0003:00007fc0       ??_C@_1BO@GJFDNMNF@?$AA_?$AAC?$AAr?$AAt?$AAS?$AAe?$AAt?$AAD?$AAb?$AAg?$AAF?$AAl?$AAa?$AAg?$AA?$AA@ 100dffc0     LIBCMTD:dbgheap.obj
 0003:00007fe8       ??_C@_1BHO@NNANJNF@?$AA?$CI?$AAf?$AAN?$AAe?$AAw?$AAB?$AAi?$AAt?$AAs?$AA?$DN?$AA?$DN?$AA_?$AAC?$AAR?$AAT?$AAD?$AAB?$AAG?$AA_?$AAR?$AAE?$AAP?$AAO?$AAR?$AAT?$AA_?$AAF?$AAL?$AAA?$AAG?$AA?$CJ?$AA?5@ 100dffe8     LIBCMTD:dbgheap.obj
 0003:000081b4       ??_C@_1DE@GJCKCKEC@?$AA_?$AAC?$AAr?$AAt?$AAD?$AAo?$AAF?$AAo?$AAr?$AAA?$AAl?$AAl?$AAC?$AAl?$AAi?$AAe?$AAn?$AAt?$AAO?$AAb?$AAj?$AAe?$AAc?$AAt?$AAs?$AA?$AA@ 100e01b4     LIBCMTD:dbgheap.obj
 0003:000081f4       ??_C@_1BI@CJGCEEDL@?$AAp?$AAf?$AAn?$AA?5?$AA?$CB?$AA?$DN?$AA?5?$AAN?$AAU?$AAL?$AAL?$AA?$AA@ 100e01f4     LIBCMTD:dbgheap.obj
 0003:00008210       ??_C@_0CB@EAAIGELO@Bad?5memory?5block?5found?5at?50x?$CFp?4?6@ 100e0210     LIBCMTD:dbgheap.obj
 0003:00008238       ??_C@_0DP@LEFMFBOD@Bad?5memory?5block?5found?5at?50x?$CFp?4?6@ 100e0238     LIBCMTD:dbgheap.obj
 0003:00008284       ??_C@_1CE@NJJKELF@?$AA_?$AAC?$AAr?$AAt?$AAM?$AAe?$AAm?$AAC?$AAh?$AAe?$AAc?$AAk?$AAp?$AAo?$AAi?$AAn?$AAt?$AA?$AA@ 100e0284     LIBCMTD:dbgheap.obj
 0003:000082b0       ??_C@_1BM@MIMANDHC@?$AAs?$AAt?$AAa?$AAt?$AAe?$AA?5?$AA?$CB?$AA?$DN?$AA?5?$AAN?$AAU?$AAL?$AAL?$AA?$AA@ 100e02b0     LIBCMTD:dbgheap.obj
 0003:000082d4       ??_C@_1CC@DFPEDFBP@?$AAn?$AAe?$AAw?$AAS?$AAt?$AAa?$AAt?$AAe?$AA?5?$AA?$CB?$AA?$DN?$AA?5?$AAN?$AAU?$AAL?$AAL?$AA?$AA@ 100e02d4     LIBCMTD:dbgheap.obj
 0003:000082fc       ??_C@_1CC@DHPFEMMN@?$AAo?$AAl?$AAd?$AAS?$AAt?$AAa?$AAt?$AAe?$AA?5?$AA?$CB?$AA?$DN?$AA?5?$AAN?$AAU?$AAL?$AAL?$AA?$AA@ 100e02fc     LIBCMTD:dbgheap.obj
 0003:00008324       ??_C@_1CE@PDIENACM@?$AA_?$AAC?$AAr?$AAt?$AAM?$AAe?$AAm?$AAD?$AAi?$AAf?$AAf?$AAe?$AAr?$AAe?$AAn?$AAc?$AAe?$AA?$AA@ 100e0324     LIBCMTD:dbgheap.obj
 0003:00008350       ??_C@_0BH@GFGKJDCO@Object?5dump?5complete?4?6?$AA@ 100e0350     LIBCMTD:dbgheap.obj
 0003:0000836c       ??_C@_0DA@MDLBNIBM@crt?5block?5at?50x?$CFp?0?5subtype?5?$CFx?0?5?$CF@ 100e036c     LIBCMTD:dbgheap.obj
 0003:000083a8       ??_C@_0CH@FAGDDGPN@normal?5block?5at?50x?$CFp?0?5?$CFIu?5bytes?5@ 100e03a8     LIBCMTD:dbgheap.obj
 0003:000083d8       ??_C@_0DD@GHNAAKBB@client?5block?5at?50x?$CFp?0?5subtype?5?$CFx@ 100e03d8     LIBCMTD:dbgheap.obj
 0003:00008418       ??_C@_06PKLGBFGM@?$HL?$CFld?$HN?5?$AA@ 100e0418     LIBCMTD:dbgheap.obj
 0003:00008420       ??_C@_0L@JMEFFCCJ@?$CFhs?$CI?$CFd?$CJ?5?3?5?$AA@ 100e0420     LIBCMTD:dbgheap.obj
 0003:00008430       ??_C@_0BE@OIEFNFL@?$CDFile?5Error?$CD?$CI?$CFd?$CJ?5?3?5?$AA@ 100e0430     LIBCMTD:dbgheap.obj
 0003:00008448       ??_C@_0BE@KCIPKCIA@Dumping?5objects?5?9?$DO?6?$AA@ 100e0448     LIBCMTD:dbgheap.obj
 0003:00008460       ??_C@_0BA@HJBKCELP@?5Data?3?5?$DM?$CFs?$DO?5?$CFs?6?$AA@ 100e0460     LIBCMTD:dbgheap.obj
 0003:00008474       ??_C@_1BI@KALLJECN@?$AA?$CI?$AA?$CK?$AA_?$AAe?$AAr?$AAr?$AAn?$AAo?$AA?$CI?$AA?$CJ?$AA?$CJ?$AA?$AA@ 100e0474     LIBCMTD:dbgheap.obj
 0003:00008490       ??_C@_1CG@LPFIACGM@?$AA_?$AAp?$AAr?$AAi?$AAn?$AAt?$AAM?$AAe?$AAm?$AAB?$AAl?$AAo?$AAc?$AAk?$AAD?$AAa?$AAt?$AAa?$AA?$AA@ 100e0490     LIBCMTD:dbgheap.obj
 0003:000084c0       ??_C@_05MKKEDADM@?$CF?42X?5?$AA@ 100e04c0     LIBCMTD:dbgheap.obj
 0003:000084c8       ??_C@_0BI@JBFPOEJA@Detected?5memory?5leaks?$CB?6?$AA@ 100e04c8     LIBCMTD:dbgheap.obj
 0003:000084e4       ??_C@_0BP@DEDHGGGI@Total?5allocations?3?5?$CFId?5bytes?4?6?$AA@ 100e04e4     LIBCMTD:dbgheap.obj
 0003:0000850c       ??_C@_0CB@BLHDAFNE@Largest?5number?5used?3?5?$CFId?5bytes?4?6@ 100e050c     LIBCMTD:dbgheap.obj
 0003:00008534       ??_C@_0BO@DACNIABB@?$CFId?5bytes?5in?5?$CFId?5?$CFhs?5Blocks?4?6?$AA@ 100e0534     LIBCMTD:dbgheap.obj
 0003:00008558       ??_C@_1CM@MPNIBKGK@?$AA_?$AAC?$AAr?$AAt?$AAM?$AAe?$AAm?$AAD?$AAu?$AAm?$AAp?$AAS?$AAt?$AAa?$AAt?$AAi?$AAs?$AAt?$AAi?$AAc?$AAs?$AA?$AA@ 100e0558     LIBCMTD:dbgheap.obj
 0003:0000858c       ??_C@_1DK@LFLKFPDA@?$AAo?$AAf?$AAf?$AAs?$AAe?$AAt?$AA?5?$AA?$DN?$AA?$DN?$AA?5?$AA0?$AA?5?$AA?$HM?$AA?$HM?$AA?5?$AAo?$AAf?$AAf?$AAs?$AAe?$AAt?$AA?5?$AA?$DM?$AA?5?$AAs?$AAi?$AAz?$AAe?$AA?$AA@ 100e058c     LIBCMTD:dbgheap.obj
 0003:000085d4       ??_C@_1DG@DONCJBBJ@?$AA_?$AAa?$AAl?$AAi?$AAg?$AAn?$AAe?$AAd?$AA_?$AAo?$AAf?$AAf?$AAs?$AAe?$AAt?$AA_?$AAm?$AAa?$AAl?$AAl?$AAo?$AAc?$AA_?$AAd?$AAb?$AAg?$AA?$AA@ 100e05d4     LIBCMTD:dbgheap.obj
 0003:00008614       ??_C@_1CE@NPMGPNNP@?$AAI?$AAS?$AA_?$AA2?$AA_?$AAP?$AAO?$AAW?$AA_?$AAN?$AA?$CI?$AAa?$AAl?$AAi?$AAg?$AAn?$AA?$CJ?$AA?$AA@ 100e0614     LIBCMTD:dbgheap.obj
 0003:00008640       ??_C@_1DI@NINIKFFK@?$AA_?$AAa?$AAl?$AAi?$AAg?$AAn?$AAe?$AAd?$AA_?$AAo?$AAf?$AAf?$AAs?$AAe?$AAt?$AA_?$AAr?$AAe?$AAa?$AAl?$AAl?$AAo?$AAc?$AA_?$AAd?$AAb?$AAg?$AA?$AA@ 100e0640     LIBCMTD:dbgheap.obj
 0003:00008684       ??_C@_0DL@PGHMMKNE@Damage?5before?50x?$CFp?5which?5was?5all@ 100e0684     LIBCMTD:dbgheap.obj
 0003:000086d0       ??_C@_0EI@NDNJMAJK@The?5block?5at?50x?$CFp?5was?5not?5alloca@ 100e06d0     LIBCMTD:dbgheap.obj
 0003:00008728       ??_C@_1DK@MMLHIFFH@?$AA_?$AAa?$AAl?$AAi?$AAg?$AAn?$AAe?$AAd?$AA_?$AAo?$AAf?$AAf?$AAs?$AAe?$AAt?$AA_?$AAr?$AAe?$AAc?$AAa?$AAl?$AAl?$AAo?$AAc?$AA_?$AAd?$AAb?$AAg?$AA?$AA@ 100e0728     LIBCMTD:dbgheap.obj
 0003:00008770       ??_C@_0EF@PGELACII@The?5block?5at?50x?$CFp?5was?5not?5alloca@ 100e0770     LIBCMTD:dbgheap.obj
 0003:000087c4       ??_C@_1CG@CEGMHIMN@?$AA_?$AAa?$AAl?$AAi?$AAg?$AAn?$AAe?$AAd?$AA_?$AAm?$AAs?$AAi?$AAz?$AAe?$AA_?$AAd?$AAb?$AAg?$AA?$AA@ 100e07c4     LIBCMTD:dbgheap.obj
 0003:000087f4       ??_C@_1CC@MOBIKHH@?$AAm?$AAe?$AAm?$AAb?$AAl?$AAo?$AAc?$AAk?$AA?5?$AA?$CB?$AA?$DN?$AA?5?$AAN?$AAU?$AAL?$AAL?$AA?$AA@ 100e07f4     LIBCMTD:dbgheap.obj
 0003:0000881c       ??_C@_1M@LIIFKKLB@?$AAf?$AAp?$AAu?$AAt?$AAs?$AA?$AA@ 100e081c     LIBCMTD:fputs.obj
 0003:00008830       ??_C@_1FO@FFFEAAEI@?$AAf?$AA?3?$AA?2?$AAd?$AAd?$AA?2?$AAv?$AAc?$AAt?$AAo?$AAo?$AAl?$AAs?$AA?2?$AAc?$AAr?$AAt?$AA_?$AAb?$AAl?$AAd?$AA?2?$AAs?$AAe?$AAl?$AAf?$AA_?$AAx?$AA8?$AA6?$AA?2?$AAc@ 100e0830     LIBCMTD:fputs.obj
 0003:000088a0       ??_C@_1CC@CGHMNGDG@?$AAA?$AAs?$AAs?$AAe?$AAr?$AAt?$AAi?$AAo?$AAn?$AA?5?$AAF?$AAa?$AAi?$AAl?$AAe?$AAd?$AA?$AA@ 100e08a0     LIBCMTD:dbgrptw.obj
 0003:000088c8       ??_C@_1M@ILHOPKA@?$AAE?$AAr?$AAr?$AAo?$AAr?$AA?$AA@ 100e08c8     LIBCMTD:dbgrptw.obj
 0003:000088d8       ??_C@_1BA@GLMCNLEM@?$AAW?$AAa?$AAr?$AAn?$AAi?$AAn?$AAg?$AA?$AA@ 100e08d8     LIBCMTD:dbgrptw.obj
 0003:000088fc       ??_C@_0DA@PCCBBBID@f?3?2dd?2vctools?2crt_bld?2self_x86?2c@ 100e08fc     LIBCMTD:dbgrptw.obj
 0003:00008938       ??_C@_1FI@PHIAFFHM@?$AA?$CI?$AA?$CC?$AAT?$AAh?$AAe?$AA?5?$AAh?$AAo?$AAo?$AAk?$AA?5?$AAf?$AAu?$AAn?$AAc?$AAt?$AAi?$AAo?$AAn?$AA?5?$AAi?$AAs?$AA?5?$AAn?$AAo?$AAt?$AA?5?$AAi?$AAn?$AA?5?$AAt?$AAh@ 100e0938     LIBCMTD:dbgrptw.obj
 0003:000089a4       ??_C@_1CG@JBJEFOCM@?$AAp?$AAf?$AAn?$AAN?$AAe?$AAw?$AAH?$AAo?$AAo?$AAk?$AA?5?$AA?$CB?$AA?$DN?$AA?5?$AAN?$AAU?$AAL?$AAL?$AA?$AA@ 100e09a4     LIBCMTD:dbgrptw.obj
 0003:000089d4       ??_C@_1CI@IIHEAKEI@?$AA_?$AAC?$AAr?$AAt?$AAS?$AAe?$AAt?$AAR?$AAe?$AAp?$AAo?$AAr?$AAt?$AAH?$AAo?$AAo?$AAk?$AAW?$AA2?$AA?$AA@ 100e09d4     LIBCMTD:dbgrptw.obj
 0003:00008a08       ??_C@_1GA@IBJGKIFE@?$AAf?$AA?3?$AA?2?$AAd?$AAd?$AA?2?$AAv?$AAc?$AAt?$AAo?$AAo?$AAl?$AAs?$AA?2?$AAc?$AAr?$AAt?$AA_?$AAb?$AAl?$AAd?$AA?2?$AAs?$AAe?$AAl?$AAf?$AA_?$AAx?$AA8?$AA6?$AA?2?$AAc@ 100e0a08     LIBCMTD:dbgrptw.obj
 0003:00008a80       ??_C@_1HI@OFEHGPPC@?$AAm?$AAo?$AAd?$AAe?$AA?5?$AA?$DN?$AA?$DN?$AA?5?$AA_?$AAC?$AAR?$AAT?$AA_?$AAR?$AAP?$AAT?$AAH?$AAO?$AAO?$AAK?$AA_?$AAI?$AAN?$AAS?$AAT?$AAA?$AAL?$AAL?$AA?5?$AA?$HM?$AA?$HM?$AA?5@ 100e0a80     LIBCMTD:dbgrptw.obj
 0003:00008b10       ??_C@_1EG@PEOEAKBB@?$AAM?$AAi?$AAc?$AAr?$AAo?$AAs?$AAo?$AAf?$AAt?$AA?5?$AAV?$AAi?$AAs?$AAu?$AAa?$AAl?$AA?5?$AAC?$AA?$CL?$AA?$CL?$AA?5?$AAD?$AAe?$AAb?$AAu?$AAg?$AA?5?$AAL?$AAi?$AAb?$AAr?$AAa@ 100e0b10     LIBCMTD:dbgrptw.obj
 0003:00008b68       ??_C@_1FG@BBOLDHGF@?$AA_?$AAC?$AAr?$AAt?$AAD?$AAb?$AAg?$AAR?$AAe?$AAp?$AAo?$AAr?$AAt?$AA?3?$AA?5?$AAS?$AAt?$AAr?$AAi?$AAn?$AAg?$AA?5?$AAt?$AAo?$AAo?$AA?5?$AAl?$AAo?$AAn?$AAg?$AA?5?$AAo@ 100e0b68     LIBCMTD:dbgrptw.obj
 0003:00008bd0       ??_C@_1JI@EACPGHID@?$AAw?$AAc?$AAs?$AAc?$AAp?$AAy?$AA_?$AAs?$AA?$CI?$AAs?$AAz?$AAO?$AAu?$AAt?$AAM?$AAe?$AAs?$AAs?$AAa?$AAg?$AAe?$AA?0?$AA?5?$AA4?$AA0?$AA9?$AA6?$AA?0?$AA?5?$AAL?$AA?$CC?$AA_@ 100e0bd0     LIBCMTD:dbgrptw.obj
 0003:00008c88       ??_C@_1KK@MEFMPOLM@?$AAD?$AAe?$AAb?$AAu?$AAg?$AA?5?$AA?$CF?$AAs?$AA?$CB?$AA?6?$AA?6?$AAP?$AAr?$AAo?$AAg?$AAr?$AAa?$AAm?$AA?3?$AA?5?$AA?$CF?$AAs?$AA?$CF?$AAs?$AA?$CF?$AAs?$AA?$CF?$AAs?$AA?$CF?$AAs?$AA?$CF?$AAs@ 100e0c88     LIBCMTD:dbgrptw.obj
 0003:00008d54       ??_C@_1BE@CGCJKGHI@?$AA?6?$AAM?$AAo?$AAd?$AAu?$AAl?$AAe?$AA?3?$AA?5?$AA?$AA@ 100e0d54     LIBCMTD:dbgrptw.obj
 0003:00008d6c       ??_C@_1BA@LNHECFIM@?$AA?6?$AAF?$AAi?$AAl?$AAe?$AA?3?$AA?5?$AA?$AA@ 100e0d6c     LIBCMTD:dbgrptw.obj
 0003:00008d80       ??_C@_1BA@GLLGCPCK@?$AA?6?$AAL?$AAi?$AAn?$AAe?$AA?3?$AA?5?$AA?$AA@ 100e0d80     LIBCMTD:dbgrptw.obj
 0003:00008d94       ??_C@_11LOCGONAA@?$AA?$AA@ 100e0d94     LIBCMTD:dbgrptw.obj
 0003:00008d98       ??_C@_1OG@PMPPFHAF@?$AA?6?$AA?6?$AAF?$AAo?$AAr?$AA?5?$AAi?$AAn?$AAf?$AAo?$AAr?$AAm?$AAa?$AAt?$AAi?$AAo?$AAn?$AA?5?$AAo?$AAn?$AA?5?$AAh?$AAo?$AAw?$AA?5?$AAy?$AAo?$AAu?$AAr?$AA?5?$AAp?$AAr@ 100e0d98     LIBCMTD:dbgrptw.obj
 0003:00008eb0       ??_C@_1NO@LECLLHOL@?$AAm?$AAe?$AAm?$AAc?$AAp?$AAy?$AA_?$AAs?$AA?$CI?$AAs?$AAz?$AAS?$AAh?$AAo?$AAr?$AAt?$AAP?$AAr?$AAo?$AAg?$AAN?$AAa?$AAm?$AAe?$AA?0?$AA?5?$AAs?$AAi?$AAz?$AAe?$AAo?$AAf@ 100e0eb0     LIBCMTD:dbgrptw.obj
 0003:00008fc0       ??_C@_1GI@DEDNNLCI@?$AAw?$AAc?$AAs?$AAc?$AAp?$AAy?$AA_?$AAs?$AA?$CI?$AAs?$AAz?$AAE?$AAx?$AAe?$AAN?$AAa?$AAm?$AAe?$AA?0?$AA?5?$AA2?$AA6?$AA0?$AA?0?$AA?5?$AAL?$AA?$CC?$AA?$DM?$AAp?$AAr?$AAo?$AAg@ 100e0fc0     LIBCMTD:dbgrptw.obj
 0003:0000903c       ??_C@_1CI@PGJIFDEK@?$AA_?$AA_?$AAc?$AAr?$AAt?$AAM?$AAe?$AAs?$AAs?$AAa?$AAg?$AAe?$AAW?$AAi?$AAn?$AAd?$AAo?$AAw?$AAW?$AA?$AA@ 100e103c     LIBCMTD:dbgrptw.obj
 0003:0000906c       ??_C@_0BP@OGBCLIBO@Stack?5around?5_alloca?5corrupted?$AA@ 100e106c     LIBCMTD:_userapi_.obj
 0003:00009094       ??_C@_0CK@CNLNOEPB@Local?5variable?5used?5before?5initi@ 100e1094     LIBCMTD:_userapi_.obj
 0003:000090c8       ??_C@_0BI@CIGMDCBH@Stack?5memory?5corruption?$AA@ 100e10c8     LIBCMTD:_userapi_.obj
 0003:000090e4       ??_C@_0CK@FEGOIOPB@Cast?5to?5smaller?5type?5causing?5los@ 100e10e4     LIBCMTD:_userapi_.obj
 0003:00009118       ??_C@_0BJ@HEGAHDFO@Stack?5pointer?5corruption?$AA@ 100e1118     LIBCMTD:_userapi_.obj
 0003:00009150       ??_C@_0DP@CBBAPGOP@f?3?2dd?2vctools?2crt_bld?2self_x86?2c@ 100e1150     LIBCMTD:chkesp.obj
 0003:0000919b       ??_C@_00CNPNBAHC@?$AA@     100e119b     LIBCMTD:chkesp.obj
 0003:000091a0       ??_C@_0NM@DNEDKLDF@The?5value?5of?5ESP?5was?5not?5properl@ 100e11a0     LIBCMTD:chkesp.obj
 0003:000092a8       ??_C@_1HG@KNCBMCDD@?$AAf?$AA?3?$AA?2?$AAd?$AAd?$AA?2?$AAv?$AAc?$AAt?$AAo?$AAo?$AAl?$AAs?$AA?2?$AAc?$AAr?$AAt?$AA_?$AAb?$AAl?$AAd?$AA?2?$AAs?$AAe?$AAl?$AAf?$AA_?$AAx?$AA8?$AA6?$AA?2?$AAc@ 100e12a8     LIBCMTD:typname.obj
 0003:00009338       ??_C@_1CI@IDCGDBOP@?$AAp?$AAN?$AAo?$AAd?$AAe?$AA?9?$AA?$DO?$AAn?$AAe?$AAx?$AAt?$AA?5?$AA?$CB?$AA?$DN?$AA?5?$AAN?$AAU?$AAL?$AAL?$AA?$AA@ 100e1338     LIBCMTD:typname.obj
 0003:00009368       ??_C@_1JK@MLBKHELP@?$AAs?$AAt?$AAr?$AAc?$AAp?$AAy?$AA_?$AAs?$AA?5?$AA?$CI?$AA?$CI?$AAc?$AAh?$AAa?$AAr?$AA?5?$AA?$CK?$AA?$CJ?$AA?$CI?$AA?$CI?$AAt?$AAy?$AAp?$AAe?$AA_?$AAi?$AAn?$AAf?$AAo?$AA?5?$AA?$CK?$AA?$CJ@ 100e1368     LIBCMTD:typname.obj
 0003:00009420       ??_C@_1CM@OOICDMK@?$AAt?$AAy?$AAp?$AAe?$AA_?$AAi?$AAn?$AAf?$AAo?$AA?3?$AA?3?$AA_?$AAN?$AAa?$AAm?$AAe?$AA_?$AAb?$AAa?$AAs?$AAe?$AA?$AA@ 100e1420     LIBCMTD:typname.obj
 0003:00009458       ??_C@_1GI@EAJKJPED@?$AAs?$AAt?$AAr?$AAc?$AAp?$AAy?$AA_?$AAs?$AA?5?$AA?$CI?$AAp?$AAT?$AAm?$AAp?$AAT?$AAy?$AAp?$AAe?$AAN?$AAa?$AAm?$AAe?$AA?0?$AA?5?$AAl?$AAe?$AAn?$AA?$CL?$AA2?$AA?0?$AA?5?$AA?$CI@ 100e1458     LIBCMTD:typname.obj
 0003:000094d4       ??_C@_1DO@OJJLFJPE@?$AAt?$AAy?$AAp?$AAe?$AA_?$AAi?$AAn?$AAf?$AAo?$AA?3?$AA?3?$AA_?$AAN?$AAa?$AAm?$AAe?$AA_?$AAb?$AAa?$AAs?$AAe?$AA_?$AAi?$AAn?$AAt?$AAe?$AAr?$AAn?$AAa?$AAl?$AA?$AA@ 100e14d4     LIBCMTD:typname.obj
 0003:00009520       ??_C@_0P@GGKDKEEG@runtime?5error?5?$AA@ 100e1520     LIBCMTD:crt0msg.obj
 0003:00009534       ??_C@_02PCIJFNDE@?$AN?6?$AA@ 100e1534     LIBCMTD:crt0msg.obj
 0003:00009538       ??_C@_0O@MJNIPGOH@TLOSS?5error?$AN?6?$AA@ 100e1538     LIBCMTD:crt0msg.obj
 0003:00009548       ??_C@_0N@BONNPDHF@SING?5error?$AN?6?$AA@ 100e1548     LIBCMTD:crt0msg.obj
 0003:00009558       ??_C@_0P@MBDAJNE@DOMAIN?5error?$AN?6?$AA@ 100e1558     LIBCMTD:crt0msg.obj
 0003:00009570       ??_C@_0BFB@HKKMCDOL@R6034?$AN?6An?5application?5has?5made?5a@ 100e1570     LIBCMTD:crt0msg.obj
 0003:00009708       ??_C@_0PH@EPAFIJ@R6033?$AN?6?9?5Attempt?5to?5use?5MSIL?5cod@ 100e1708     LIBCMTD:crt0msg.obj
 0003:00009830       ??_C@_0DD@BKEEABMM@R6032?$AN?6?9?5not?5enough?5space?5for?5lo@ 100e1830     LIBCMTD:crt0msg.obj
 0003:00009870       ??_C@_0GD@OFKILIED@R6031?$AN?6?9?5Attempt?5to?5initialize?5t@ 100e1870     LIBCMTD:crt0msg.obj
 0003:000098e8       ??_C@_0BP@LPMHJOKI@R6030?$AN?6?9?5CRT?5not?5initialized?$AN?6?$AA@ 100e18e8     LIBCMTD:crt0msg.obj
 0003:00009910       ??_C@_0CF@KJDAIALP@R6028?$AN?6?9?5unable?5to?5initialize?5he@ 100e1910     LIBCMTD:crt0msg.obj
 0003:0000993c       ??_C@_0DF@GAKBPDFP@R6027?$AN?6?9?5not?5enough?5space?5for?5lo@ 100e193c     LIBCMTD:crt0msg.obj
 0003:0000997c       ??_C@_0DF@IBLNNAIG@R6026?$AN?6?9?5not?5enough?5space?5for?5st@ 100e197c     LIBCMTD:crt0msg.obj
 0003:000099bc       ??_C@_0CG@IOHKGFNJ@R6025?$AN?6?9?5pure?5virtual?5function?5c@ 100e19bc     LIBCMTD:crt0msg.obj
 0003:000099ec       ??_C@_0DF@JIJJFJDC@R6024?$AN?6?9?5not?5enough?5space?5for?5_o@ 100e19ec     LIBCMTD:crt0msg.obj
 0003:00009a2c       ??_C@_0CJ@EGEJHFME@R6019?$AN?6?9?5unable?5to?5open?5console?5@ 100e1a2c     LIBCMTD:crt0msg.obj
 0003:00009a60       ??_C@_0CB@GNHNIELH@R6018?$AN?6?9?5unexpected?5heap?5error?$AN?6@ 100e1a60     LIBCMTD:crt0msg.obj
 0003:00009a88       ??_C@_0CN@FOLDKNG@R6017?$AN?6?9?5unexpected?5multithread?5@ 100e1a88     LIBCMTD:crt0msg.obj
 0003:00009ac0       ??_C@_0CM@FAHFJNHO@R6016?$AN?6?9?5not?5enough?5space?5for?5th@ 100e1ac0     LIBCMTD:crt0msg.obj
 0003:00009af8       ??_C@_0JG@LBKMGKLD@?$AN?6This?5application?5has?5requested@ 100e1af8     LIBCMTD:crt0msg.obj
 0003:00009bac       ??_C@_0CM@FLCNIPKK@R6009?$AN?6?9?5not?5enough?5space?5for?5en@ 100e1bac     LIBCMTD:crt0msg.obj
 0003:00009be0       ??_C@_0CK@KMMJOAPP@R6008?$AN?6?9?5not?5enough?5space?5for?5ar@ 100e1be0     LIBCMTD:crt0msg.obj
 0003:00009c14       ??_C@_0CN@LEKKICBM@R6002?$AN?6?9?5floating?5point?5support?5@ 100e1c14     LIBCMTD:crt0msg.obj
 0003:00009c4c       ??_C@_0CF@GOGNBNAK@Microsoft?5Visual?5C?$CL?$CL?5Runtime?5Lib@ 100e1c4c     LIBCMTD:crt0msg.obj
 0003:00009c78       ??_C@_1KC@JBIKIPNF@?$AAs?$AAt?$AAr?$AAc?$AAa?$AAt?$AA_?$AAs?$AA?$CI?$AAo?$AAu?$AAt?$AAm?$AAs?$AAg?$AA?0?$AA?5?$AA?$CI?$AAs?$AAi?$AAz?$AAe?$AAo?$AAf?$AA?$CI?$AAo?$AAu?$AAt?$AAm?$AAs?$AAg?$AA?$CJ@ 100e1c78     LIBCMTD:crt0msg.obj
 0003:00009d3c       ??_C@_02PHMGELLB@?6?6?$AA@ 100e1d3c     LIBCMTD:crt0msg.obj
 0003:00009d40       ??_C@_1HO@POLIDBMF@?$AAs?$AAt?$AAr?$AAc?$AAa?$AAt?$AA_?$AAs?$AA?$CI?$AAo?$AAu?$AAt?$AAm?$AAs?$AAg?$AA?0?$AA?5?$AA?$CI?$AAs?$AAi?$AAz?$AAe?$AAo?$AAf?$AA?$CI?$AAo?$AAu?$AAt?$AAm?$AAs?$AAg?$AA?$CJ@ 100e1d40     LIBCMTD:crt0msg.obj
 0003:00009dd8       ??_C@_03KHICJKCI@?4?4?4?$AA@ 100e1dd8     LIBCMTD:crt0msg.obj
 0003:00009de0       ??_C@_1HG@CJJGKFHK@?$AAs?$AAt?$AAr?$AAn?$AAc?$AAp?$AAy?$AA_?$AAs?$AA?$CI?$AAp?$AAc?$AAh?$AA?0?$AA?5?$AAp?$AAr?$AAo?$AAg?$AAn?$AAa?$AAm?$AAe?$AA_?$AAs?$AAi?$AAz?$AAe?$AA?5?$AA?9?$AA?5?$AA?$CI@ 100e1de0     LIBCMTD:crt0msg.obj
 0003:00009e70       ??_C@_0BH@DNAGHKFM@?$DMprogram?5name?5unknown?$DO?$AA@ 100e1e70     LIBCMTD:crt0msg.obj
 0003:00009e90       ??_C@_1HI@FOOPEDMH@?$AAs?$AAt?$AAr?$AAc?$AAp?$AAy?$AA_?$AAs?$AA?$CI?$AAp?$AAr?$AAo?$AAg?$AAn?$AAa?$AAm?$AAe?$AA?0?$AA?5?$AAp?$AAr?$AAo?$AAg?$AAn?$AAa?$AAm?$AAe?$AA_?$AAs?$AAi?$AAz?$AAe@ 100e1e90     LIBCMTD:crt0msg.obj
 0003:00009f20       ??_C@_0BK@OFGJDLJJ@Runtime?5Error?$CB?6?6Program?3?5?$AA@ 100e1f20     LIBCMTD:crt0msg.obj
 0003:00009f40       ??_C@_1KM@NKKPELHG@?$AAs?$AAt?$AAr?$AAc?$AAp?$AAy?$AA_?$AAs?$AA?$CI?$AAo?$AAu?$AAt?$AAm?$AAs?$AAg?$AA?0?$AA?5?$AA?$CI?$AAs?$AAi?$AAz?$AAe?$AAo?$AAf?$AA?$CI?$AAo?$AAu?$AAt?$AAm?$AAs?$AAg?$AA?$CJ@ 100e1f40     LIBCMTD:crt0msg.obj
 0003:0000a010       ??_C@_1BI@EAHMBMEC@?$AA_?$AAN?$AAM?$AAS?$AAG?$AA_?$AAW?$AAR?$AAI?$AAT?$AAE?$AA?$AA@ 100e2010     LIBCMTD:crt0msg.obj
 0003:0000a030       ??_C@_1GC@HKOJBOFF@?$AAf?$AA?3?$AA?2?$AAd?$AAd?$AA?2?$AAv?$AAc?$AAt?$AAo?$AAo?$AAl?$AAs?$AA?2?$AAc?$AAr?$AAt?$AA_?$AAb?$AAl?$AAd?$AA?2?$AAs?$AAe?$AAl?$AAf?$AA_?$AAx?$AA8?$AA6?$AA?2?$AAc@ 100e2030     LIBCMTD:crt0msg.obj
 0003:0000a0a8       ??_C@_0O@NLDKAIKN@EncodePointer?$AA@ 100e20a8     LIBCMTD:tidtable.obj
 0003:0000a0b8       ??_C@_1BK@DBDEIDLH@?$AAK?$AAE?$AAR?$AAN?$AAE?$AAL?$AA3?$AA2?$AA?4?$AAD?$AAL?$AAL?$AA?$AA@ 100e20b8     LIBCMTD:tidtable.obj
 0003:0000a0d8       ??_C@_0O@KBPMFGHI@DecodePointer?$AA@ 100e20d8     LIBCMTD:tidtable.obj
 0003:0000a0e8       ??_C@_0DC@LMJHGCKC@f?3?2dd?2vctools?2crt_bld?2self_x86?2c@ 100e20e8     LIBCMTD:tidtable.obj
 0003:0000a124       ??_C@_07PEJMOBNF@FlsFree?$AA@ 100e2124     LIBCMTD:tidtable.obj
 0003:0000a130       ??_C@_0M@JCPCPOEF@FlsSetValue?$AA@ 100e2130     LIBCMTD:tidtable.obj
 0003:0000a140       ??_C@_0M@GDNOONDI@FlsGetValue?$AA@ 100e2140     LIBCMTD:tidtable.obj
 0003:0000a150       ??_C@_08KNHFBNJ@FlsAlloc?$AA@ 100e2150     LIBCMTD:tidtable.obj
 0003:0000a160       ??_C@_1GO@NGIGJNHH@?$AAs?$AAt?$AAr?$AAn?$AAc?$AAp?$AAy?$AA_?$AAs?$AA?$CI?$AA?$CK?$AAs?$AAt?$AAr?$AAa?$AAd?$AAd?$AAr?$AAe?$AAs?$AAs?$AA?0?$AA?5?$AAo?$AAu?$AAt?$AAs?$AAi?$AAz?$AAe?$AA?0?$AA?5@ 100e2160     LIBCMTD:inithelp.obj
 0003:0000a1e4       ??_C@_1CA@KHHCPEI@?$AA_?$AA_?$AAg?$AAe?$AAt?$AAl?$AAo?$AAc?$AAa?$AAl?$AAe?$AAi?$AAn?$AAf?$AAo?$AA?$AA@ 100e21e4     LIBCMTD:inithelp.obj
 0003:0000a210       ??_C@_1GE@PLPIMDHG@?$AAf?$AA?3?$AA?2?$AAd?$AAd?$AA?2?$AAv?$AAc?$AAt?$AAo?$AAo?$AAl?$AAs?$AA?2?$AAc?$AAr?$AAt?$AA_?$AAb?$AAl?$AAd?$AA?2?$AAs?$AAe?$AAl?$AAf?$AA_?$AAx?$AA8?$AA6?$AA?2?$AAc@ 100e2210     LIBCMTD:inithelp.obj
 0003:0000a288       ??_C@_0DC@CFDMMFIG@f?3?2dd?2vctools?2crt_bld?2self_x86?2c@ 100e2288     LIBCMTD:inithelp.obj
 0003:0000a2c4       __pDestructExceptionObject 100e22c4     LIBCMTD:frame.obj
 0003:0000a2c8       ??_C@_0O@DPKOEFFH@bad?5exception?$AA@ 100e22c8     LIBCMTD:frame.obj
 0003:0000a2dc       ??_7bad_exception@std@@6B@ 100e22dc     LIBCMTD:frame.obj
 0003:0000a2f4       ??_C@_0BO@GNIAFIKK@Unknown?5Runtime?5Check?5Error?6?$AN?$AA@ 100e22f4     LIBCMTD:_error_.obj
 0003:0000a318       ??_C@_0CM@NGINOKPC@Stack?5memory?5around?5_alloca?5was?5@ 100e2318     LIBCMTD:_error_.obj
 0003:0000a34c       ??_C@_0DG@HKJMLLLP@A?5local?5variable?5was?5used?5before@ 100e234c     LIBCMTD:_error_.obj
 0003:0000a38c       ??_C@_0BN@FFOINMNJ@Stack?5memory?5was?5corrupted?6?$AN?$AA@ 100e238c     LIBCMTD:_error_.obj
 0003:0000a3b0       ??_C@_0BBN@GPMLNJCF@A?5cast?5to?5a?5smaller?5data?5type?5ha@ 100e23b0     LIBCMTD:_error_.obj
 0003:0000a508       ??_C@_0NN@NGPKDKPD@The?5value?5of?5ESP?5was?5not?5properl@ 100e2508     LIBCMTD:_error_.obj
 0003:0000a6d0       ??_C@_0CA@IODNCDPG@Run?9Time?5Check?5Failure?5?$CD?$CFd?5?9?5?$CFs?$AA@ 100e26d0     LIBCMTD:_error_.obj
 0003:0000a6f8       ??_C@_0BE@GNBOBNCK@Unknown?5Module?5Name?$AA@ 100e26f8     LIBCMTD:_error_.obj
 0003:0000a710       ??_C@_0BB@PFFGGCJP@Unknown?5Filename?$AA@ 100e2710     LIBCMTD:_error_.obj
 0003:0000a728       ??_C@_1EA@NFKNIFJP@?$AAR?$AAu?$AAn?$AA?9?$AAT?$AAi?$AAm?$AAe?$AA?5?$AAC?$AAh?$AAe?$AAc?$AAk?$AA?5?$AAF?$AAa?$AAi?$AAl?$AAu?$AAr?$AAe?$AA?5?$AA?$CD?$AA?$CF?$AAd?$AA?5?$AA?9?$AA?5?$AA?$CF?$AAs?$AA?$AA@ 100e2728     LIBCMTD:_error_.obj
 0003:0000a778       ??_C@_1GM@OLMCBDMB@?$AAR?$AAu?$AAn?$AAt?$AAi?$AAm?$AAe?$AA?5?$AAC?$AAh?$AAe?$AAc?$AAk?$AA?5?$AAE?$AAr?$AAr?$AAo?$AAr?$AA?4?$AA?6?$AA?$AN?$AA?5?$AAU?$AAn?$AAa?$AAb?$AAl?$AAe?$AA?5?$AAt?$AAo@ 100e2778     LIBCMTD:_error_.obj
 0003:0000a7fc       ??_C@_0CG@IAFNJNEE@Stack?5corrupted?5near?5unknown?5var@ 100e27fc     LIBCMTD:_error_.obj
 0003:0000a830       ??_C@_0EJ@LJKNEOLN@Stack?5area?5around?5_alloca?5memory@ 100e2830     LIBCMTD:_error_.obj
 0003:0000a888       ??_C@_08KJEDNCKC@?$CFs?$CFs?$CFs?$CFs?$AA@ 100e2888     LIBCMTD:_error_.obj
 0003:0000a894       ??_C@_02LLMPMKNF@?$DO?5?$AA@ 100e2894     LIBCMTD:_error_.obj
 0003:0000a898       ??_C@_0BC@KIBAILCI@?$CFs?$CFs?$CFp?$CFs?$CFld?$CFs?$CFd?$CFs?$AA@ 100e2898     LIBCMTD:_error_.obj
 0003:0000a8b0       ??_C@_0EI@CLEPFNGI@Stack?5area?5around?5_alloca?5memory@ 100e28b0     LIBCMTD:_error_.obj
 0003:0000a908       ??_C@_0N@MHFFIMFG@?6Address?3?50x?$AA@ 100e2908     LIBCMTD:_error_.obj
 0003:0000a918       ??_C@_07DFDJCKFN@?6Size?3?5?$AA@ 100e2918     LIBCMTD:_error_.obj
 0003:0000a924       ??_C@_0CK@DKGBICFE@?6Allocation?5number?5within?5this?5f@ 100e2924     LIBCMTD:_error_.obj
 0003:0000a958       ??_C@_08OMAHNMHJ@?6Data?3?5?$DM?$AA@ 100e2958     LIBCMTD:_error_.obj
 0003:0000a964       ??_C@_09FOPFMPEJ@wsprintfA?$AA@ 100e2964     LIBCMTD:_error_.obj
 0003:0000a970       ??_C@_0L@GMPLCCII@user32?4dll?$AA@ 100e2970     LIBCMTD:_error_.obj
 0003:0000a980       ??_C@_0DE@OHJBPMBP@A?5variable?5is?5being?5used?5without@ 100e2980     LIBCMTD:_error_.obj
 0003:0000a9c0       ??_C@_0CP@MKONOLCI@f?3?2dd?2vctools?2crt_bld?2self_x86?2c@ 100e29c0     LIBCMTD:mlock.obj
 0003:0000a9f8       ??_C@_0P@MIGLKIOC@CorExitProcess?$AA@ 100e29f8     LIBCMTD:crt0dat.obj
 0003:0000aa0c       ??_C@_1BI@BGOHAHKC@?$AAm?$AAs?$AAc?$AAo?$AAr?$AAe?$AAe?$AA?4?$AAd?$AAl?$AAl?$AA?$AA@ 100e2a0c     LIBCMTD:crt0dat.obj
 0003:0000aa28       ??_C@_1CC@CDIPMFPD@?$AA_?$AAw?$AAp?$AAg?$AAm?$AAp?$AAt?$AAr?$AA?5?$AA?$CB?$AA?$DN?$AA?5?$AAN?$AAU?$AAL?$AAL?$AA?$AA@ 100e2a28     LIBCMTD:crt0dat.obj
 0003:0000aa50       ??_C@_1BK@PNLDCCDP@?$AA_?$AAg?$AAe?$AAt?$AA_?$AAw?$AAp?$AAg?$AAm?$AAp?$AAt?$AAr?$AA?$AA@ 100e2a50     LIBCMTD:crt0dat.obj
 0003:0000aa70       ??_C@_1GC@DGCPEDNJ@?$AAf?$AA?3?$AA?2?$AAd?$AAd?$AA?2?$AAv?$AAc?$AAt?$AAo?$AAo?$AAl?$AAs?$AA?2?$AAc?$AAr?$AAt?$AA_?$AAb?$AAl?$AAd?$AA?2?$AAs?$AAe?$AAl?$AAf?$AA_?$AAx?$AA8?$AA6?$AA?2?$AAc@ 100e2a70     LIBCMTD:crt0dat.obj
 0003:0000aae8       ??_C@_1BO@LKEBEKJP@?$AAp?$AAV?$AAa?$AAl?$AAu?$AAe?$AA?5?$AA?$CB?$AA?$DN?$AA?5?$AAN?$AAU?$AAL?$AAL?$AA?$AA@ 100e2ae8     LIBCMTD:crt0dat.obj
 0003:0000ab0c       ??_C@_1CA@BBNAFCKO@?$AA_?$AAp?$AAg?$AAm?$AAp?$AAt?$AAr?$AA?5?$AA?$CB?$AA?$DN?$AA?5?$AAN?$AAU?$AAL?$AAL?$AA?$AA@ 100e2b0c     LIBCMTD:crt0dat.obj
 0003:0000ab34       ??_C@_1BI@COAAPHJK@?$AA_?$AAg?$AAe?$AAt?$AA_?$AAp?$AAg?$AAm?$AAp?$AAt?$AAr?$AA?$AA@ 100e2b34     LIBCMTD:crt0dat.obj
 0003:0000ab50       ??_C@_1O@EJLDHPPL@?$AAs?$AAi?$AAg?$AAn?$AAa?$AAl?$AA?$AA@ 100e2b50     LIBCMTD:winsig.obj
 0003:0000ab60       ??_C@_1GA@DBECNFG@?$AAf?$AA?3?$AA?2?$AAd?$AAd?$AA?2?$AAv?$AAc?$AAt?$AAo?$AAo?$AAl?$AAs?$AA?2?$AAc?$AAr?$AAt?$AA_?$AAb?$AAl?$AAd?$AA?2?$AAs?$AAe?$AAl?$AAf?$AA_?$AAx?$AA8?$AA6?$AA?2?$AAc@ 100e2b60     LIBCMTD:winsig.obj
 0003:0000abd4       ??_C@_1DO@MLNEDKGB@?$AA?$CI?$AA?$CC?$AAI?$AAn?$AAv?$AAa?$AAl?$AAi?$AAd?$AA?5?$AAs?$AAi?$AAg?$AAn?$AAa?$AAl?$AA?5?$AAo?$AAr?$AA?5?$AAe?$AAr?$AAr?$AAo?$AAr?$AA?$CC?$AA?0?$AA?5?$AA0?$AA?$CJ?$AA?$AA@ 100e2bd4     LIBCMTD:winsig.obj
 0003:0000ac20       ??_C@_0DA@ELJOOIJF@f?3?2dd?2vctools?2crt_bld?2self_x86?2c@ 100e2c20     LIBCMTD:winsig.obj
 0003:0000ac5c       ??_C@_1M@DMJEIKHL@?$AAr?$AAa?$AAi?$AAs?$AAe?$AA?$AA@ 100e2c5c     LIBCMTD:winsig.obj
 0003:0000ac6c       ??_C@_0BI@DFKBFLJE@GetProcessWindowStation?$AA@ 100e2c6c     LIBCMTD:crtmboxw.obj
 0003:0000ac88       ??_C@_0BK@DEKFELLI@GetUserObjectInformationW?$AA@ 100e2c88     LIBCMTD:crtmboxw.obj
 0003:0000aca8       ??_C@_0BD@HHGDFDBJ@GetLastActivePopup?$AA@ 100e2ca8     LIBCMTD:crtmboxw.obj
 0003:0000acc0       ??_C@_0BA@HNOPNCHB@GetActiveWindow?$AA@ 100e2cc0     LIBCMTD:crtmboxw.obj
 0003:0000acd4       ??_C@_0M@DLDCCGNP@MessageBoxW?$AA@ 100e2cd4     LIBCMTD:crtmboxw.obj
 0003:0000ace4       ??_C@_1BG@GOEBHBDC@?$AAU?$AAS?$AAE?$AAR?$AA3?$AA2?$AA?4?$AAD?$AAL?$AAL?$AA?$AA@ 100e2ce4     LIBCMTD:crtmboxw.obj
 0003:0000ad00       ??_C@_1CM@HABGDNLJ@?$AAl?$AAe?$AAn?$AAg?$AAt?$AAh?$AA?5?$AA?$DM?$AA?5?$AAs?$AAi?$AAz?$AAe?$AAI?$AAn?$AAT?$AAC?$AAh?$AAa?$AAr?$AAs?$AA?$AA@ 100e2d00     LIBCMTD:xtows.obj
 0003:0000ad34       ??_C@_1DE@PCJGDBBD@?$AA2?$AA?5?$AA?$DM?$AA?$DN?$AA?5?$AAr?$AAa?$AAd?$AAi?$AAx?$AA?5?$AA?$CG?$AA?$CG?$AA?5?$AAr?$AAa?$AAd?$AAi?$AAx?$AA?5?$AA?$DM?$AA?$DN?$AA?5?$AA3?$AA6?$AA?$AA@ 100e2d34     LIBCMTD:xtows.obj
 0003:0000ad78       ??_C@_1FA@MKGGAGEI@?$AAs?$AAi?$AAz?$AAe?$AAI?$AAn?$AAT?$AAC?$AAh?$AAa?$AAr?$AAs?$AA?5?$AA?$DO?$AA?5?$AA?$CI?$AAs?$AAi?$AAz?$AAe?$AA_?$AAt?$AA?$CJ?$AA?$CI?$AAi?$AAs?$AA_?$AAn?$AAe?$AAg?$AA?5?$AA?$DP@ 100e2d78     LIBCMTD:xtows.obj
 0003:0000add8       ??_C@_1CC@JNJFIMGE@?$AAs?$AAi?$AAz?$AAe?$AAI?$AAn?$AAT?$AAC?$AAh?$AAa?$AAr?$AAs?$AA?5?$AA?$DO?$AA?5?$AA0?$AA?$AA@ 100e2dd8     LIBCMTD:xtows.obj
 0003:0000ae00       ??_C@_1O@NCBFODOE@?$AAx?$AAt?$AAo?$AAw?$AA_?$AAs?$AA?$AA@ 100e2e00     LIBCMTD:xtows.obj
 0003:0000ae10       ??_C@_1FM@MFCBFCGB@?$AAf?$AA?3?$AA?2?$AAd?$AAd?$AA?2?$AAv?$AAc?$AAt?$AAo?$AAo?$AAl?$AAs?$AA?2?$AAc?$AAr?$AAt?$AA_?$AAb?$AAl?$AAd?$AA?2?$AAs?$AAe?$AAl?$AAf?$AA_?$AAx?$AA8?$AA6?$AA?2?$AAc@ 100e2e10     LIBCMTD:xtows.obj
 0003:0000ae80       ??_C@_1BI@ICGGMGLK@?$AAb?$AAu?$AAf?$AA?5?$AA?$CB?$AA?$DN?$AA?5?$AAN?$AAU?$AAL?$AAL?$AA?$AA@ 100e2e80     LIBCMTD:xtows.obj
 0003:0000ae9c       ??_C@_1BC@HDEJCFPB@?$AAx?$AA6?$AA4?$AAt?$AAo?$AAw?$AA_?$AAs?$AA?$AA@ 100e2e9c     LIBCMTD:xtows.obj
 0003:0000aeb4       ??_C@_1DM@MADKGDLO@?$AA?$CI?$AAL?$AA?$CC?$AAB?$AAu?$AAf?$AAf?$AAe?$AAr?$AA?5?$AAi?$AAs?$AA?5?$AAt?$AAo?$AAo?$AA?5?$AAs?$AAm?$AAa?$AAl?$AAl?$AA?$CC?$AA?5?$AA?$CG?$AA?$CG?$AA?5?$AA0?$AA?$CJ?$AA?$AA@ 100e2eb4     LIBCMTD:wcsncat_s.obj
 0003:0000aefc       ??_C@_1CI@HCPHDDLE@?$AAB?$AAu?$AAf?$AAf?$AAe?$AAr?$AA?5?$AAi?$AAs?$AA?5?$AAt?$AAo?$AAo?$AA?5?$AAs?$AAm?$AAa?$AAl?$AAl?$AA?$AA@ 100e2efc     LIBCMTD:wcsncat_s.obj
 0003:0000af30       ??_C@_1FA@MJKDNFFB@?$AA?$CI?$AAL?$AA?$CC?$AAS?$AAt?$AAr?$AAi?$AAn?$AAg?$AA?5?$AAi?$AAs?$AA?5?$AAn?$AAo?$AAt?$AA?5?$AAn?$AAu?$AAl?$AAl?$AA?5?$AAt?$AAe?$AAr?$AAm?$AAi?$AAn?$AAa?$AAt?$AAe?$AAd@ 100e2f30     LIBCMTD:wcsncat_s.obj
 0003:0000af90       ??_C@_1DM@FHLMIEG@?$AAS?$AAt?$AAr?$AAi?$AAn?$AAg?$AA?5?$AAi?$AAs?$AA?5?$AAn?$AAo?$AAt?$AA?5?$AAn?$AAu?$AAl?$AAl?$AA?5?$AAt?$AAe?$AAr?$AAm?$AAi?$AAn?$AAa?$AAt?$AAe?$AAd?$AA?$AA@ 100e2f90     LIBCMTD:wcsncat_s.obj
 0003:0000afd8       ??_C@_1CG@OFBJMIGJ@?$AA?$CI?$AA?$CI?$AA?$CI?$AA_?$AAS?$AAr?$AAc?$AA?$CJ?$AA?$CJ?$AA?$CJ?$AA?5?$AA?$CB?$AA?$DN?$AA?5?$AAN?$AAU?$AAL?$AAL?$AA?$AA@ 100e2fd8     LIBCMTD:wcsncat_s.obj
 0003:0000b008       ??_C@_1BE@KPKIKKCF@?$AAw?$AAc?$AAs?$AAn?$AAc?$AAa?$AAt?$AA_?$AAs?$AA?$AA@ 100e3008     LIBCMTD:wcsncat_s.obj
 0003:0000b020       ??_C@_1GK@DICCLCDF@?$AAf?$AA?3?$AA?2?$AAd?$AAd?$AA?2?$AAv?$AAc?$AAt?$AAo?$AAo?$AAl?$AAs?$AA?2?$AAc?$AAr?$AAt?$AA_?$AAb?$AAl?$AAd?$AA?2?$AAs?$AAe?$AAl?$AAf?$AA_?$AAx?$AA8?$AA6?$AA?2?$AAc@ 100e3020     LIBCMTD:wcsncat_s.obj
 0003:0000b0a0       ??_C@_1FC@PFMLEHKI@?$AA?$CI?$AA?$CI?$AA_?$AAD?$AAs?$AAt?$AA?$CJ?$AA?$CJ?$AA?5?$AA?$CB?$AA?$DN?$AA?5?$AAN?$AAU?$AAL?$AAL?$AA?5?$AA?$CG?$AA?$CG?$AA?5?$AA?$CI?$AA?$CI?$AA_?$AAS?$AAi?$AAz?$AAe?$AAI?$AAn?$AAW?$AAo?$AAr@ 100e30a0     LIBCMTD:wcsncat_s.obj
 0003:0000b104       ??_C@_1BE@PMMBFFCC@?$AAw?$AAc?$AAs?$AAn?$AAc?$AAp?$AAy?$AA_?$AAs?$AA?$AA@ 100e3104     LIBCMTD:wcsncpy_s.obj
 0003:0000b120       ??_C@_1GK@PAJJBKJF@?$AAf?$AA?3?$AA?2?$AAd?$AAd?$AA?2?$AAv?$AAc?$AAt?$AAo?$AAo?$AAl?$AAs?$AA?2?$AAc?$AAr?$AAt?$AA_?$AAb?$AAl?$AAd?$AA?2?$AAs?$AAe?$AAl?$AAf?$AA_?$AAx?$AA8?$AA6?$AA?2?$AAc@ 100e3120     LIBCMTD:wcsncpy_s.obj
 0003:0000b1a0       ??_C@_1BC@PLIEPKPJ@?$AAw?$AAc?$AAs?$AAc?$AAa?$AAt?$AA_?$AAs?$AA?$AA@ 100e31a0     LIBCMTD:wcscat_s.obj
 0003:0000b1b8       ??_C@_1GI@NOKGIAGA@?$AAf?$AA?3?$AA?2?$AAd?$AAd?$AA?2?$AAv?$AAc?$AAt?$AAo?$AAo?$AAl?$AAs?$AA?2?$AAc?$AAr?$AAt?$AA_?$AAb?$AAl?$AAd?$AA?2?$AAs?$AAe?$AAl?$AAf?$AA_?$AAx?$AA8?$AA6?$AA?2?$AAc@ 100e31b8     LIBCMTD:wcscat_s.obj
 0003:0000b234       ??_C@_1BC@KIONAFPO@?$AAw?$AAc?$AAs?$AAc?$AAp?$AAy?$AA_?$AAs?$AA?$AA@ 100e3234     LIBCMTD:wcscpy_s.obj
 0003:0000b250       ??_C@_1GI@BGBNCIMA@?$AAf?$AA?3?$AA?2?$AAd?$AAd?$AA?2?$AAv?$AAc?$AAt?$AAo?$AAo?$AAl?$AAs?$AA?2?$AAc?$AAr?$AAt?$AA_?$AAb?$AAl?$AAd?$AA?2?$AAs?$AAe?$AAl?$AAf?$AA_?$AAx?$AA8?$AA6?$AA?2?$AAc@ 100e3250     LIBCMTD:wcscpy_s.obj
 0003:0000b2cc       ??_C@_1BC@BHLPNJBO@?$AAf?$AAw?$AAp?$AAr?$AAi?$AAn?$AAt?$AAf?$AA?$AA@ 100e32cc     LIBCMTD:fwprintf.obj
 0003:0000b2e8       ??_C@_1GE@NIBJAMDO@?$AAf?$AA?3?$AA?2?$AAd?$AAd?$AA?2?$AAv?$AAc?$AAt?$AAo?$AAo?$AAl?$AAs?$AA?2?$AAc?$AAr?$AAt?$AA_?$AAb?$AAl?$AAd?$AA?2?$AAs?$AAe?$AAl?$AAf?$AA_?$AAx?$AA8?$AA6?$AA?2?$AAc@ 100e32e8     LIBCMTD:fwprintf.obj
 0003:0000b360       ??_C@_0DB@MIGHMKAN@f?3?2dd?2vctools?2crt_bld?2self_x86?2c@ 100e3360     LIBCMTD:setvbuf.obj
 0003:0000b3a0       ??_C@_1EG@IJNJIDNB@?$AA?$CI?$AA?$CI?$AA2?$AA?5?$AA?$DM?$AA?$DN?$AA?5?$AAs?$AAi?$AAz?$AAe?$AA?$CJ?$AA?5?$AA?$CG?$AA?$CG?$AA?5?$AA?$CI?$AAs?$AAi?$AAz?$AAe?$AA?5?$AA?$DM?$AA?$DN?$AA?5?$AAI?$AAN?$AAT?$AA_?$AAM?$AAA?$AAX@ 100e33a0     LIBCMTD:setvbuf.obj
 0003:0000b3f8       ??_C@_1HC@CBFEDAGG@?$AA?$CI?$AAt?$AAy?$AAp?$AAe?$AA?5?$AA?$DN?$AA?$DN?$AA?5?$AA_?$AAI?$AAO?$AAN?$AAB?$AAF?$AA?$CJ?$AA?5?$AA?$HM?$AA?$HM?$AA?5?$AA?$CI?$AAt?$AAy?$AAp?$AAe?$AA?5?$AA?$DN?$AA?$DN?$AA?5?$AA_?$AAI?$AAO@ 100e33f8     LIBCMTD:setvbuf.obj
 0003:0000b480       ??_C@_1BA@OGODIODK@?$AAs?$AAe?$AAt?$AAv?$AAb?$AAu?$AAf?$AA?$AA@ 100e3480     LIBCMTD:setvbuf.obj
 0003:0000b498       ??_C@_1GC@FPPJLAOD@?$AAf?$AA?3?$AA?2?$AAd?$AAd?$AA?2?$AAv?$AAc?$AAt?$AAo?$AAo?$AAl?$AAs?$AA?2?$AAc?$AAr?$AAt?$AA_?$AAb?$AAl?$AAd?$AA?2?$AAs?$AAe?$AAl?$AAf?$AA_?$AAx?$AA8?$AA6?$AA?2?$AAc@ 100e3498     LIBCMTD:setvbuf.obj
 0003:0000b510       ??_C@_1CA@LFDHAMEM@?$AA_?$AAs?$AAe?$AAt?$AA_?$AAe?$AAr?$AAr?$AAo?$AAr?$AA_?$AAm?$AAo?$AAd?$AAe?$AA?$AA@ 100e3510     LIBCMTD:errmode.obj
 0003:0000b538       ??_C@_1GC@FGMGFCNB@?$AAf?$AA?3?$AA?2?$AAd?$AAd?$AA?2?$AAv?$AAc?$AAt?$AAo?$AAo?$AAl?$AAs?$AA?2?$AAc?$AAr?$AAt?$AA_?$AAb?$AAl?$AAd?$AA?2?$AAs?$AAe?$AAl?$AAf?$AA_?$AAx?$AA8?$AA6?$AA?2?$AAc@ 100e3538     LIBCMTD:errmode.obj
 0003:0000b5b0       ??_C@_1DE@BCNCAIK@?$AA?$CI?$AA?$CC?$AAI?$AAn?$AAv?$AAa?$AAl?$AAi?$AAd?$AA?5?$AAe?$AAr?$AAr?$AAo?$AAr?$AA_?$AAm?$AAo?$AAd?$AAe?$AA?$CC?$AA?0?$AA?5?$AA0?$AA?$CJ?$AA?$AA@ 100e35b0     LIBCMTD:errmode.obj
 0003:0000b5f0       ??_C@_1CE@IGKFIJFD@?$AA_?$AAv?$AAs?$AAw?$AAp?$AAr?$AAi?$AAn?$AAt?$AAf?$AA_?$AAh?$AAe?$AAl?$AAp?$AAe?$AAr?$AA?$AA@ 100e35f0     LIBCMTD:vswprnc.obj
 0003:0000b61c       ??_C@_1DA@HPBFKMEB@?$AA?$CI?$AA?$CC?$AAB?$AAu?$AAf?$AAf?$AAe?$AAr?$AA?5?$AAt?$AAo?$AAo?$AA?5?$AAs?$AAm?$AAa?$AAl?$AAl?$AA?$CC?$AA?0?$AA?5?$AA0?$AA?$CJ?$AA?$AA@ 100e361c     LIBCMTD:vswprnc.obj
 0003:0000b658       ??_C@_1EE@MPCHJFGP@?$AAs?$AAt?$AAr?$AAi?$AAn?$AAg?$AA?5?$AA?$CB?$AA?$DN?$AA?5?$AAN?$AAU?$AAL?$AAL?$AA?5?$AA?$CG?$AA?$CG?$AA?5?$AAs?$AAi?$AAz?$AAe?$AAI?$AAn?$AAW?$AAo?$AAr?$AAd?$AAs?$AA?5?$AA?$DO?$AA?5@ 100e3658     LIBCMTD:vswprnc.obj
 0003:0000b6ac       ??_C@_1BO@OALHJLCI@?$AA_?$AAv?$AAs?$AAw?$AAp?$AAr?$AAi?$AAn?$AAt?$AAf?$AA_?$AAs?$AA_?$AAl?$AA?$AA@ 100e36ac     LIBCMTD:vswprnc.obj
 0003:0000b6d0       ??_C@_1BO@MLMCMBKN@?$AAf?$AAo?$AAr?$AAm?$AAa?$AAt?$AA?5?$AA?$CB?$AA?$DN?$AA?5?$AAN?$AAU?$AAL?$AAL?$AA?$AA@ 100e36d0     LIBCMTD:vswprnc.obj
 0003:0000b6f4       ??_C@_1CA@BKFKMJFF@?$AA_?$AAv?$AAs?$AAn?$AAw?$AAp?$AAr?$AAi?$AAn?$AAt?$AAf?$AA_?$AAs?$AA_?$AAl?$AA?$AA@ 100e36f4     LIBCMTD:vswprnc.obj
 0003:0000b71c       ??_C@_1BG@KCMPBBDK@?$AA_?$AAg?$AAe?$AAt?$AA_?$AAe?$AAr?$AAr?$AAn?$AAo?$AA?$AA@ 100e371c     LIBCMTD:dosmap.obj
 0003:0000b738       ??_C@_1GA@MFGIMPNL@?$AAf?$AA?3?$AA?2?$AAd?$AAd?$AA?2?$AAv?$AAc?$AAt?$AAo?$AAo?$AAl?$AAs?$AA?2?$AAc?$AAr?$AAt?$AA_?$AAb?$AAl?$AAd?$AA?2?$AAs?$AAe?$AAl?$AAf?$AA_?$AAx?$AA8?$AA6?$AA?2?$AAc@ 100e3738     LIBCMTD:dosmap.obj
 0003:0000b7ac       ??_C@_1BM@INIPHHDD@?$AA_?$AAg?$AAe?$AAt?$AA_?$AAd?$AAo?$AAs?$AAe?$AAr?$AAr?$AAn?$AAo?$AA?$AA@ 100e37ac     LIBCMTD:dosmap.obj
 0003:0000b7d0       __XcptActTab               100e37d0     LIBCMTD:winxfltr.obj
 0003:0000b860       ??_C@_1BC@CFJEPFGF@?$AAs?$AAt?$AAr?$AAc?$AAp?$AAy?$AA_?$AAs?$AA?$AA@ 100e3860     LIBCMTD:strcpy_s.obj
 0003:0000b878       ??_C@_1FC@NCPEPIBI@?$AA?$CI?$AA?$CI?$AA_?$AAD?$AAs?$AAt?$AA?$CJ?$AA?$CJ?$AA?5?$AA?$CB?$AA?$DN?$AA?5?$AAN?$AAU?$AAL?$AAL?$AA?5?$AA?$CG?$AA?$CG?$AA?5?$AA?$CI?$AA?$CI?$AA_?$AAS?$AAi?$AAz?$AAe?$AAI?$AAn?$AAB?$AAy?$AAt@ 100e3878     LIBCMTD:strcpy_s.obj
 0003:0000b8e0       ??_C@_1GG@CDHAPCGF@?$AAf?$AA?3?$AA?2?$AAd?$AAd?$AA?2?$AAv?$AAc?$AAt?$AAo?$AAo?$AAl?$AAs?$AA?2?$AAc?$AAr?$AAt?$AA_?$AAb?$AAl?$AAd?$AA?2?$AAs?$AAe?$AAl?$AAf?$AA_?$AAx?$AA8?$AA6?$AA?2?$AAc@ 100e38e0     LIBCMTD:handler.obj
 0003:0000b95c       ??_C@_1BC@JLLICHIC@?$AAp?$AAn?$AAh?$AA?5?$AA?$DN?$AA?$DN?$AA?5?$AA0?$AA?$AA@ 100e395c     LIBCMTD:handler.obj
 0003:0000b978       ??_C@_1JE@ECKHFIFP@?$AA?$CI?$AA?$CC?$AAI?$AAn?$AAv?$AAa?$AAl?$AAi?$AAd?$AA?5?$AAf?$AAi?$AAl?$AAe?$AA?5?$AAd?$AAe?$AAs?$AAc?$AAr?$AAi?$AAp?$AAt?$AAo?$AAr?$AA?4?$AA?5?$AAF?$AAi?$AAl?$AAe?$AA?5@ 100e3978     LIBCMTD:close.obj
 0003:0000ba2c       ??_C@_1CM@OKGMMMDH@?$AA?$CI?$AA_?$AAo?$AAs?$AAf?$AAi?$AAl?$AAe?$AA?$CI?$AAf?$AAh?$AA?$CJ?$AA?5?$AA?$CG?$AA?5?$AAF?$AAO?$AAP?$AAE?$AAN?$AA?$CJ?$AA?$AA@ 100e3a2c     LIBCMTD:close.obj
 0003:0000ba60       ??_C@_1O@EDEJGJBM@?$AA_?$AAc?$AAl?$AAo?$AAs?$AAe?$AA?$AA@ 100e3a60     LIBCMTD:close.obj
 0003:0000ba70       ??_C@_1FO@NNGNFGFH@?$AAf?$AA?3?$AA?2?$AAd?$AAd?$AA?2?$AAv?$AAc?$AAt?$AAo?$AAo?$AAl?$AAs?$AA?2?$AAc?$AAr?$AAt?$AA_?$AAb?$AAl?$AAd?$AA?2?$AAs?$AAe?$AAl?$AAf?$AA_?$AAx?$AA8?$AA6?$AA?2?$AAc@ 100e3a70     LIBCMTD:close.obj
 0003:0000bae0       ??_C@_1FO@LPCLHKGE@?$AA?$CI?$AAf?$AAh?$AA?5?$AA?$DO?$AA?$DN?$AA?5?$AA0?$AA?5?$AA?$CG?$AA?$CG?$AA?5?$AA?$CI?$AAu?$AAn?$AAs?$AAi?$AAg?$AAn?$AAe?$AAd?$AA?$CJ?$AAf?$AAh?$AA?5?$AA?$DM?$AA?5?$AA?$CI?$AAu?$AAn?$AAs?$AAi@ 100e3ae0     LIBCMTD:close.obj
 0003:0000bb50       ??_C@_1BA@JGHIEKKM@?$AA_?$AAf?$AAi?$AAl?$AAe?$AAn?$AAo?$AA?$AA@ 100e3b50     LIBCMTD:fileno.obj
 0003:0000bb68       ??_C@_1GA@PBJHELNC@?$AAf?$AA?3?$AA?2?$AAd?$AAd?$AA?2?$AAv?$AAc?$AAt?$AAo?$AAo?$AAl?$AAs?$AA?2?$AAc?$AAr?$AAt?$AA_?$AAb?$AAl?$AAd?$AA?2?$AAs?$AAe?$AAl?$AAf?$AA_?$AAx?$AA8?$AA6?$AA?2?$AAc@ 100e3b68     LIBCMTD:fileno.obj
 0003:0000bbe0       ??_C@_1GE@MIMBMOF@?$AAf?$AA?3?$AA?2?$AAd?$AAd?$AA?2?$AAv?$AAc?$AAt?$AAo?$AAo?$AAl?$AAs?$AA?2?$AAc?$AAr?$AAt?$AA_?$AAb?$AAl?$AAd?$AA?2?$AAs?$AAe?$AAl?$AAf?$AA_?$AAx?$AA8?$AA6?$AA?2?$AAc@ 100e3be0     LIBCMTD:_freebuf.obj
 0003:0000bc58       ??_C@_1BO@KIJENGPH@?$AAs?$AAt?$AAr?$AAe?$AAa?$AAm?$AA?5?$AA?$CB?$AA?$DN?$AA?5?$AAN?$AAU?$AAL?$AAL?$AA?$AA@ 100e3c58     LIBCMTD:_freebuf.obj
 0003:0000bc7c       ??_C@_0DA@NBLAKPEL@f?3?2dd?2vctools?2crt_bld?2self_x86?2c@ 100e3c7c     LIBCMTD:ioinit.obj
 0003:0000bcb8       ??_C@_1BC@MJNBEDIJ@?$AA_?$AAi?$AAn?$AAp?$AAu?$AAt?$AA_?$AAl?$AA?$AA@ 100e3cb8     LIBCMTD:input.obj
 0003:0000bcd0       ??_C@_1FO@LDDBLKJ@?$AAf?$AA?3?$AA?2?$AAd?$AAd?$AA?2?$AAv?$AAc?$AAt?$AAo?$AAo?$AAl?$AAs?$AA?2?$AAc?$AAr?$AAt?$AA_?$AAb?$AAl?$AAd?$AA?2?$AAs?$AAe?$AAl?$AAf?$AA_?$AAx?$AA8?$AA6?$AA?2?$AAc@ 100e3cd0     LIBCMTD:input.obj
 0003:0000bd40       ??_C@_0CP@MMGCGBFO@f?3?2dd?2vctools?2crt_bld?2self_x86?2c@ 100e3d40     LIBCMTD:input.obj
 0003:0000bd78       ??_C@_1DO@MBOKMJPK@?$AAn?$AAF?$AAl?$AAo?$AAa?$AAt?$AAS?$AAt?$AAr?$AAU?$AAs?$AAe?$AAd?$AA?$DM?$AA?$DN?$AA?$CI?$AA?$CK?$AAp?$AAn?$AAF?$AAl?$AAo?$AAa?$AAt?$AAS?$AAt?$AAr?$AAS?$AAz?$AA?$CJ?$AA?$AA@ 100e3d78     LIBCMTD:input.obj
 0003:0000bdc4       ??_C@_1DG@MPPGJOHD@?$AA?$CI?$AA?$CC?$AAI?$AAn?$AAv?$AAa?$AAl?$AAi?$AAd?$AA?5?$AAI?$AAn?$AAp?$AAu?$AAt?$AA?5?$AAF?$AAo?$AAr?$AAm?$AAa?$AAt?$AA?$CC?$AA?0?$AA0?$AA?$CJ?$AA?$AA@ 100e3dc4     LIBCMTD:inputs.obj
 0003:0000be04       ??_C@_1BG@LBKFJFHM@?$AA_?$AAi?$AAn?$AAp?$AAu?$AAt?$AA_?$AAs?$AA_?$AAl?$AA?$AA@ 100e3e04     LIBCMTD:inputs.obj
 0003:0000be20       ??_C@_1BA@IIKEPOGH@?$AA_?$AAf?$AAi?$AAl?$AAb?$AAu?$AAf?$AA?$AA@ 100e3e20     LIBCMTD:_filbuf.obj
 0003:0000be38       ??_C@_1GC@CHFNJKFB@?$AAf?$AA?3?$AA?2?$AAd?$AAd?$AA?2?$AAv?$AAc?$AAt?$AAo?$AAo?$AAl?$AAs?$AA?2?$AAc?$AAr?$AAt?$AA_?$AAb?$AAl?$AAd?$AA?2?$AAs?$AAe?$AAl?$AAf?$AA_?$AAx?$AA8?$AA6?$AA?2?$AAc@ 100e3e38     LIBCMTD:_filbuf.obj
 0003:0000beb0       ??_C@_1BI@MFCLPIBM@?$AAs?$AAt?$AAr?$AA?5?$AA?$CB?$AA?$DN?$AA?5?$AAN?$AAU?$AAL?$AAL?$AA?$AA@ 100e3eb0     LIBCMTD:_filbuf.obj
 0003:0000bf10       ??_C@_1CI@KEDPFCAL@?$AA?$CI?$AA?$CK?$AAm?$AAo?$AAd?$AAe?$AA?5?$AA?$DN?$AA?$DN?$AA?5?$AA_?$AAT?$AA?$CI?$AA?8?$AA?2?$AA0?$AA?8?$AA?$CJ?$AA?$CJ?$AA?$AA@ 100e3f10     LIBCMTD:_wopen.obj
 0003:0000bf40       ??_C@_1BG@KBCPEELG@?$AA_?$AAw?$AAo?$AAp?$AAe?$AAn?$AAf?$AAi?$AAl?$AAe?$AA?$AA@ 100e3f40     LIBCMTD:_wopen.obj
 0003:0000bf5c       ??_C@_1DK@PKMJBLLN@?$AA?$CI?$AA?$CC?$AAI?$AAn?$AAv?$AAa?$AAl?$AAi?$AAd?$AA?5?$AAf?$AAi?$AAl?$AAe?$AA?5?$AAo?$AAp?$AAe?$AAn?$AA?5?$AAm?$AAo?$AAd?$AAe?$AA?$CC?$AA?0?$AA0?$AA?$CJ?$AA?$AA@ 100e3f5c     LIBCMTD:_wopen.obj
 0003:0000bfa4       ??_C@_1BK@HGLMNMEC@?$AAm?$AAo?$AAd?$AAe?$AA?5?$AA?$CB?$AA?$DN?$AA?5?$AAN?$AAU?$AAL?$AAL?$AA?$AA@ 100e3fa4     LIBCMTD:_wopen.obj
 0003:0000bfc8       ??_C@_1FO@POGAHKND@?$AAf?$AA?3?$AA?2?$AAd?$AAd?$AA?2?$AAv?$AAc?$AAt?$AAo?$AAo?$AAl?$AAs?$AA?2?$AAc?$AAr?$AAt?$AA_?$AAb?$AAl?$AAd?$AA?2?$AAs?$AAe?$AAl?$AAf?$AA_?$AAx?$AA8?$AA6?$AA?2?$AAc@ 100e3fc8     LIBCMTD:_wopen.obj
 0003:0000c038       ??_C@_1CC@JBMDNKJP@?$AAf?$AAi?$AAl?$AAe?$AAn?$AAa?$AAm?$AAe?$AA?5?$AA?$CB?$AA?$DN?$AA?5?$AAN?$AAU?$AAL?$AAL?$AA?$AA@ 100e4038     LIBCMTD:_wopen.obj
 0003:0000c060       ??_C@_0DA@NLPACBPK@f?3?2dd?2vctools?2crt_bld?2self_x86?2c@ 100e4060     LIBCMTD:stream.obj
 0003:0000c09c       ??_C@_0DB@OLNNDFNH@f?3?2dd?2vctools?2crt_bld?2self_x86?2c@ 100e409c     LIBCMTD:_sftbuf.obj
 0003:0000c0d8       ??_C@_1GC@DGAFOCMO@?$AAf?$AA?3?$AA?2?$AAd?$AAd?$AA?2?$AAv?$AAc?$AAt?$AAo?$AAo?$AAl?$AAs?$AA?2?$AAc?$AAr?$AAt?$AA_?$AAb?$AAl?$AAd?$AA?2?$AAs?$AAe?$AAl?$AAf?$AA_?$AAx?$AA8?$AA6?$AA?2?$AAc@ 100e40d8     LIBCMTD:_sftbuf.obj
 0003:0000c150       ??_C@_1CO@KCKAACMI@?$AAf?$AAl?$AAa?$AAg?$AA?5?$AA?$DN?$AA?$DN?$AA?5?$AA0?$AA?5?$AA?$HM?$AA?$HM?$AA?5?$AAf?$AAl?$AAa?$AAg?$AA?5?$AA?$DN?$AA?$DN?$AA?5?$AA1?$AA?$AA@ 100e4150     LIBCMTD:_sftbuf.obj
 0003:0000c188       ??_C@_1O@CEDCILHN@?$AA?$CI?$AAn?$AAu?$AAl?$AAl?$AA?$CJ?$AA?$AA@ 100e4188     LIBCMTD:output.obj
 0003:0000c198       ??_C@_06OJHGLDPL@?$CInull?$CJ?$AA@ 100e4198     LIBCMTD:output.obj
 0003:0000c1a0       ___lookuptable             100e41a0     LIBCMTD:output.obj
 0003:0000c20c       ??_C@_0DA@NFBEBPEE@f?3?2dd?2vctools?2crt_bld?2self_x86?2c@ 100e420c     LIBCMTD:output.obj
 0003:0000c248       ??_C@_1EK@PNGFDECN@?$AA?$CI?$AA?$CC?$AA?8?$AAn?$AA?8?$AA?5?$AAf?$AAo?$AAr?$AAm?$AAa?$AAt?$AA?5?$AAs?$AAp?$AAe?$AAc?$AAi?$AAf?$AAi?$AAe?$AAr?$AA?5?$AAd?$AAi?$AAs?$AAa?$AAb?$AAl?$AAe?$AAd?$AA?$CC@ 100e4248     LIBCMTD:output.obj
 0003:0000c2a0       ??_C@_1CC@IFFHEMNF@?$AA?$CI?$AAc?$AAh?$AA?5?$AA?$CB?$AA?$DN?$AA?5?$AA_?$AAT?$AA?$CI?$AA?8?$AA?2?$AA0?$AA?8?$AA?$CJ?$AA?$CJ?$AA?$AA@ 100e42a0     LIBCMTD:output.obj
 0003:0000c2c8       ??_C@_1BE@IONLIDNC@?$AA_?$AAo?$AAu?$AAt?$AAp?$AAu?$AAt?$AA_?$AAl?$AA?$AA@ 100e42c8     LIBCMTD:output.obj
 0003:0000c2e0       ??_C@_1GA@HHFOFBLN@?$AAf?$AA?3?$AA?2?$AAd?$AAd?$AA?2?$AAv?$AAc?$AAt?$AAo?$AAo?$AAl?$AAs?$AA?2?$AAc?$AAr?$AAt?$AA_?$AAb?$AAl?$AAd?$AA?2?$AAs?$AAe?$AAl?$AAf?$AA_?$AAx?$AA8?$AA6?$AA?2?$AAc@ 100e42e0     LIBCMTD:output.obj
 0003:0000c354       ??_C@_1CA@OEHMHBJF@?$AAv?$AAf?$AAp?$AAr?$AAi?$AAn?$AAt?$AAf?$AA_?$AAh?$AAe?$AAl?$AAp?$AAe?$AAr?$AA?$AA@ 100e4354     LIBCMTD:vfprintf.obj
 0003:0000c380       ??_C@_1GE@PEEPNGBM@?$AAf?$AA?3?$AA?2?$AAd?$AAd?$AA?2?$AAv?$AAc?$AAt?$AAo?$AAo?$AAl?$AAs?$AA?2?$AAc?$AAr?$AAt?$AA_?$AAb?$AAl?$AAd?$AA?2?$AAs?$AAe?$AAl?$AAf?$AA_?$AAx?$AA8?$AA6?$AA?2?$AAc@ 100e4380     LIBCMTD:vfprintf.obj
 0003:0000c3f8       ??_C@_1HO@MLMGPAFH@?$AA?$CI?$AA?$CC?$AAi?$AAn?$AAc?$AAo?$AAn?$AAs?$AAi?$AAs?$AAt?$AAe?$AAn?$AAt?$AA?5?$AAI?$AAO?$AAB?$AA?5?$AAf?$AAi?$AAe?$AAl?$AAd?$AAs?$AA?$CC?$AA?0?$AA?5?$AAs?$AAt?$AAr?$AAe@ 100e43f8     LIBCMTD:_flsbuf.obj
 0003:0000c490       ??_C@_1GC@GNCCMPNN@?$AAf?$AA?3?$AA?2?$AAd?$AAd?$AA?2?$AAv?$AAc?$AAt?$AAo?$AAo?$AAl?$AAs?$AA?2?$AAc?$AAr?$AAt?$AA_?$AAb?$AAl?$AAd?$AA?2?$AAs?$AAe?$AAl?$AAf?$AA_?$AAx?$AA8?$AA6?$AA?2?$AAc@ 100e4490     LIBCMTD:_flsbuf.obj
 0003:0000c508       ??_C@_1BG@BBCDFOMA@?$AA_?$AAw?$AAo?$AAu?$AAt?$AAp?$AAu?$AAt?$AA_?$AAl?$AA?$AA@ 100e4508     LIBCMTD:woutput.obj
 0003:0000c528       ??_C@_1GC@CHGJNMHG@?$AAf?$AA?3?$AA?2?$AAd?$AAd?$AA?2?$AAv?$AAc?$AAt?$AAo?$AAo?$AAl?$AAs?$AA?2?$AAc?$AAr?$AAt?$AA_?$AAb?$AAl?$AAd?$AA?2?$AAs?$AAe?$AAl?$AAf?$AA_?$AAx?$AA8?$AA6?$AA?2?$AAc@ 100e4528     LIBCMTD:isctype.obj
 0003:0000c5a0       ??_C@_1DC@BPLPALML@?$AA?$CI?$AAu?$AAn?$AAs?$AAi?$AAg?$AAn?$AAe?$AAd?$AA?$CJ?$AA?$CI?$AAc?$AA?5?$AA?$CL?$AA?5?$AA1?$AA?$CJ?$AA?5?$AA?$DM?$AA?$DN?$AA?5?$AA2?$AA5?$AA6?$AA?$AA@ 100e45a0     LIBCMTD:isctype.obj
 0003:0000c5dc       ??_C@_0DB@MHMEONEC@f?3?2dd?2vctools?2crt_bld?2self_x86?2c@ 100e45dc     LIBCMTD:mbctype.obj
 0003:0000c618       ??_C@_07LCBHPJJN@LC_TIME?$AA@ 100e4618     LIBCMTD:setlocal.obj
 0003:0000c624       ??_C@_0L@DLHIECNL@LC_NUMERIC?$AA@ 100e4624     LIBCMTD:setlocal.obj
 0003:0000c634       ??_C@_0M@MIENIKLA@LC_MONETARY?$AA@ 100e4634     LIBCMTD:setlocal.obj
 0003:0000c644       ??_C@_08EADHIDAD@LC_CTYPE?$AA@ 100e4644     LIBCMTD:setlocal.obj
 0003:0000c650       ??_C@_0L@KFJHEKIK@LC_COLLATE?$AA@ 100e4650     LIBCMTD:setlocal.obj
 0003:0000c660       ??_C@_06NEFDFEKB@LC_ALL?$AA@ 100e4660     LIBCMTD:setlocal.obj
 0003:0000c668       ___lc_category             100e4668     LIBCMTD:setlocal.obj
 0003:0000c758       ??_C@_1GE@OLEIGPBJ@?$AAf?$AA?3?$AA?2?$AAd?$AAd?$AA?2?$AAv?$AAc?$AAt?$AAo?$AAo?$AAl?$AAs?$AA?2?$AAc?$AAr?$AAt?$AA_?$AAb?$AAl?$AAd?$AA?2?$AAs?$AAe?$AAl?$AAf?$AA_?$AAx?$AA8?$AA6?$AA?2?$AAc@ 100e4758     LIBCMTD:setlocal.obj
 0003:0000c7d0       ??_C@_1BKC@GGIENNAK@?$AA?$CI?$AA?$CI?$AAp?$AAt?$AAl?$AAo?$AAc?$AAi?$AA?9?$AA?$DO?$AAl?$AAc?$AA_?$AAc?$AAa?$AAt?$AAe?$AAg?$AAo?$AAr?$AAy?$AA?$FL?$AAc?$AAa?$AAt?$AAe?$AAg?$AAo?$AAr?$AAy?$AA?$FN?$AA?4@ 100e47d0     LIBCMTD:setlocal.obj
 0003:0000c9c8       ??_C@_1CI@FGIONOJM@?$AA_?$AAc?$AAo?$AAn?$AAf?$AAi?$AAg?$AAt?$AAh?$AAr?$AAe?$AAa?$AAd?$AAl?$AAo?$AAc?$AAa?$AAl?$AAe?$AA?$AA@ 100e49c8     LIBCMTD:setlocal.obj
 0003:0000c9f8       ??_C@_1GA@LDEGDKD@?$AA?$CI?$AA?$CC?$AAI?$AAn?$AAv?$AAa?$AAl?$AAi?$AAd?$AA?5?$AAp?$AAa?$AAr?$AAa?$AAm?$AAe?$AAt?$AAe?$AAr?$AA?5?$AAf?$AAo?$AAr?$AA?5?$AA_?$AAc?$AAo?$AAn?$AAf?$AAi?$AAg?$AAt@ 100e49f8     LIBCMTD:setlocal.obj
 0003:0000ca6c       ??_C@_0DC@JCPFNMID@f?3?2dd?2vctools?2crt_bld?2self_x86?2c@ 100e4a6c     LIBCMTD:setlocal.obj
 0003:0000caa8       ??_C@_1BE@DBJGBOJC@?$AAs?$AAe?$AAt?$AAl?$AAo?$AAc?$AAa?$AAl?$AAe?$AA?$AA@ 100e4aa8     LIBCMTD:setlocal.obj
 0003:0000cac0       ??_C@_1FG@OHLFEKMC@?$AAL?$AAC?$AA_?$AAM?$AAI?$AAN?$AA?5?$AA?$DM?$AA?$DN?$AA?5?$AA_?$AAc?$AAa?$AAt?$AAe?$AAg?$AAo?$AAr?$AAy?$AA?5?$AA?$CG?$AA?$CG?$AA?5?$AA_?$AAc?$AAa?$AAt?$AAe?$AAg?$AAo?$AAr?$AAy@ 100e4ac0     LIBCMTD:setlocal.obj
 0003:0000cb28       ??_C@_1IA@PFIKKKFB@?$AAs?$AAt?$AAr?$AAn?$AAc?$AAp?$AAy?$AA_?$AAs?$AA?$CI?$AAl?$AAc?$AAt?$AAe?$AAm?$AAp?$AA?0?$AA?5?$AA?$CI?$AAs?$AAi?$AAz?$AAe?$AAo?$AAf?$AA?$CI?$AAl?$AAc?$AAt?$AAe?$AAm?$AAp@ 100e4b28     LIBCMTD:setlocal.obj
 0003:0000cbc4       ??_C@_1CE@OFNHIOO@?$AA_?$AAs?$AAe?$AAt?$AAl?$AAo?$AAc?$AAa?$AAl?$AAe?$AA_?$AAn?$AAo?$AAl?$AAo?$AAc?$AAk?$AA?$AA@ 100e4bc4     LIBCMTD:setlocal.obj
 0003:0000cbf0       ??_C@_01ICJEACDI@?$DL?$AA@ 100e4bf0     LIBCMTD:setlocal.obj
 0003:0000cbf4       ??_C@_02BALPLPBG@?$DN?$DL?$AA@ 100e4bf4     LIBCMTD:setlocal.obj
 0003:0000cbf8       ??_C@_1GO@JALHLJEH@?$AAs?$AAt?$AAr?$AAc?$AAp?$AAy?$AA_?$AAs?$AA?$CI?$AAp?$AAc?$AAh?$AA?5?$AA?$CL?$AA?5?$AAs?$AAi?$AAz?$AAe?$AAo?$AAf?$AA?$CI?$AAi?$AAn?$AAt?$AA?$CJ?$AA?0?$AA?5?$AAc?$AAc?$AAh?$AA?5@ 100e4bf8     LIBCMTD:setlocal.obj
 0003:0000cc7c       ??_C@_1CG@IEFIICPK@?$AA_?$AAs?$AAe?$AAt?$AAl?$AAo?$AAc?$AAa?$AAl?$AAe?$AA_?$AAs?$AAe?$AAt?$AA_?$AAc?$AAa?$AAt?$AA?$AA@ 100e4c7c     LIBCMTD:setlocal.obj
 0003:0000ccac       ??_C@_1DA@GDKKLCLM@?$AAs?$AAt?$AAr?$AAc?$AAa?$AAt?$AA_?$AAs?$AA?$CI?$AAp?$AAc?$AAh?$AA?0?$AA?5?$AAc?$AAc?$AAh?$AA?0?$AA?5?$AA?$CC?$AA?$DL?$AA?$CC?$AA?$CJ?$AA?$AA@ 100e4cac     LIBCMTD:setlocal.obj
 0003:0000cce8       ??_C@_1CG@NNFIJLDA@?$AA_?$AAs?$AAe?$AAt?$AAl?$AAo?$AAc?$AAa?$AAl?$AAe?$AA_?$AAg?$AAe?$AAt?$AA_?$AAa?$AAl?$AAl?$AA?$AA@ 100e4ce8     LIBCMTD:setlocal.obj
 0003:0000cd18       ??_C@_01NEMOKFLO@?$DN?$AA@ 100e4d18     LIBCMTD:setlocal.obj
 0003:0000cd20       ??_C@_1FA@MHAOOIBO@?$AAs?$AAt?$AAr?$AAc?$AAp?$AAy?$AA_?$AAs?$AA?$CI?$AAo?$AAu?$AAt?$AAp?$AAu?$AAt?$AA?0?$AA?5?$AAs?$AAi?$AAz?$AAe?$AAI?$AAn?$AAC?$AAh?$AAa?$AAr?$AAs?$AA?0?$AA?5?$AAc?$AAa@ 100e4d20     LIBCMTD:setlocal.obj
 0003:0000cd80       ??_C@_1IA@ONNFOEDA@?$AAs?$AAt?$AAr?$AAn?$AAc?$AAp?$AAy?$AA_?$AAs?$AA?$CI?$AAc?$AAa?$AAc?$AAh?$AAe?$AAi?$AAn?$AA?0?$AA?5?$AAc?$AAa?$AAc?$AAh?$AAe?$AAi?$AAn?$AAS?$AAi?$AAz?$AAe?$AA?0?$AA?5@ 100e4d80     LIBCMTD:setlocal.obj
 0003:0000ce1c       ??_C@_01GFHCPBMG@C?$AA@    100e4e1c     LIBCMTD:setlocal.obj
 0003:0000ce20       ??_C@_1EG@MOMHKOD@?$AAs?$AAt?$AAr?$AAc?$AAp?$AAy?$AA_?$AAs?$AA?$CI?$AAo?$AAu?$AAt?$AAp?$AAu?$AAt?$AA?0?$AA?5?$AAs?$AAi?$AAz?$AAe?$AAI?$AAn?$AAC?$AAh?$AAa?$AAr?$AAs?$AA?0?$AA?5?$AA?$CC?$AAC@ 100e4e20     LIBCMTD:setlocal.obj
 0003:0000ce74       ??_C@_1BM@OIIBLEFG@?$AA_?$AAe?$AAx?$AAp?$AAa?$AAn?$AAd?$AAl?$AAo?$AAc?$AAa?$AAl?$AAe?$AA?$AA@ 100e4e74     LIBCMTD:setlocal.obj
 0003:0000ce98       ??_C@_1BGM@IJDLABMC@?$AAs?$AAt?$AAr?$AAc?$AAa?$AAt?$AA_?$AAs?$AA?$CI?$AAo?$AAu?$AAt?$AAs?$AAt?$AAr?$AA?0?$AA?5?$AAs?$AAi?$AAz?$AAe?$AAI?$AAn?$AAB?$AAy?$AAt?$AAe?$AAs?$AA?0?$AA?5?$AA?$CI?$AA?5@ 100e4e98     LIBCMTD:setlocal.obj
 0003:0000d04c       ??_C@_1BC@PIABMDIP@?$AA_?$AAs?$AAt?$AAr?$AAc?$AAa?$AAt?$AAs?$AA?$AA@ 100e504c     LIBCMTD:setlocal.obj
 0003:0000d068       ??_C@_1MM@NOPMGFHF@?$AAs?$AAt?$AAr?$AAn?$AAc?$AAp?$AAy?$AA_?$AAs?$AA?$CI?$AAn?$AAa?$AAm?$AAe?$AAs?$AA?9?$AA?$DO?$AAs?$AAz?$AAC?$AAo?$AAd?$AAe?$AAP?$AAa?$AAg?$AAe?$AA?0?$AA?5?$AA?$CI?$AAs?$AAi@ 100e5068     LIBCMTD:setlocal.obj
 0003:0000d160       ??_C@_1MG@PHNILIAG@?$AAs?$AAt?$AAr?$AAn?$AAc?$AAp?$AAy?$AA_?$AAs?$AA?$CI?$AAn?$AAa?$AAm?$AAe?$AAs?$AA?9?$AA?$DO?$AAs?$AAz?$AAC?$AAo?$AAu?$AAn?$AAt?$AAr?$AAy?$AA?0?$AA?5?$AA?$CI?$AAs?$AAi?$AAz@ 100e5160     LIBCMTD:setlocal.obj
 0003:0000d250       ??_C@_1MM@BFEECMAF@?$AAs?$AAt?$AAr?$AAn?$AAc?$AAp?$AAy?$AA_?$AAs?$AA?$CI?$AAn?$AAa?$AAm?$AAe?$AAs?$AA?9?$AA?$DO?$AAs?$AAz?$AAL?$AAa?$AAn?$AAg?$AAu?$AAa?$AAg?$AAe?$AA?0?$AA?5?$AA?$CI?$AAs?$AAi@ 100e5250     LIBCMTD:setlocal.obj
 0003:0000d344       ??_C@_03EGDHDPFD@_?4?0?$AA@ 100e5344     LIBCMTD:setlocal.obj
 0003:0000d348       ??_C@_1NG@FMOPGKGG@?$AAs?$AAt?$AAr?$AAn?$AAc?$AAp?$AAy?$AA_?$AAs?$AA?$CI?$AAn?$AAa?$AAm?$AAe?$AAs?$AA?9?$AA?$DO?$AAs?$AAz?$AAC?$AAo?$AAd?$AAe?$AAP?$AAa?$AAg?$AAe?$AA?0?$AA?5?$AA?$CI?$AAs?$AAi@ 100e5348     LIBCMTD:setlocal.obj
 0003:0000d448       ??_C@_1BK@CBMMLAGJ@?$AA_?$AA_?$AAl?$AAc?$AA_?$AAs?$AAt?$AAr?$AAt?$AAo?$AAl?$AAc?$AA?$AA@ 100e5448     LIBCMTD:setlocal.obj
 0003:0000d468       ??_C@_01LFCBOECM@?4?$AA@   100e5468     LIBCMTD:setlocal.obj
 0003:0000d46c       ??_C@_01IDAFKMJL@_?$AA@    100e546c     LIBCMTD:setlocal.obj
 0003:0000d470       ??_C@_1HC@IBDBLKCB@?$AAs?$AAt?$AAr?$AAc?$AAp?$AAy?$AA_?$AAs?$AA?$CI?$AAl?$AAo?$AAc?$AAa?$AAl?$AAe?$AA?0?$AA?5?$AAs?$AAi?$AAz?$AAe?$AAI?$AAn?$AAB?$AAy?$AAt?$AAe?$AAs?$AA?0?$AA?5?$AA?$CI?$AAc@ 100e5470     LIBCMTD:setlocal.obj
 0003:0000d4f8       ??_C@_1BK@FGDJDEPG@?$AA_?$AA_?$AAl?$AAc?$AA_?$AAl?$AAc?$AAt?$AAo?$AAs?$AAt?$AAr?$AA?$AA@ 100e54f8     LIBCMTD:setlocal.obj
 0003:0000d518       ??_C@_1BI@IGILPKD@?$AA_?$AAv?$AAs?$AAp?$AAr?$AAi?$AAn?$AAt?$AAf?$AA_?$AAl?$AA?$AA@ 100e5518     LIBCMTD:vsprintf.obj
 0003:0000d534       ??_C@_1CE@HMKDJHB@?$AA_?$AAv?$AAs?$AAc?$AAp?$AAr?$AAi?$AAn?$AAt?$AAf?$AA_?$AAh?$AAe?$AAl?$AAp?$AAe?$AAr?$AA?$AA@ 100e5534     LIBCMTD:vsprintf.obj
 0003:0000d560       ??_C@_1CE@PCFPEIFI@?$AA_?$AAv?$AAs?$AAn?$AAp?$AAr?$AAi?$AAn?$AAt?$AAf?$AA_?$AAh?$AAe?$AAl?$AAp?$AAe?$AAr?$AA?$AA@ 100e5560     LIBCMTD:vsnprnc.obj
 0003:0000d590       ??_C@_1EE@OKCKIGFK@?$AAs?$AAt?$AAr?$AAi?$AAn?$AAg?$AA?5?$AA?$CB?$AA?$DN?$AA?5?$AAN?$AAU?$AAL?$AAL?$AA?5?$AA?$CG?$AA?$CG?$AA?5?$AAs?$AAi?$AAz?$AAe?$AAI?$AAn?$AAB?$AAy?$AAt?$AAe?$AAs?$AA?5?$AA?$DO?$AA?5@ 100e5590     LIBCMTD:vsnprnc.obj
 0003:0000d5e4       ??_C@_1BM@BLJALHEF@?$AA_?$AAv?$AAs?$AAp?$AAr?$AAi?$AAn?$AAt?$AAf?$AA_?$AAs?$AA_?$AAl?$AA?$AA@ 100e55e4     LIBCMTD:vsnprnc.obj
 0003:0000d608       ??_C@_1BO@MMPELNIM@?$AA_?$AAv?$AAs?$AAn?$AAp?$AAr?$AAi?$AAn?$AAt?$AAf?$AA_?$AAs?$AA_?$AAl?$AA?$AA@ 100e5608     LIBCMTD:vsnprnc.obj
 0003:0000d62c       ??_C@_1DE@MMOGFGHF@?$AAs?$AAt?$AAr?$AAc?$AAp?$AAy?$AA_?$AAs?$AA?$CI?$AA?$CK?$AAe?$AAn?$AAv?$AA?0?$AA?5?$AAc?$AAc?$AAh?$AAa?$AAr?$AAs?$AA?0?$AA?5?$AAp?$AA?$CJ?$AA?$AA@ 100e562c     LIBCMTD:stdenvp.obj
 0003:0000d66c       ??_C@_1BC@GHMCNHHL@?$AA_?$AAs?$AAe?$AAt?$AAe?$AAn?$AAv?$AAp?$AA?$AA@ 100e566c     LIBCMTD:stdenvp.obj
 0003:0000d688       ??_C@_1GC@DGBFLDBN@?$AAf?$AA?3?$AA?2?$AAd?$AAd?$AA?2?$AAv?$AAc?$AAt?$AAo?$AAo?$AAl?$AAs?$AA?2?$AAc?$AAr?$AAt?$AA_?$AAb?$AAl?$AAd?$AA?2?$AAs?$AAe?$AAl?$AAf?$AA_?$AAx?$AA8?$AA6?$AA?2?$AAc@ 100e5688     LIBCMTD:stdenvp.obj
 0003:0000d700       ??_C@_0DB@BMEBJJKP@f?3?2dd?2vctools?2crt_bld?2self_x86?2c@ 100e5700     LIBCMTD:stdenvp.obj
 0003:0000d73c       ??_C@_0DB@OEPBJOLC@f?3?2dd?2vctools?2crt_bld?2self_x86?2c@ 100e573c     LIBCMTD:stdargv.obj
 0003:0000d778       ??_C@_0CP@PPLBCJDN@f?3?2dd?2vctools?2crt_bld?2self_x86?2c@ 100e5778     LIBCMTD:a_env.obj
 0003:0000d7b0       ??_C@_1GE@JDDMFOID@?$AAf?$AA?3?$AA?2?$AAd?$AAd?$AA?2?$AAv?$AAc?$AAt?$AAo?$AAo?$AAl?$AAs?$AA?2?$AAc?$AAr?$AAt?$AA_?$AAb?$AAl?$AAd?$AA?2?$AAs?$AAe?$AAl?$AAf?$AA_?$AAx?$AA8?$AA6?$AA?2?$AAc@ 100e57b0     LIBCMTD:heapinit.obj
 0003:0000d828       ??_C@_1BC@DENNNKIM@?$AA_?$AAc?$AAr?$AAt?$AAh?$AAe?$AAa?$AAp?$AA?$AA@ 100e5828     LIBCMTD:heapinit.obj
 0003:0000d840       ??_C@_0BB@NAGLCMLI@Assertion?5Failed?$AA@ 100e5840     LIBCMTD:dbgrpt.obj
 0003:0000d854       ??_C@_05NAOIJFC@Error?$AA@ 100e5854     LIBCMTD:dbgrpt.obj
 0003:0000d85c       ??_C@_07KGMMFLDN@Warning?$AA@ 100e585c     LIBCMTD:dbgrpt.obj
 0003:0000d878       ??_C@_1CG@GNMJDMIO@?$AA_?$AAC?$AAr?$AAt?$AAS?$AAe?$AAt?$AAR?$AAe?$AAp?$AAo?$AAr?$AAt?$AAH?$AAo?$AAo?$AAk?$AA2?$AA?$AA@ 100e5878     LIBCMTD:dbgrpt.obj
 0003:0000d8a8       ??_C@_0CD@EBCGLDDL@Microsoft?5Visual?5C?$CL?$CL?5Debug?5Libra@ 100e58a8     LIBCMTD:dbgrpt.obj
 0003:0000d8d4       ??_C@_0CL@EACFGMNB@_CrtDbgReport?3?5String?5too?5long?5o@ 100e58d4     LIBCMTD:dbgrpt.obj
 0003:0000d908       ??_C@_1JG@CPKCIOEE@?$AAs?$AAt?$AAr?$AAc?$AAp?$AAy?$AA_?$AAs?$AA?$CI?$AAs?$AAz?$AAO?$AAu?$AAt?$AAM?$AAe?$AAs?$AAs?$AAa?$AAg?$AAe?$AA?0?$AA?5?$AA4?$AA0?$AA9?$AA6?$AA?0?$AA?5?$AA?$CC?$AA_?$AAC@ 100e5908     LIBCMTD:dbgrpt.obj
 0003:0000d9c0       ??_C@_0FF@CCONDJCB@Debug?5?$CFs?$CB?6?6Program?3?5?$CFs?$CFs?$CFs?$CFs?$CFs?$CFs@ 100e59c0     LIBCMTD:dbgrpt.obj
 0003:0000da28       ??_C@_09OFBFHMBK@?6Module?3?5?$AA@ 100e5a28     LIBCMTD:dbgrpt.obj
 0003:0000da34       ??_C@_07OPHPPLBG@?6File?3?5?$AA@ 100e5a34     LIBCMTD:dbgrpt.obj
 0003:0000da40       ??_C@_07DBMPPHDI@?6Line?3?5?$AA@ 100e5a40     LIBCMTD:dbgrpt.obj
 0003:0000da4c       ??_C@_0N@MEECIJGN@Expression?3?5?$AA@ 100e5a4c     LIBCMTD:dbgrpt.obj
 0003:0000da60       ??_C@_0HD@GNBNFCCL@?6?6For?5information?5on?5how?5your?5pr@ 100e5a60     LIBCMTD:dbgrpt.obj
 0003:0000daf0       ??_C@_1GG@DLDHOIGE@?$AAs?$AAt?$AAr?$AAc?$AAp?$AAy?$AA_?$AAs?$AA?$CI?$AAs?$AAz?$AAE?$AAx?$AAe?$AAN?$AAa?$AAm?$AAe?$AA?0?$AA?5?$AA2?$AA6?$AA0?$AA?0?$AA?5?$AA?$CC?$AA?$DM?$AAp?$AAr?$AAo?$AAg?$AAr@ 100e5af0     LIBCMTD:dbgrpt.obj
 0003:0000db6c       ??_C@_1CI@IDOKFLAJ@?$AA_?$AA_?$AAc?$AAr?$AAt?$AAM?$AAe?$AAs?$AAs?$AAa?$AAg?$AAe?$AAW?$AAi?$AAn?$AAd?$AAo?$AAw?$AAA?$AA?$AA@ 100e5b6c     LIBCMTD:dbgrpt.obj
 0003:0000db9c       ??_C@_1BK@JMCGJOCC@?$AA_?$AAe?$AAx?$AAp?$AAa?$AAn?$AAd?$AA_?$AAb?$AAa?$AAs?$AAe?$AA?$AA@ 100e5b9c     LIBCMTD:expand.obj
 0003:0000dbc0       ??_C@_1GA@EBHFLDNH@?$AAf?$AA?3?$AA?2?$AAd?$AAd?$AA?2?$AAv?$AAc?$AAt?$AAo?$AAo?$AAl?$AAs?$AA?2?$AAc?$AAr?$AAt?$AA_?$AAb?$AAl?$AAd?$AA?2?$AAs?$AAe?$AAl?$AAf?$AA_?$AAx?$AA8?$AA6?$AA?2?$AAc@ 100e5bc0     LIBCMTD:expand.obj
 0003:0000dc34       ??_C@_1BO@KFIJIAEA@?$AAp?$AAB?$AAl?$AAo?$AAc?$AAk?$AA?5?$AA?$CB?$AA?$DN?$AA?5?$AAN?$AAU?$AAL?$AAL?$AA?$AA@ 100e5c34     LIBCMTD:expand.obj
 0003:0000dc58       ??_C@_0BF@PEEJCKGM@HeapQueryInformation?$AA@ 100e5c58     LIBCMTD:expand.obj
 0003:0000dc74       ??_C@_1BK@MGMFAEKH@?$AAk?$AAe?$AAr?$AAn?$AAe?$AAl?$AA3?$AA2?$AA?4?$AAd?$AAl?$AAl?$AA?$AA@ 100e5c74     LIBCMTD:expand.obj
 0003:0000dc98       ??_C@_1GA@CMCJKKIB@?$AAf?$AA?3?$AA?2?$AAd?$AAd?$AA?2?$AAv?$AAc?$AAt?$AAo?$AAo?$AAl?$AAs?$AA?2?$AAc?$AAr?$AAt?$AA_?$AAb?$AAl?$AAd?$AA?2?$AAs?$AAe?$AAl?$AAf?$AA_?$AAx?$AA8?$AA6?$AA?2?$AAc@ 100e5c98     LIBCMTD:sbheap.obj
 0003:0000dd10       ??_C@_1IC@MOGBEBCE@?$AA?$CI?$AAt?$AAh?$AAr?$AAe?$AAs?$AAh?$AAo?$AAl?$AAd?$AA?5?$AA?$DM?$AA?$DN?$AA?5?$AAM?$AAA?$AAX?$AA_?$AAA?$AAL?$AAL?$AAO?$AAC?$AA_?$AAD?$AAA?$AAT?$AAA?$AA_?$AAS?$AAI?$AAZ@ 100e5d10     LIBCMTD:sbheap.obj
 0003:0000ddac       ??_C@_1CG@BBFCGKBK@?$AA_?$AAs?$AAe?$AAt?$AA_?$AAs?$AAb?$AAh?$AA_?$AAt?$AAh?$AAr?$AAe?$AAs?$AAh?$AAo?$AAl?$AAd?$AA?$AA@ 100e5dac     LIBCMTD:sbheap.obj
 0003:0000dde0       ??_C@_1EC@DACAONFE@?$AAt?$AAh?$AAr?$AAe?$AAs?$AAh?$AAo?$AAl?$AAd?$AA?5?$AA?$DM?$AA?$DN?$AA?5?$AAM?$AAA?$AAX?$AA_?$AAA?$AAL?$AAL?$AAO?$AAC?$AA_?$AAD?$AAA?$AAT?$AAA?$AA_?$AAS?$AAI?$AAZ?$AAE@ 100e5de0     LIBCMTD:sbheap.obj
 0003:0000de30       ??_C@_1BM@GFNECEDD@?$AA_?$AAs?$AAe?$AAt?$AA_?$AAa?$AAm?$AAb?$AAl?$AAk?$AAs?$AAi?$AAz?$AA?$AA@ 100e5e30     LIBCMTD:sbheap.obj
 0003:0000de54       ??_C@_1DK@BKLENMLC@?$AA0?$AA?5?$AA?$DM?$AA?5?$AAs?$AAi?$AAz?$AAe?$AA?5?$AA?$CG?$AA?$CG?$AA?5?$AAs?$AAi?$AAz?$AAe?$AA?5?$AA?$DM?$AA?$DN?$AA?5?$AAU?$AAI?$AAN?$AAT?$AA_?$AAM?$AAA?$AAX?$AA?$AA@ 100e5e54     LIBCMTD:sbheap.obj
 0003:0000de9c       ??_C@_1BM@OFBCOJJF@?$AA_?$AAg?$AAe?$AAt?$AA_?$AAa?$AAm?$AAb?$AAl?$AAk?$AAs?$AAi?$AAz?$AA?$AA@ 100e5e9c     LIBCMTD:sbheap.obj
 0003:0000dec0       ??_C@_1BM@IELHFPPM@?$AAp?$AAS?$AAi?$AAz?$AAe?$AA?5?$AA?$CB?$AA?$DN?$AA?5?$AAN?$AAU?$AAL?$AAL?$AA?$AA@ 100e5ec0     LIBCMTD:sbheap.obj
 0003:0000dee4       ??_C@_1O@KLNKIMAP@?$AAf?$AAw?$AAr?$AAi?$AAt?$AAe?$AA?$AA@ 100e5ee4     LIBCMTD:fwrite.obj
 0003:0000def8       ??_C@_1GA@DOFNKKGD@?$AAf?$AA?3?$AA?2?$AAd?$AAd?$AA?2?$AAv?$AAc?$AAt?$AAo?$AAo?$AAl?$AAs?$AA?2?$AAc?$AAr?$AAt?$AA_?$AAb?$AAl?$AAd?$AA?2?$AAs?$AAe?$AAl?$AAf?$AA_?$AAx?$AA8?$AA6?$AA?2?$AAc@ 100e5ef8     LIBCMTD:fwrite.obj
 0003:0000df70       ??_C@_1LG@DCNDJCHK@?$AA?$CI?$AA?$CC?$AAI?$AAn?$AAc?$AAo?$AAn?$AAs?$AAi?$AAs?$AAt?$AAe?$AAn?$AAt?$AA?5?$AAS?$AAt?$AAr?$AAe?$AAa?$AAm?$AA?5?$AAC?$AAo?$AAu?$AAn?$AAt?$AA?4?$AA?5?$AAF?$AAl?$AAu@ 100e5f70     LIBCMTD:fwrite.obj
 0003:0000e04c       ??_C@_1DC@FHEPNAPF@?$AAn?$AAu?$AAm?$AA?5?$AA?$DM?$AA?$DN?$AA?5?$AA?$CI?$AAS?$AAI?$AAZ?$AAE?$AA_?$AAM?$AAA?$AAX?$AA?5?$AA?1?$AA?5?$AAs?$AAi?$AAz?$AAe?$AA?$CJ?$AA?$AA@ 100e604c     LIBCMTD:fwrite.obj
 0003:0000e088       ??_C@_1CC@CGFEEBMC@?$AA?$CI?$AAb?$AAu?$AAf?$AAf?$AAe?$AAr?$AA?5?$AA?$CB?$AA?$DN?$AA?5?$AAN?$AAU?$AAL?$AAL?$AA?$CJ?$AA?$AA@ 100e6088     LIBCMTD:fwrite.obj
 0003:0000e0b0       ??_C@_1BO@JGPKCBCE@?$AA_?$AAf?$AAw?$AAr?$AAi?$AAt?$AAe?$AA_?$AAn?$AAo?$AAl?$AAo?$AAc?$AAk?$AA?$AA@ 100e60b0     LIBCMTD:fwrite.obj
 0003:0000e0d4       ??_C@_1DG@LNNHNFHJ@?$AA?$CI?$AA_?$AAo?$AAs?$AAf?$AAi?$AAl?$AAe?$AA?$CI?$AAf?$AAi?$AAl?$AAe?$AAd?$AAe?$AAs?$AA?$CJ?$AA?5?$AA?$CG?$AA?5?$AAF?$AAO?$AAP?$AAE?$AAN?$AA?$CJ?$AA?$AA@ 100e60d4     LIBCMTD:commit.obj
 0003:0000e114       ??_C@_1BA@FLNMBBIM@?$AA_?$AAc?$AAo?$AAm?$AAm?$AAi?$AAt?$AA?$AA@ 100e6114     LIBCMTD:commit.obj
 0003:0000e128       ??_C@_1GA@BOPCOCFN@?$AAf?$AA?3?$AA?2?$AAd?$AAd?$AA?2?$AAv?$AAc?$AAt?$AAo?$AAo?$AAl?$AAs?$AA?2?$AAc?$AAr?$AAt?$AA_?$AAb?$AAl?$AAd?$AA?2?$AAs?$AAe?$AAl?$AAf?$AA_?$AAx?$AA8?$AA6?$AA?2?$AAc@ 100e6128     LIBCMTD:commit.obj
 0003:0000e1a0       ??_C@_1HC@KFLBHHBC@?$AA?$CI?$AAf?$AAi?$AAl?$AAe?$AAd?$AAe?$AAs?$AA?5?$AA?$DO?$AA?$DN?$AA?5?$AA0?$AA?5?$AA?$CG?$AA?$CG?$AA?5?$AA?$CI?$AAu?$AAn?$AAs?$AAi?$AAg?$AAn?$AAe?$AAd?$AA?$CJ?$AAf?$AAi?$AAl?$AAe?$AAd@ 100e61a0     LIBCMTD:commit.obj
 0003:0000e228       ??_C@_1O@KOFKDHPL@?$AA_?$AAw?$AAr?$AAi?$AAt?$AAe?$AA?$AA@ 100e6228     LIBCMTD:write.obj
 0003:0000e238       ??_C@_1FO@EPLDPDDL@?$AAf?$AA?3?$AA?2?$AAd?$AAd?$AA?2?$AAv?$AAc?$AAt?$AAo?$AAo?$AAl?$AAs?$AA?2?$AAc?$AAr?$AAt?$AA_?$AAb?$AAl?$AAd?$AA?2?$AAs?$AAe?$AAl?$AAf?$AA_?$AAx?$AA8?$AA6?$AA?2?$AAc@ 100e6238     LIBCMTD:write.obj
 0003:0000e2a8       ??_C@_1DI@CNMHHHLG@?$AAi?$AAs?$AAl?$AAe?$AAa?$AAd?$AAb?$AAy?$AAt?$AAe?$AA?$CI?$AA_?$AAd?$AAb?$AAc?$AAs?$AAB?$AAu?$AAf?$AAf?$AAe?$AAr?$AA?$CI?$AAf?$AAh?$AA?$CJ?$AA?$CJ?$AA?$AA@ 100e62a8     LIBCMTD:write.obj
 0003:0000e2ec       ??_C@_1CC@EEOLPHGO@?$AA?$CI?$AA?$CI?$AAc?$AAn?$AAt?$AA?5?$AA?$CG?$AA?5?$AA1?$AA?$CJ?$AA?5?$AA?$DN?$AA?$DN?$AA?5?$AA0?$AA?$CJ?$AA?$AA@ 100e62ec     LIBCMTD:write.obj
 0003:0000e314       ??_C@_1BM@NCANHCIP@?$AA_?$AAw?$AAr?$AAi?$AAt?$AAe?$AA_?$AAn?$AAo?$AAl?$AAo?$AAc?$AAk?$AA?$AA@ 100e6314     LIBCMTD:write.obj
 0003:0000e338       ??_C@_1BM@KFJLMBPG@?$AA?$CI?$AAb?$AAu?$AAf?$AA?5?$AA?$CB?$AA?$DN?$AA?5?$AAN?$AAU?$AAL?$AAL?$AA?$CJ?$AA?$AA@ 100e6338     LIBCMTD:write.obj
 0003:0000e360       ??_C@_1NK@LOFHIHFC@?$AAf?$AAM?$AAo?$AAd?$AAe?$AA?5?$AA?$DN?$AA?$DN?$AA?5?$AA_?$AAC?$AAR?$AAT?$AAD?$AAB?$AAG?$AA_?$AAR?$AAE?$AAP?$AAO?$AAR?$AAT?$AA_?$AAM?$AAO?$AAD?$AAE?$AA?5?$AA?$HM?$AA?$HM?$AA?5@ 100e6360     LIBCMTD:dbgrptt.obj
 0003:0000e468       ??_C@_1CE@FIHIECNJ@?$AA_?$AAC?$AAr?$AAt?$AAS?$AAe?$AAt?$AAR?$AAe?$AAp?$AAo?$AAr?$AAt?$AAM?$AAo?$AAd?$AAe?$AA?$AA@ 100e6468     LIBCMTD:dbgrptt.obj
 0003:0000e498       ??_C@_1GC@FIGJJMEN@?$AAf?$AA?3?$AA?2?$AAd?$AAd?$AA?2?$AAv?$AAc?$AAt?$AAo?$AAo?$AAl?$AAs?$AA?2?$AAc?$AAr?$AAt?$AA_?$AAb?$AAl?$AAd?$AA?2?$AAs?$AAe?$AAl?$AAf?$AA_?$AAx?$AA8?$AA6?$AA?2?$AAc@ 100e6498     LIBCMTD:dbgrptt.obj
 0003:0000e510       ??_C@_1FA@IFFFOLDJ@?$AAn?$AAR?$AAp?$AAt?$AAT?$AAy?$AAp?$AAe?$AA?5?$AA?$DO?$AA?$DN?$AA?5?$AA0?$AA?5?$AA?$CG?$AA?$CG?$AA?5?$AAn?$AAR?$AAp?$AAt?$AAT?$AAy?$AAp?$AAe?$AA?5?$AA?$DM?$AA?5?$AA_?$AAC?$AAR?$AAT@ 100e6510     LIBCMTD:dbgrptt.obj
 0003:0000e570       ??_C@_1CE@IKKEDCME@?$AA_?$AAC?$AAr?$AAt?$AAS?$AAe?$AAt?$AAR?$AAe?$AAp?$AAo?$AAr?$AAt?$AAF?$AAi?$AAl?$AAe?$AA?$AA@ 100e6570     LIBCMTD:dbgrptt.obj
 0003:0000e5a0       ??_C@_1HO@PJOFIKFE@?$AA_?$AAC?$AAr?$AAt?$AAD?$AAb?$AAg?$AAR?$AAe?$AAp?$AAo?$AAr?$AAt?$AA?3?$AA?5?$AAS?$AAt?$AAr?$AAi?$AAn?$AAg?$AA?5?$AAt?$AAo?$AAo?$AA?5?$AAl?$AAo?$AAn?$AAg?$AA?5?$AAo@ 100e65a0     LIBCMTD:dbgrptt.obj
 0003:0000e638       ??_C@_1MC@IGEECMDB@?$AAw?$AAc?$AAs?$AAc?$AAp?$AAy?$AA_?$AAs?$AA?$CI?$AAs?$AAz?$AAO?$AAu?$AAt?$AAM?$AAe?$AAs?$AAs?$AAa?$AAg?$AAe?$AA2?$AA?0?$AA?5?$AA4?$AA0?$AA9?$AA6?$AA?0?$AA?5?$AAL?$AA?$CC@ 100e6638     LIBCMTD:dbgrptt.obj
 0003:0000e720       ??_C@_1IM@OOKIFKOH@?$AAe?$AA?5?$AA?$DN?$AA?5?$AAm?$AAb?$AAs?$AAt?$AAo?$AAw?$AAc?$AAs?$AA_?$AAs?$AA?$CI?$AA?$CG?$AAr?$AAe?$AAt?$AA?0?$AA?5?$AAs?$AAz?$AAO?$AAu?$AAt?$AAM?$AAe?$AAs?$AAs?$AAa?$AAg@ 100e6720     LIBCMTD:dbgrptt.obj
 0003:0000e7c8       ??_C@_1FI@IBIOIHEG@?$AAs?$AAt?$AAr?$AAc?$AAp?$AAy?$AA_?$AAs?$AA?$CI?$AAs?$AAz?$AAO?$AAu?$AAt?$AAM?$AAe?$AAs?$AAs?$AAa?$AAg?$AAe?$AA?0?$AA?5?$AA4?$AA0?$AA9?$AA6?$AA?0?$AA?5?$AAs?$AAz?$AAL@ 100e67c8     LIBCMTD:dbgrptt.obj
 0003:0000e834       ??_C@_0M@IPILFDFN@?$CFs?$CI?$CFd?$CJ?5?3?5?$CFs?$AA@ 100e6834     LIBCMTD:dbgrptt.obj
 0003:0000e848       ??_C@_1EI@LDHJEDO@?$AAs?$AAt?$AAr?$AAc?$AAa?$AAt?$AA_?$AAs?$AA?$CI?$AAs?$AAz?$AAL?$AAi?$AAn?$AAe?$AAM?$AAe?$AAs?$AAs?$AAa?$AAg?$AAe?$AA?0?$AA?5?$AA4?$AA0?$AA9?$AA6?$AA?0?$AA?5?$AA?$CC?$AA?2@ 100e6848     LIBCMTD:dbgrptt.obj
 0003:0000e8a0       ??_C@_01LIIJDEN@?$AN?$AA@  100e68a0     LIBCMTD:dbgrptt.obj
 0003:0000e8a8       ??_C@_1EI@CACDLAFK@?$AAs?$AAt?$AAr?$AAc?$AAa?$AAt?$AA_?$AAs?$AA?$CI?$AAs?$AAz?$AAL?$AAi?$AAn?$AAe?$AAM?$AAe?$AAs?$AAs?$AAa?$AAg?$AAe?$AA?0?$AA?5?$AA4?$AA0?$AA9?$AA6?$AA?0?$AA?5?$AA?$CC?$AA?2@ 100e68a8     LIBCMTD:dbgrptt.obj
 0003:0000e900       ??_C@_1FK@NPGBPOFO@?$AAs?$AAt?$AAr?$AAc?$AAa?$AAt?$AA_?$AAs?$AA?$CI?$AAs?$AAz?$AAL?$AAi?$AAn?$AAe?$AAM?$AAe?$AAs?$AAs?$AAa?$AAg?$AAe?$AA?0?$AA?5?$AA4?$AA0?$AA9?$AA6?$AA?0?$AA?5?$AAs?$AAz@ 100e6900     LIBCMTD:dbgrptt.obj
 0003:0000e970       ??_C@_1KK@GIGAEDMO@?$AAs?$AAt?$AAr?$AAc?$AAp?$AAy?$AA_?$AAs?$AA?$CI?$AAs?$AAz?$AAL?$AAi?$AAn?$AAe?$AAM?$AAe?$AAs?$AAs?$AAa?$AAg?$AAe?$AA?0?$AA?5?$AA4?$AA0?$AA9?$AA6?$AA?0?$AA?5?$AAs?$AAz@ 100e6970     LIBCMTD:dbgrptt.obj
 0003:0000ea3c       ??_C@_0BC@LAIDCHCH@Assertion?5failed?$CB?$AA@ 100e6a3c     LIBCMTD:dbgrptt.obj
 0003:0000ea54       ??_C@_0BD@CAENFOHP@Assertion?5failed?3?5?$AA@ 100e6a54     LIBCMTD:dbgrptt.obj
 0003:0000ea70       ??_C@_1JI@GAALPGBM@?$AAs?$AAt?$AAr?$AAc?$AAp?$AAy?$AA_?$AAs?$AA?$CI?$AAs?$AAz?$AAU?$AAs?$AAe?$AAr?$AAM?$AAe?$AAs?$AAs?$AAa?$AAg?$AAe?$AA?0?$AA?5?$AA4?$AA0?$AA9?$AA6?$AA?0?$AA?5?$AA?$CC?$AA_@ 100e6a70     LIBCMTD:dbgrptt.obj
 0003:0000eb28       ??_C@_07BHGABMGB@?0?5Line?5?$AA@ 100e6b28     LIBCMTD:dbgrptt.obj
 0003:0000eb34       ??_C@_0P@DFJNDPOP@?$DMfile?5unknown?$DO?$AA@ 100e6b34     LIBCMTD:dbgrptt.obj
 0003:0000eb48       ??_C@_0CG@BNGLOCEO@Second?5Chance?5Assertion?5Failed?3?5@ 100e6b48     LIBCMTD:dbgrptt.obj
 0003:0000eb78       ??_C@_1FA@JPHJBHEM@?$AA_?$AAi?$AAt?$AAo?$AAa?$AA_?$AAs?$AA?$CI?$AAn?$AAL?$AAi?$AAn?$AAe?$AA?0?$AA?5?$AAs?$AAz?$AAL?$AAi?$AAn?$AAe?$AAM?$AAe?$AAs?$AAs?$AAa?$AAg?$AAe?$AA?0?$AA?5?$AA4?$AA0@ 100e6b78     LIBCMTD:dbgrptt.obj
 0003:0000ebd8       ??_C@_1CA@KHJHLKA@?$AA_?$AAV?$AAC?$AAr?$AAt?$AAD?$AAb?$AAg?$AAR?$AAe?$AAp?$AAo?$AAr?$AAt?$AAA?$AA?$AA@ 100e6bd8     LIBCMTD:dbgrptt.obj
 0003:0000ec00       ??_C@_1IE@CPGKIAGP@?$AAw?$AAc?$AAs?$AAt?$AAo?$AAm?$AAb?$AAs?$AA_?$AAs?$AA?$CI?$AA?$CG?$AAr?$AAe?$AAt?$AA?0?$AA?5?$AAs?$AAz?$AAa?$AAO?$AAu?$AAt?$AAM?$AAe?$AAs?$AAs?$AAa?$AAg?$AAe?$AA?0?$AA?5@ 100e6c00     LIBCMTD:dbgrptt.obj
 0003:0000eca0       ??_C@_0DP@GNPEPHJD@_CrtDbgReport?3?5String?5too?5long?5o@ 100e6ca0     LIBCMTD:dbgrptt.obj
 0003:0000ecf0       ??_C@_1MA@LBAMNNOB@?$AAs?$AAt?$AAr?$AAc?$AAp?$AAy?$AA_?$AAs?$AA?$CI?$AAs?$AAz?$AAO?$AAu?$AAt?$AAM?$AAe?$AAs?$AAs?$AAa?$AAg?$AAe?$AA2?$AA?0?$AA?5?$AA4?$AA0?$AA9?$AA6?$AA?0?$AA?5?$AA?$CC?$AA_@ 100e6cf0     LIBCMTD:dbgrptt.obj
 0003:0000edd8       ??_C@_1JC@EOAPFDLN@?$AAw?$AAc?$AAs?$AAt?$AAo?$AAm?$AAb?$AAs?$AA_?$AAs?$AA?$CI?$AA?$CI?$AA?$CI?$AAv?$AAo?$AAi?$AAd?$AA?5?$AA?$CK?$AA?$CJ?$AA0?$AA?$CJ?$AA?0?$AA?5?$AAs?$AAz?$AAO?$AAu?$AAt?$AAM?$AAe?$AAs@ 100e6dd8     LIBCMTD:dbgrptt.obj
 0003:0000ee88       ??_C@_1FI@DBAIJPJE@?$AAw?$AAc?$AAs?$AAc?$AAp?$AAy?$AA_?$AAs?$AA?$CI?$AAs?$AAz?$AAO?$AAu?$AAt?$AAM?$AAe?$AAs?$AAs?$AAa?$AAg?$AAe?$AA?0?$AA?5?$AA4?$AA0?$AA9?$AA6?$AA?0?$AA?5?$AAs?$AAz?$AAL@ 100e6e88     LIBCMTD:dbgrptt.obj
 0003:0000eef4       ??_C@_1BI@JIDBEPIG@?$AA?$CF?$AAs?$AA?$CI?$AA?$CF?$AAd?$AA?$CJ?$AA?5?$AA?3?$AA?5?$AA?$CF?$AAs?$AA?$AA@ 100e6ef4     LIBCMTD:dbgrptt.obj
 0003:0000ef10       ??_C@_1EK@PHCBEDKB@?$AAw?$AAc?$AAs?$AAc?$AAa?$AAt?$AA_?$AAs?$AA?$CI?$AAs?$AAz?$AAL?$AAi?$AAn?$AAe?$AAM?$AAe?$AAs?$AAs?$AAa?$AAg?$AAe?$AA?0?$AA?5?$AA4?$AA0?$AA9?$AA6?$AA?0?$AA?5?$AAL?$AA?$CC@ 100e6f10     LIBCMTD:dbgrptt.obj
 0003:0000ef68       ??_C@_13CMNBPIDO@?$AA?$AN?$AA?$AA@ 100e6f68     LIBCMTD:dbgrptt.obj
 0003:0000ef70       ??_C@_1EK@NMDFGHMF@?$AAw?$AAc?$AAs?$AAc?$AAa?$AAt?$AA_?$AAs?$AA?$CI?$AAs?$AAz?$AAL?$AAi?$AAn?$AAe?$AAM?$AAe?$AAs?$AAs?$AAa?$AAg?$AAe?$AA?0?$AA?5?$AA4?$AA0?$AA9?$AA6?$AA?0?$AA?5?$AAL?$AA?$CC@ 100e6f70     LIBCMTD:dbgrptt.obj
 0003:0000efc8       ??_C@_1FK@HPADHBBD@?$AAw?$AAc?$AAs?$AAc?$AAa?$AAt?$AA_?$AAs?$AA?$CI?$AAs?$AAz?$AAL?$AAi?$AAn?$AAe?$AAM?$AAe?$AAs?$AAs?$AAa?$AAg?$AAe?$AA?0?$AA?5?$AA4?$AA0?$AA9?$AA6?$AA?0?$AA?5?$AAs?$AAz@ 100e6fc8     LIBCMTD:dbgrptt.obj
 0003:0000f038       ??_C@_1KO@DGAHENCH@?$AAw?$AAc?$AAs?$AAc?$AAp?$AAy?$AA_?$AAs?$AA?$CI?$AAs?$AAz?$AAL?$AAi?$AAn?$AAe?$AAM?$AAe?$AAs?$AAs?$AAa?$AAg?$AAe?$AA?0?$AA?5?$AA4?$AA0?$AA9?$AA6?$AA?0?$AA?5?$AAs?$AAz@ 100e7038     LIBCMTD:dbgrptt.obj
 0003:0000f108       ??_C@_1CG@FFFGGODN@?$AAA?$AAs?$AAs?$AAe?$AAr?$AAt?$AAi?$AAo?$AAn?$AA?5?$AAf?$AAa?$AAi?$AAl?$AAe?$AAd?$AA?3?$AA?5?$AA?$AA@ 100e7108     LIBCMTD:dbgrptt.obj
 0003:0000f138       ??_C@_1JK@KHFABAEO@?$AAw?$AAc?$AAs?$AAc?$AAp?$AAy?$AA_?$AAs?$AA?$CI?$AAs?$AAz?$AAU?$AAs?$AAe?$AAr?$AAM?$AAe?$AAs?$AAs?$AAa?$AAg?$AAe?$AA?0?$AA?5?$AA4?$AA0?$AA9?$AA6?$AA?0?$AA?5?$AAL?$AA?$CC@ 100e7138     LIBCMTD:dbgrptt.obj
 0003:0000f1f0       ??_C@_1BA@ELMMDCFC@?$AA?0?$AA?5?$AAL?$AAi?$AAn?$AAe?$AA?5?$AA?$AA@ 100e71f0     LIBCMTD:dbgrptt.obj
 0003:0000f204       ??_C@_1BO@OCHMLCAG@?$AA?$DM?$AAf?$AAi?$AAl?$AAe?$AA?5?$AAu?$AAn?$AAk?$AAn?$AAo?$AAw?$AAn?$AA?$DO?$AA?$AA@ 100e7204     LIBCMTD:dbgrptt.obj
 0003:0000f228       ??_C@_1EM@MJFLEDMB@?$AAS?$AAe?$AAc?$AAo?$AAn?$AAd?$AA?5?$AAC?$AAh?$AAa?$AAn?$AAc?$AAe?$AA?5?$AAA?$AAs?$AAs?$AAe?$AAr?$AAt?$AAi?$AAo?$AAn?$AA?5?$AAF?$AAa?$AAi?$AAl?$AAe?$AAd?$AA?3?$AA?5@ 100e7228     LIBCMTD:dbgrptt.obj
 0003:0000f288       ??_C@_1FA@CNLLOMHI@?$AA_?$AAi?$AAt?$AAo?$AAw?$AA_?$AAs?$AA?$CI?$AAn?$AAL?$AAi?$AAn?$AAe?$AA?0?$AA?5?$AAs?$AAz?$AAL?$AAi?$AAn?$AAe?$AAM?$AAe?$AAs?$AAs?$AAa?$AAg?$AAe?$AA?0?$AA?5?$AA4?$AA0@ 100e7288     LIBCMTD:dbgrptt.obj
 0003:0000f2e8       ??_C@_1CA@HPALHDOD@?$AA_?$AAV?$AAC?$AAr?$AAt?$AAD?$AAb?$AAg?$AAR?$AAe?$AAp?$AAo?$AAr?$AAt?$AAW?$AA?$AA@ 100e72e8     LIBCMTD:dbgrptt.obj
 0003:0000f310       ??_C@_1BE@BMIJMLDD@?$AA_?$AAs?$AAw?$AAp?$AAr?$AAi?$AAn?$AAt?$AAf?$AA?$AA@ 100e7310     LIBCMTD:swprintf.obj
 0003:0000f328       ??_C@_0BK@CFCOFLF@?5Complete?5Object?5Locator?8?$AA@ 100e7328     LIBCMTD:undname.obj
 0003:0000f348       ??_C@_0BN@MECKDCOJ@?5Class?5Hierarchy?5Descriptor?8?$AA@ 100e7348     LIBCMTD:undname.obj
 0003:0000f36c       ??_C@_0BD@LGICGFMM@?5Base?5Class?5Array?8?$AA@ 100e736c     LIBCMTD:undname.obj
 0003:0000f384       ??_C@_0BM@LDKODKLH@?5Base?5Class?5Descriptor?5at?5?$CI?$AA@ 100e7384     LIBCMTD:undname.obj
 0003:0000f3a8       ??_C@_0BC@DAFEJGAK@?5Type?5Descriptor?8?$AA@ 100e73a8     LIBCMTD:undname.obj
 0003:0000f3c0       ??_C@_0BM@PMGGMLDN@?$GAlocal?5static?5thread?5guard?8?$AA@ 100e73c0     LIBCMTD:undname.obj
 0003:0000f3e4       ??_C@_0CL@FGIJHLCE@?$GAmanaged?5vector?5copy?5constructor@ 100e73e4     LIBCMTD:undname.obj
 0003:0000f418       ??_C@_0CJ@GJELGAMM@?$GAvector?5vbase?5copy?5constructor?5i@ 100e7418     LIBCMTD:undname.obj
 0003:0000f44c       ??_C@_0CD@CGAJBKEJ@?$GAvector?5copy?5constructor?5iterato@ 100e744c     LIBCMTD:undname.obj
 0003:0000f478       ??_C@_0CB@PDBIFEP@?$GAdynamic?5atexit?5destructor?5for?5?8@ 100e7478     LIBCMTD:undname.obj
 0003:0000f4a0       ??_C@_0BL@CLIPGLGB@?$GAdynamic?5initializer?5for?5?8?$AA@ 100e74a0     LIBCMTD:undname.obj
 0003:0000f4c0       ??_C@_0CM@FCBBDIGB@?$GAeh?5vector?5vbase?5copy?5constructo@ 100e74c0     LIBCMTD:undname.obj
 0003:0000f4f4       ??_C@_0CG@HLDDJMAG@?$GAeh?5vector?5copy?5constructor?5iter@ 100e74f4     LIBCMTD:undname.obj
 0003:0000f524       ??_C@_0CF@IMGKMJNO@?$GAmanaged?5vector?5destructor?5itera@ 100e7524     LIBCMTD:undname.obj
 0003:0000f550       ??_C@_0CG@CFDHKGGD@?$GAmanaged?5vector?5constructor?5iter@ 100e7550     LIBCMTD:undname.obj
 0003:0000f580       ??_C@_0BN@CKNJLHMB@?$GAplacement?5delete?$FL?$FN?5closure?8?$AA@ 100e7580     LIBCMTD:undname.obj
 0003:0000f5a4       ??_C@_0BL@CNOONJFP@?$GAplacement?5delete?5closure?8?$AA@ 100e75a4     LIBCMTD:undname.obj
 0003:0000f5c4       ??_C@_0P@HJKNJFNN@?$GAomni?5callsig?8?$AA@ 100e75c4     LIBCMTD:undname.obj
 0003:0000f5d8       ??_C@_09LBNFPBCA@?5delete?$FL?$FN?$AA@ 100e75d8     LIBCMTD:undname.obj
 0003:0000f5e4       ??_C@_06FHBGPFGH@?5new?$FL?$FN?$AA@ 100e75e4     LIBCMTD:undname.obj
 0003:0000f5ec       ??_C@_0CE@IIHCMGGL@?$GAlocal?5vftable?5constructor?5closu@ 100e75ec     LIBCMTD:undname.obj
 0003:0000f618       ??_C@_0BA@KKLDJDLB@?$GAlocal?5vftable?8?$AA@ 100e7618     LIBCMTD:undname.obj
 0003:0000f62c       ??_C@_05KHLCHHI@?$GARTTI?$AA@ 100e762c     LIBCMTD:undname.obj
 0003:0000f634       ??_C@_03KLGMFNMG@?$GAEH?$AA@ 100e7634     LIBCMTD:undname.obj
 0003:0000f638       ??_C@_0BA@KBCDOMBN@?$GAudt?5returning?8?$AA@ 100e7638     LIBCMTD:undname.obj
 0003:0000f64c       ??_C@_0BL@LLKPOHJI@?$GAcopy?5constructor?5closure?8?$AA@ 100e764c     LIBCMTD:undname.obj
 0003:0000f66c       ??_C@_0CH@OOJPLCPH@?$GAeh?5vector?5vbase?5constructor?5ite@ 100e766c     LIBCMTD:undname.obj
 0003:0000f69c       ??_C@_0CA@GCEOPDGL@?$GAeh?5vector?5destructor?5iterator?8?$AA@ 100e769c     LIBCMTD:undname.obj
 0003:0000f6c4       ??_C@_0CB@JONCMFFK@?$GAeh?5vector?5constructor?5iterator?8@ 100e76c4     LIBCMTD:undname.obj
 0003:0000f6ec       ??_C@_0BL@NILFHHPC@?$GAvirtual?5displacement?5map?8?$AA@ 100e76ec     LIBCMTD:undname.obj
 0003:0000f70c       ??_C@_0CE@IKBNEHA@?$GAvector?5vbase?5constructor?5iterat@ 100e770c     LIBCMTD:undname.obj
 0003:0000f738       ??_C@_0BN@LFPFMEDL@?$GAvector?5destructor?5iterator?8?$AA@ 100e7738     LIBCMTD:undname.obj
 0003:0000f75c       ??_C@_0BO@PFGOCPJJ@?$GAvector?5constructor?5iterator?8?$AA@ 100e775c     LIBCMTD:undname.obj
 0003:0000f780       ??_C@_0BN@IMDCHIKM@?$GAscalar?5deleting?5destructor?8?$AA@ 100e7780     LIBCMTD:undname.obj
 0003:0000f7a4       ??_C@_0BO@OBMKPJIG@?$GAdefault?5constructor?5closure?8?$AA@ 100e77a4     LIBCMTD:undname.obj
 0003:0000f7c8       ??_C@_0BN@DEGPLNFK@?$GAvector?5deleting?5destructor?8?$AA@ 100e77c8     LIBCMTD:undname.obj
 0003:0000f7ec       ??_C@_0BD@JDLKDPAB@?$GAvbase?5destructor?8?$AA@ 100e77ec     LIBCMTD:undname.obj
 0003:0000f804       ??_C@_08OBABFOLI@?$GAstring?8?$AA@ 100e7804     LIBCMTD:undname.obj
 0003:0000f810       ??_C@_0BF@KDPPACIK@?$GAlocal?5static?5guard?8?$AA@ 100e7810     LIBCMTD:undname.obj
 0003:0000f82c       ??_C@_08LLFFHHDJ@?$GAtypeof?8?$AA@ 100e782c     LIBCMTD:undname.obj
 0003:0000f838       ??_C@_07FEEIOKP@?$GAvcall?8?$AA@ 100e7838     LIBCMTD:undname.obj
 0003:0000f844       ??_C@_09BLBHBJP@?$GAvbtable?8?$AA@ 100e7844     LIBCMTD:undname.obj
 0003:0000f850       ??_C@_09IFPLHPGF@?$GAvftable?8?$AA@ 100e7850     LIBCMTD:undname.obj
 0003:0000f85c       ??_C@_02MHEGNOJ@?$FO?$DN?$AA@ 100e785c     LIBCMTD:undname.obj
 0003:0000f860       ??_C@_02DHLNPPGH@?$HM?$DN?$AA@ 100e7860     LIBCMTD:undname.obj
 0003:0000f864       ??_C@_02FGJGFEAB@?$CG?$DN?$AA@ 100e7864     LIBCMTD:undname.obj
 0003:0000f868       ??_C@_03CDNPDDLA@?$DM?$DM?$DN?$AA@ 100e7868     LIBCMTD:undname.obj
 0003:0000f86c       ??_C@_03IKFCCPFF@?$DO?$DO?$DN?$AA@ 100e786c     LIBCMTD:undname.obj
 0003:0000f870       ??_C@_02FENAOKFI@?$CF?$DN?$AA@ 100e7870     LIBCMTD:undname.obj
 0003:0000f874       ??_C@_02FJEHGPIO@?1?$DN?$AA@ 100e7874     LIBCMTD:undname.obj
 0003:0000f878       ??_C@_02FKMDLLOA@?9?$DN?$AA@ 100e7878     LIBCMTD:undname.obj
 0003:0000f87c       ??_C@_02FOEOMHFC@?$CL?$DN?$AA@ 100e787c     LIBCMTD:undname.obj
 0003:0000f880       ??_C@_02FPIMKNGF@?$CK?$DN?$AA@ 100e7880     LIBCMTD:undname.obj
 0003:0000f884       ??_C@_02NONPIBCD@?$HM?$HM?$AA@ 100e7884     LIBCMTD:undname.obj
 0003:0000f888       ??_C@_02PPKAJPJL@?$CG?$CG?$AA@ 100e7888     LIBCMTD:undname.obj
 0003:0000f88c       ??_C@_01DNKMNLPK@?$HM?$AA@ 100e788c     LIBCMTD:undname.obj
 0003:0000f890       ??_C@_01JKBOJNNK@?$FO?$AA@ 100e7890     LIBCMTD:undname.obj
 0003:0000f894       ??_C@_01PJKLJHI@?$HO?$AA@  100e7894     LIBCMTD:undname.obj
 0003:0000f898       ??_C@_02HCKGKOFO@?$CI?$CJ?$AA@ 100e7898     LIBCMTD:undname.obj
 0003:0000f89c       ??_C@_01IHBHIGKO@?0?$AA@   100e789c     LIBCMTD:undname.obj
 0003:0000f8a0       ??_C@_02EEKDKGMJ@?$DO?$DN?$AA@ 100e78a0     LIBCMTD:undname.obj
 0003:0000f8a4       ??_C@_01PPODPGHN@?$DO?$AA@ 100e78a4     LIBCMTD:undname.obj
 0003:0000f8a8       ??_C@_02EHCHHCKH@?$DM?$DN?$AA@ 100e78a8     LIBCMTD:undname.obj
 0003:0000f8ac       ??_C@_01MNNFJEPP@?$DM?$AA@ 100e78ac     LIBCMTD:undname.obj
 0003:0000f8b0       ??_C@_01FGNFDNOH@?$CF?$AA@ 100e78b0     LIBCMTD:undname.obj
 0003:0000f8b4       ??_C@_01KMDKNFGN@?1?$AA@   100e78b4     LIBCMTD:undname.obj
 0003:0000f8b8       ??_C@_03MNHNFDLC@?9?$DO?$CK?$AA@ 100e78b8     LIBCMTD:undname.obj
 0003:0000f8bc       ??_C@_01HNPIGOCE@?$CG?$AA@ 100e78bc     LIBCMTD:undname.obj
 0003:0000f8c0       ??_C@_01MIFGBAGJ@?$CL?$AA@ 100e78c0     LIBCMTD:undname.obj
 0003:0000f8c4       ??_C@_01JOAMLHOP@?9?$AA@   100e78c4     LIBCMTD:undname.obj
 0003:0000f8c8       ??_C@_02BAABKJLB@?9?9?$AA@ 100e78c8     LIBCMTD:undname.obj
 0003:0000f8cc       ??_C@_02ECNGHCIF@?$CL?$CL?$AA@ 100e78cc     LIBCMTD:undname.obj
 0003:0000f8d0       ??_C@_01NBENCBCI@?$CK?$AA@ 100e78d0     LIBCMTD:undname.obj
 0003:0000f8d4       ??_C@_02HBOOOICD@?9?$DO?$AA@ 100e78d4     LIBCMTD:undname.obj
 0003:0000f8d8       ??_C@_08LHJFAFGD@operator?$AA@ 100e78d8     LIBCMTD:undname.obj
 0003:0000f8e4       ??_C@_02GPECMEKF@?$FL?$FN?$AA@ 100e78e4     LIBCMTD:undname.obj
 0003:0000f8e8       ??_C@_02FDNJECIE@?$CB?$DN?$AA@ 100e78e8     LIBCMTD:undname.obj
 0003:0000f8ec       ??_C@_02EGOFBIJA@?$DN?$DN?$AA@ 100e78ec     LIBCMTD:undname.obj
 0003:0000f8f0       ??_C@_01DCLJPIOD@?$CB?$AA@ 100e78f0     LIBCMTD:undname.obj
 0003:0000f8f4       ??_C@_02FODMEDOG@?$DM?$DM?$AA@ 100e78f4     LIBCMTD:undname.obj
 0003:0000f8f8       ??_C@_02GPIOPFAK@?$DO?$DO?$AA@ 100e78f8     LIBCMTD:undname.obj
 0003:0000f8fc       ??_C@_07FPCDHGMM@?5delete?$AA@ 100e78fc     LIBCMTD:undname.obj
 0003:0000f908       ??_C@_04NIHEBCM@?5new?$AA@ 100e7908     LIBCMTD:undname.obj
 0003:0000f910       ??_C@_0M@GFIIJFMG@__unaligned?$AA@ 100e7910     LIBCMTD:undname.obj
 0003:0000f920       ??_C@_0L@PILCLIHE@__restrict?$AA@ 100e7920     LIBCMTD:undname.obj
 0003:0000f930       ??_C@_07JOMMBBKO@__ptr64?$AA@ 100e7930     LIBCMTD:undname.obj
 0003:0000f93c       ??_C@_09HIJEGCPM@__clrcall?$AA@ 100e793c     LIBCMTD:undname.obj
 0003:0000f948       ??_C@_0L@JMKHOMEK@__fastcall?$AA@ 100e7948     LIBCMTD:undname.obj
 0003:0000f958       ??_C@_0L@NPHFGOKO@__thiscall?$AA@ 100e7958     LIBCMTD:undname.obj
 0003:0000f968       ??_C@_09IFJBGAPI@__stdcall?$AA@ 100e7968     LIBCMTD:undname.obj
 0003:0000f974       ??_C@_08GHMPAG@__pascal?$AA@ 100e7974     LIBCMTD:undname.obj
 0003:0000f980       ??_C@_07KOLFKCDI@__cdecl?$AA@ 100e7980     LIBCMTD:undname.obj
 0003:0000f98c       ??_C@_08EHJDFFNH@__based?$CI?$AA@ 100e798c     LIBCMTD:undname.obj
 0003:0000fb64       ??_C@_04HEJADOOB@CV?3?5?$AA@ 100e7b64     LIBCMTD:undname.obj
 0003:0000fb6c       ??_C@_02MOLJINC@?3?3?$AA@  100e7b6c     LIBCMTD:undname.obj
 0003:0000fb70       ??_C@_01GEODFPGF@?8?$AA@   100e7b70     LIBCMTD:undname.obj
 0003:0000fb74       ??_C@_01NLNLIGKH@?$GA?$AA@ 100e7b74     LIBCMTD:undname.obj
 0003:0000fb78       ??_C@_0O@KHGCOMHP@generic?9type?9?$AA@ 100e7b78     LIBCMTD:undname.obj
 0003:0000fb88       ??_C@_0BE@JAEOCHPE@template?9parameter?9?$AA@ 100e7b88     LIBCMTD:undname.obj
 0003:0000fba0       ??_C@_02OHHJMEON@?8?8?$AA@ 100e7ba0     LIBCMTD:undname.obj
 0003:0000fba4       ??_C@_0BG@JNJLAMPM@?$GAanonymous?5namespace?8?$AA@ 100e7ba4     LIBCMTD:undname.obj
 0003:0000fbc0       ??_C@_0BN@IBLMMFAP@?$GAnon?9type?9template?9parameter?$AA@ 100e7bc0     LIBCMTD:undname.obj
 0003:0000fbe4       ??_C@_0BE@EODMJLIF@?$GAtemplate?9parameter?$AA@ 100e7be4     LIBCMTD:undname.obj
 0003:0000fbfc       ??_C@_04GKJNKENE@void?$AA@ 100e7bfc     LIBCMTD:undname.obj
 0003:0000fc04       ??_C@_04HIBGFPH@NULL?$AA@  100e7c04     LIBCMTD:undname.obj
 0003:0000fc0c       ??_C@_0M@DHNBOJMP@extern?5?$CCC?$CC?5?$AA@ 100e7c0c     LIBCMTD:undname.obj
 0003:0000fc1c       ??_C@_08KJLFOPNE@?$FLthunk?$FN?3?$AA@ 100e7c1c     LIBCMTD:undname.obj
 0003:0000fc28       ??_C@_08GPDDCMKI@public?3?5?$AA@ 100e7c28     LIBCMTD:undname.obj
 0003:0000fc34       ??_C@_0M@GAIFPFIP@protected?3?5?$AA@ 100e7c34     LIBCMTD:undname.obj
 0003:0000fc44       ??_C@_09LAPHOOG@private?3?5?$AA@ 100e7c44     LIBCMTD:undname.obj
 0003:0000fc50       ??_C@_08NIEOINHE@virtual?5?$AA@ 100e7c50     LIBCMTD:undname.obj
 0003:0000fc5c       ??_C@_07PGOEDBHP@static?5?$AA@ 100e7c5c     LIBCMTD:undname.obj
 0003:0000fc68       ??_C@_0DA@HGFJFBBE@?$GAtemplate?5static?5data?5member?5des@ 100e7c68     LIBCMTD:undname.obj
 0003:0000fca4       ??_C@_0DB@ILEFOCIJ@?$GAtemplate?5static?5data?5member?5con@ 100e7ca4     LIBCMTD:undname.obj
 0003:0000fce0       ??_C@_0CB@KJDOOODE@?$GAlocal?5static?5destructor?5helper?8@ 100e7ce0     LIBCMTD:undname.obj
 0003:0000fd08       ??_C@_0L@HNGCOGAE@?$GAadjustor?$HL?$AA@ 100e7d08     LIBCMTD:undname.obj
 0003:0000fd18       ??_C@_0L@GHPFDFH@?$GAvtordisp?$HL?$AA@ 100e7d18     LIBCMTD:undname.obj
 0003:0000fd28       ??_C@_0N@CBHHHENL@?$GAvtordispex?$HL?$AA@ 100e7d28     LIBCMTD:undname.obj
 0003:0000fd38       ??_C@_01CLKCMJKC@?5?$AA@   100e7d38     LIBCMTD:undname.obj
 0003:0000fd3c       ??_C@_02IGFCGPIL@?$HN?8?$AA@ 100e7d3c     LIBCMTD:undname.obj
 0003:0000fd40       ??_C@_03OPGICMGF@?$HN?8?5?$AA@ 100e7d40     LIBCMTD:undname.obj
 0003:0000fd44       ??_C@_02KCKGHPCA@?$CJ?5?$AA@ 100e7d44     LIBCMTD:undname.obj
 0003:0000fd48       ??_C@_05BEFAKPML@void?5?$AA@ 100e7d48     LIBCMTD:undname.obj
 0003:0000fd50       ??_C@_08PABEKFH@volatile?$AA@ 100e7d50     LIBCMTD:undname.obj
 0003:0000fd5c       ??_C@_0M@ELJOJFFH@?0?$DMellipsis?$DO?$AA@ 100e7d5c     LIBCMTD:undname.obj
 0003:0000fd6c       ??_C@_04EENFHACM@?0?4?4?4?$AA@ 100e7d6c     LIBCMTD:undname.obj
 0003:0000fd74       ??_C@_0L@EGPHHEKN@?$DMellipsis?$DO?$AA@ 100e7d74     LIBCMTD:undname.obj
 0003:0000fd84       ??_C@_07HDJPLPEK@?5throw?$CI?$AA@ 100e7d84     LIBCMTD:undname.obj
 0003:0000fd90       ??_C@_09EFNPDFFP@?5volatile?$AA@ 100e7d90     LIBCMTD:undname.obj
 0003:0000fd9c       ??_C@_05BNCCCJPP@const?$AA@ 100e7d9c     LIBCMTD:undname.obj
 0003:0000fda4       ??_C@_07EDHNAJHC@signed?5?$AA@ 100e7da4     LIBCMTD:undname.obj
 0003:0000fdb0       ??_C@_09EBBEKKIH@unsigned?5?$AA@ 100e7db0     LIBCMTD:undname.obj
 0003:0000fdbc       ??_C@_07NFANNNEC@UNKNOWN?$AA@ 100e7dbc     LIBCMTD:undname.obj
 0003:0000fdc8       ??_C@_06GCICPBLB@__w64?5?$AA@ 100e7dc8     LIBCMTD:undname.obj
 0003:0000fdd0       ??_C@_07CLGGIAMF@wchar_t?$AA@ 100e7dd0     LIBCMTD:undname.obj
 0003:0000fddc       ??_C@_08GAHOLHEO@__int128?$AA@ 100e7ddc     LIBCMTD:undname.obj
 0003:0000fde8       ??_C@_07LFCOJCAC@__int64?$AA@ 100e7de8     LIBCMTD:undname.obj
 0003:0000fdf4       ??_C@_07OFLPPHGP@__int32?$AA@ 100e7df4     LIBCMTD:undname.obj
 0003:0000fe00       ??_C@_07ICFHOGAF@__int16?$AA@ 100e7e00     LIBCMTD:undname.obj
 0003:0000fe0c       ??_C@_06EBGKOKIG@__int8?$AA@ 100e7e0c     LIBCMTD:undname.obj
 0003:0000fe14       ??_C@_04DDKJGDCM@bool?$AA@ 100e7e14     LIBCMTD:undname.obj
 0003:0000fe1c       ??_C@_06BNJCAIGJ@double?$AA@ 100e7e1c     LIBCMTD:undname.obj
 0003:0000fe24       ??_C@_05CJIMAING@long?5?$AA@ 100e7e24     LIBCMTD:undname.obj
 0003:0000fe2c       ??_C@_05KNFBNCOH@float?$AA@ 100e7e2c     LIBCMTD:undname.obj
 0003:0000fe34       ??_C@_04GOKPGOLB@long?$AA@ 100e7e34     LIBCMTD:undname.obj
 0003:0000fe3c       ??_C@_03JBIPMCLC@int?$AA@  100e7e3c     LIBCMTD:undname.obj
 0003:0000fe40       ??_C@_05BFKKPKCG@short?$AA@ 100e7e40     LIBCMTD:undname.obj
 0003:0000fe48       ??_C@_04ENMBGAPA@char?$AA@ 100e7e48     LIBCMTD:undname.obj
 0003:0000fe50       ??_C@_05LJGMCFOG@enum?5?$AA@ 100e7e50     LIBCMTD:undname.obj
 0003:0000fe58       ??_C@_0N@DLIEFKNA@cointerface?5?$AA@ 100e7e58     LIBCMTD:undname.obj
 0003:0000fe68       ??_C@_08KOFANOFK@coclass?5?$AA@ 100e7e68     LIBCMTD:undname.obj
 0003:0000fe74       ??_C@_06LJBABKPM@class?5?$AA@ 100e7e74     LIBCMTD:undname.obj
 0003:0000fe7c       ??_C@_07DIBCDNGL@struct?5?$AA@ 100e7e7c     LIBCMTD:undname.obj
 0003:0000fe88       ??_C@_06MOJHIBMG@union?5?$AA@ 100e7e88     LIBCMTD:undname.obj
 0003:0000fe90       ??_C@_0P@GCIFDJCJ@?$GAunknown?5ecsu?8?$AA@ 100e7e90     LIBCMTD:undname.obj
 0003:0000fea4       ??_C@_04LAHKHJMA@int?5?$AA@ 100e7ea4     LIBCMTD:undname.obj
 0003:0000feac       ??_C@_06EHJMALKF@short?5?$AA@ 100e7eac     LIBCMTD:undname.obj
 0003:0000feb4       ??_C@_05CIHEBHNO@char?5?$AA@ 100e7eb4     LIBCMTD:undname.obj
 0003:0000febc       ??_C@_06LIJLOJAG@const?5?$AA@ 100e7ebc     LIBCMTD:undname.obj
 0003:0000fec4       ??_C@_09GAIEOBLP@volatile?5?$AA@ 100e7ec4     LIBCMTD:undname.obj
 0003:0000fed0       ??_C@_0O@GKABPPIF@cli?3?3pin_ptr?$DM?$AA@ 100e7ed0     LIBCMTD:undname.obj
 0003:0000fee0       ??_C@_0M@EALIELKG@cli?3?3array?$DM?$AA@ 100e7ee0     LIBCMTD:undname.obj
 0003:0000fef0       ??_C@_02GOGNNPBN@?$CJ?$FL?$AA@ 100e7ef0     LIBCMTD:undname.obj
 0003:0000fef4       ??_C@_06EEGAIFAK@?$HLflat?$HN?$AA@ 100e7ef4     LIBCMTD:undname.obj
 0003:0000fefc       ??_C@_02MDINNEEG@s?5?$AA@  100e7efc     LIBCMTD:undname.obj
 0003:0000ff00       ??_C@_05JIBOFOHK@?$HLfor?5?$AA@ 100e7f00     LIBCMTD:undname.obj
 0003:0000ff08       ??_7DNameNode@@6B@         100e7f08     LIBCMTD:undname.obj
 0003:0000ff18       ??_7charNode@@6B@          100e7f18     LIBCMTD:undname.obj
 0003:0000ff28       ??_7pcharNode@@6B@         100e7f28     LIBCMTD:undname.obj
 0003:0000ff38       ??_7pDNameNode@@6B@        100e7f38     LIBCMTD:undname.obj
 0003:0000ff48       ??_7DNameStatusNode@@6B@   100e7f48     LIBCMTD:undname.obj
 0003:0000ff58       ??_C@_04OKOHEJBO@?5?$DP?$DP?5?$AA@ 100e7f58     LIBCMTD:undname.obj
 0003:0000ff60       ??_7pairNode@@6B@          100e7f60     LIBCMTD:undname.obj
 0003:0000ff70       ??_C@_0BK@CIDNPOGP@GetUserObjectInformationA?$AA@ 100e7f70     LIBCMTD:crtmbox.obj
 0003:0000ff90       ??_C@_0M@CHKKJDAI@MessageBoxA?$AA@ 100e7f90     LIBCMTD:crtmbox.obj
 0003:0000ffa0       ??_C@_0L@NDEGIDAG@USER32?4DLL?$AA@ 100e7fa0     LIBCMTD:crtmbox.obj
 0003:0000ffb0       ??_C@_1BC@HGPNAKGC@?$AAs?$AAt?$AAr?$AAc?$AAa?$AAt?$AA_?$AAs?$AA?$AA@ 100e7fb0     LIBCMTD:strcat_s.obj
 0003:0000ffc8       ??_C@_1BE@NDMJHJJG@?$AAs?$AAt?$AAr?$AAn?$AAc?$AAp?$AAy?$AA_?$AAs?$AA?$AA@ 100e7fc8     LIBCMTD:strncpy_s.obj
 0003:0000ffe0       ??_C@_1GA@INJGGEBC@?$AAf?$AA?3?$AA?2?$AAd?$AAd?$AA?2?$AAv?$AAc?$AAt?$AAo?$AAo?$AAl?$AAs?$AA?2?$AAc?$AAr?$AAt?$AA_?$AAb?$AAl?$AAd?$AA?2?$AAs?$AAe?$AAl?$AAf?$AA_?$AAx?$AA8?$AA6?$AA?2?$AAc@ 100e7fe0     LIBCMTD:a_loc.obj
 0003:00010058       ??_C@_1FE@KNPCCODH@?$AA?$CI?$AA?$CC?$AAC?$AAo?$AAr?$AAr?$AAu?$AAp?$AAt?$AAe?$AAd?$AA?5?$AAp?$AAo?$AAi?$AAn?$AAt?$AAe?$AAr?$AA?5?$AAp?$AAa?$AAs?$AAs?$AAe?$AAd?$AA?5?$AAt?$AAo?$AA?5?$AA_?$AAf@ 100e8058     LIBCMTD:a_loc.obj
 0003:000100bc       ??_C@_0M@EKFFODEC@MSPDB80?4DLL?$AA@ 100e80bc     LIBCMTD:_pdblkup_.obj
 0003:000100cc       ??_C@_01KDCPPGHE@r?$AA@    100e80cc     LIBCMTD:_pdblkup_.obj
 0003:000100d0       ??_C@_0BB@KCIACLNC@PDBOpenValidate5?$AA@ 100e80d0     LIBCMTD:_pdblkup_.obj
 0003:000100e4       ??_C@_0BF@BMIHBHCA@EnvironmentDirectory?$AA@ 100e80e4     LIBCMTD:_pdblkup_.obj
 0003:00010100       ??_C@_0CN@JNNIHDGH@SOFTWARE?2Microsoft?2VisualStudio?2@ 100e8100     LIBCMTD:_pdblkup_.obj
 0003:00010138       ??_C@_0M@HLOHPNFA@RegCloseKey?$AA@ 100e8138     LIBCMTD:_pdblkup_.obj
 0003:00010148       ??_C@_0BB@HHEIPGME@RegQueryValueExA?$AA@ 100e8148     LIBCMTD:_pdblkup_.obj
 0003:0001015c       ??_C@_0O@DCOGKJGG@RegOpenKeyExA?$AA@ 100e815c     LIBCMTD:_pdblkup_.obj
 0003:0001016c       ??_C@_0N@JJPEKNFO@ADVAPI32?4DLL?$AA@ 100e816c     LIBCMTD:_pdblkup_.obj
 0003:0001017c       ??_C@_0BC@JEAENNKH@SystemFunction036?$AA@ 100e817c     LIBCMTD:rand_s.obj
 0003:00010198       ??_C@_1GA@EBEDGGGB@?$AA?$CI?$AA?$CC?$AAr?$AAa?$AAn?$AAd?$AA_?$AAs?$AA?5?$AAi?$AAs?$AA?5?$AAn?$AAo?$AAt?$AA?5?$AAa?$AAv?$AAa?$AAi?$AAl?$AAa?$AAb?$AAl?$AAe?$AA?5?$AAo?$AAn?$AA?5?$AAt?$AAh?$AAi@ 100e8198     LIBCMTD:rand_s.obj
 0003:0001020c       ??_C@_1O@IJGPPOGF@?$AAr?$AAa?$AAn?$AAd?$AA_?$AAs?$AA?$AA@ 100e820c     LIBCMTD:rand_s.obj
 0003:00010220       ??_C@_1GA@HBGBBKCD@?$AAf?$AA?3?$AA?2?$AAd?$AAd?$AA?2?$AAv?$AAc?$AAt?$AAo?$AAo?$AAl?$AAs?$AA?2?$AAc?$AAr?$AAt?$AA_?$AAb?$AAl?$AAd?$AA?2?$AAs?$AAe?$AAl?$AAf?$AA_?$AAx?$AA8?$AA6?$AA?2?$AAc@ 100e8220     LIBCMTD:rand_s.obj
 0003:00010294       ??_C@_1CK@GFDNDKK@?$AA_?$AAR?$AAa?$AAn?$AAd?$AAo?$AAm?$AAV?$AAa?$AAl?$AAu?$AAe?$AA?5?$AA?$CB?$AA?$DN?$AA?5?$AAN?$AAU?$AAL?$AAL?$AA?$AA@ 100e8294     LIBCMTD:rand_s.obj
 0003:000102c8       ??_C@_1CC@MONNFDCM@?$AAv?$AAf?$AAw?$AAp?$AAr?$AAi?$AAn?$AAt?$AAf?$AA_?$AAh?$AAe?$AAl?$AAp?$AAe?$AAr?$AA?$AA@ 100e82c8     LIBCMTD:vfwprint.obj
 0003:000102f0       ??_C@_1GE@MBMBDAGC@?$AAf?$AA?3?$AA?2?$AAd?$AAd?$AA?2?$AAv?$AAc?$AAt?$AAo?$AAo?$AAl?$AAs?$AA?2?$AAc?$AAr?$AAt?$AA_?$AAb?$AAl?$AAd?$AA?2?$AAs?$AAe?$AAl?$AAf?$AA_?$AAx?$AA8?$AA6?$AA?2?$AAc@ 100e82f0     LIBCMTD:vfwprint.obj
 0003:00010368       ??_C@_1FK@LNCFKALM@?$AA?$CI?$AA?$CI?$AAs?$AAt?$AAa?$AAt?$AAe?$AA?5?$AA?$DN?$AA?$DN?$AA?5?$AAS?$AAT?$AA_?$AAN?$AAO?$AAR?$AAM?$AAA?$AAL?$AA?$CJ?$AA?5?$AA?$HM?$AA?$HM?$AA?5?$AA?$CI?$AAs?$AAt?$AAa?$AAt?$AAe?$AA?5@ 100e8368     LIBCMTD:woutputs.obj
 0003:000103d8       ??_C@_1EE@DMAIGNBG@?$AA?$CI?$AA?$CC?$AAI?$AAn?$AAc?$AAo?$AAr?$AAr?$AAe?$AAc?$AAt?$AA?5?$AAf?$AAo?$AAr?$AAm?$AAa?$AAt?$AA?5?$AAs?$AAp?$AAe?$AAc?$AAi?$AAf?$AAi?$AAe?$AAr?$AA?$CC?$AA?0?$AA?5?$AA0@ 100e83d8     LIBCMTD:woutputs.obj
 0003:0001042c       ??_C@_1BK@ONMFGLDB@?$AA_?$AAw?$AAo?$AAu?$AAt?$AAp?$AAu?$AAt?$AA_?$AAs?$AA_?$AAl?$AA?$AA@ 100e842c     LIBCMTD:woutputs.obj
 0003:00010450       ??_C@_1FK@BCPANIEK@?$AA?$CI?$AA?$CC?$AAM?$AAi?$AAs?$AAs?$AAi?$AAn?$AAg?$AA?5?$AAp?$AAo?$AAs?$AAi?$AAt?$AAi?$AAo?$AAn?$AA?5?$AAi?$AAn?$AA?5?$AAt?$AAh?$AAe?$AA?5?$AAf?$AAo?$AAr?$AAm?$AAa?$AAt@ 100e8450     LIBCMTD:woutputp.obj
 0003:000104c0       ??_C@_1JC@OACKELNN@?$AA_?$AAt?$AAv?$AAa?$AAl?$AAi?$AAd?$AAa?$AAt?$AAe?$AA_?$AAp?$AAa?$AAr?$AAa?$AAm?$AA_?$AAr?$AAe?$AAu?$AAs?$AAe?$AA?$CI?$AA?$CG?$AAp?$AAo?$AAs?$AA_?$AAv?$AAa?$AAl?$AAu@ 100e84c0     LIBCMTD:woutputp.obj
 0003:00010570       ??_C@_1IK@NBGDDCBN@?$AA_?$AAt?$AAv?$AAa?$AAl?$AAi?$AAd?$AAa?$AAt?$AAe?$AA_?$AAp?$AAa?$AAr?$AAa?$AAm?$AA_?$AAr?$AAe?$AAu?$AAs?$AAe?$AA?$CI?$AA?$CG?$AAp?$AAo?$AAs?$AA_?$AAv?$AAa?$AAl?$AAu@ 100e8570     LIBCMTD:woutputp.obj
 0003:00010618       ??_C@_1DG@GOHGNKHE@?$AAp?$AAa?$AAs?$AAs?$AA?5?$AA?$DN?$AA?$DN?$AA?5?$AAF?$AAO?$AAR?$AAM?$AAA?$AAT?$AA_?$AAO?$AAU?$AAT?$AAP?$AAU?$AAT?$AA_?$AAP?$AAA?$AAS?$AAS?$AA?$AA@ 100e8618     LIBCMTD:woutputp.obj
 0003:00010658       ??_C@_1IM@DNGHAPLB@?$AA_?$AAt?$AAv?$AAa?$AAl?$AAi?$AAd?$AAa?$AAt?$AAe?$AA_?$AAp?$AAa?$AAr?$AAa?$AAm?$AA_?$AAr?$AAe?$AAu?$AAs?$AAe?$AA?$CI?$AA?$CG?$AAp?$AAo?$AAs?$AA_?$AAv?$AAa?$AAl?$AAu@ 100e8658     LIBCMTD:woutputp.obj
 0003:00010700       ??_C@_1IG@HJIMKDHC@?$AA_?$AAt?$AAv?$AAa?$AAl?$AAi?$AAd?$AAa?$AAt?$AAe?$AA_?$AAp?$AAa?$AAr?$AAa?$AAm?$AA_?$AAr?$AAe?$AAu?$AAs?$AAe?$AA?$CI?$AA?$CG?$AAp?$AAo?$AAs?$AA_?$AAv?$AAa?$AAl?$AAu@ 100e8700     LIBCMTD:woutputp.obj
 0003:000107a0       ??_C@_1IG@FDCPLALG@?$AA_?$AAt?$AAv?$AAa?$AAl?$AAi?$AAd?$AAa?$AAt?$AAe?$AA_?$AAp?$AAa?$AAr?$AAa?$AAm?$AA_?$AAr?$AAe?$AAu?$AAs?$AAe?$AA?$CI?$AA?$CG?$AAp?$AAo?$AAs?$AA_?$AAv?$AAa?$AAl?$AAu@ 100e87a0     LIBCMTD:woutputp.obj
 0003:00010840       ??_C@_1EM@BNPHBBIA@?$AA?$CI?$AA?$CI?$AAt?$AAy?$AAp?$AAe?$AA_?$AAp?$AAo?$AAs?$AA?$DO?$AA?$DN?$AA0?$AA?$CJ?$AA?5?$AA?$CG?$AA?$CG?$AA?5?$AA?$CI?$AAt?$AAy?$AAp?$AAe?$AA_?$AAp?$AAo?$AAs?$AA?$DM?$AA_?$AAA?$AAR?$AAG@ 100e8840     LIBCMTD:woutputp.obj
 0003:000108a0       ??_C@_1IK@EIEPDKHJ@?$AA_?$AAt?$AAv?$AAa?$AAl?$AAi?$AAd?$AAa?$AAt?$AAe?$AA_?$AAp?$AAa?$AAr?$AAa?$AAm?$AA_?$AAr?$AAe?$AAu?$AAs?$AAe?$AA?$CI?$AA?$CG?$AAp?$AAo?$AAs?$AA_?$AAv?$AAa?$AAl?$AAu@ 100e88a0     LIBCMTD:woutputp.obj
 0003:00010948       ??_C@_1JG@JBJBOCFB@?$AA?$CI?$AA?$CI?$AAp?$AAr?$AAe?$AAc?$AAi?$AAs?$AA_?$AAp?$AAo?$AAs?$AA?5?$AA?$DO?$AA?$DN?$AA?5?$AA0?$AA?$CJ?$AA?5?$AA?$CG?$AA?$CG?$AA?5?$AA?$CI?$AA?$CK?$AAe?$AAn?$AAd?$AA_?$AAp?$AAo?$AAs?$AA?5@ 100e8948     LIBCMTD:woutputp.obj
 0003:00010a00       ??_C@_1II@PIPIMLPF@?$AA_?$AAt?$AAv?$AAa?$AAl?$AAi?$AAd?$AAa?$AAt?$AAe?$AA_?$AAp?$AAa?$AAr?$AAa?$AAm?$AA_?$AAr?$AAe?$AAu?$AAs?$AAe?$AA?$CI?$AA?$CG?$AAp?$AAo?$AAs?$AA_?$AAv?$AAa?$AAl?$AAu@ 100e8a00     LIBCMTD:woutputp.obj
 0003:00010aa8       ??_C@_1JE@NMBHOLFI@?$AA?$CI?$AA?$CI?$AAw?$AAi?$AAd?$AAt?$AAh?$AA_?$AAp?$AAo?$AAs?$AA?5?$AA?$DO?$AA?$DN?$AA?5?$AA0?$AA?$CJ?$AA?5?$AA?$CG?$AA?$CG?$AA?5?$AA?$CI?$AA?$CK?$AAe?$AAn?$AAd?$AA_?$AAp?$AAo?$AAs?$AA?5?$AA?$DN@ 100e8aa8     LIBCMTD:woutputp.obj
 0003:00010b60       ??_C@_1JC@PFJNKEIO@?$AA?$CI?$AA?$CI?$AAt?$AAy?$AAp?$AAe?$AA_?$AAp?$AAo?$AAs?$AA?5?$AA?$DO?$AA?$DN?$AA?5?$AA0?$AA?$CJ?$AA?5?$AA?$CG?$AA?$CG?$AA?5?$AA?$CI?$AA?$CK?$AAe?$AAn?$AAd?$AA_?$AAp?$AAo?$AAs?$AA?5?$AA?$DN?$AA?$DN@ 100e8b60     LIBCMTD:woutputp.obj
 0003:00010c10       ??_C@_1BK@GDEKGMNC@?$AA_?$AAw?$AAo?$AAu?$AAt?$AAp?$AAu?$AAt?$AA_?$AAp?$AA_?$AAl?$AA?$AA@ 100e8c10     LIBCMTD:woutputp.obj
 0003:00010c30       ??_C@_0DB@KIKNCIEC@f?3?2dd?2vctools?2crt_bld?2self_x86?2c@ 100e8c30     LIBCMTD:osfinfo.obj
 0003:00010c6c       ??_C@_1BO@EMBOBGKE@?$AA_?$AAg?$AAe?$AAt?$AA_?$AAo?$AAs?$AAf?$AAh?$AAa?$AAn?$AAd?$AAl?$AAe?$AA?$AA@ 100e8c6c     LIBCMTD:osfinfo.obj
 0003:00010c90       ??_C@_1GC@MLKLDJJG@?$AAf?$AA?3?$AA?2?$AAd?$AAd?$AA?2?$AAv?$AAc?$AAt?$AAo?$AAo?$AAl?$AAs?$AA?2?$AAc?$AAr?$AAt?$AA_?$AAb?$AAl?$AAd?$AA?2?$AAs?$AAe?$AAl?$AAf?$AA_?$AAx?$AA8?$AA6?$AA?2?$AAc@ 100e8c90     LIBCMTD:osfinfo.obj
 0003:00010d08       ??_C@_1GA@GFFDGGFH@?$AAf?$AA?3?$AA?2?$AAd?$AAd?$AA?2?$AAv?$AAc?$AAt?$AAo?$AAo?$AAl?$AAs?$AA?2?$AAc?$AAr?$AAt?$AA_?$AAb?$AAl?$AAd?$AA?2?$AAs?$AAe?$AAl?$AAf?$AA_?$AAx?$AA8?$AA6?$AA?2?$AAc@ 100e8d08     LIBCMTD:mbtowc.obj
 0003:00010d80       ??_C@_1NC@EINCOKCO@?$AA_?$AAl?$AAo?$AAc?$AA_?$AAu?$AAp?$AAd?$AAa?$AAt?$AAe?$AA?4?$AAG?$AAe?$AAt?$AAL?$AAo?$AAc?$AAa?$AAl?$AAe?$AAT?$AA?$CI?$AA?$CJ?$AA?9?$AA?$DO?$AAl?$AAo?$AAc?$AAi?$AAn?$AAf@ 100e8d80     LIBCMTD:mbtowc.obj
 0003:00010e7c       ??_C@_1O@JDPLECOK@?$AAu?$AAn?$AAg?$AAe?$AAt?$AAc?$AA?$AA@ 100e8e7c     LIBCMTD:ungetc.obj
 0003:00010e90       ??_C@_1GA@OAFAANFO@?$AAf?$AA?3?$AA?2?$AAd?$AAd?$AA?2?$AAv?$AAc?$AAt?$AAo?$AAo?$AAl?$AAs?$AA?2?$AAc?$AAr?$AAt?$AA_?$AAb?$AAl?$AAd?$AA?2?$AAs?$AAe?$AAl?$AAf?$AA_?$AAx?$AA8?$AA6?$AA?2?$AAc@ 100e8e90     LIBCMTD:ungetc.obj
 0003:00010f04       ??_C@_1BO@OLMLKKEA@?$AA_?$AAu?$AAn?$AAg?$AAe?$AAt?$AAc?$AA_?$AAn?$AAo?$AAl?$AAo?$AAc?$AAk?$AA?$AA@ 100e8f04     LIBCMTD:ungetc.obj
 0003:00010f28       ??_C@_1HC@OEJDDIIH@?$AAf?$AA?3?$AA?2?$AAd?$AAd?$AA?2?$AAv?$AAc?$AAt?$AAo?$AAo?$AAl?$AAs?$AA?2?$AAc?$AAr?$AAt?$AA_?$AAb?$AAl?$AAd?$AA?2?$AAs?$AAe?$AAl?$AAf?$AA_?$AAx?$AA8?$AA6?$AA?2?$AAc@ 100e8f28     LIBCMTD:ungetc.obj
 0003:00010fb0       ??_C@_1CC@HBLPFNKH@?$AA?$CI?$AAc?$AAn?$AAt?$AA?5?$AA?$DM?$AA?$DN?$AA?5?$AAI?$AAN?$AAT?$AA_?$AAM?$AAA?$AAX?$AA?$CJ?$AA?$AA@ 100e8fb0     LIBCMTD:read.obj
 0003:00010fd8       ??_C@_1M@NHJOLLDM@?$AA_?$AAr?$AAe?$AAa?$AAd?$AA?$AA@ 100e8fd8     LIBCMTD:read.obj
 0003:00010fe8       ??_C@_1FM@NGICBHLO@?$AAf?$AA?3?$AA?2?$AAd?$AAd?$AA?2?$AAv?$AAc?$AAt?$AAo?$AAo?$AAl?$AAs?$AA?2?$AAc?$AAr?$AAt?$AA_?$AAb?$AAl?$AAd?$AA?2?$AAs?$AAe?$AAl?$AAf?$AA_?$AAx?$AA8?$AA6?$AA?2?$AAc@ 100e8fe8     LIBCMTD:read.obj
 0003:00011058       ??_C@_0CO@CEGKNHEH@f?3?2dd?2vctools?2crt_bld?2self_x86?2c@ 100e9058     LIBCMTD:read.obj
 0003:00011090       ??_C@_1CG@OHLJHGGK@?$AA?$CI?$AAi?$AAn?$AAp?$AAu?$AAt?$AAb?$AAu?$AAf?$AA?5?$AA?$CB?$AA?$DN?$AA?5?$AAN?$AAU?$AAL?$AAL?$AA?$CJ?$AA?$AA@ 100e9090     LIBCMTD:read.obj
 0003:000110c0       ??_C@_1BK@JJBHNDKJ@?$AA_?$AAr?$AAe?$AAa?$AAd?$AA_?$AAn?$AAo?$AAl?$AAo?$AAc?$AAk?$AA?$AA@ 100e90c0     LIBCMTD:read.obj
 0003:000110e0       ??_C@_0DB@JEHOCBEJ@f?3?2dd?2vctools?2crt_bld?2self_x86?2c@ 100e90e0     LIBCMTD:_getbuf.obj
 0003:00011120       ??_C@_1GC@DKMGNNCC@?$AAf?$AA?3?$AA?2?$AAd?$AAd?$AA?2?$AAv?$AAc?$AAt?$AAo?$AAo?$AAl?$AAs?$AA?2?$AAc?$AAr?$AAt?$AA_?$AAb?$AAl?$AAd?$AA?2?$AAs?$AAe?$AAl?$AAf?$AA_?$AAx?$AA8?$AA6?$AA?2?$AAc@ 100e9120     LIBCMTD:_getbuf.obj
 0003:00011198       ??_C@_1O@HFEBJM@?$AA_?$AAw?$AAo?$AAp?$AAe?$AAn?$AA?$AA@ 100e9198     LIBCMTD:wopen.obj
 0003:000111a8       ??_C@_1FM@LFKHNNH@?$AAf?$AA?3?$AA?2?$AAd?$AAd?$AA?2?$AAv?$AAc?$AAt?$AAo?$AAo?$AAl?$AAs?$AA?2?$AAc?$AAr?$AAt?$AA_?$AAb?$AAl?$AAd?$AA?2?$AAs?$AAe?$AAl?$AAf?$AA_?$AAx?$AA8?$AA6?$AA?2?$AAc@ 100e91a8     LIBCMTD:wopen.obj
 0003:00011218       ??_C@_1BO@DPAOGEII@?$AA?$CI?$AAp?$AAa?$AAt?$AAh?$AA?5?$AA?$CB?$AA?$DN?$AA?5?$AAN?$AAU?$AAL?$AAL?$AA?$CJ?$AA?$AA@ 100e9218     LIBCMTD:wopen.obj
 0003:00011240       ??_C@_1FG@NFINBJCM@?$AA?$CI?$AA?$CI?$AAp?$AAm?$AAo?$AAd?$AAe?$AA?5?$AA?$CG?$AA?5?$AA?$CI?$AA?$HO?$AA?$CI?$AA_?$AAS?$AA_?$AAI?$AAR?$AAE?$AAA?$AAD?$AA?5?$AA?$HM?$AA?5?$AA_?$AAS?$AA_?$AAI?$AAW?$AAR?$AAI?$AAT@ 100e9240     LIBCMTD:wopen.obj
 0003:000112a8       ??_C@_1BO@NAANLDBI@?$AA_?$AAw?$AAs?$AAo?$AAp?$AAe?$AAn?$AA_?$AAh?$AAe?$AAl?$AAp?$AAe?$AAr?$AA?$AA@ 100e92a8     LIBCMTD:wopen.obj
 0003:000112cc       ??_C@_1BM@PGEEHLHE@?$AA?$CI?$AAp?$AAf?$AAh?$AA?5?$AA?$CB?$AA?$DN?$AA?5?$AAN?$AAU?$AAL?$AAL?$AA?$CJ?$AA?$AA@ 100e92cc     LIBCMTD:wopen.obj
 0003:000112f0       ??_C@_1IA@IENOJNJF@?$AA0?$AA?5?$AA?$CG?$AA?$CG?$AA?5?$AA?$CC?$AAO?$AAn?$AAl?$AAy?$AA?5?$AAU?$AAT?$AAF?$AA?9?$AA1?$AA6?$AA?5?$AAl?$AAi?$AAt?$AAt?$AAl?$AAe?$AA?5?$AAe?$AAn?$AAd?$AAi?$AAa?$AAn?$AA?5@ 100e92f0     LIBCMTD:wopen.obj
 0003:0001138c       ??_C@_1CM@IDLMKMPG@?$AA0?$AA?5?$AA?$CG?$AA?$CG?$AA?5?$AA?$CC?$AAI?$AAn?$AAt?$AAe?$AAr?$AAn?$AAa?$AAl?$AA?5?$AAE?$AAr?$AAr?$AAo?$AAr?$AA?$CC?$AA?$AA@ 100e938c     LIBCMTD:wopen.obj
 0003:000113c0       ??_C@_1HM@GJANBLHJ@?$AA?$CI?$AAo?$AAf?$AAl?$AAa?$AAg?$AA?5?$AA?$CG?$AA?5?$AA?$CI?$AA_?$AAO?$AA_?$AAT?$AAE?$AAX?$AAT?$AA?5?$AA?$HM?$AA?5?$AA_?$AAO?$AA_?$AAW?$AAT?$AAE?$AAX?$AAT?$AA?5?$AA?$HM?$AA?5?$AA_@ 100e93c0     LIBCMTD:wopen.obj
 0003:00011454       ??_C@_1DO@PJLMOANO@?$AA?$CI?$AA?5?$AA?$CC?$AAI?$AAn?$AAv?$AAa?$AAl?$AAi?$AAd?$AA?5?$AAs?$AAh?$AAa?$AAr?$AAi?$AAn?$AAg?$AA?5?$AAf?$AAl?$AAa?$AAg?$AA?$CC?$AA?5?$AA?0?$AA?5?$AA0?$AA?5?$AA?$CJ?$AA?$AA@ 100e9454     LIBCMTD:wopen.obj
 0003:000114a0       ??_C@_1DI@DGKIFCCE@?$AA?$CI?$AA?5?$AA?$CC?$AAI?$AAn?$AAv?$AAa?$AAl?$AAi?$AAd?$AA?5?$AAo?$AAp?$AAe?$AAn?$AA?5?$AAf?$AAl?$AAa?$AAg?$AA?$CC?$AA?5?$AA?0?$AA?5?$AA0?$AA?5?$AA?$CJ?$AA?$AA@ 100e94a0     LIBCMTD:wopen.obj
 0003:000114e4       ??_C@_1CG@ICBEBDJJ@?$AA_?$AAg?$AAe?$AAt?$AA_?$AAf?$AAm?$AAo?$AAd?$AAe?$AA?$CI?$AA?$CG?$AAf?$AAm?$AAo?$AAd?$AAe?$AA?$CJ?$AA?$AA@ 100e94e4     LIBCMTD:wopen.obj
 0003:00011514       ??_C@_1BO@JOPFMPGH@?$AA_?$AAt?$AAs?$AAo?$AAp?$AAe?$AAn?$AA_?$AAn?$AAo?$AAl?$AAo?$AAc?$AAk?$AA?$AA@ 100e9514     LIBCMTD:wopen.obj
 0003:00011538       ??_C@_1BK@LKBOPAFJ@?$AAl?$AAa?$AAs?$AAt?$AA?5?$AA?$CB?$AA?$DN?$AA?5?$AAN?$AAU?$AAL?$AAL?$AA?$AA@ 100e9538     LIBCMTD:wcsnicmp.obj
 0003:00011558       ??_C@_1BI@KLMFNDBC@?$AA_?$AAw?$AAc?$AAs?$AAn?$AAi?$AAc?$AAm?$AAp?$AA_?$AAl?$AA?$AA@ 100e9558     LIBCMTD:wcsnicmp.obj
 0003:00011578       ??_C@_1GE@JMKOMBJH@?$AAf?$AA?3?$AA?2?$AAd?$AAd?$AA?2?$AAv?$AAc?$AAt?$AAo?$AAo?$AAl?$AAs?$AA?2?$AAc?$AAr?$AAt?$AA_?$AAb?$AAl?$AAd?$AA?2?$AAs?$AAe?$AAl?$AAf?$AA_?$AAx?$AA8?$AA6?$AA?2?$AAc@ 100e9578     LIBCMTD:wcsnicmp.obj
 0003:000115f0       ??_C@_1BM@CBACDFHA@?$AAf?$AAi?$AAr?$AAs?$AAt?$AA?5?$AA?$CB?$AA?$DN?$AA?5?$AAN?$AAU?$AAL?$AAL?$AA?$AA@ 100e95f0     LIBCMTD:wcsnicmp.obj
 0003:00011614       ??_C@_1BE@JKOKKFEL@?$AA_?$AAw?$AAc?$AAs?$AAn?$AAi?$AAc?$AAm?$AAp?$AA?$AA@ 100e9614     LIBCMTD:wcsnicmp.obj
 0003:0001162c       ??_C@_1BA@LEBDGIHM@?$AA_?$AAi?$AAs?$AAa?$AAt?$AAt?$AAy?$AA?$AA@ 100e962c     LIBCMTD:isatty.obj
 0003:00011640       ??_C@_1GA@LPGDJDEN@?$AAf?$AA?3?$AA?2?$AAd?$AAd?$AA?2?$AAv?$AAc?$AAt?$AAo?$AAo?$AAl?$AAs?$AA?2?$AAc?$AAr?$AAt?$AA_?$AAb?$AAl?$AAd?$AA?2?$AAs?$AAe?$AAl?$AAf?$AA_?$AAx?$AA8?$AA6?$AA?2?$AAc@ 100e9640     LIBCMTD:isatty.obj
 0003:000116b4       ??_C@_1O@GKDHFACN@?$AAp?$AAr?$AAi?$AAn?$AAt?$AAf?$AA?$AA@ 100e96b4     LIBCMTD:printf.obj
 0003:000116c8       ??_C@_1GA@LHEGHOAF@?$AAf?$AA?3?$AA?2?$AAd?$AAd?$AA?2?$AAv?$AAc?$AAt?$AAo?$AAo?$AAl?$AAs?$AA?2?$AAc?$AAr?$AAt?$AA_?$AAb?$AAl?$AAd?$AA?2?$AAs?$AAe?$AAl?$AAf?$AA_?$AAx?$AA8?$AA6?$AA?2?$AAc@ 100e96c8     LIBCMTD:printf.obj
 0003:0001173c       ??_C@_1CA@CBMNPEO@?$AAs?$AAi?$AAz?$AAe?$AAI?$AAn?$AAB?$AAy?$AAt?$AAe?$AAs?$AA?5?$AA?$DO?$AA?5?$AA0?$AA?$AA@ 100e973c     LIBCMTD:wctomb.obj
 0003:00011764       ??_C@_1BI@IEADNOHF@?$AA_?$AAw?$AAc?$AAt?$AAo?$AAm?$AAb?$AA_?$AAs?$AA_?$AAl?$AA?$AA@ 100e9764     LIBCMTD:wctomb.obj
 0003:00011780       ??_C@_1GA@LDLHPOO@?$AAf?$AA?3?$AA?2?$AAd?$AAd?$AA?2?$AAv?$AAc?$AAt?$AAo?$AAo?$AAl?$AAs?$AA?2?$AAc?$AAr?$AAt?$AA_?$AAb?$AAl?$AAd?$AA?2?$AAs?$AAe?$AAl?$AAf?$AA_?$AAx?$AA8?$AA6?$AA?2?$AAc@ 100e9780     LIBCMTD:wctomb.obj
 0003:000117f4       ??_C@_1CO@HFMIILNF@?$AAs?$AAi?$AAz?$AAe?$AAI?$AAn?$AAB?$AAy?$AAt?$AAe?$AAs?$AA?5?$AA?$DM?$AA?$DN?$AA?5?$AAI?$AAN?$AAT?$AA_?$AAM?$AAA?$AAX?$AA?$AA@ 100e97f4     LIBCMTD:wctomb.obj
 0003:00011830       ___lookuptable_s           100e9830     LIBCMTD:outputs.obj
 0003:0001189c       ??_C@_1BI@COFBLHCG@?$AA_?$AAo?$AAu?$AAt?$AAp?$AAu?$AAt?$AA_?$AAs?$AA_?$AAl?$AA?$AA@ 100e989c     LIBCMTD:outputs.obj
 0003:000118b8       ??_C@_1IK@MHEDJAMK@?$AA_?$AAt?$AAv?$AAa?$AAl?$AAi?$AAd?$AAa?$AAt?$AAe?$AA_?$AAp?$AAa?$AAr?$AAa?$AAm?$AA_?$AAr?$AAe?$AAu?$AAs?$AAe?$AA?$CI?$AA?$CG?$AAp?$AAo?$AAs?$AA_?$AAv?$AAa?$AAl?$AAu@ 100e98b8     LIBCMTD:outputp.obj
 0003:00011960       ??_C@_1BI@KANOLAMF@?$AA_?$AAo?$AAu?$AAt?$AAp?$AAu?$AAt?$AA_?$AAp?$AA_?$AAl?$AA?$AA@ 100e9960     LIBCMTD:outputp.obj
 0003:0001197c       ??_C@_1BE@KHFBJMNM@?$AA_?$AAl?$AAs?$AAe?$AAe?$AAk?$AAi?$AA6?$AA4?$AA?$AA@ 100e997c     LIBCMTD:lseeki64.obj
 0003:00011998       ??_C@_1GE@MINKPNPH@?$AAf?$AA?3?$AA?2?$AAd?$AAd?$AA?2?$AAv?$AAc?$AAt?$AAo?$AAo?$AAl?$AAs?$AA?2?$AAc?$AAr?$AAt?$AA_?$AAb?$AAl?$AAd?$AA?2?$AAs?$AAe?$AAl?$AAf?$AA_?$AAx?$AA8?$AA6?$AA?2?$AAc@ 100e9998     LIBCMTD:lseeki64.obj
 0003:00011a10       ??_C@_1O@HJNPHHHB@?$AAf?$AAp?$AAu?$AAt?$AAw?$AAc?$AA?$AA@ 100e9a10     LIBCMTD:fputwc.obj
 0003:00011a20       ??_C@_1GA@BJIGKGEA@?$AAf?$AA?3?$AA?2?$AAd?$AAd?$AA?2?$AAv?$AAc?$AAt?$AAo?$AAo?$AAl?$AAs?$AA?2?$AAc?$AAr?$AAt?$AA_?$AAb?$AAl?$AAd?$AA?2?$AAs?$AAe?$AAl?$AAf?$AA_?$AAx?$AA8?$AA6?$AA?2?$AAc@ 100e9a20     LIBCMTD:fputwc.obj
 0003:00011a94       ??_C@_13NOLLCAOD@?$AA?$AA?$AA?$AA@ 100e9a94     LIBCMTD:a_str.obj
 0003:00011a98       ___newctype                100e9a98     LIBCMTD:ctype.obj
 0003:00011d98       __wctype                   100e9d98     LIBCMTD:ctype.obj
 0003:00011fa0       ___newclmap                100e9fa0     LIBCMTD:ctype.obj
 0003:00012120       ___newcumap                100ea120     LIBCMTD:ctype.obj
 0003:00012440       ??_C@_1GE@GJCMHHMH@?$AAf?$AA?3?$AA?2?$AAd?$AAd?$AA?2?$AAv?$AAc?$AAt?$AAo?$AAo?$AAl?$AAs?$AA?2?$AAc?$AAr?$AAt?$AA_?$AAb?$AAl?$AAd?$AA?2?$AAs?$AAe?$AAl?$AAf?$AA_?$AAx?$AA8?$AA6?$AA?2?$AAc@ 100ea440     LIBCMTD:inittime.obj
 0003:000124b8       ??_C@_1EE@FDHCFDHN@?$AAp?$AAl?$AAo?$AAc?$AAi?$AA?9?$AA?$DO?$AAl?$AAc?$AA_?$AAt?$AAi?$AAm?$AAe?$AA_?$AAc?$AAu?$AAr?$AAr?$AA?9?$AA?$DO?$AAr?$AAe?$AAf?$AAc?$AAo?$AAu?$AAn?$AAt?$AA?5?$AA?$DO?$AA?5@ 100ea4b8     LIBCMTD:inittime.obj
 0003:0001250c       ??_C@_0DC@KICHHNFK@f?3?2dd?2vctools?2crt_bld?2self_x86?2c@ 100ea50c     LIBCMTD:inittime.obj
 0003:00012548       ??_C@_1GC@EDJOCBCL@?$AAf?$AA?3?$AA?2?$AAd?$AAd?$AA?2?$AAv?$AAc?$AAt?$AAo?$AAo?$AAl?$AAs?$AA?2?$AAc?$AAr?$AAt?$AA_?$AAb?$AAl?$AAd?$AA?2?$AAs?$AAe?$AAl?$AAf?$AA_?$AAx?$AA8?$AA6?$AA?2?$AAc@ 100ea548     LIBCMTD:initnum.obj
 0003:000125c0       ??_C@_1DM@IFKAINNE@?$AAp?$AAl?$AAo?$AAc?$AAi?$AA?9?$AA?$DO?$AAl?$AAc?$AAo?$AAn?$AAv?$AA_?$AAn?$AAu?$AAm?$AA_?$AAr?$AAe?$AAf?$AAc?$AAo?$AAu?$AAn?$AAt?$AA?5?$AA?$DO?$AA?5?$AA0?$AA?$AA@ 100ea5c0     LIBCMTD:initnum.obj
 0003:00012608       ??_C@_0DB@KKFMDHFI@f?3?2dd?2vctools?2crt_bld?2self_x86?2c@ 100ea608     LIBCMTD:initnum.obj
 0003:00012648       ??_C@_1GC@IKADOFBJ@?$AAf?$AA?3?$AA?2?$AAd?$AAd?$AA?2?$AAv?$AAc?$AAt?$AAo?$AAo?$AAl?$AAs?$AA?2?$AAc?$AAr?$AAt?$AA_?$AAb?$AAl?$AAd?$AA?2?$AAs?$AAe?$AAl?$AAf?$AA_?$AAx?$AA8?$AA6?$AA?2?$AAc@ 100ea648     LIBCMTD:initmon.obj
 0003:000126c0       ??_C@_1DM@GKAPAMDO@?$AAp?$AAl?$AAo?$AAc?$AAi?$AA?9?$AA?$DO?$AAl?$AAc?$AAo?$AAn?$AAv?$AA_?$AAm?$AAo?$AAn?$AA_?$AAr?$AAe?$AAf?$AAc?$AAo?$AAu?$AAn?$AAt?$AA?5?$AA?$DO?$AA?5?$AA0?$AA?$AA@ 100ea6c0     LIBCMTD:initmon.obj
 0003:00012708       ??_C@_0DB@BECNGFDL@f?3?2dd?2vctools?2crt_bld?2self_x86?2c@ 100ea708     LIBCMTD:initmon.obj
 0003:00012744       ??_C@_1DG@NMBGBDM@?$AAp?$AAl?$AAo?$AAc?$AAi?$AA?9?$AA?$DO?$AAc?$AAt?$AAy?$AAp?$AAe?$AA1?$AA_?$AAr?$AAe?$AAf?$AAc?$AAo?$AAu?$AAn?$AAt?$AA?5?$AA?$DO?$AA?5?$AA0?$AA?$AA@ 100ea744     LIBCMTD:initctyp.obj
 0003:00012788       ??_C@_1GE@OCPKBDKE@?$AAf?$AA?3?$AA?2?$AAd?$AAd?$AA?2?$AAv?$AAc?$AAt?$AAo?$AAo?$AAl?$AAs?$AA?2?$AAc?$AAr?$AAt?$AA_?$AAb?$AAl?$AAd?$AA?2?$AAs?$AAe?$AAl?$AAf?$AA_?$AAx?$AA8?$AA6?$AA?2?$AAc@ 100ea788     LIBCMTD:initctyp.obj
 0003:00012800       ??_C@_0DC@EHLBFILA@f?3?2dd?2vctools?2crt_bld?2self_x86?2c@ 100ea800     LIBCMTD:initctyp.obj
 0003:0001283c       ??_C@_08JCCMCCIL@HH?3mm?3ss?$AA@ 100ea83c     LIBCMTD:strftime.obj
 0003:00012848       ??_C@_0BE@CKGJFCPC@dddd?0?5MMMM?5dd?0?5yyyy?$AA@ 100ea848     LIBCMTD:strftime.obj
 0003:00012860       ??_C@_08BPBNCDIB@MM?1dd?1yy?$AA@ 100ea860     LIBCMTD:strftime.obj
 0003:0001286c       ??_C@_02CJNFDJBF@PM?$AA@   100ea86c     LIBCMTD:strftime.obj
 0003:00012870       ??_C@_02DEDBPAFC@AM?$AA@   100ea870     LIBCMTD:strftime.obj
 0003:00012874       ??_C@_08EDHMEBNP@December?$AA@ 100ea874     LIBCMTD:strftime.obj
 0003:00012880       ??_C@_08HCHEGEOA@November?$AA@ 100ea880     LIBCMTD:strftime.obj
 0003:0001288c       ??_C@_07JJNFCEND@October?$AA@ 100ea88c     LIBCMTD:strftime.obj
 0003:00012898       ??_C@_09BHHEALKD@September?$AA@ 100ea898     LIBCMTD:strftime.obj
 0003:000128a4       ??_C@_06LBBHFDDG@August?$AA@ 100ea8a4     LIBCMTD:strftime.obj
 0003:000128ac       ??_C@_04MIEPOIFP@July?$AA@ 100ea8ac     LIBCMTD:strftime.obj
 0003:000128b4       ??_C@_04CNLMGBGM@June?$AA@ 100ea8b4     LIBCMTD:strftime.obj
 0003:000128bc       ??_C@_05DMJDNLEJ@April?$AA@ 100ea8bc     LIBCMTD:strftime.obj
 0003:000128c4       ??_C@_05HPCKOFNC@March?$AA@ 100ea8c4     LIBCMTD:strftime.obj
 0003:000128cc       ??_C@_08GNJGEPFN@February?$AA@ 100ea8cc     LIBCMTD:strftime.obj
 0003:000128d8       ??_C@_07CGJPFGJA@January?$AA@ 100ea8d8     LIBCMTD:strftime.obj
 0003:000128e4       ??_C@_03MKABNOCG@Dec?$AA@  100ea8e4     LIBCMTD:strftime.obj
 0003:000128e8       ??_C@_03JPJOFNIA@Nov?$AA@  100ea8e8     LIBCMTD:strftime.obj
 0003:000128ec       ??_C@_03BMAOKBAD@Oct?$AA@  100ea8ec     LIBCMTD:strftime.obj
 0003:000128f0       ??_C@_03GGCAPAJC@Sep?$AA@  100ea8f0     LIBCMTD:strftime.obj
 0003:000128f4       ??_C@_03IFJFEIGA@Aug?$AA@  100ea8f4     LIBCMTD:strftime.obj
 0003:000128f8       ??_C@_03LBGABGKK@Jul?$AA@  100ea8f8     LIBCMTD:strftime.obj
 0003:000128fc       ??_C@_03IDFGHECI@Jun?$AA@  100ea8fc     LIBCMTD:strftime.obj
 0003:00012900       ??_C@_03CNMDKL@May?$AA@    100ea900     LIBCMTD:strftime.obj
 0003:00012904       ??_C@_03LEOLGMJP@Apr?$AA@  100ea904     LIBCMTD:strftime.obj
 0003:00012908       ??_C@_03ODNJBKGA@Mar?$AA@  100ea908     LIBCMTD:strftime.obj
 0003:0001290c       ??_C@_03HJBDCHOM@Feb?$AA@  100ea90c     LIBCMTD:strftime.obj
 0003:00012910       ??_C@_03JIHJHPIE@Jan?$AA@  100ea910     LIBCMTD:strftime.obj
 0003:00012914       ??_C@_08INBOOONO@Saturday?$AA@ 100ea914     LIBCMTD:strftime.obj
 0003:00012920       ??_C@_06JECMNKMI@Friday?$AA@ 100ea920     LIBCMTD:strftime.obj
 0003:00012928       ??_C@_08HACCIKIA@Thursday?$AA@ 100ea928     LIBCMTD:strftime.obj
 0003:00012934       ??_C@_09DLIGFAKA@Wednesday?$AA@ 100ea934     LIBCMTD:strftime.obj
 0003:00012940       ??_C@_07BAAGCFCM@Tuesday?$AA@ 100ea940     LIBCMTD:strftime.obj
 0003:0001294c       ??_C@_06JLEDEDGH@Monday?$AA@ 100ea94c     LIBCMTD:strftime.obj
 0003:00012954       ??_C@_06OOPIFAJ@Sunday?$AA@ 100ea954     LIBCMTD:strftime.obj
 0003:0001295c       ??_C@_03FEFJNEK@Sat?$AA@   100ea95c     LIBCMTD:strftime.obj
 0003:00012960       ??_C@_03IDIOELNC@Fri?$AA@  100ea960     LIBCMTD:strftime.obj
 0003:00012964       ??_C@_03IOFIKPDN@Thu?$AA@  100ea964     LIBCMTD:strftime.obj
 0003:00012968       ??_C@_03MHOMLAJA@Wed?$AA@  100ea968     LIBCMTD:strftime.obj
 0003:0001296c       ??_C@_03NAGEINEP@Tue?$AA@  100ea96c     LIBCMTD:strftime.obj
 0003:00012970       ??_C@_03PDAGKDH@Mon?$AA@   100ea970     LIBCMTD:strftime.obj
 0003:00012974       ??_C@_03KOEHGMDN@Sun?$AA@  100ea974     LIBCMTD:strftime.obj
 0003:00012978       ??_C@_1FM@LPEPDBJF@?$AAs?$AAt?$AAr?$AAc?$AAp?$AAy?$AA_?$AAs?$AA?$CI?$AAs?$AA?0?$AA?5?$AA?$CI?$AAl?$AAe?$AAn?$AA?5?$AA?$CL?$AA?5?$AA1?$AA?$CJ?$AA?5?$AA?9?$AA?5?$AA?$CI?$AAs?$AA?5?$AA?9?$AA?5?$AAp?$AA?$CJ?$AA?0@ 100ea978     LIBCMTD:strftime.obj
 0003:000129e8       ??_C@_1GG@NAGHPCAA@?$AAs?$AAt?$AAr?$AAc?$AAp?$AAy?$AA_?$AAs?$AA?$CI?$AAs?$AA?0?$AA?5?$AA?$CI?$AAl?$AAe?$AAn?$AA?5?$AA?$CL?$AA?5?$AA1?$AA?$CJ?$AA?5?$AA?9?$AA?5?$AA?$CI?$AAs?$AA?5?$AA?9?$AA?5?$AAp?$AA?$CJ?$AA?0@ 100ea9e8     LIBCMTD:strftime.obj
 0003:00012a64       ??_C@_1BG@LGACIFJI@?$AA_?$AAG?$AAe?$AAt?$AAd?$AAa?$AAy?$AAs?$AA_?$AAl?$AA?$AA@ 100eaa64     LIBCMTD:strftime.obj
 0003:00012a80       ??_C@_1GE@FCOIONJG@?$AAf?$AA?3?$AA?2?$AAd?$AAd?$AA?2?$AAv?$AAc?$AAt?$AAo?$AAo?$AAl?$AAs?$AA?2?$AAc?$AAr?$AAt?$AA_?$AAb?$AAl?$AAd?$AA?2?$AAs?$AAe?$AAl?$AAf?$AA_?$AAx?$AA8?$AA6?$AA?2?$AAc@ 100eaa80     LIBCMTD:strftime.obj
 0003:00012af8       ??_C@_0DC@MEPJBKMO@f?3?2dd?2vctools?2crt_bld?2self_x86?2c@ 100eaaf8     LIBCMTD:strftime.obj
 0003:00012b38       ??_C@_1FO@IFFKPIEL@?$AAs?$AAt?$AAr?$AAc?$AAp?$AAy?$AA_?$AAs?$AA?$CI?$AAs?$AA?0?$AA?5?$AA?$CI?$AAl?$AAe?$AAn?$AA?5?$AA?$CL?$AA?5?$AA1?$AA?$CJ?$AA?5?$AA?9?$AA?5?$AA?$CI?$AAs?$AA?5?$AA?9?$AA?5?$AAp?$AA?$CJ?$AA?0@ 100eab38     LIBCMTD:strftime.obj
 0003:00012ba8       ??_C@_1GI@LNJDDNLK@?$AAs?$AAt?$AAr?$AAc?$AAp?$AAy?$AA_?$AAs?$AA?$CI?$AAs?$AA?0?$AA?5?$AA?$CI?$AAl?$AAe?$AAn?$AA?5?$AA?$CL?$AA?5?$AA1?$AA?$CJ?$AA?5?$AA?9?$AA?5?$AA?$CI?$AAs?$AA?5?$AA?9?$AA?5?$AAp?$AA?$CJ?$AA?0@ 100eaba8     LIBCMTD:strftime.obj
 0003:00012c24       ??_C@_1BK@IDMELNCB@?$AA_?$AAG?$AAe?$AAt?$AAm?$AAo?$AAn?$AAt?$AAh?$AAs?$AA_?$AAl?$AA?$AA@ 100eac24     LIBCMTD:strftime.obj
 0003:00012c48       ??_C@_1FG@CJBIADLJ@?$AAs?$AAt?$AAr?$AAc?$AAp?$AAy?$AA_?$AAs?$AA?$CI?$AAs?$AA?0?$AA?5?$AAl?$AAe?$AAn?$AA?5?$AA?9?$AA?5?$AA?$CI?$AAs?$AA?5?$AA?9?$AA?5?$AAp?$AA?$CJ?$AA?0?$AA?5?$AAp?$AAt?$AA?9?$AA?$DO?$AAw@ 100eac48     LIBCMTD:strftime.obj
 0003:00012cb0       ??_C@_1FI@PPIHCJGH@?$AAs?$AAt?$AAr?$AAc?$AAp?$AAy?$AA_?$AAs?$AA?$CI?$AAs?$AA?0?$AA?5?$AAl?$AAe?$AAn?$AA?5?$AA?9?$AA?5?$AA?$CI?$AAs?$AA?5?$AA?9?$AA?5?$AAp?$AA?$CJ?$AA?0?$AA?5?$AAp?$AAt?$AA?9?$AA?$DO?$AAw@ 100eacb0     LIBCMTD:strftime.obj
 0003:00012d20       ??_C@_1FI@GDNOPCGD@?$AAs?$AAt?$AAr?$AAc?$AAp?$AAy?$AA_?$AAs?$AA?$CI?$AAs?$AA?0?$AA?5?$AAl?$AAe?$AAn?$AA?5?$AA?9?$AA?5?$AA?$CI?$AAs?$AA?5?$AA?9?$AA?5?$AAp?$AA?$CJ?$AA?0?$AA?5?$AAp?$AAt?$AA?9?$AA?$DO?$AAw@ 100ead20     LIBCMTD:strftime.obj
 0003:00012d90       ??_C@_1FA@MEHIJEIL@?$AAs?$AAt?$AAr?$AAc?$AAp?$AAy?$AA_?$AAs?$AA?$CI?$AAs?$AA?0?$AA?5?$AAl?$AAe?$AAn?$AA?5?$AA?9?$AA?5?$AA?$CI?$AAs?$AA?5?$AA?9?$AA?5?$AAp?$AA?$CJ?$AA?0?$AA?5?$AAp?$AAt?$AA?9?$AA?$DO?$AAa@ 100ead90     LIBCMTD:strftime.obj
 0003:00012df0       ??_C@_1FA@INCJEBF@?$AAs?$AAt?$AAr?$AAc?$AAp?$AAy?$AA_?$AAs?$AA?$CI?$AAs?$AA?0?$AA?5?$AAl?$AAe?$AAn?$AA?5?$AA?9?$AA?5?$AA?$CI?$AAs?$AA?5?$AA?9?$AA?5?$AAp?$AA?$CJ?$AA?0?$AA?5?$AAp?$AAt?$AA?9?$AA?$DO?$AAa@ 100eadf0     LIBCMTD:strftime.obj
 0003:00012e50       ??_C@_1FC@BEAPAEGE@?$AAs?$AAt?$AAr?$AAc?$AAp?$AAy?$AA_?$AAs?$AA?$CI?$AAs?$AA?0?$AA?5?$AAl?$AAe?$AAn?$AA?5?$AA?9?$AA?5?$AA?$CI?$AAs?$AA?5?$AA?9?$AA?5?$AAp?$AA?$CJ?$AA?0?$AA?5?$AAp?$AAt?$AA?9?$AA?$DO?$AAm@ 100eae50     LIBCMTD:strftime.obj
 0003:00012eb8       ??_C@_1FM@CHHONFED@?$AAs?$AAt?$AAr?$AAc?$AAp?$AAy?$AA_?$AAs?$AA?$CI?$AAs?$AA?0?$AA?5?$AAl?$AAe?$AAn?$AA?5?$AA?9?$AA?5?$AA?$CI?$AAs?$AA?5?$AA?9?$AA?5?$AAp?$AA?$CJ?$AA?0?$AA?5?$AAp?$AAt?$AA?9?$AA?$DO?$AAm@ 100eaeb8     LIBCMTD:strftime.obj
 0003:00012f28       ??_C@_1FA@EBHJJADL@?$AAs?$AAt?$AAr?$AAc?$AAp?$AAy?$AA_?$AAs?$AA?$CI?$AAs?$AA?0?$AA?5?$AAl?$AAe?$AAn?$AA?5?$AA?9?$AA?5?$AA?$CI?$AAs?$AA?5?$AA?9?$AA?5?$AAp?$AA?$CJ?$AA?0?$AA?5?$AAp?$AAt?$AA?9?$AA?$DO?$AAw@ 100eaf28     LIBCMTD:strftime.obj
 0003:00012f88       ??_C@_1FK@ODMKEFLD@?$AAs?$AAt?$AAr?$AAc?$AAp?$AAy?$AA_?$AAs?$AA?$CI?$AAs?$AA?0?$AA?5?$AAl?$AAe?$AAn?$AA?5?$AA?9?$AA?5?$AA?$CI?$AAs?$AA?5?$AA?9?$AA?5?$AAp?$AA?$CJ?$AA?0?$AA?5?$AAp?$AAt?$AA?9?$AA?$DO?$AAw@ 100eaf88     LIBCMTD:strftime.obj
 0003:00012ff4       ??_C@_1BK@MJNHIAGO@?$AA_?$AAG?$AAe?$AAt?$AAt?$AAn?$AAa?$AAm?$AAe?$AAs?$AA_?$AAl?$AA?$AA@ 100eaff4     LIBCMTD:strftime.obj
 0003:00013014       ??_C@_1M@HCOOECOK@?$AAF?$AAA?$AAL?$AAS?$AAE?$AA?$AA@ 100eb014     LIBCMTD:strftime.obj
 0003:00013028       ??_C@_1HC@JGDOBCNK@?$AA?$CI?$AA?$CC?$AAI?$AAn?$AAv?$AAa?$AAl?$AAi?$AAd?$AA?5?$AAM?$AAB?$AAC?$AAS?$AA?5?$AAc?$AAh?$AAa?$AAr?$AAa?$AAc?$AAt?$AAe?$AAr?$AA?5?$AAs?$AAe?$AAq?$AAu?$AAe?$AAn?$AAc@ 100eb028     LIBCMTD:strftime.obj
 0003:000130b0       ??_C@_1CA@COHOENPC@?$AAt?$AAi?$AAm?$AAe?$AAp?$AAt?$AAr?$AA?5?$AA?$CB?$AA?$DN?$AA?5?$AAN?$AAU?$AAL?$AAL?$AA?$AA@ 100eb0b0     LIBCMTD:strftime.obj
 0003:000130d8       ??_C@_1CG@MHIOFJLE@?$AA?$CI?$AA?5?$AAf?$AAo?$AAr?$AAm?$AAa?$AAt?$AA?5?$AA?$CB?$AA?$DN?$AA?5?$AAN?$AAU?$AAL?$AAL?$AA?5?$AA?$CJ?$AA?$AA@ 100eb0d8     LIBCMTD:strftime.obj
 0003:00013108       ??_C@_1CC@IHEJKGMG@?$AA?$CI?$AA?5?$AAm?$AAa?$AAx?$AAs?$AAi?$AAz?$AAe?$AA?5?$AA?$CB?$AA?$DN?$AA?5?$AA0?$AA?5?$AA?$CJ?$AA?$AA@ 100eb108     LIBCMTD:strftime.obj
 0003:00013130       ??_C@_1BI@ONBMGNNA@?$AA_?$AAS?$AAt?$AAr?$AAf?$AAt?$AAi?$AAm?$AAe?$AA_?$AAl?$AA?$AA@ 100eb130     LIBCMTD:strftime.obj
 0003:0001314c       ??_C@_1CG@MPKJHDAA@?$AA?$CI?$AA?5?$AAs?$AAt?$AAr?$AAi?$AAn?$AAg?$AA?5?$AA?$CB?$AA?$DN?$AA?5?$AAN?$AAU?$AAL?$AAL?$AA?5?$AA?$CJ?$AA?$AA@ 100eb14c     LIBCMTD:strftime.obj
 0003:00013180       ??_C@_1EG@JNJKHKFI@?$AA?$CI?$AA?5?$AA?$CC?$AAI?$AAn?$AAv?$AAa?$AAl?$AAi?$AAd?$AA?5?$AAf?$AAo?$AAr?$AAm?$AAa?$AAt?$AA?5?$AAd?$AAi?$AAr?$AAe?$AAc?$AAt?$AAi?$AAv?$AAe?$AA?$CC?$AA?5?$AA?0?$AA?5?$AA0@ 100eb180     LIBCMTD:strftime.obj
 0003:000131d8       ??_C@_1HM@LBNGKIAD@?$AA?$CI?$AA?5?$AAt?$AAi?$AAm?$AAe?$AAp?$AAt?$AAr?$AA?9?$AA?$DO?$AAt?$AAm?$AA_?$AAy?$AAe?$AAa?$AAr?$AA?5?$AA?$DO?$AA?$DN?$AA?5?$AA?9?$AA1?$AA9?$AA0?$AA0?$AA?5?$AA?$CJ?$AA?5?$AA?$CG?$AA?$CG@ 100eb1d8     LIBCMTD:strftime.obj
 0003:0001326c       ??_C@_1DC@NMCFBMJP@?$AA?$CI?$AA?5?$AAt?$AAi?$AAm?$AAe?$AAp?$AAt?$AAr?$AA?9?$AA?$DO?$AAt?$AAm?$AA_?$AAy?$AAe?$AAa?$AAr?$AA?5?$AA?$DO?$AA?$DN?$AA0?$AA?5?$AA?$CJ?$AA?$AA@ 100eb26c     LIBCMTD:strftime.obj
 0003:000132a8       ??_C@_1HC@HLKHIKOB@?$AA?$CI?$AA?5?$AA?$CI?$AA?5?$AAt?$AAi?$AAm?$AAe?$AAp?$AAt?$AAr?$AA?9?$AA?$DO?$AAt?$AAm?$AA_?$AAs?$AAe?$AAc?$AA?5?$AA?$DO?$AA?$DN?$AA0?$AA?5?$AA?$CJ?$AA?5?$AA?$CG?$AA?$CG?$AA?5?$AA?$CI?$AA?5?$AAt@ 100eb2a8     LIBCMTD:strftime.obj
 0003:00013330       ??_C@_1HC@IGKDPPHL@?$AA?$CI?$AA?5?$AA?$CI?$AA?5?$AAt?$AAi?$AAm?$AAe?$AAp?$AAt?$AAr?$AA?9?$AA?$DO?$AAt?$AAm?$AA_?$AAm?$AAi?$AAn?$AA?5?$AA?$DO?$AA?$DN?$AA0?$AA?5?$AA?$CJ?$AA?5?$AA?$CG?$AA?$CG?$AA?5?$AA?$CI?$AA?5?$AAt@ 100eb330     LIBCMTD:strftime.obj
 0003:000133b8       ??_C@_1HI@HHCJCPE@?$AA?$CI?$AA?5?$AA?$CI?$AA?5?$AAt?$AAi?$AAm?$AAe?$AAp?$AAt?$AAr?$AA?9?$AA?$DO?$AAt?$AAm?$AA_?$AAy?$AAd?$AAa?$AAy?$AA?5?$AA?$DO?$AA?$DN?$AA0?$AA?5?$AA?$CJ?$AA?5?$AA?$CG?$AA?$CG?$AA?5?$AA?$CI?$AA?5@ 100eb3b8     LIBCMTD:strftime.obj
 0003:00013448       ??_C@_1HG@KCGGFLNI@?$AA?$CI?$AA?5?$AA?$CI?$AA?5?$AAt?$AAi?$AAm?$AAe?$AAp?$AAt?$AAr?$AA?9?$AA?$DO?$AAt?$AAm?$AA_?$AAh?$AAo?$AAu?$AAr?$AA?5?$AA?$DO?$AA?$DN?$AA0?$AA?5?$AA?$CJ?$AA?5?$AA?$CG?$AA?$CG?$AA?5?$AA?$CI?$AA?5@ 100eb448     LIBCMTD:strftime.obj
 0003:000134d8       ??_C@_1HG@NFHHOAD@?$AA?$CI?$AA?5?$AA?$CI?$AA?5?$AAt?$AAi?$AAm?$AAe?$AAp?$AAt?$AAr?$AA?9?$AA?$DO?$AAt?$AAm?$AA_?$AAm?$AAd?$AAa?$AAy?$AA?5?$AA?$DO?$AA?$DN?$AA1?$AA?5?$AA?$CJ?$AA?5?$AA?$CG?$AA?$CG?$AA?5?$AA?$CI?$AA?5@ 100eb4d8     LIBCMTD:strftime.obj
 0003:00013568       ??_C@_1HC@OOAMILFB@?$AA?$CI?$AA?5?$AA?$CI?$AA?5?$AAt?$AAi?$AAm?$AAe?$AAp?$AAt?$AAr?$AA?9?$AA?$DO?$AAt?$AAm?$AA_?$AAm?$AAo?$AAn?$AA?5?$AA?$DO?$AA?$DN?$AA0?$AA?5?$AA?$CJ?$AA?5?$AA?$CG?$AA?$CG?$AA?5?$AA?$CI?$AA?5?$AAt@ 100eb568     LIBCMTD:strftime.obj
 0003:000135f0       ??_C@_1BI@HBKPAJH@?$AA_?$AAe?$AAx?$AAp?$AAa?$AAn?$AAd?$AAt?$AAi?$AAm?$AAe?$AA?$AA@ 100eb5f0     LIBCMTD:strftime.obj
 0003:00013610       ??_C@_1HE@BFLEOKFO@?$AA?$CI?$AA?5?$AA?$CI?$AA?5?$AAt?$AAi?$AAm?$AAe?$AAp?$AAt?$AAr?$AA?9?$AA?$DO?$AAt?$AAm?$AA_?$AAw?$AAd?$AAa?$AAy?$AA?5?$AA?$DO?$AA?$DN?$AA0?$AA?5?$AA?$CJ?$AA?5?$AA?$CG?$AA?$CG?$AA?5?$AA?$CI?$AA?5@ 100eb610     LIBCMTD:strftime.obj
 0003:000136a0       ??_C@_1HG@PAEENAPO@?$AA?$CI?$AA?$CC?$AAI?$AAn?$AAv?$AAa?$AAl?$AAi?$AAd?$AA?5?$AAM?$AAB?$AAC?$AAS?$AA?5?$AAc?$AAh?$AAa?$AAr?$AAa?$AAc?$AAt?$AAe?$AAr?$AA?5?$AAs?$AAe?$AAq?$AAu?$AAe?$AAn?$AAc@ 100eb6a0     LIBCMTD:strftime.obj
 0003:00013730       ??_C@_1IE@EIDABBDG@?$AA?$CI?$AA?$CC?$AAI?$AAn?$AAv?$AAa?$AAl?$AAi?$AAd?$AA?5?$AAM?$AAB?$AAC?$AAS?$AA?5?$AAc?$AAh?$AAa?$AAr?$AAa?$AAc?$AAt?$AAe?$AAr?$AA?5?$AAs?$AAe?$AAq?$AAu?$AAe?$AAn?$AAc@ 100eb730     LIBCMTD:strftime.obj
 0003:000137d0       ??_C@_03EBAPMIKO@a?1p?$AA@ 100eb7d0     LIBCMTD:strftime.obj
 0003:000137d4       ??_C@_05JAMEPDIN@am?1pm?$AA@ 100eb7d4     LIBCMTD:strftime.obj
 0003:000137dc       ??_C@_0O@FMJNFNKE@united?9states?$AA@ 100eb7dc     LIBCMTD:getqloc.obj
 0003:000137ec       ??_C@_0P@NDHFFKCA@united?9kingdom?$AA@ 100eb7ec     LIBCMTD:getqloc.obj
 0003:00013800       ??_C@_0BC@HHDADLGF@trinidad?5?$CG?5tobago?$AA@ 100eb800     LIBCMTD:getqloc.obj
 0003:00013818       ??_C@_0M@IOAEBDAC@south?9korea?$AA@ 100eb818     LIBCMTD:getqloc.obj
 0003:00013828       ??_C@_0N@FIELFKIJ@south?9africa?$AA@ 100eb828     LIBCMTD:getqloc.obj
 0003:00013838       ??_C@_0M@OPNDHCMC@south?5korea?$AA@ 100eb838     LIBCMTD:getqloc.obj
 0003:00013848       ??_C@_0N@MDEOEPFI@south?5africa?$AA@ 100eb848     LIBCMTD:getqloc.obj
 0003:00013858       ??_C@_06FKAPCJLB@slovak?$AA@ 100eb858     LIBCMTD:getqloc.obj
 0003:00013860       ??_C@_0M@EFJANOAL@puerto?9rico?$AA@ 100eb860     LIBCMTD:getqloc.obj
 0003:00013870       ??_C@_08PGOJKDAI@pr?9china?$AA@ 100eb870     LIBCMTD:getqloc.obj
 0003:0001387c       ??_C@_08JHDOMCMI@pr?5china?$AA@ 100eb87c     LIBCMTD:getqloc.obj
 0003:00013888       ??_C@_02JHCHFBLL@nz?$AA@   100eb888     LIBCMTD:getqloc.obj
 0003:0001388c       ??_C@_0M@LINHDHKP@new?9zealand?$AA@ 100eb88c     LIBCMTD:getqloc.obj
 0003:0001389c       ??_C@_09IIIPPBDB@hong?9kong?$AA@ 100eb89c     LIBCMTD:getqloc.obj
 0003:000138a8       ??_C@_07HJLCKBG@holland?$AA@ 100eb8a8     LIBCMTD:getqloc.obj
 0003:000138b4       ??_C@_0O@LEHGMHAG@great?5britain?$AA@ 100eb8b4     LIBCMTD:getqloc.obj
 0003:000138c4       ??_C@_07FACOMELA@england?$AA@ 100eb8c4     LIBCMTD:getqloc.obj
 0003:000138d0       ??_C@_05JIHCEICB@czech?$AA@ 100eb8d0     LIBCMTD:getqloc.obj
 0003:000138d8       ??_C@_05BBJOBLGB@china?$AA@ 100eb8d8     LIBCMTD:getqloc.obj
 0003:000138e0       ??_C@_07GPKPHICP@britain?$AA@ 100eb8e0     LIBCMTD:getqloc.obj
 0003:000138ec       ??_C@_07MHIPBHMG@america?$AA@ 100eb8ec     LIBCMTD:getqloc.obj
 0003:000138f8       ??_C@_03KIALPMKC@usa?$AA@  100eb8f8     LIBCMTD:getqloc.obj
 0003:000138fc       ??_C@_02FGJGKGGD@us?$AA@   100eb8fc     LIBCMTD:getqloc.obj
 0003:00013900       ??_C@_02NEINDODK@uk?$AA@   100eb900     LIBCMTD:getqloc.obj
 0003:00013904       ??_C@_05JMPCFJFJ@swiss?$AA@ 100eb904     LIBCMTD:getqloc.obj
 0003:0001390c       ??_C@_0BA@HLOCPIOD@swedish?9finland?$AA@ 100eb90c     LIBCMTD:getqloc.obj
 0003:00013920       ??_C@_0BC@PKCNIABK@spanish?9venezuela?$AA@ 100eb920     LIBCMTD:getqloc.obj
 0003:00013938       ??_C@_0BA@GBHHMIJI@spanish?9uruguay?$AA@ 100eb938     LIBCMTD:getqloc.obj
 0003:0001394c       ??_C@_0BE@BHDOHPMC@spanish?9puerto?5rico?$AA@ 100eb94c     LIBCMTD:getqloc.obj
 0003:00013964       ??_C@_0N@KMOIDGGN@spanish?9peru?$AA@ 100eb964     LIBCMTD:getqloc.obj
 0003:00013974       ??_C@_0BB@HMHLPGPH@spanish?9paraguay?$AA@ 100eb974     LIBCMTD:getqloc.obj
 0003:00013988       ??_C@_0P@MCPKNGFD@spanish?9panama?$AA@ 100eb988     LIBCMTD:getqloc.obj
 0003:0001399c       ??_C@_0BC@IHOHGAIL@spanish?9nicaragua?$AA@ 100eb99c     LIBCMTD:getqloc.obj
 0003:000139b4       ??_C@_0P@KLMJDNFJ@spanish?9modern?$AA@ 100eb9b4     LIBCMTD:getqloc.obj
 0003:000139c8       ??_C@_0BA@BPAPGBCM@spanish?9mexican?$AA@ 100eb9c8     LIBCMTD:getqloc.obj
 0003:000139dc       ??_C@_0BB@PDECHHHE@spanish?9honduras?$AA@ 100eb9dc     LIBCMTD:getqloc.obj
 0003:000139f0       ??_C@_0BC@KLHKFGDB@spanish?9guatemala?$AA@ 100eb9f0     LIBCMTD:getqloc.obj
 0003:00013a08       ??_C@_0BE@MFOOKJAI@spanish?9el?5salvador?$AA@ 100eba08     LIBCMTD:getqloc.obj
 0003:00013a20       ??_C@_0BA@FCOKFPFC@spanish?9ecuador?$AA@ 100eba20     LIBCMTD:getqloc.obj
 0003:00013a34       ??_C@_0BL@PLMGIMOO@spanish?9dominican?5republic?$AA@ 100eba34     LIBCMTD:getqloc.obj
 0003:00013a54       ??_C@_0BD@HLGDNMHB@spanish?9costa?5rica?$AA@ 100eba54     LIBCMTD:getqloc.obj
 0003:00013a6c       ??_C@_0BB@PKCBKCPE@spanish?9colombia?$AA@ 100eba6c     LIBCMTD:getqloc.obj
 0003:00013a80       ??_C@_0O@MCBIJGNE@spanish?9chile?$AA@ 100eba80     LIBCMTD:getqloc.obj
 0003:00013a90       ??_C@_0BA@BEFEIGJJ@spanish?9bolivia?$AA@ 100eba90     LIBCMTD:getqloc.obj
 0003:00013aa4       ??_C@_0BC@EMECMPD@spanish?9argentina?$AA@ 100ebaa4     LIBCMTD:getqloc.obj
 0003:00013abc       ??_C@_0BF@EALFLENP@portuguese?9brazilian?$AA@ 100ebabc     LIBCMTD:getqloc.obj
 0003:00013ad8       ??_C@_0BC@HBLEBLNN@norwegian?9nynorsk?$AA@ 100ebad8     LIBCMTD:getqloc.obj
 0003:00013af0       ??_C@_0BB@HMACDDCK@norwegian?9bokmal?$AA@ 100ebaf0     LIBCMTD:getqloc.obj
 0003:00013b04       ??_C@_09BAFFPPHE@norwegian?$AA@ 100ebb04     LIBCMTD:getqloc.obj
 0003:00013b10       ??_C@_0O@EAJFJDFG@italian?9swiss?$AA@ 100ebb10     LIBCMTD:getqloc.obj
 0003:00013b20       ??_C@_0O@CNOMPGD@irish?9english?$AA@ 100ebb20     LIBCMTD:getqloc.obj
 0003:00013b30       ??_C@_0N@EDHBGCKG@german?9swiss?$AA@ 100ebb30     LIBCMTD:getqloc.obj
 0003:00013b40       ??_C@_0BC@JACMHNBP@german?9luxembourg?$AA@ 100ebb40     LIBCMTD:getqloc.obj
 0003:00013b58       ??_C@_0BE@HBGMGFEG@german?9lichtenstein?$AA@ 100ebb58     LIBCMTD:getqloc.obj
 0003:00013b70       ??_C@_0BA@HKKBIBKL@german?9austrian?$AA@ 100ebb70     LIBCMTD:getqloc.obj
 0003:00013b84       ??_C@_0N@GCAEPEBK@french?9swiss?$AA@ 100ebb84     LIBCMTD:getqloc.obj
 0003:00013b94       ??_C@_0BC@DJFJJCK@french?9luxembourg?$AA@ 100ebb94     LIBCMTD:getqloc.obj
 0003:00013bac       ??_C@_0BA@NNCEDFIC@french?9canadian?$AA@ 100ebbac     LIBCMTD:getqloc.obj
 0003:00013bc0       ??_C@_0P@CMPOCLM@french?9belgian?$AA@ 100ebbc0     LIBCMTD:getqloc.obj
 0003:00013bd4       ??_C@_0M@GHHDJOK@english?9usa?$AA@ 100ebbd4     LIBCMTD:getqloc.obj
 0003:00013be4       ??_C@_0L@PLDJKEIL@english?9us?$AA@ 100ebbe4     LIBCMTD:getqloc.obj
 0003:00013bf4       ??_C@_0L@HJCCDMNC@english?9uk?$AA@ 100ebbf4     LIBCMTD:getqloc.obj
 0003:00013c04       ??_C@_0BK@CKLIAGJB@english?9trinidad?5y?5tobago?$AA@ 100ebc04     LIBCMTD:getqloc.obj
 0003:00013c24       ??_C@_0BF@JMJMGNNF@english?9south?5africa?$AA@ 100ebc24     LIBCMTD:getqloc.obj
 0003:00013c40       ??_C@_0L@DKIIFDFD@english?9nz?$AA@ 100ebc40     LIBCMTD:getqloc.obj
 0003:00013c50       ??_C@_0BA@ONHGJCLH@english?9jamaica?$AA@ 100ebc50     LIBCMTD:getqloc.obj
 0003:00013c64       ??_C@_0M@HJBGHOPO@english?9ire?$AA@ 100ebc64     LIBCMTD:getqloc.obj
 0003:00013c74       ??_C@_0BC@LFEKMIFB@english?9caribbean?$AA@ 100ebc74     LIBCMTD:getqloc.obj
 0003:00013c8c       ??_C@_0M@OLDPFKHI@english?9can?$AA@ 100ebc8c     LIBCMTD:getqloc.obj
 0003:00013c9c       ??_C@_0P@OMDEHBMP@english?9belize?$AA@ 100ebc9c     LIBCMTD:getqloc.obj
 0003:00013cb0       ??_C@_0M@KFHFPFED@english?9aus?$AA@ 100ebcb0     LIBCMTD:getqloc.obj
 0003:00013cc0       ??_C@_0BB@MNMBKDFE@english?9american?$AA@ 100ebcc0     LIBCMTD:getqloc.obj
 0003:00013cd4       ??_C@_0O@KIDLNNBA@dutch?9belgian?$AA@ 100ebcd4     LIBCMTD:getqloc.obj
 0003:00013ce4       ??_C@_0BE@JBKABBMH@chinese?9traditional?$AA@ 100ebce4     LIBCMTD:getqloc.obj
 0003:00013cfc       ??_C@_0BC@MJJMPKCG@chinese?9singapore?$AA@ 100ebcfc     LIBCMTD:getqloc.obj
 0003:00013d14       ??_C@_0BD@FDKADDCP@chinese?9simplified?$AA@ 100ebd14     LIBCMTD:getqloc.obj
 0003:00013d2c       ??_C@_0BB@DBEFDDME@chinese?9hongkong?$AA@ 100ebd2c     LIBCMTD:getqloc.obj
 0003:00013d40       ??_C@_07DHNMFMCI@chinese?$AA@ 100ebd40     LIBCMTD:getqloc.obj
 0003:00013d4c       ??_C@_03FNDDCHI@chi?$AA@   100ebd4c     LIBCMTD:getqloc.obj
 0003:00013d50       ??_C@_03BMMIADDJ@chh?$AA@  100ebd50     LIBCMTD:getqloc.obj
 0003:00013d54       ??_C@_08OAIPJDGI@canadian?$AA@ 100ebd54     LIBCMTD:getqloc.obj
 0003:00013d60       ??_C@_07HBPMNPNJ@belgian?$AA@ 100ebd60     LIBCMTD:getqloc.obj
 0003:00013d6c       ??_C@_0L@OEKOPBEL@australian?$AA@ 100ebd6c     LIBCMTD:getqloc.obj
 0003:00013d7c       ??_C@_0BB@MEIMBEDG@american?9english?$AA@ 100ebd7c     LIBCMTD:getqloc.obj
 0003:00013d90       ??_C@_0BB@DFMDPDGB@american?5english?$AA@ 100ebd90     LIBCMTD:getqloc.obj
 0003:00013da4       ??_C@_08IJLOKOLL@american?$AA@ 100ebda4     LIBCMTD:getqloc.obj
 0003:00013db0       ___rg_language             100ebdb0     LIBCMTD:getqloc.obj
 0003:00014020       ___rg_country              100ec020     LIBCMTD:getqloc.obj
 0003:000140fc       ___rglangidNotDefault      100ec0fc     LIBCMTD:getqloc.obj
 0003:00014114       ??_C@_0BC@NFIEMBLL@Norwegian?9Nynorsk?$AA@ 100ec114     LIBCMTD:getqloc.obj
 0003:00014130       ??_C@_1OM@OECHDGCF@?$AAs?$AAt?$AAr?$AAc?$AAp?$AAy?$AA_?$AAs?$AA?$CI?$AAl?$AAp?$AAO?$AAu?$AAt?$AAS?$AAt?$AAr?$AA?9?$AA?$DO?$AAs?$AAz?$AAL?$AAa?$AAn?$AAg?$AAu?$AAa?$AAg?$AAe?$AA?0?$AA?5?$AA?$CI@ 100ec130     LIBCMTD:getqloc.obj
 0003:0001424c       ??_C@_1CO@NJACLALJ@?$AA_?$AA_?$AAg?$AAe?$AAt?$AA_?$AAq?$AAu?$AAa?$AAl?$AAi?$AAf?$AAi?$AAe?$AAd?$AA_?$AAl?$AAo?$AAc?$AAa?$AAl?$AAe?$AA?$AA@ 100ec24c     LIBCMTD:getqloc.obj
 0003:00014288       ??_C@_1GC@FECJGAE@?$AAf?$AA?3?$AA?2?$AAd?$AAd?$AA?2?$AAv?$AAc?$AAt?$AAo?$AAo?$AAl?$AAs?$AA?2?$AAc?$AAr?$AAt?$AA_?$AAb?$AAl?$AAd?$AA?2?$AAs?$AAe?$AAl?$AAf?$AA_?$AAx?$AA8?$AA6?$AA?2?$AAc@ 100ec288     LIBCMTD:getqloc.obj
 0003:00014300       ??_C@_03NFKLAGEF@OCP?$AA@  100ec300     LIBCMTD:getqloc.obj
 0003:00014304       ??_C@_01GBGANLPD@0?$AA@    100ec304     LIBCMTD:getqloc.obj
 0003:00014308       ??_C@_03DFHEHBHG@ACP?$AA@  100ec308     LIBCMTD:getqloc.obj
 0003:0001430c       ??_C@_1BA@NGNGNDEP@?$AA_?$AAc?$AAp?$AAu?$AAt?$AAw?$AAs?$AA?$AA@ 100ec30c     LIBCMTD:putwch.obj
 0003:00014320       ??_C@_1GA@NKLOJFIJ@?$AAf?$AA?3?$AA?2?$AAd?$AAd?$AA?2?$AAv?$AAc?$AAt?$AAo?$AAo?$AAl?$AAs?$AA?2?$AAc?$AAr?$AAt?$AA_?$AAb?$AAl?$AAd?$AA?2?$AAs?$AAe?$AAl?$AAf?$AA_?$AAx?$AA8?$AA6?$AA?2?$AAc@ 100ec320     LIBCMTD:putwch.obj
 0003:00014394       ??_C@_1CG@JEHFHLNG@?$AA_?$AAm?$AAb?$AAs?$AAt?$AAo?$AAw?$AAc?$AAs?$AA_?$AAl?$AA_?$AAh?$AAe?$AAl?$AAp?$AAe?$AAr?$AA?$AA@ 100ec394     LIBCMTD:mbstowcs.obj
 0003:000143c8       ??_C@_1GE@LCCDHBMH@?$AAf?$AA?3?$AA?2?$AAd?$AAd?$AA?2?$AAv?$AAc?$AAt?$AAo?$AAo?$AAl?$AAs?$AA?2?$AAc?$AAr?$AAt?$AA_?$AAb?$AAl?$AAd?$AA?2?$AAs?$AAe?$AAl?$AAf?$AA_?$AAx?$AA8?$AA6?$AA?2?$AAc@ 100ec3c8     LIBCMTD:mbstowcs.obj
 0003:00014440       ??_C@_1BE@EEKACIGI@?$AAs?$AA?5?$AA?$CB?$AA?$DN?$AA?5?$AAN?$AAU?$AAL?$AAL?$AA?$AA@ 100ec440     LIBCMTD:mbstowcs.obj
 0003:00014458       ??_C@_1CO@JNPEPJAL@?$AAr?$AAe?$AAt?$AAs?$AAi?$AAz?$AAe?$AA?5?$AA?$DM?$AA?$DN?$AA?5?$AAs?$AAi?$AAz?$AAe?$AAI?$AAn?$AAW?$AAo?$AAr?$AAd?$AAs?$AA?$AA@ 100ec458     LIBCMTD:mbstowcs.obj
 0003:00014490       ??_C@_1CM@LLECFMFH@?$AAb?$AAu?$AAf?$AAf?$AAe?$AAr?$AAS?$AAi?$AAz?$AAe?$AA?5?$AA?$DM?$AA?$DN?$AA?5?$AAI?$AAN?$AAT?$AA_?$AAM?$AAA?$AAX?$AA?$AA@ 100ec490     LIBCMTD:mbstowcs.obj
 0003:000144c4       ??_C@_1BM@PHENIGHD@?$AA_?$AAm?$AAb?$AAs?$AAt?$AAo?$AAw?$AAc?$AAs?$AA_?$AAs?$AA_?$AAl?$AA?$AA@ 100ec4c4     LIBCMTD:mbstowcs.obj
 0003:000144e8       ??_C@_1JA@JKDFMOPO@?$AA?$CI?$AAp?$AAw?$AAc?$AAs?$AA?5?$AA?$DN?$AA?$DN?$AA?5?$AAN?$AAU?$AAL?$AAL?$AA?5?$AA?$CG?$AA?$CG?$AA?5?$AAs?$AAi?$AAz?$AAe?$AAI?$AAn?$AAW?$AAo?$AAr?$AAd?$AAs?$AA?5?$AA?$DN?$AA?$DN?$AA?5@ 100ec4e8     LIBCMTD:mbstowcs.obj
 0003:00014594       ??_C@_1O@GIMBNLEI@?$AAx?$AAt?$AAo?$AAa?$AA_?$AAs?$AA?$AA@ 100ec594     LIBCMTD:xtoas.obj
 0003:000145a4       ??_C@_1BC@MJJNBNFN@?$AAx?$AA6?$AA4?$AAt?$AAo?$AAa?$AA_?$AAs?$AA?$AA@ 100ec5a4     LIBCMTD:xtoas.obj
 0003:000145bc       ??_C@_1CG@LLJCAOHF@?$AA_?$AAw?$AAc?$AAs?$AAt?$AAo?$AAm?$AAb?$AAs?$AA_?$AAl?$AA_?$AAh?$AAe?$AAl?$AAp?$AAe?$AAr?$AA?$AA@ 100ec5bc     LIBCMTD:wcstombs.obj
 0003:000145f0       ??_C@_1GE@OAENIBOD@?$AAf?$AA?3?$AA?2?$AAd?$AAd?$AA?2?$AAv?$AAc?$AAt?$AAo?$AAo?$AAl?$AAs?$AA?2?$AAc?$AAr?$AAt?$AA_?$AAb?$AAl?$AAd?$AA?2?$AAs?$AAe?$AAl?$AAf?$AA_?$AAx?$AA8?$AA6?$AA?2?$AAc@ 100ec5f0     LIBCMTD:wcstombs.obj
 0003:00014668       ??_C@_1BK@OIBENBPM@?$AAp?$AAw?$AAc?$AAs?$AA?5?$AA?$CB?$AA?$DN?$AA?5?$AAN?$AAU?$AAL?$AAL?$AA?$AA@ 100ec668     LIBCMTD:wcstombs.obj
 0003:00014688       ??_C@_1CM@KEOGBFLI@?$AAs?$AAi?$AAz?$AAe?$AAI?$AAn?$AAB?$AAy?$AAt?$AAe?$AAs?$AA?5?$AA?$DO?$AA?5?$AAr?$AAe?$AAt?$AAs?$AAi?$AAz?$AAe?$AA?$AA@ 100ec688     LIBCMTD:wcstombs.obj
 0003:000146bc       ??_C@_1BM@BDMCLLDL@?$AA_?$AAw?$AAc?$AAs?$AAt?$AAo?$AAm?$AAb?$AAs?$AA_?$AAs?$AA_?$AAl?$AA?$AA@ 100ec6bc     LIBCMTD:wcstombs.obj
 0003:000146e0       ??_C@_1IM@MFGKHGBP@?$AA?$CI?$AAd?$AAs?$AAt?$AA?5?$AA?$CB?$AA?$DN?$AA?5?$AAN?$AAU?$AAL?$AAL?$AA?5?$AA?$CG?$AA?$CG?$AA?5?$AAs?$AAi?$AAz?$AAe?$AAI?$AAn?$AAB?$AAy?$AAt?$AAe?$AAs?$AA?5?$AA?$DO?$AA?5?$AA0?$AA?$CJ@ 100ec6e0     LIBCMTD:wcstombs.obj
 0003:00014788       ??_C@_1BK@EPLNBKAK@?$AA_?$AAv?$AAs?$AAw?$AAp?$AAr?$AAi?$AAn?$AAt?$AAf?$AA_?$AAl?$AA?$AA@ 100ec788     LIBCMTD:vswprint.obj
 0003:000147a8       ??_C@_1CG@IMMIEPNA@?$AA_?$AAv?$AAs?$AAc?$AAw?$AAp?$AAr?$AAi?$AAn?$AAt?$AAf?$AA_?$AAh?$AAe?$AAl?$AAp?$AAe?$AAr?$AA?$AA@ 100ec7a8     LIBCMTD:vswprint.obj
 0003:000147d8       ??_C@_1FE@CEHLKAHD@?$AAi?$AAb?$AAa?$AAs?$AAe?$AA?5?$AA?$DN?$AA?$DN?$AA?5?$AA0?$AA?5?$AA?$HM?$AA?$HM?$AA?5?$AA?$CI?$AA2?$AA?5?$AA?$DM?$AA?$DN?$AA?5?$AAi?$AAb?$AAa?$AAs?$AAe?$AA?5?$AA?$CG?$AA?$CG?$AA?5?$AAi?$AAb?$AAa@ 100ec7d8     LIBCMTD:wcstol.obj
 0003:0001483c       ??_C@_1BA@PCFLFGNC@?$AAw?$AAc?$AAs?$AAt?$AAo?$AAx?$AAl?$AA?$AA@ 100ec83c     LIBCMTD:wcstol.obj
 0003:00014850       ??_C@_1GA@CADFOND@?$AAf?$AA?3?$AA?2?$AAd?$AAd?$AA?2?$AAv?$AAc?$AAt?$AAo?$AAo?$AAl?$AAs?$AA?2?$AAc?$AAr?$AAt?$AA_?$AAb?$AAl?$AAd?$AA?2?$AAs?$AAe?$AAl?$AAf?$AA_?$AAx?$AA8?$AA6?$AA?2?$AAc@ 100ec850     LIBCMTD:wcstol.obj
 0003:000148c4       ??_C@_1BK@LAOAACLJ@?$AAn?$AAp?$AAt?$AAr?$AA?5?$AA?$CB?$AA?$DN?$AA?5?$AAN?$AAU?$AAL?$AAL?$AA?$AA@ 100ec8c4     LIBCMTD:wcstol.obj
 0003:000148e4       ??_C@_1BI@GALBKMKE@?$AA?$CI?$AAs?$AAi?$AAz?$AAe?$AA?5?$AA?$DO?$AA?$DN?$AA?5?$AA0?$AA?$CJ?$AA?$AA@ 100ec8e4     LIBCMTD:chsize.obj
 0003:00014900       ??_C@_1BE@MAFDNGED@?$AA_?$AAc?$AAh?$AAs?$AAi?$AAz?$AAe?$AA_?$AAs?$AA?$AA@ 100ec900     LIBCMTD:chsize.obj
 0003:00014918       ??_C@_1GA@DBKMEDOF@?$AAf?$AA?3?$AA?2?$AAd?$AAd?$AA?2?$AAv?$AAc?$AAt?$AAo?$AAo?$AAl?$AAs?$AA?2?$AAc?$AAr?$AAt?$AA_?$AAb?$AAl?$AAd?$AA?2?$AAs?$AAe?$AAl?$AAf?$AA_?$AAx?$AA8?$AA6?$AA?2?$AAc@ 100ec918     LIBCMTD:chsize.obj
 0003:0001498c       ??_C@_1O@EDOIKGHF@?$AA_?$AAl?$AAs?$AAe?$AAe?$AAk?$AA?$AA@ 100ec98c     LIBCMTD:lseek.obj
 0003:000149a0       ??_C@_1FO@LGKMLCAL@?$AAf?$AA?3?$AA?2?$AAd?$AAd?$AA?2?$AAv?$AAc?$AAt?$AAo?$AAo?$AAl?$AAs?$AA?2?$AAc?$AAr?$AAt?$AA_?$AAb?$AAl?$AAd?$AA?2?$AAs?$AAe?$AAl?$AAf?$AA_?$AAx?$AA8?$AA6?$AA?2?$AAc@ 100ec9a0     LIBCMTD:lseek.obj
 0003:00014a10       ??_C@_1DM@LMLOLGJ@?$AA?$CI?$AA?$CC?$AAI?$AAn?$AAv?$AAa?$AAl?$AAi?$AAd?$AA?5?$AAf?$AAi?$AAl?$AAe?$AA?5?$AAd?$AAe?$AAs?$AAc?$AAr?$AAi?$AAp?$AAt?$AAo?$AAr?$AA?$CC?$AA?0?$AA0?$AA?$CJ?$AA?$AA@ 100eca10     LIBCMTD:lseek.obj
 0003:00014a58       ??_C@_1BC@JBGGJDCM@?$AA_?$AAs?$AAe?$AAt?$AAm?$AAo?$AAd?$AAe?$AA?$AA@ 100eca58     LIBCMTD:setmode.obj
 0003:00014a70       ??_C@_1GC@KODPFLLJ@?$AAf?$AA?3?$AA?2?$AAd?$AAd?$AA?2?$AAv?$AAc?$AAt?$AAo?$AAo?$AAl?$AAs?$AA?2?$AAc?$AAr?$AAt?$AA_?$AAb?$AAl?$AAd?$AA?2?$AAs?$AAe?$AAl?$AAf?$AA_?$AAx?$AA8?$AA6?$AA?2?$AAc@ 100eca70     LIBCMTD:setmode.obj
 0003:00014ae8       ??_C@_1OA@HGPJIFPM@?$AA?$CI?$AA?$CI?$AAm?$AAo?$AAd?$AAe?$AA?5?$AA?$DN?$AA?$DN?$AA?5?$AA_?$AAO?$AA_?$AAT?$AAE?$AAX?$AAT?$AA?$CJ?$AA?5?$AA?$HM?$AA?$HM?$AA?5?$AA?$CI?$AAm?$AAo?$AAd?$AAe?$AA?5?$AA?$DN?$AA?$DN?$AA?5?$AA_@ 100ecae8     LIBCMTD:setmode.obj
 0003:00014bf4       ??_C@_1BG@IEEHLOCL@?$AA_?$AAs?$AAe?$AAt?$AA_?$AAf?$AAm?$AAo?$AAd?$AAe?$AA?$AA@ 100ecbf4     LIBCMTD:setmode.obj
 0003:00014c10       ??_C@_1IC@NDCJMLB@?$AA?$CI?$AA?$CI?$AAm?$AAo?$AAd?$AAe?$AA?5?$AA?$DN?$AA?$DN?$AA?5?$AA_?$AAO?$AA_?$AAT?$AAE?$AAX?$AAT?$AA?$CJ?$AA?5?$AA?$HM?$AA?$HM?$AA?5?$AA?$CI?$AAm?$AAo?$AAd?$AAe?$AA?5?$AA?$DN?$AA?$DN?$AA?5?$AA_@ 100ecc10     LIBCMTD:setmode.obj
 0003:00014cac       ??_C@_1BG@CKGMPOFH@?$AA_?$AAg?$AAe?$AAt?$AA_?$AAf?$AAm?$AAo?$AAd?$AAe?$AA?$AA@ 100eccac     LIBCMTD:setmode.obj
 0003:00014cc8       ??_C@_1CA@GPIGPPFN@?$AA?$CI?$AAp?$AAM?$AAo?$AAd?$AAe?$AA?5?$AA?$CB?$AA?$DN?$AA?5?$AAN?$AAU?$AAL?$AAL?$AA?$CJ?$AA?$AA@ 100eccc8     LIBCMTD:setmode.obj
 0003:00014cf0       ??_C@_1BO@JGFPDJCP@?$AAv?$AAp?$AAr?$AAi?$AAn?$AAt?$AAf?$AA_?$AAh?$AAe?$AAl?$AAp?$AAe?$AAr?$AA?$AA@ 100eccf0     LIBCMTD:vprintf.obj
 0003:00014d18       ??_C@_1GC@DHFFJKMC@?$AAf?$AA?3?$AA?2?$AAd?$AAd?$AA?2?$AAv?$AAc?$AAt?$AAo?$AAo?$AAl?$AAs?$AA?2?$AAc?$AAr?$AAt?$AA_?$AAb?$AAl?$AAd?$AA?2?$AAs?$AAe?$AAl?$AAf?$AA_?$AAx?$AA8?$AA6?$AA?2?$AAc@ 100ecd18     LIBCMTD:vprintf.obj
 0003:00014d90       ??_C@_1BA@LOLAMAJG@?$AAs?$AAt?$AAr?$AAt?$AAo?$AAx?$AAl?$AA?$AA@ 100ecd90     LIBCMTD:strtol.obj
 0003:00014da8       ??_C@_1GA@IPHKKOEI@?$AAf?$AA?3?$AA?2?$AAd?$AAd?$AA?2?$AAv?$AAc?$AAt?$AAo?$AAo?$AAl?$AAs?$AA?2?$AAc?$AAr?$AAt?$AA_?$AAb?$AAl?$AAd?$AA?2?$AAs?$AAe?$AAl?$AAf?$AA_?$AAx?$AA8?$AA6?$AA?2?$AAc@ 100ecda8     LIBCMTD:strtol.obj
 0003:00014e1c       ??_C@_0DC@IHGBBJOH@f?3?2dd?2vctools?2crt_bld?2self_x86?2c@ 100ece1c     LIBCMTD:convrtcp.obj
 0003:00014e58       ___dnames                  100ece58     LIBCMTD:timeset.obj
 0003:00014e70       ___mnames                  100ece70     LIBCMTD:timeset.obj
 0003:00014ea4       ??_C@_1BM@FIMHBHEB@?$AA_?$AAg?$AAe?$AAt?$AA_?$AAd?$AAa?$AAy?$AAl?$AAi?$AAg?$AAh?$AAt?$AA?$AA@ 100ecea4     LIBCMTD:timeset.obj
 0003:00014ec8       ??_C@_1GC@NEGFAKA@?$AAf?$AA?3?$AA?2?$AAd?$AAd?$AA?2?$AAv?$AAc?$AAt?$AAo?$AAo?$AAl?$AAs?$AA?2?$AAc?$AAr?$AAt?$AA_?$AAb?$AAl?$AAd?$AA?2?$AAs?$AAe?$AAl?$AAf?$AA_?$AAx?$AA8?$AA6?$AA?2?$AAc@ 100ecec8     LIBCMTD:timeset.obj
 0003:00014f40       ??_C@_1CI@MKJEHFPG@?$AA?$CI?$AA_?$AAD?$AAa?$AAy?$AAl?$AAi?$AAg?$AAh?$AAt?$AA?5?$AA?$CB?$AA?$DN?$AA?5?$AAN?$AAU?$AAL?$AAL?$AA?$CJ?$AA?$AA@ 100ecf40     LIBCMTD:timeset.obj
 0003:00014f70       ??_C@_1BK@EMODDHEE@?$AA_?$AAg?$AAe?$AAt?$AA_?$AAd?$AAs?$AAt?$AAb?$AAi?$AAa?$AAs?$AA?$AA@ 100ecf70     LIBCMTD:timeset.obj
 0003:00014f90       ??_C@_1EC@PKDJPAAB@?$AA?$CI?$AA_?$AAD?$AAa?$AAy?$AAl?$AAi?$AAg?$AAh?$AAt?$AA_?$AAs?$AAa?$AAv?$AAi?$AAn?$AAg?$AAs?$AA_?$AAb?$AAi?$AAa?$AAs?$AA?5?$AA?$CB?$AA?$DN?$AA?5?$AAN?$AAU?$AAL?$AAL?$AA?$CJ@ 100ecf90     LIBCMTD:timeset.obj
 0003:00014fe0       ??_C@_1BM@MGEAKPEJ@?$AA_?$AAg?$AAe?$AAt?$AA_?$AAt?$AAi?$AAm?$AAe?$AAz?$AAo?$AAn?$AAe?$AA?$AA@ 100ecfe0     LIBCMTD:timeset.obj
 0003:00015004       ??_C@_1CI@PODJJGAL@?$AA?$CI?$AA_?$AAT?$AAi?$AAm?$AAe?$AAz?$AAo?$AAn?$AAe?$AA?5?$AA?$CB?$AA?$DN?$AA?5?$AAN?$AAU?$AAL?$AAL?$AA?$CJ?$AA?$AA@ 100ed004     LIBCMTD:timeset.obj
 0003:00015034       ??_C@_1DG@HLGKANIP@?$AA_?$AAI?$AAn?$AAd?$AAe?$AAx?$AA?5?$AA?$DN?$AA?$DN?$AA?5?$AA0?$AA?5?$AA?$HM?$AA?$HM?$AA?5?$AA_?$AAI?$AAn?$AAd?$AAe?$AAx?$AA?5?$AA?$DN?$AA?$DN?$AA?5?$AA1?$AA?$AA@ 100ed034     LIBCMTD:timeset.obj
 0003:00015074       ??_C@_1CK@GBKHKEI@?$AA_?$AAR?$AAe?$AAt?$AAu?$AAr?$AAn?$AAV?$AAa?$AAl?$AAu?$AAe?$AA?5?$AA?$CB?$AA?$DN?$AA?5?$AAN?$AAU?$AAL?$AAL?$AA?$AA@ 100ed074     LIBCMTD:timeset.obj
 0003:000150a8       ??_C@_1BI@BHCKCCFA@?$AA_?$AAg?$AAe?$AAt?$AA_?$AAt?$AAz?$AAn?$AAa?$AAm?$AAe?$AA?$AA@ 100ed0a8     LIBCMTD:timeset.obj
 0003:000150c8       ??_C@_1KA@POFLNEC@?$AA?$CI?$AA_?$AAB?$AAu?$AAf?$AAf?$AAe?$AAr?$AA?5?$AA?$CB?$AA?$DN?$AA?5?$AAN?$AAU?$AAL?$AAL?$AA?5?$AA?$CG?$AA?$CG?$AA?5?$AA_?$AAS?$AAi?$AAz?$AAe?$AAI?$AAn?$AAB?$AAy?$AAt?$AAe?$AAs@ 100ed0c8     LIBCMTD:timeset.obj
 0003:00015188       ??_C@_1EA@GEPBEDLJ@?$AAs?$AAt?$AAr?$AAn?$AAc?$AAp?$AAy?$AA_?$AAs?$AA?$CI?$AAt?$AAz?$AAn?$AAa?$AAm?$AAe?$AA?$FL?$AA1?$AA?$FN?$AA?0?$AA?5?$AA6?$AA4?$AA?0?$AA?5?$AAT?$AAZ?$AA?0?$AA?5?$AA3?$AA?$CJ?$AA?$AA@ 100ed188     LIBCMTD:tzset.obj
 0003:000151d8       ??_C@_1EA@FIJBKALB@?$AAs?$AAt?$AAr?$AAn?$AAc?$AAp?$AAy?$AA_?$AAs?$AA?$CI?$AAt?$AAz?$AAn?$AAa?$AAm?$AAe?$AA?$FL?$AA0?$AA?$FN?$AA?0?$AA?5?$AA6?$AA4?$AA?0?$AA?5?$AAT?$AAZ?$AA?0?$AA?5?$AA3?$AA?$CJ?$AA?$AA@ 100ed1d8     LIBCMTD:tzset.obj
 0003:00015228       ??_C@_1EK@MCAIMDPB@?$AAs?$AAt?$AAr?$AAc?$AAp?$AAy?$AA_?$AAs?$AA?$CI?$AAl?$AAa?$AAs?$AAt?$AAT?$AAZ?$AA?0?$AA?5?$AAs?$AAt?$AAr?$AAl?$AAe?$AAn?$AA?$CI?$AAT?$AAZ?$AA?$CJ?$AA?5?$AA?$CL?$AA?5?$AA1?$AA?0@ 100ed228     LIBCMTD:tzset.obj
 0003:00015280       ??_C@_0CP@FODJBIFF@f?3?2dd?2vctools?2crt_bld?2self_x86?2c@ 100ed280     LIBCMTD:tzset.obj
 0003:000152b8       ??_C@_02CLFPBFFP@TZ?$AA@   100ed2b8     LIBCMTD:tzset.obj
 0003:000152bc       ??_C@_1CO@IMMOMMCB@?$AA_?$AAg?$AAe?$AAt?$AA_?$AAd?$AAs?$AAt?$AAb?$AAi?$AAa?$AAs?$AA?$CI?$AA?$CG?$AAd?$AAs?$AAt?$AAb?$AAi?$AAa?$AAs?$AA?$CJ?$AA?$AA@ 100ed2bc     LIBCMTD:tzset.obj
 0003:000152f4       ??_C@_1DC@MEHEMOPB@?$AA_?$AAg?$AAe?$AAt?$AA_?$AAd?$AAa?$AAy?$AAl?$AAi?$AAg?$AAh?$AAt?$AA?$CI?$AA?$CG?$AAd?$AAa?$AAy?$AAl?$AAi?$AAg?$AAh?$AAt?$AA?$CJ?$AA?$AA@ 100ed2f4     LIBCMTD:tzset.obj
 0003:00015330       ??_C@_1DC@CMKCHHFC@?$AA_?$AAg?$AAe?$AAt?$AA_?$AAt?$AAi?$AAm?$AAe?$AAz?$AAo?$AAn?$AAe?$AA?$CI?$AA?$CG?$AAt?$AAi?$AAm?$AAe?$AAz?$AAo?$AAn?$AAe?$AA?$CJ?$AA?$AA@ 100ed330     LIBCMTD:tzset.obj
 0003:0001536c       ??_C@_1BM@IIODHMJC@?$AA_?$AAt?$AAz?$AAs?$AAe?$AAt?$AA_?$AAn?$AAo?$AAl?$AAo?$AAc?$AAk?$AA?$AA@ 100ed36c     LIBCMTD:tzset.obj
 0003:00015390       ??_C@_1FO@MLHAIHAB@?$AAf?$AA?3?$AA?2?$AAd?$AAd?$AA?2?$AAv?$AAc?$AAt?$AAo?$AAo?$AAl?$AAs?$AA?2?$AAc?$AAr?$AAt?$AA_?$AAb?$AAl?$AAd?$AA?2?$AAs?$AAe?$AAl?$AAf?$AA_?$AAx?$AA8?$AA6?$AA?2?$AAc@ 100ed390     LIBCMTD:tzset.obj
 0003:00015400       ??_C@_1CA@GOLIIEDM@?$AA_?$AAi?$AAs?$AAi?$AAn?$AAd?$AAs?$AAt?$AA_?$AAn?$AAo?$AAl?$AAo?$AAc?$AAk?$AA?$AA@ 100ed400     LIBCMTD:tzset.obj
 0003:00015428       ??_C@_1BA@GOCKIDGO@?$AAc?$AAv?$AAt?$AAd?$AAa?$AAt?$AAe?$AA?$AA@ 100ed428     LIBCMTD:tzset.obj
 0003:0001543c       ??_C@_1BG@GLLONOEH@?$AA_?$AAs?$AAt?$AAr?$AAi?$AAc?$AAm?$AAp?$AA_?$AAl?$AA?$AA@ 100ed43c     LIBCMTD:stricmp.obj
 0003:00015458       ??_C@_1GC@OILHAOLL@?$AAf?$AA?3?$AA?2?$AAd?$AAd?$AA?2?$AAv?$AAc?$AAt?$AAo?$AAo?$AAl?$AAs?$AA?2?$AAc?$AAr?$AAt?$AA_?$AAb?$AAl?$AAd?$AA?2?$AAs?$AAe?$AAl?$AAf?$AA_?$AAx?$AA8?$AA6?$AA?2?$AAc@ 100ed458     LIBCMTD:stricmp.obj
 0003:000154d0       ??_C@_1BC@JLGKKIIG@?$AA_?$AAs?$AAt?$AAr?$AAi?$AAc?$AAm?$AAp?$AA?$AA@ 100ed4d0     LIBCMTD:stricmp.obj
 0003:000154e8       ??_C@_1CC@JLPHKJPH@?$AAc?$AAo?$AAu?$AAn?$AAt?$AA?5?$AA?$DM?$AA?$DN?$AA?5?$AAI?$AAN?$AAT?$AA_?$AAM?$AAA?$AAX?$AA?$AA@ 100ed4e8     LIBCMTD:strnicmp.obj
 0003:00015510       ??_C@_1BI@BJLEPLEF@?$AA_?$AAs?$AAt?$AAr?$AAn?$AAi?$AAc?$AAm?$AAp?$AA_?$AAl?$AA?$AA@ 100ed510     LIBCMTD:strnicmp.obj
 0003:00015530       ??_C@_1GE@CONPOJMA@?$AAf?$AA?3?$AA?2?$AAd?$AAd?$AA?2?$AAv?$AAc?$AAt?$AAo?$AAo?$AAl?$AAs?$AA?2?$AAc?$AAr?$AAt?$AA_?$AAb?$AAl?$AAd?$AA?2?$AAs?$AAe?$AAl?$AAf?$AA_?$AAx?$AA8?$AA6?$AA?2?$AAc@ 100ed530     LIBCMTD:strnicmp.obj
 0003:000155a8       ??_C@_1BE@BHJDFFNA@?$AA_?$AAs?$AAt?$AAr?$AAn?$AAi?$AAc?$AAm?$AAp?$AA?$AA@ 100ed5a8     LIBCMTD:strnicmp.obj
 0003:000155c0       ??_C@_06GDENEHCP@CONIN$?$AA@ 100ed5c0     LIBCMTD:initcon.obj
 0003:000155c8       ??_C@_07GPDNMNG@CONOUT$?$AA@ 100ed5c8     LIBCMTD:initcon.obj
 0003:000155d4       ??_C@_1BA@BMMDEPNE@?$AAs?$AAt?$AAr?$AAt?$AAo?$AAx?$AAq?$AA?$AA@ 100ed5d4     LIBCMTD:strtoq.obj
 0003:000155e8       ??_C@_1GA@GIMEIKLC@?$AAf?$AA?3?$AA?2?$AAd?$AAd?$AA?2?$AAv?$AAc?$AAt?$AAo?$AAo?$AAl?$AAs?$AA?2?$AAc?$AAr?$AAt?$AA_?$AAb?$AAl?$AAd?$AA?2?$AAs?$AAe?$AAl?$AAf?$AA_?$AAx?$AA8?$AA6?$AA?2?$AAc@ 100ed5e8     LIBCMTD:strtoq.obj
 0003:00015660       ??_C@_1FA@HILOOCMA@?$AA?$CI?$AA_?$AAt?$AAc?$AAs?$AAn?$AAl?$AAe?$AAn?$AA?$CI?$AAo?$AAp?$AAt?$AAi?$AAo?$AAn?$AA?0?$AA?5?$AA_?$AAM?$AAA?$AAX?$AA_?$AAE?$AAN?$AAV?$AA?$CJ?$AA?5?$AA?$DM?$AA?5?$AA_?$AAM@ 100ed660     LIBCMTD:getenv.obj
 0003:000156c0       ??_C@_1O@GMKGKCJO@?$AAg?$AAe?$AAt?$AAe?$AAn?$AAv?$AA?$AA@ 100ed6c0     LIBCMTD:getenv.obj
 0003:000156d0       ??_C@_1GA@IPPICGKB@?$AAf?$AA?3?$AA?2?$AAd?$AAd?$AA?2?$AAv?$AAc?$AAt?$AAo?$AAo?$AAl?$AAs?$AA?2?$AAc?$AAr?$AAt?$AA_?$AAb?$AAl?$AAd?$AA?2?$AAs?$AAe?$AAl?$AAf?$AA_?$AAx?$AA8?$AA6?$AA?2?$AAc@ 100ed6d0     LIBCMTD:getenv.obj
 0003:00015744       ??_C@_1CC@FKAOHHLO@?$AA?$CI?$AAo?$AAp?$AAt?$AAi?$AAo?$AAn?$AA?5?$AA?$CB?$AA?$DN?$AA?5?$AAN?$AAU?$AAL?$AAL?$AA?$CJ?$AA?$AA@ 100ed744     LIBCMTD:getenv.obj
 0003:00015770       ??_C@_1GI@JBIFPFJH@?$AA_?$AAt?$AAc?$AAs?$AAn?$AAl?$AAe?$AAn?$AA?$CI?$AA?$CK?$AAs?$AAe?$AAa?$AAr?$AAc?$AAh?$AA?5?$AA?$CL?$AA?5?$AAl?$AAe?$AAn?$AAg?$AAt?$AAh?$AA?5?$AA?$CL?$AA?5?$AA1?$AA?0?$AA?5?$AA_@ 100ed770     LIBCMTD:getenv.obj
 0003:000157f0       ??_C@_1EI@HHOBPCFK@?$AAs?$AAt?$AAr?$AAc?$AAp?$AAy?$AA_?$AAs?$AA?$CI?$AAb?$AAu?$AAf?$AAf?$AAe?$AAr?$AA?0?$AA?5?$AAs?$AAi?$AAz?$AAe?$AAI?$AAn?$AAT?$AAC?$AAh?$AAa?$AAr?$AAs?$AA?0?$AA?5?$AAs@ 100ed7f0     LIBCMTD:getenv.obj
 0003:00015848       ??_C@_1JM@NLPGJJPH@?$AA?$CI?$AAb?$AAu?$AAf?$AAf?$AAe?$AAr?$AA?5?$AA?$CB?$AA?$DN?$AA?5?$AAN?$AAU?$AAL?$AAL?$AA?5?$AA?$CG?$AA?$CG?$AA?5?$AAs?$AAi?$AAz?$AAe?$AAI?$AAn?$AAT?$AAC?$AAh?$AAa?$AAr?$AAs?$AA?5@ 100ed848     LIBCMTD:getenv.obj
 0003:00015904       ??_C@_1CC@BAJKDIIF@?$AA_?$AAg?$AAe?$AAt?$AAe?$AAn?$AAv?$AA_?$AAs?$AA_?$AAh?$AAe?$AAl?$AAp?$AAe?$AAr?$AA?$AA@ 100ed904     LIBCMTD:getenv.obj
 0003:0001592c       ??_C@_1CK@PIKDAOCL@?$AAp?$AAR?$AAe?$AAt?$AAu?$AAr?$AAn?$AAV?$AAa?$AAl?$AAu?$AAe?$AA?5?$AA?$CB?$AA?$DN?$AA?5?$AAN?$AAU?$AAL?$AAL?$AA?$AA@ 100ed92c     LIBCMTD:getenv.obj
 0003:00015960       ??_C@_1DM@GNKNEGJO@?$AAs?$AAt?$AAr?$AAc?$AAp?$AAy?$AA_?$AAs?$AA?$CI?$AA?$CK?$AAp?$AAB?$AAu?$AAf?$AAf?$AAe?$AAr?$AA?0?$AA?5?$AAs?$AAi?$AAz?$AAe?$AA?0?$AA?5?$AAs?$AAt?$AAr?$AA?$CJ?$AA?$AA@ 100ed960     LIBCMTD:getenv.obj
 0003:000159a8       ??_C@_1CA@GDBKELOE@?$AAv?$AAa?$AAr?$AAn?$AAa?$AAm?$AAe?$AA?5?$AA?$CB?$AA?$DN?$AA?5?$AAN?$AAU?$AAL?$AAL?$AA?$AA@ 100ed9a8     LIBCMTD:getenv.obj
 0003:000159d0       ??_C@_1CC@KPLOPIEM@?$AA_?$AAd?$AAu?$AAp?$AAe?$AAn?$AAv?$AA_?$AAs?$AA_?$AAh?$AAe?$AAl?$AAp?$AAe?$AAr?$AA?$AA@ 100ed9d0     LIBCMTD:getenv.obj
 0003:000159f8       ??_C@_1CA@FHNFMDOJ@?$AAp?$AAB?$AAu?$AAf?$AAf?$AAe?$AAr?$AA?5?$AA?$CB?$AA?$DN?$AA?5?$AAN?$AAU?$AAL?$AAL?$AA?$AA@ 100ed9f8     LIBCMTD:getenv.obj
 0003:00015a20       ??_C@_1BK@CMPKHPEC@?$AAn?$AA?5?$AA?$DM?$AA?$DN?$AA?5?$AAI?$AAN?$AAT?$AA_?$AAM?$AAA?$AAX?$AA?$AA@ 100eda20     LIBCMTD:mbsnbico.obj
 0003:00015a40       ??_C@_1BG@GBJNMPFA@?$AAs?$AA2?$AA?5?$AA?$CB?$AA?$DN?$AA?5?$AAN?$AAU?$AAL?$AAL?$AA?$AA@ 100eda40     LIBCMTD:mbsnbico.obj
 0003:00015a5c       ??_C@_1BM@FKNNDAHH@?$AA_?$AAm?$AAb?$AAs?$AAn?$AAb?$AAi?$AAc?$AAo?$AAl?$AAl?$AA_?$AAl?$AA?$AA@ 100eda5c     LIBCMTD:mbsnbico.obj
 0003:00015a80       ??_C@_1GE@NJHAJPKI@?$AAf?$AA?3?$AA?2?$AAd?$AAd?$AA?2?$AAv?$AAc?$AAt?$AAo?$AAo?$AAl?$AAs?$AA?2?$AAc?$AAr?$AAt?$AA_?$AAb?$AAl?$AAd?$AA?2?$AAs?$AAe?$AAl?$AAf?$AA_?$AAx?$AA8?$AA6?$AA?2?$AAc@ 100eda80     LIBCMTD:mbsnbico.obj
 0003:00015af8       ??_C@_1BG@MODEICJK@?$AAs?$AA1?$AA?5?$AA?$CB?$AA?$DN?$AA?5?$AAN?$AAU?$AAL?$AAL?$AA?$AA@ 100edaf8     LIBCMTD:mbsnbico.obj
 0003:00015b14       ??_C@_0DC@CAFDLBC@f?3?2dd?2vctools?2crt_bld?2self_x86?2c@ 100edb14     LIBCMTD:wtombenv.obj
 0003:00015b50       ??_C@_1FO@IFEMNBMO@?$AAf?$AA?3?$AA?2?$AAd?$AAd?$AA?2?$AAv?$AAc?$AAt?$AAo?$AAo?$AAl?$AAs?$AA?2?$AAc?$AAr?$AAt?$AA_?$AAb?$AAl?$AAd?$AA?2?$AAs?$AAe?$AAl?$AAf?$AA_?$AAx?$AA8?$AA6?$AA?2?$AAc@ 100edb50     LIBCMTD:a_cmp.obj
 0003:00015bc0       ??_C@_1HK@ELDMAMK@?$AAc?$AAc?$AAh?$AAC?$AAo?$AAu?$AAn?$AAt?$AA1?$AA?$DN?$AA?$DN?$AA0?$AA?5?$AA?$CG?$AA?$CG?$AA?5?$AAc?$AAc?$AAh?$AAC?$AAo?$AAu?$AAn?$AAt?$AA2?$AA?$DN?$AA?$DN?$AA1?$AA?5?$AA?$HM?$AA?$HM?$AA?5@ 100edbc0     LIBCMTD:a_cmp.obj
 0003:00015c54       ??_C@_1CC@CNADELFK@?$AA_?$AAs?$AAt?$AAr?$AAi?$AAn?$AAg?$AA2?$AA?5?$AA?$CB?$AA?$DN?$AA?5?$AAN?$AAU?$AAL?$AAL?$AA?$AA@ 100edc54     LIBCMTD:strnicol.obj
 0003:00015c7c       ??_C@_1BK@IOJEBPLP@?$AA_?$AAs?$AAt?$AAr?$AAn?$AAi?$AAc?$AAo?$AAl?$AAl?$AA_?$AAl?$AA?$AA@ 100edc7c     LIBCMTD:strnicol.obj
 0003:00015ca0       ??_C@_1GE@BDOBNJJ@?$AAf?$AA?3?$AA?2?$AAd?$AAd?$AA?2?$AAv?$AAc?$AAt?$AAo?$AAo?$AAl?$AAs?$AA?2?$AAc?$AAr?$AAt?$AA_?$AAb?$AAl?$AAd?$AA?2?$AAs?$AAe?$AAl?$AAf?$AA_?$AAx?$AA8?$AA6?$AA?2?$AAc@ 100edca0     LIBCMTD:strnicol.obj
 0003:00015d18       ??_C@_1CC@ICKKAGJA@?$AA_?$AAs?$AAt?$AAr?$AAi?$AAn?$AAg?$AA1?$AA?5?$AA?$CB?$AA?$DN?$AA?5?$AAN?$AAU?$AAL?$AAL?$AA?$AA@ 100edd18     LIBCMTD:strnicol.obj
 0003:00015d40       ??_C@_1FG@OKIAKKPK@?$AAs?$AAt?$AAr?$AAc?$AAp?$AAy?$AA_?$AAs?$AA?$CI?$AAn?$AAa?$AAm?$AAe?$AA?0?$AA?5?$AAs?$AAt?$AAr?$AAl?$AAe?$AAn?$AA?$CI?$AAo?$AAp?$AAt?$AAi?$AAo?$AAn?$AA?$CJ?$AA?5?$AA?$CL?$AA?5@ 100edd40     LIBCMTD:setenv.obj
 0003:00015da8       ??_C@_1EI@GHDNAPMG@?$AA?$CI?$AA?$CC?$AAC?$AAR?$AAT?$AA?5?$AAL?$AAo?$AAg?$AAi?$AAc?$AA?5?$AAe?$AAr?$AAr?$AAo?$AAr?$AA?5?$AAd?$AAu?$AAr?$AAi?$AAn?$AAg?$AA?5?$AAs?$AAe?$AAt?$AAe?$AAn?$AAv?$AA?$CC@ 100edda8     LIBCMTD:setenv.obj
 0003:00015e00       ??_C@_0DA@NHJGCDK@f?3?2dd?2vctools?2crt_bld?2self_x86?2c@ 100ede00     LIBCMTD:setenv.obj
 0003:00015e40       ??_C@_1FC@EEJIEIDF@?$AA_?$AAt?$AAc?$AAs?$AAn?$AAl?$AAe?$AAn?$AA?$CI?$AAe?$AAq?$AAu?$AAa?$AAl?$AA?5?$AA?$CL?$AA?5?$AA1?$AA?0?$AA?5?$AA_?$AAM?$AAA?$AAX?$AA_?$AAE?$AAN?$AAV?$AA?$CJ?$AA?5?$AA?$DM?$AA?5@ 100ede40     LIBCMTD:setenv.obj
 0003:00015ea4       ??_C@_1DE@EEHFNNGH@?$AAe?$AAq?$AAu?$AAa?$AAl?$AA?5?$AA?9?$AA?5?$AAo?$AAp?$AAt?$AAi?$AAo?$AAn?$AA?5?$AA?$DM?$AA?5?$AA_?$AAM?$AAA?$AAX?$AA_?$AAE?$AAN?$AAV?$AA?$AA@ 100edea4     LIBCMTD:setenv.obj
 0003:00015ee4       ??_C@_1BI@CDAFOAAL@?$AA_?$AA_?$AAc?$AAr?$AAt?$AAs?$AAe?$AAt?$AAe?$AAn?$AAv?$AA?$AA@ 100edee4     LIBCMTD:setenv.obj
 0003:00015f00       ??_C@_1GA@KKPDKNLP@?$AAf?$AA?3?$AA?2?$AAd?$AAd?$AA?2?$AAv?$AAc?$AAt?$AAo?$AAo?$AAl?$AAs?$AA?2?$AAc?$AAr?$AAt?$AA_?$AAb?$AAl?$AAd?$AA?2?$AAs?$AAe?$AAl?$AAf?$AA_?$AAx?$AA8?$AA6?$AA?2?$AAc@ 100edf00     LIBCMTD:setenv.obj
 0003:00015f74       ??_C@_1CA@LMBEKBDN@?$AAp?$AAo?$AAp?$AAt?$AAi?$AAo?$AAn?$AA?5?$AA?$CB?$AA?$DN?$AA?5?$AAN?$AAU?$AAL?$AAL?$AA?$AA@ 100edf74     LIBCMTD:setenv.obj
 0003:00015fa0       ??_C@_1FK@DNFLNPD@?$AAs?$AAt?$AAr?$AAc?$AAp?$AAy?$AA_?$AAs?$AA?$CI?$AA?$CK?$AAn?$AAe?$AAw?$AAe?$AAn?$AAv?$AAp?$AAt?$AAr?$AA?0?$AA?5?$AAe?$AAn?$AAv?$AAp?$AAt?$AAr?$AAS?$AAi?$AAz?$AAe?$AA?0@ 100edfa0     LIBCMTD:setenv.obj
 0003:0001600c       ??_C@_1BK@ECKIJLPM@?$AAc?$AAo?$AAp?$AAy?$AA_?$AAe?$AAn?$AAv?$AAi?$AAr?$AAo?$AAn?$AA?$AA@ 100ee00c     LIBCMTD:setenv.obj
 0003:0001602c       ??_C@_1BE@JKKFLIKJ@?$AA_?$AAm?$AAb?$AAs?$AAc?$AAh?$AAr?$AA_?$AAl?$AA?$AA@ 100ee02c     LIBCMTD:mbschr.obj
 0003:00016048       ??_C@_1GA@GDCAGKMG@?$AAf?$AA?3?$AA?2?$AAd?$AAd?$AA?2?$AAv?$AAc?$AAt?$AAo?$AAo?$AAl?$AAs?$AA?2?$AAc?$AAr?$AAt?$AA_?$AAb?$AAl?$AAd?$AA?2?$AAs?$AAe?$AAl?$AAf?$AA_?$AAx?$AA8?$AA6?$AA?2?$AAc@ 100ee048     LIBCMTD:mbschr.obj
 0003:000160bc       ??_C@_1BO@JIBAMMGI@?$AAs?$AAt?$AAr?$AAi?$AAn?$AAg?$AA?5?$AA?$CB?$AA?$DN?$AA?5?$AAN?$AAU?$AAL?$AAL?$AA?$AA@ 100ee0bc     LIBCMTD:mbschr.obj
 0003:000167a0       ??_R4ICommChannel@@6B@     100ee7a0     BaseChan.obj
 0003:000167b8       ??_R3ICommChannel@@8       100ee7b8     BaseChan.obj
 0003:000167cc       ??_R2ICommChannel@@8       100ee7cc     BaseChan.obj
 0003:000167d4       ??_R1A@?0A@EA@ICommChannel@@8 100ee7d4     BaseChan.obj
 0003:000167f8       ??_R4CBaseChannel@@6BIProtocolChannel@@@ 100ee7f8     BaseChan.obj
 0003:00016810       ??_R3CBaseChannel@@8       100ee810     BaseChan.obj
 0003:00016824       ??_R2CBaseChannel@@8       100ee824     BaseChan.obj
 0003:00016838       ??_R1A@?0A@EA@CBaseChannel@@8 100ee838     BaseChan.obj
 0003:0001685c       ??_R1A@?0A@EA@IProtocolChannel@@8 100ee85c     BaseChan.obj
 0003:00016880       ??_R3IProtocolChannel@@8   100ee880     BaseChan.obj
 0003:00016894       ??_R2IProtocolChannel@@8   100ee894     BaseChan.obj
 0003:000168a0       ??_R13?0A@EN@IProtocolObserver@@8 100ee8a0     BaseChan.obj
 0003:000168c4       ??_R3IProtocolObserver@@8  100ee8c4     BaseChan.obj
 0003:000168d8       ??_R2IProtocolObserver@@8  100ee8d8     BaseChan.obj
 0003:000168e0       ??_R1A@?0A@EA@IProtocolObserver@@8 100ee8e0     BaseChan.obj
 0003:00016904       ??_R4CBaseChannel@@6BIProtocolObserver@@@ 100ee904     BaseChan.obj
 0003:0001691c       ??_R4IProtocolChannel@@6B@ 100ee91c     BaseChan.obj
 0003:00016934       ??_R4IProtocolObserver@@6B@ 100ee934     BaseChan.obj
 0003:0001694c       ??_R4length_error@std@@6B@ 100ee94c     BaseChan.obj
 0003:00016964       ??_R3length_error@std@@8   100ee964     BaseChan.obj
 0003:00016978       ??_R2length_error@std@@8   100ee978     BaseChan.obj
 0003:00016988       ??_R1A@?0A@EA@length_error@std@@8 100ee988     BaseChan.obj
 0003:000169ac       ??_R1A@?0A@EA@logic_error@std@@8 100ee9ac     BaseChan.obj
 0003:000169d0       ??_R3logic_error@std@@8    100ee9d0     BaseChan.obj
 0003:000169e4       ??_R2logic_error@std@@8    100ee9e4     BaseChan.obj
 0003:000169f0       ??_R1A@?0A@EA@exception@std@@8 100ee9f0     BaseChan.obj
 0003:00016a14       ??_R3exception@std@@8      100eea14     BaseChan.obj
 0003:00016a28       ??_R2exception@std@@8      100eea28     BaseChan.obj
 0003:00016a30       ??_R4logic_error@std@@6B@  100eea30     BaseChan.obj
 0003:00016a48       ??_R4bad_alloc@std@@6B@    100eea48     BaseChan.obj
 0003:00016a60       ??_R3bad_alloc@std@@8      100eea60     BaseChan.obj
 0003:00016a74       ??_R2bad_alloc@std@@8      100eea74     BaseChan.obj
 0003:00016a80       ??_R1A@?0A@EA@bad_alloc@std@@8 100eea80     BaseChan.obj
 0003:00016aa4       ??_R4CBmChannel@@6BIProtocolChannel@@@ 100eeaa4     BmChannel.obj
 0003:00016abc       ??_R3CBmChannel@@8         100eeabc     BmChannel.obj
 0003:00016ad0       ??_R2CBmChannel@@8         100eead0     BmChannel.obj
 0003:00016aec       ??_R1A@?0A@EA@CBmChannel@@8 100eeaec     BmChannel.obj
 0003:00016b10       ??_R4CBmChannel@@6BIProtocolObserver@@@ 100eeb10     BmChannel.obj
 0003:00016b28       ??_R4CBmPackage@@6B@       100eeb28     BmPackage.obj
 0003:00016b40       ??_R3CBmPackage@@8         100eeb40     BmPackage.obj
 0003:00016b54       ??_R2CBmPackage@@8         100eeb54     BmPackage.obj
 0003:00016b64       ??_R1A@?0A@EA@CBmPackage@@8 100eeb64     BmPackage.obj
 0003:00016b88       ??_R1A@?0A@EA@CDiagPackage@@8 100eeb88     BmPackage.obj
 0003:00016bac       ??_R3CDiagPackage@@8       100eebac     BmPackage.obj
 0003:00016bc0       ??_R2CDiagPackage@@8       100eebc0     BmPackage.obj
 0003:00016bcc       ??_R1A@?0A@EA@IProtocolPackage@@8 100eebcc     BmPackage.obj
 0003:00016bf0       ??_R3IProtocolPackage@@8   100eebf0     BmPackage.obj
 0003:00016c04       ??_R2IProtocolPackage@@8   100eec04     BmPackage.obj
 0003:00016c0c       ??_R4CDiagChannel@@6BIProtocolChannel@@@ 100eec0c     DiagChannel.obj
 0003:00016c24       ??_R3CDiagChannel@@8       100eec24     DiagChannel.obj
 0003:00016c38       ??_R2CDiagChannel@@8       100eec38     DiagChannel.obj
 0003:00016c54       ??_R1A@?0A@EA@CDiagChannel@@8 100eec54     DiagChannel.obj
 0003:00016c78       ??_R4CDiagChannel@@6BIProtocolObserver@@@ 100eec78     DiagChannel.obj
 0003:00016c90       ??_R4CDiagPackage@@6B@     100eec90     DiagPackage.obj
 0003:00016ca8       ??_R4IProtocolPackage@@6B@ 100eeca8     DiagPackage.obj
 0003:00016cc0       ??_R4CSmpChannel@@6BIProtocolChannel@@@ 100eecc0     SmpChannel.obj
 0003:00016cd8       ??_R3CSmpChannel@@8        100eecd8     SmpChannel.obj
 0003:00016cec       ??_R2CSmpChannel@@8        100eecec     SmpChannel.obj
 0003:00016d08       ??_R1A@?0A@EA@CSmpChannel@@8 100eed08     SmpChannel.obj
 0003:00016d2c       ??_R4CSmpChannel@@6BIProtocolObserver@@@ 100eed2c     SmpChannel.obj
 0003:00016d44       ??_R4CSmpPackage@@6B@      100eed44     SmpPackage.obj
 0003:00016d5c       ??_R3CSmpPackage@@8        100eed5c     SmpPackage.obj
 0003:00016d70       ??_R2CSmpPackage@@8        100eed70     SmpPackage.obj
 0003:00016d80       ??_R1A@?0A@EA@CSmpPackage@@8 100eed80     SmpPackage.obj
 0003:00016da4       ??_R4CSpLog@@6B@           100eeda4     SpLog.obj
 0003:00016dbc       ??_R3CSpLog@@8             100eedbc     SpLog.obj
 0003:00016dd0       ??_R2CSpLog@@8             100eedd0     SpLog.obj
 0003:00016ddc       ??_R1A@?0A@EA@CSpLog@@8    100eeddc     SpLog.obj
 0003:00016e00       ??_R1A@?0A@EA@ISpLog@@8    100eee00     SpLog.obj
 0003:00016e24       ??_R3ISpLog@@8             100eee24     SpLog.obj
 0003:00016e38       ??_R2ISpLog@@8             100eee38     SpLog.obj
 0003:00016e40       ??_R4ISpLog@@6B@           100eee40     SpLog.obj
 0003:00016e58       ??_R4CFnLog@@6B@           100eee58     SpLog.obj
 0003:00016e70       ??_R3CFnLog@@8             100eee70     SpLog.obj
 0003:00016e84       ??_R2CFnLog@@8             100eee84     SpLog.obj
 0003:00016e8c       ??_R1A@?0A@EA@CFnLog@@8    100eee8c     SpLog.obj
 0003:00016eb0       ??_R4out_of_range@std@@6B@ 100eeeb0     libcpmtd:string.obj
 0003:00016ec8       ??_R3out_of_range@std@@8   100eeec8     libcpmtd:string.obj
 0003:00016edc       ??_R2out_of_range@std@@8   100eeedc     libcpmtd:string.obj
 0003:00016eec       ??_R1A@?0A@EA@out_of_range@std@@8 100eeeec     libcpmtd:string.obj
 0003:00016f10       ??_R4invalid_argument@std@@6B@ 100eef10     libcpmtd:string.obj
 0003:00016f28       ??_R3invalid_argument@std@@8 100eef28     libcpmtd:string.obj
 0003:00016f3c       ??_R2invalid_argument@std@@8 100eef3c     libcpmtd:string.obj
 0003:00016f4c       ??_R1A@?0A@EA@invalid_argument@std@@8 100eef4c     libcpmtd:string.obj
 0003:00016f70       ??_R4type_info@@6B@        100eef70     LIBCMTD:typinfo.obj
 0003:00016f88       ??_R3type_info@@8          100eef88     LIBCMTD:typinfo.obj
 0003:00016f9c       ??_R2type_info@@8          100eef9c     LIBCMTD:typinfo.obj
 0003:00016fa4       ??_R1A@?0A@EA@type_info@@8 100eefa4     LIBCMTD:typinfo.obj
 0003:00016fc8       ??_R4exception@std@@6B@    100eefc8     LIBCMTD:stdexcpt.obj
 0003:00016fe0       ??_R4bad_cast@std@@6B@     100eefe0     LIBCMTD:stdexcpt.obj
 0003:00016ff8       ??_R3bad_cast@std@@8       100eeff8     LIBCMTD:stdexcpt.obj
 0003:0001700c       ??_R2bad_cast@std@@8       100ef00c     LIBCMTD:stdexcpt.obj
 0003:00017018       ??_R1A@?0A@EA@bad_cast@std@@8 100ef018     LIBCMTD:stdexcpt.obj
 0003:0001703c       ??_R4bad_typeid@std@@6B@   100ef03c     LIBCMTD:stdexcpt.obj
 0003:00017054       ??_R3bad_typeid@std@@8     100ef054     LIBCMTD:stdexcpt.obj
 0003:00017068       ??_R2bad_typeid@std@@8     100ef068     LIBCMTD:stdexcpt.obj
 0003:00017074       ??_R1A@?0A@EA@bad_typeid@std@@8 100ef074     LIBCMTD:stdexcpt.obj
 0003:00017098       ??_R4__non_rtti_object@std@@6B@ 100ef098     LIBCMTD:stdexcpt.obj
 0003:000170b0       ??_R3__non_rtti_object@std@@8 100ef0b0     LIBCMTD:stdexcpt.obj
 0003:000170c4       ??_R2__non_rtti_object@std@@8 100ef0c4     LIBCMTD:stdexcpt.obj
 0003:000170d4       ??_R1A@?0A@EA@__non_rtti_object@std@@8 100ef0d4     LIBCMTD:stdexcpt.obj
 0003:000170f8       ??_R4bad_exception@std@@6B@ 100ef0f8     LIBCMTD:frame.obj
 0003:00017110       ??_R3bad_exception@std@@8  100ef110     LIBCMTD:frame.obj
 0003:00017124       ??_R2bad_exception@std@@8  100ef124     LIBCMTD:frame.obj
 0003:00017130       ??_R1A@?0A@EA@bad_exception@std@@8 100ef130     LIBCMTD:frame.obj
 0003:00017290       ___rtc_iaa                 100ef290     LIBCMTD:_initsect_.obj
 0003:000174d0       ___rtc_izz                 100ef4d0     LIBCMTD:_initsect_.obj
 0003:000175d4       ___rtc_taa                 100ef5d4     LIBCMTD:_initsect_.obj
 0003:00017814       ___rtc_tzz                 100ef814     LIBCMTD:_initsect_.obj
 0003:00017b40       __TI3?AVlength_error@std@@ 100efb40     BaseChan.obj
 0003:00017b84       __CTA3?AVlength_error@std@@ 100efb84     BaseChan.obj
 0003:00017b98       __CT??_R0?AVlength_error@std@@@8??0length_error@std@@QAE@ABV01@@Z44 100efb98     BaseChan.obj
 0003:00017bb8       __CT??_R0?AVlogic_error@std@@@8??0logic_error@std@@QAE@ABV01@@Z44 100efbb8     BaseChan.obj
 0003:00017bd8       __CT??_R0?AVexception@std@@@8??0exception@std@@QAE@ABV01@@Z12 100efbd8     BaseChan.obj
 0003:0001813c       __TI2?AVbad_alloc@std@@    100f013c     BaseChan.obj
 0003:00018150       __CTA2?AVbad_alloc@std@@   100f0150     BaseChan.obj
 0003:00018160       __CT??_R0?AVbad_alloc@std@@@8??0bad_alloc@std@@QAE@ABV01@@Z12 100f0160     BaseChan.obj
 0003:00018504       __TI3?AVout_of_range@std@@ 100f0504     libcpmtd:string.obj
 0003:00018548       __CTA3?AVout_of_range@std@@ 100f0548     libcpmtd:string.obj
 0003:0001855c       __CT??_R0?AVout_of_range@std@@@8??0out_of_range@std@@QAE@ABV01@@Z44 100f055c     libcpmtd:string.obj
 0003:0001857c       __TI3?AVinvalid_argument@std@@ 100f057c     libcpmtd:string.obj
 0003:000185c0       __CTA3?AVinvalid_argument@std@@ 100f05c0     libcpmtd:string.obj
 0003:000185d4       __CT??_R0?AVinvalid_argument@std@@@8??0invalid_argument@std@@QAE@ABV01@@Z44 100f05d4     libcpmtd:string.obj
 0003:00018a48       __TI2?AVbad_exception@std@@ 100f0a48     LIBCMTD:frame.obj
 0003:00018a5c       __CTA2?AVbad_exception@std@@ 100f0a5c     LIBCMTD:frame.obj
 0003:00018a6c       __CT??_R0?AVbad_exception@std@@@8??0bad_exception@std@@QAE@ABV01@@Z12 100f0a6c     LIBCMTD:frame.obj
 0004:00000004       ??_R0?AVICommChannel@@@8   100f2004     BaseChan.obj
 0004:00000024       ??_R0?AVCBaseChannel@@@8   100f2024     BaseChan.obj
 0004:00000044       ??_R0?AVIProtocolChannel@@@8 100f2044     BaseChan.obj
 0004:0000006c       ??_R0?AVIProtocolObserver@@@8 100f206c     BaseChan.obj
 0004:00000094       ?__LINE__Var@?1??Write@CBaseChannel@@UAEKPAXKK@Z@4JA 100f2094     BaseChan.obj
 0004:00000098       ?__LINE__Var@?1??OnChannelData@CBaseChannel@@UAEHPAXK@Z@4JA 100f2098     BaseChan.obj
 0004:0000009c       ??_R0?AVlength_error@std@@@8 100f209c     BaseChan.obj
 0004:000000c4       ??_R0?AVlogic_error@std@@@8 100f20c4     BaseChan.obj
 0004:000000e8       ??_R0?AVexception@std@@@8  100f20e8     BaseChan.obj
 0004:0000010c       ??_R0?AVbad_alloc@std@@@8  100f210c     BaseChan.obj
 0004:00000134       ??_R0?AVCBmChannel@@@8     100f2134     BmChannel.obj
 0004:00000154       ?__LINE__Var@?1??Write@CBmChannel@@UAEKPAXKK@Z@4JA 100f2154     BmChannel.obj
 0004:0000015c       ??_R0?AVCBmPackage@@@8     100f215c     BmPackage.obj
 0004:0000017c       ??_R0?AVCDiagPackage@@@8   100f217c     BmPackage.obj
 0004:0000019c       ??_R0?AVIProtocolPackage@@@8 100f219c     BmPackage.obj
 0004:000001cc       ??_R0?AVCDiagChannel@@@8   100f21cc     DiagChannel.obj
 0004:000001f4       ??_R0?AVCSmpChannel@@@8    100f21f4     SmpChannel.obj
 0004:00000218       ??_R0?AVCSmpPackage@@@8    100f2218     SmpPackage.obj
 0004:000002a8       ??_R0?AVCSpLog@@@8         100f22a8     SpLog.obj
 0004:000002c4       ??_R0?AVISpLog@@@8         100f22c4     SpLog.obj
 0004:000002e0       ?__LINE__Var@?1??LogRawStrA@CSpLog@@UAEHIPBD@Z@4JA 100f22e0     SpLog.obj
 0004:000002e4       ?__LINE__Var@?1??LogRawStrW@CSpLog@@UAEHIPB_W@Z@4JA 100f22e4     SpLog.obj
 0004:000002e8       ?__LINE__Var@?1??LogFmtStrA@CSpLog@@UAAHIPBDZZ@4JA 100f22e8     SpLog.obj
 0004:000002ec       ?__LINE__Var@?1??LogFmtStrW@CSpLog@@UAAHIPB_WZZ@4JA 100f22ec     SpLog.obj
 0004:000002f0       ?__LINE__Var@?1??GetLogExtension@CSpLog@@IAEXPB_WPA_WH@Z@4JA 100f22f0     SpLog.obj
 0004:000002f4       ?__LINE__Var@?1??GetLogFilePath@CSpLog@@IAEXPB_WPA_WH@Z@4JA 100f22f4     SpLog.obj
 0004:000002f8       ?__LINE__Var@?1???0CFnLog@@QAA@PAVISpLog@@PBD1ZZ@4JA 100f22f8     SpLog.obj
 0004:000002fc       ??_R0?AVCFnLog@@@8         100f22fc     SpLog.obj
 0004:00000318       ?__LINE__Var@?1???0CFnLog@@QAA@PAVISpLog@@PB_W1ZZ@4JA 100f2318     SpLog.obj
 0004:00000320       ??_R0?AVout_of_range@std@@@8 100f2320     libcpmtd:string.obj
 0004:00000348       ??_R0?AVinvalid_argument@std@@@8 100f2348     libcpmtd:string.obj
 0004:00000384       ??_R0?AVtype_info@@@8      100f2384     LIBCMTD:typinfo.obj
 0004:000003a0       ___security_cookie         100f23a0     LIBCMTD:gs_cookie.obj
 0004:000003a4       ___security_cookie_complement 100f23a4     LIBCMTD:gs_cookie.obj
 0004:00000424       ??_R0?AVbad_cast@std@@@8   100f2424     LIBCMTD:stdexcpt.obj
 0004:00000444       ??_R0?AVbad_typeid@std@@@8 100f2444     LIBCMTD:stdexcpt.obj
 0004:00000468       ??_R0?AV__non_rtti_object@std@@@8 100f2468     LIBCMTD:stdexcpt.obj
 0004:000004b0       ___abort_behavior          100f24b0     LIBCMTD:abort.obj
 0004:000004b8       __iob                      100f24b8     LIBCMTD:_file.obj
 0004:000007c0       __crtDbgFlag               100f27c0     LIBCMTD:dbgheap.obj
 0004:000007c4       ___crtDebugFillThreshold   100f27c4     LIBCMTD:dbgheap.obj
 0004:000007cc       __crtBreakAlloc            100f27cc     LIBCMTD:dbgheap.obj
 0004:000008bc       ___flsindex                100f28bc     LIBCMTD:tidtable.obj
 0004:000008c0       ___getvalueindex           100f28c0     LIBCMTD:tidtable.obj
 0004:000008cc       ??_R0?AVbad_exception@std@@@8 100f28cc     LIBCMTD:frame.obj
 0004:00000900       ?_RTC_ErrorLevels@@3PAHA   100f2900     LIBCMTD:_error_.obj
 0004:00000a74       __aexit_rtn                100f2a74     LIBCMTD:crt0dat.obj
 0004:00000c34       __First_FPE_Indx           100f2c34     LIBCMTD:winxfltr.obj
 0004:00000c38       __Num_FPE                  100f2c38     LIBCMTD:winxfltr.obj
 0004:00000c3c       __XcptActTabSize           100f2c3c     LIBCMTD:winxfltr.obj
 0004:00000c40       __XcptActTabCount          100f2c40     LIBCMTD:winxfltr.obj
 0004:00000c48       ___badioinfo               100f2c48     LIBCMTD:ioinit.obj
 0004:00000c94       ___nullstring              100f2c94     LIBCMTD:output.obj
 0004:00000c98       ___wnullstring             100f2c98     LIBCMTD:output.obj
 0004:00000ca0       ___initialmbcinfo          100f2ca0     LIBCMTD:mbctype.obj
 0004:00000ec0       __mbctype                  100f2ec0     LIBCMTD:mbctype.obj
 0004:00000fc8       __mbcasemap                100f2fc8     LIBCMTD:mbctype.obj
 0004:000010c8       ___ptmbcinfo               100f30c8     LIBCMTD:mbctype.obj
 0004:000012cc       ___globallocalestatus      100f32cc     LIBCMTD:glstatus.obj
 0004:000012d0       ___clocalestr              100f32d0     LIBCMTD:nlsdata2.obj
 0004:000012d8       ___initiallocinfo          100f32d8     LIBCMTD:nlsdata2.obj
 0004:000013b0       ___ptlocinfo               100f33b0     LIBCMTD:nlsdata2.obj
 0004:000013b4       ___lc_clike                100f33b4     LIBCMTD:nlsdata2.obj
 0004:000013b8       ___initiallocalestructinfo 100f33b8     LIBCMTD:nlsdata2.obj
 0004:000013f0       __amblksiz                 100f33f0     LIBCMTD:heapinit.obj
 0004:000013f8       __pfnAllocHook             100f33f8     LIBCMTD:dbghook.obj
 0004:000013fc       __crtAssertBusy            100f33fc     LIBCMTD:dbgrptt.obj
 0004:00001400       __CrtDbgMode               100f3400     LIBCMTD:dbgrptt.obj
 0004:0000140c       __CrtDbgFile               100f340c     LIBCMTD:dbgrptt.obj
 0004:00001420       __NLG_Destination          100f3420     LIBCMTD:exsup.obj
 0004:00001438       __cfltcvt_tab              100f3438     LIBCMTD:cmiscdat.obj
 0004:00001470       __lookuptrailbytes         100f3470     LIBCMTD:read.obj
 0004:000015a8       __pctype                   100f35a8     LIBCMTD:ctype.obj
 0004:000015ac       __pwctype                  100f35ac     LIBCMTD:ctype.obj
 0004:000015b8       ___lc_time_c               100f35b8     LIBCMTD:strftime.obj
 0004:00001694       ___lc_time_curr            100f3694     LIBCMTD:strftime.obj
 0004:00001698       ___lconv_static_decimal    100f3698     LIBCMTD:lconv.obj
 0004:0000169c       ___lconv_c                 100f369c     LIBCMTD:lconv.obj
 0004:000016cc       ___lconv                   100f36cc     LIBCMTD:lconv.obj
 0004:000016dc       ___mb_cur_max              100f36dc     LIBCMTD:nlsdata1.obj
 0004:000016e0       ___decimal_point           100f36e0     LIBCMTD:nlsdata1.obj
 0004:000016e4       ___decimal_point_length    100f36e4     LIBCMTD:nlsdata1.obj
 0004:000016f8       __timezone                 100f36f8     LIBCMTD:timeset.obj
 0004:000016fc       __daylight                 100f36fc     LIBCMTD:timeset.obj
 0004:00001700       __dstbias                  100f3700     LIBCMTD:timeset.obj
 0004:00001788       __tzname                   100f3788     LIBCMTD:timeset.obj
 0004:000017cc       __coninpfh                 100f37cc     LIBCMTD:initcon.obj
 0004:000017d0       __confh                    100f37d0     LIBCMTD:initcon.obj
 0004:000017d8       __lpdays                   100f37d8     LIBCMTD:days.obj
 0004:0000180c       __days                     100f380c     LIBCMTD:days.obj
 0004:000019c0       ?g_pfReleaseChannel@@3P6AXPAVICommChannel@@@ZA 100f39c0     DiagChan.obj
 0004:000019c4       ?g_pfCreateChannel@@3P6AHPAPAVICommChannel@@W4CHANNEL_TYPE@@@ZA 100f39c4     DiagChan.obj
 0004:000019c8       ?ghModule@@3PAXA           100f39c8     DiagChan.obj
 0004:000019cc       ?ghChannelLib@@3PAUHINSTANCE__@@A 100f39cc     DiagChan.obj
 0004:00001ce4       __cflush                   100f3ce4     LIBCMTD:_file.obj
 0004:00001cec       __aenvptr                  100f3cec     LIBCMTD:dllcrt0.obj
 0004:00001cf0       __wenvptr                  100f3cf0     LIBCMTD:dllcrt0.obj
 0004:00001cf4       ___error_mode              100f3cf4     LIBCMTD:dllcrt0.obj
 0004:00001cf8       ___app_type                100f3cf8     LIBCMTD:dllcrt0.obj
 0004:00001d14       ?_pfnDumpClient@@3P6AXPAXI@ZA 100f3d14     LIBCMTD:dbgheap.obj
 0004:00001d1c       ___crtDebugCheckCount      100f3d1c     LIBCMTD:dbgheap.obj
 0004:000020fc       _gpFlsAlloc                100f40fc     LIBCMTD:tidtable.obj
 0004:00002100       _gpFlsGetValue             100f4100     LIBCMTD:tidtable.obj
 0004:00002104       _gpFlsSetValue             100f4104     LIBCMTD:tidtable.obj
 0004:00002108       _gpFlsFree                 100f4108     LIBCMTD:tidtable.obj
 0004:00002118       ___pPurecall               100f4118     LIBCMTD:inithelp.obj
 0004:00002120       ?__pInconsistency@@3P6AXXZA 100f4120     LIBCMTD:hooks.obj
 0004:000024ec       ?wsprintffp@@3P6AHPADPBDZZA 100f44ec     LIBCMTD:_error_.obj
 0004:000026a0       __umaskval                 100f46a0     LIBCMTD:crt0dat.obj
 0004:000026a4       ___argc                    100f46a4     LIBCMTD:crt0dat.obj
 0004:000026a8       ___argv                    100f46a8     LIBCMTD:crt0dat.obj
 0004:000026ac       ___wargv                   100f46ac     LIBCMTD:crt0dat.obj
 0004:000026b0       __environ                  100f46b0     LIBCMTD:crt0dat.obj
 0004:000026b4       ___initenv                 100f46b4     LIBCMTD:crt0dat.obj
 0004:000026b8       __wenviron                 100f46b8     LIBCMTD:crt0dat.obj
 0004:000026bc       ___winitenv                100f46bc     LIBCMTD:crt0dat.obj
 0004:000026c0       __pgmptr                   100f46c0     LIBCMTD:crt0dat.obj
 0004:000026c4       __wpgmptr                  100f46c4     LIBCMTD:crt0dat.obj
 0004:000026c8       __exitflag                 100f46c8     LIBCMTD:crt0dat.obj
 0004:000026cc       __C_Termination_Done       100f46cc     LIBCMTD:crt0dat.obj
 0004:000026d0       __C_Exit_Done              100f46d0     LIBCMTD:crt0dat.obj
 0004:00002714       ___pInvalidArgHandler      100f4714     LIBCMTD:invarg.obj
 0004:00002718       ?_pnhHeap@@3P6AHI@ZA       100f4718     LIBCMTD:handler.obj
 0004:0000271c       __stdbuf                   100f471c     LIBCMTD:_sftbuf.obj
 0004:0000272c       ___mbulinfo                100f472c     LIBCMTD:mbctype.obj
 0004:00002738       ___mbcodepage              100f4738     LIBCMTD:mbctype.obj
 0004:0000273c       ___ismbcodepage            100f473c     LIBCMTD:mbctype.obj
 0004:00002740       ___mblcid                  100f4740     LIBCMTD:mbctype.obj
 0004:0000274c       ___locale_changed          100f474c     LIBCMTD:setlocal.obj
 0004:00002750       ___lc_handle               100f4750     LIBCMTD:nlsdata2.obj
 0004:00002768       ___lc_codepage             100f4768     LIBCMTD:nlsdata2.obj
 0004:0000276c       ___lc_collate_cp           100f476c     LIBCMTD:nlsdata2.obj
 0004:000028b8       __crtheap                  100f48b8     LIBCMTD:heapinit.obj
 0004:000028bc       __newmode                  100f48bc     LIBCMTD:_newmode.obj
 0004:000028cc       ___sbh_pHeaderDefer        100f48cc     LIBCMTD:sbheap.obj
 0004:000028e4       ?pArgList@UnDecorator@@0PAVReplicator@@A 100f48e4     LIBCMTD:undname.obj
 0004:000028e8       ?pZNameList@UnDecorator@@0PAVReplicator@@A 100f48e8     LIBCMTD:undname.obj
 0004:000028ec       ?pTemplateArgList@UnDecorator@@0PAVReplicator@@A 100f48ec     LIBCMTD:undname.obj
 0004:000028f0       ?gName@UnDecorator@@0PBDB  100f48f0     LIBCMTD:undname.obj
 0004:000028f4       ?name@UnDecorator@@0PBDB   100f48f4     LIBCMTD:undname.obj
 0004:000028f8       ?outputString@UnDecorator@@0PADA 100f48f8     LIBCMTD:undname.obj
 0004:000028fc       ?maxStringLength@UnDecorator@@0HA 100f48fc     LIBCMTD:undname.obj
 0004:00002900       ?disableFlags@UnDecorator@@0KA 100f4900     LIBCMTD:undname.obj
 0004:00002904       ?m_pGetParameter@UnDecorator@@0P6APADJ@ZA 100f4904     LIBCMTD:undname.obj
 0004:00002908       ?fExplicitTemplateParams@UnDecorator@@0_NA 100f4908     LIBCMTD:undname.obj
 0004:00002909       ?fGetTemplateArgumentList@UnDecorator@@0_NA 100f4909     LIBCMTD:undname.obj
 0004:00002978       ?nodes@?1??make@DNameStatusNode@@SAPAV2@W4DNameStatus@@@Z@4PAV2@A 100f4978     LIBCMTD:undname.obj
 0004:000029b4       ??_B?1??make@DNameStatusNode@@SAPAV1@W4DNameStatus@@@Z@51 100f49b4     LIBCMTD:undname.obj
 0004:000029e8       __commode                  100f49e8     LIBCMTD:ncommode.obj
 0004:000029f8       ___lconv_static_null       100f49f8     LIBCMTD:lconv.obj
 0004:00002adc       __fmode                    100f4adc     LIBCMTD:txtmode.obj
 0004:00002ae4       __pfnReportHook            100f4ae4     <common>
 0004:00002af4       __pReportHookListW         100f4af4     <common>
 0004:00002af8       __pReportHookList          100f4af8     <common>
 0004:00002afc       ___sbh_initialized         100f4afc     <common>
 0004:00002b10       ___sbh_cntHeaderList       100f4b10     <common>
 0004:00002b14       ___sbh_pHeaderList         100f4b14     <common>
 0004:00002b18       ___sbh_threshold           100f4b18     <common>
 0004:00002b1c       ___sbh_pHeaderScan         100f4b1c     <common>
 0004:00002b20       ___sbh_sizeHeaderList      100f4b20     <common>
 0004:00002b24       ___sbh_indGroupDefer       100f4b24     <common>
 0004:00002b28       __debugger_hook_dummy      100f4b28     <common>
 0004:00002b34       ___active_heap             100f4b34     <common>
 0004:00002b40       ___setlc_active            100f4b40     <common>
 0004:00002b50       ___unguarded_readlc_active 100f4b50     <common>
 0004:00002b54       __nhandle                  100f4b54     <common>
 0004:00002ba0       ___pioinfo                 100f4ba0     <common>
 0004:00002ca0       ___env_initialized         100f4ca0     <common>
 0004:00002cb0       ___onexitend               100f4cb0     <common>
 0004:00002cb4       ___onexitbegin             100f4cb4     <common>
 0004:00002cb8       ___mbctype_initialized     100f4cb8     <common>
 0004:00002cbc       __FPinit                   100f4cbc     <common>
 0004:00002cc0       ___dyn_tls_init_callback   100f4cc0     <common>
 0004:00002cc4       ___sse2_available          100f4cc4     <common>
 0004:00002cd0       __acmdln                   100f4cd0     <common>
 0004:00002cdc       ___piob                    100f4cdc     <common>
 0004:00003020       __bufin                    100f5020     <common>
 0004:00004020       __nstream                  100f6020     <common>
 0004:00004024       __FPmtterm                 100f6024     <common>
 0004:00004034       __FPmtinit                 100f6034     <common>
 0005:00000000       __IMPORT_DESCRIPTOR_KERNEL32 100f7000     kernel32:KERNEL32.dll
 0005:00000014       __IMPORT_DESCRIPTOR_USER32 100f7014     user32:USER32.dll
 0005:00000028       __IMPORT_DESCRIPTOR_SHLWAPI 100f7028     shlwapi:SHLWAPI.dll
 0005:0000003c       __NULL_IMPORT_DESCRIPTOR   100f703c     kernel32:KERNEL32.dll
 0005:00000340       __imp__CreateEventW@16     100f7340     kernel32:KERNEL32.dll
 0005:00000344       __imp__InitializeCriticalSectionAndSpinCount@8 100f7344     kernel32:KERNEL32.dll
 0005:00000348       __imp__InitializeCriticalSection@4 100f7348     kernel32:KERNEL32.dll
 0005:0000034c       __imp__SetEvent@4          100f734c     kernel32:KERNEL32.dll
 0005:00000350       __imp__CloseHandle@4       100f7350     kernel32:KERNEL32.dll
 0005:00000354       __imp__DeleteCriticalSection@4 100f7354     kernel32:KERNEL32.dll
 0005:00000358       __imp__GetTickCount@0      100f7358     kernel32:KERNEL32.dll
 0005:0000035c       __imp__WaitForSingleObject@8 100f735c     kernel32:KERNEL32.dll
 0005:00000360       __imp__ResetEvent@4        100f7360     kernel32:KERNEL32.dll
 0005:00000364       __imp__Sleep@4             100f7364     kernel32:KERNEL32.dll
 0005:00000368       __imp__InterlockedIncrement@4 100f7368     kernel32:KERNEL32.dll
 0005:0000036c       __imp__InterlockedDecrement@4 100f736c     kernel32:KERNEL32.dll
 0005:00000370       __imp__LeaveCriticalSection@4 100f7370     kernel32:KERNEL32.dll
 0005:00000374       __imp__EnterCriticalSection@4 100f7374     kernel32:KERNEL32.dll
 0005:00000378       __imp__GetPrivateProfileIntW@16 100f7378     kernel32:KERNEL32.dll
 0005:0000037c       __imp__GetProcAddress@8    100f737c     kernel32:KERNEL32.dll
 0005:00000380       __imp__LoadLibraryW@4      100f7380     kernel32:KERNEL32.dll
 0005:00000384       __imp__FreeLibrary@4       100f7384     kernel32:KERNEL32.dll
 0005:00000388       __imp__GetModuleFileNameW@12 100f7388     kernel32:KERNEL32.dll
 0005:0000038c       __imp__SleepEx@8           100f738c     kernel32:KERNEL32.dll
 0005:00000390       __imp__GetCurrentThreadId@0 100f7390     kernel32:KERNEL32.dll
 0005:00000394       __imp__GetSystemInfo@4     100f7394     kernel32:KERNEL32.dll
 0005:00000398       __imp__VirtualAlloc@16     100f7398     kernel32:KERNEL32.dll
 0005:0000039c       __imp__VirtualFree@12      100f739c     kernel32:KERNEL32.dll
 0005:000003a0       __imp__VirtualQuery@12     100f73a0     kernel32:KERNEL32.dll
 0005:000003a4       __imp__FreeConsole@0       100f73a4     kernel32:KERNEL32.dll
 0005:000003a8       __imp__FlushFileBuffers@4  100f73a8     kernel32:KERNEL32.dll
 0005:000003ac       __imp__GetConsoleWindow@0  100f73ac     kernel32:KERNEL32.dll
 0005:000003b0       __imp__GetTempPathW@8      100f73b0     kernel32:KERNEL32.dll
 0005:000003b4       __imp__IsBadWritePtr@8     100f73b4     kernel32:KERNEL32.dll
 0005:000003b8       __imp__WriteFile@20        100f73b8     kernel32:KERNEL32.dll
 0005:000003bc       __imp__GetFileSize@8       100f73bc     kernel32:KERNEL32.dll
 0005:000003c0       __imp__lstrlenA@4          100f73c0     kernel32:KERNEL32.dll
 0005:000003c4       __imp__GetLocalTime@4      100f73c4     kernel32:KERNEL32.dll
 0005:000003c8       __imp__WriteConsoleW@20    100f73c8     kernel32:KERNEL32.dll
 0005:000003cc       __imp__WideCharToMultiByte@32 100f73cc     kernel32:KERNEL32.dll
 0005:000003d0       __imp__lstrcatA@8          100f73d0     kernel32:KERNEL32.dll
 0005:000003d4       __imp__SetConsoleTitleW@4  100f73d4     kernel32:KERNEL32.dll
 0005:000003d8       __imp__SetConsoleWindowInfo@12 100f73d8     kernel32:KERNEL32.dll
 0005:000003dc       __imp__SetConsoleScreenBufferSize@8 100f73dc     kernel32:KERNEL32.dll
 0005:000003e0       __imp__GetStdHandle@4      100f73e0     kernel32:KERNEL32.dll
 0005:000003e4       __imp__AllocConsole@0      100f73e4     kernel32:KERNEL32.dll
 0005:000003e8       __imp__GetLastError@0      100f73e8     kernel32:KERNEL32.dll
 0005:000003ec       __imp__CreateDirectoryW@8  100f73ec     kernel32:KERNEL32.dll
 0005:000003f0       __imp__GetFileAttributesW@4 100f73f0     kernel32:KERNEL32.dll
 0005:000003f4       __imp__lstrlenW@4          100f73f4     kernel32:KERNEL32.dll
 0005:000003f8       __imp__SetFilePointer@16   100f73f8     kernel32:KERNEL32.dll
 0005:000003fc       __imp__CreateFileW@28      100f73fc     kernel32:KERNEL32.dll
 0005:00000400       __imp__CompareStringW@24   100f7400     kernel32:KERNEL32.dll
 0005:00000404       __imp__CompareStringA@24   100f7404     kernel32:KERNEL32.dll
 0005:00000408       __imp__CreateFileA@28      100f7408     kernel32:KERNEL32.dll
 0005:0000040c       __imp__GetTimeZoneInformation@4 100f740c     kernel32:KERNEL32.dll
 0005:00000410       __imp__SetEndOfFile@4      100f7410     kernel32:KERNEL32.dll
 0005:00000414       __imp__GetConsoleOutputCP@0 100f7414     kernel32:KERNEL32.dll
 0005:00000418       __imp__WriteConsoleA@20    100f7418     kernel32:KERNEL32.dll
 0005:0000041c       __imp__GetUserDefaultLCID@0 100f741c     kernel32:KERNEL32.dll
 0005:00000420       __imp__EnumSystemLocalesA@8 100f7420     kernel32:KERNEL32.dll
 0005:00000424       __imp__IsValidLocale@8     100f7424     kernel32:KERNEL32.dll
 0005:00000428       __imp__GetDateFormatA@24   100f7428     kernel32:KERNEL32.dll
 0005:0000042c       __imp__InterlockedExchange@8 100f742c     kernel32:KERNEL32.dll
 0005:00000430       __imp__RtlUnwind@16        100f7430     kernel32:KERNEL32.dll
 0005:00000434       __imp__GetFileType@4       100f7434     kernel32:KERNEL32.dll
 0005:00000438       __imp__CreateThread@24     100f7438     kernel32:KERNEL32.dll
 0005:0000043c       __imp__ExitThread@4        100f743c     kernel32:KERNEL32.dll
 0005:00000440       __imp__RaiseException@16   100f7440     kernel32:KERNEL32.dll
 0005:00000444       __imp__UnhandledExceptionFilter@4 100f7444     kernel32:KERNEL32.dll
 0005:00000448       __imp__SetUnhandledExceptionFilter@4 100f7448     kernel32:KERNEL32.dll
 0005:0000044c       __imp__GetCommandLineA@0   100f744c     kernel32:KERNEL32.dll
 0005:00000450       __imp__HeapValidate@12     100f7450     kernel32:KERNEL32.dll
 0005:00000454       __imp__IsBadReadPtr@8      100f7454     kernel32:KERNEL32.dll
 0005:00000458       __imp__GetModuleFileNameA@12 100f7458     kernel32:KERNEL32.dll
 0005:0000045c       __imp__TlsGetValue@4       100f745c     kernel32:KERNEL32.dll
 0005:00000460       __imp__GetModuleHandleW@4  100f7460     kernel32:KERNEL32.dll
 0005:00000464       __imp__TlsAlloc@0          100f7464     kernel32:KERNEL32.dll
 0005:00000468       __imp__TlsSetValue@8       100f7468     kernel32:KERNEL32.dll
 0005:0000046c       __imp__TlsFree@4           100f746c     kernel32:KERNEL32.dll
 0005:00000470       __imp__SetLastError@4      100f7470     kernel32:KERNEL32.dll
 0005:00000474       __imp__GetCurrentThread@0  100f7474     kernel32:KERNEL32.dll
 0005:00000478       __imp__TerminateProcess@8  100f7478     kernel32:KERNEL32.dll
 0005:0000047c       __imp__GetCurrentProcess@0 100f747c     kernel32:KERNEL32.dll
 0005:00000480       __imp__IsDebuggerPresent@0 100f7480     kernel32:KERNEL32.dll
 0005:00000484       __imp__DebugBreak@0        100f7484     kernel32:KERNEL32.dll
 0005:00000488       __imp__MultiByteToWideChar@24 100f7488     kernel32:KERNEL32.dll
 0005:0000048c       __imp__LoadLibraryA@4      100f748c     kernel32:KERNEL32.dll
 0005:00000490       __imp__FatalAppExitA@8     100f7490     kernel32:KERNEL32.dll
 0005:00000494       __imp__ExitProcess@4       100f7494     kernel32:KERNEL32.dll
 0005:00000498       __imp__SetConsoleCtrlHandler@8 100f7498     kernel32:KERNEL32.dll
 0005:0000049c       __imp__SetHandleCount@4    100f749c     kernel32:KERNEL32.dll
 0005:000004a0       __imp__GetStartupInfoA@4   100f74a0     kernel32:KERNEL32.dll
 0005:000004a4       __imp__GetACP@0            100f74a4     kernel32:KERNEL32.dll
 0005:000004a8       __imp__GetOEMCP@0          100f74a8     kernel32:KERNEL32.dll
 0005:000004ac       __imp__GetCPInfo@8         100f74ac     kernel32:KERNEL32.dll
 0005:000004b0       __imp__IsValidCodePage@4   100f74b0     kernel32:KERNEL32.dll
 0005:000004b4       __imp__FreeEnvironmentStringsA@4 100f74b4     kernel32:KERNEL32.dll
 0005:000004b8       __imp__GetEnvironmentStrings@0 100f74b8     kernel32:KERNEL32.dll
 0005:000004bc       __imp__FreeEnvironmentStringsW@4 100f74bc     kernel32:KERNEL32.dll
 0005:000004c0       __imp__GetEnvironmentStringsW@0 100f74c0     kernel32:KERNEL32.dll
 0005:000004c4       __imp__HeapDestroy@4       100f74c4     kernel32:KERNEL32.dll
 0005:000004c8       __imp__HeapCreate@12       100f74c8     kernel32:KERNEL32.dll
 0005:000004cc       __imp__HeapFree@12         100f74cc     kernel32:KERNEL32.dll
 0005:000004d0       __imp__QueryPerformanceCounter@4 100f74d0     kernel32:KERNEL32.dll
 0005:000004d4       __imp__GetCurrentProcessId@0 100f74d4     kernel32:KERNEL32.dll
 0005:000004d8       __imp__GetSystemTimeAsFileTime@4 100f74d8     kernel32:KERNEL32.dll
 0005:000004dc       __imp__HeapAlloc@12        100f74dc     kernel32:KERNEL32.dll
 0005:000004e0       __imp__HeapSize@12         100f74e0     kernel32:KERNEL32.dll
 0005:000004e4       __imp__HeapReAlloc@16      100f74e4     kernel32:KERNEL32.dll
 0005:000004e8       __imp__GetConsoleCP@0      100f74e8     kernel32:KERNEL32.dll
 0005:000004ec       __imp__GetConsoleMode@8    100f74ec     kernel32:KERNEL32.dll
 0005:000004f0       __imp__OutputDebugStringA@4 100f74f0     kernel32:KERNEL32.dll
 0005:000004f4       __imp__OutputDebugStringW@4 100f74f4     kernel32:KERNEL32.dll
 0005:000004f8       __imp__GetLocaleInfoW@16   100f74f8     kernel32:KERNEL32.dll
 0005:000004fc       __imp__GetLocaleInfoA@16   100f74fc     kernel32:KERNEL32.dll
 0005:00000500       __imp__GetProcessHeap@0    100f7500     kernel32:KERNEL32.dll
 0005:00000504       __imp__SetStdHandle@8      100f7504     kernel32:KERNEL32.dll
 0005:00000508       __imp__ReadFile@20         100f7508     kernel32:KERNEL32.dll
 0005:0000050c       __imp__GetStringTypeA@20   100f750c     kernel32:KERNEL32.dll
 0005:00000510       __imp__GetStringTypeW@16   100f7510     kernel32:KERNEL32.dll
 0005:00000514       __imp__LCMapStringA@24     100f7514     kernel32:KERNEL32.dll
 0005:00000518       __imp__LCMapStringW@24     100f7518     kernel32:KERNEL32.dll
 0005:0000051c       __imp__GetTimeFormatA@24   100f751c     kernel32:KERNEL32.dll
 0005:00000520       __imp__SetEnvironmentVariableA@8 100f7520     kernel32:KERNEL32.dll
 0005:00000524       \177KERNEL32_NULL_THUNK_DATA 100f7524     kernel32:KERNEL32.dll
 0005:000005b0       __imp__PathIsRelativeW@4   100f75b0     shlwapi:SHLWAPI.dll
 0005:000005b4       __imp__PathFindExtensionW@4 100f75b4     shlwapi:SHLWAPI.dll
 0005:000005b8       __imp__PathFindFileNameW@4 100f75b8     shlwapi:SHLWAPI.dll
 0005:000005bc       __imp__PathRemoveFileSpecW@4 100f75bc     shlwapi:SHLWAPI.dll
 0005:000005c0       \177SHLWAPI_NULL_THUNK_DATA 100f75c0     shlwapi:SHLWAPI.dll
 0005:000005ec       __imp__EnableMenuItem@12   100f75ec     user32:USER32.dll
 0005:000005f0       __imp__ShowWindow@8        100f75f0     user32:USER32.dll
 0005:000005f4       __imp__PostThreadMessageW@16 100f75f4     user32:USER32.dll
 0005:000005f8       __imp__GetMessageW@16      100f75f8     user32:USER32.dll
 0005:000005fc       __imp__GetSystemMenu@8     100f75fc     user32:USER32.dll
 0005:00000600       \177USER32_NULL_THUNK_DATA 100f7600     user32:USER32.dll

 entry point at        0002:00001059

