 ChannelServer

 Timestamp is 568377ac (Wed Dec 30 14:20:28 2015)

 Preferred load address is 00400000

 Start         Length     Name                   Class
 0001:00000000 0008e18eH .text                   CODE
 0001:0008e190 00005bdbH .text$x                 CODE
 0001:00093d70 00000349H .text$yc                CODE
 0001:000940c0 000000cdH .text$yd                CODE
 0002:00000000 00000954H .idata$5                DATA
 0002:00000954 00000004H .CRT$XCA                DATA
 0002:00000958 0000000cH .CRT$XCC                DATA
 0002:00000964 00000010H .CRT$XCL                DATA
 0002:00000974 00000050H .CRT$XCU                DATA
 0002:000009c4 00000004H .CRT$XCZ                DATA
 0002:000009c8 00000004H .CRT$XIA                DATA
 0002:000009cc 00000010H .CRT$XIC                DATA
 0002:000009dc 00000004H .CRT$XIY                DATA
 0002:000009e0 00000004H .CRT$XIZ                DATA
 0002:000009e4 00000004H .CRT$XPA                DATA
 0002:000009e8 00000004H .CRT$XPX                DATA
 0002:000009ec 00000004H .CRT$XPXA               DATA
 0002:000009f0 00000004H .CRT$XPZ                DATA
 0002:000009f4 00000004H .CRT$XTA                DATA
 0002:000009f8 00000004H .CRT$XTZ                DATA
 0002:00000a00 000316f8H .rdata                  DATA
 0002:000320f8 00000058H .rdata$debug            DATA
 0002:00032150 00004304H .rdata$r                DATA
 0002:00036460 000007e8H .rdata$sxdata           DATA
 0002:00036c48 00000004H .rtc$IAA                DATA
 0002:00036c4c 00000004H .rtc$IZZ                DATA
 0002:00036c50 00000004H .rtc$TAA                DATA
 0002:00036c54 00000004H .rtc$TZZ                DATA
 0002:00036c58 000087dcH .xdata$x                DATA
 0002:0003f434 00000004H ATL$__a                 DATA
 0002:0003f438 00000004H ATL$__z                 DATA
 0002:0003f43c 00000020H .didat$2                DATA
 0002:0003f45c 00000020H .didat$3                DATA
 0002:0003f47c 00000010H .didat$4                DATA
 0002:0003f48c 0000004eH .didat$6                DATA
 0002:0003f4dc 00000010H .didat$7                DATA
 0002:0003f4ec 00000154H .idata$2                DATA
 0002:0003f640 00000014H .idata$3                DATA
 0002:0003f654 00000954H .idata$4                DATA
 0002:0003ffa8 00002594H .idata$6                DATA
 0002:0004253c 00000000H .edata                  DATA
 0003:00000000 00003717H .data                   DATA
 0003:00003718 00000010H .didat$5                DATA
 0003:00003740 00004048H .bss                    DATA
 0004:00000000 00001108H .rsrc$01                DATA
 0004:00001110 000042f8H .rsrc$02                DATA

  Address         Publics by Value              Rva+Base       Lib:Object

 0000:00000000       __except_list              00000000     <absolute>
 0000:000001fa       ___safe_se_handler_count   000001fa     <absolute>
 0000:00000000       ___ImageBase               00400000     <linker-defined>
 0001:00000000       ?GetRuntimeClass@CAllPropertyPage@@UBEPAUCRuntimeClass@@XZ 00401000 f   AllPropertyPage.obj
 0001:00000010       ?GetThisMessageMap@CAllPropertyPage@@KGPBUAFX_MSGMAP@@XZ 00401010 f   AllPropertyPage.obj
 0001:00000020       ?AddAllPages@CAllPropertyPage@@QAEXXZ 00401020 f   AllPropertyPage.obj
 0001:00000040       ?DoModal@CAllPropertyPage@@UAEHXZ 00401040 f   AllPropertyPage.obj
 0001:00000050       ?AtlThrowImpl@ATL@@YGXJ@Z  00401050 f i AllPropertyPage.obj
 0001:00000070       ?AtlIsValidString@ATL@@YAHPB_WI@Z 00401070 f i AllPropertyPage.obj
 0001:00000080       ?data@CStringData@ATL@@QAEPAXXZ 00401080 f i AllPropertyPage.obj
 0001:00000090       ?IsShared@CStringData@ATL@@QBE_NXZ 00401090 f i AllPropertyPage.obj
 0001:000000a0       ?Release@CStringData@ATL@@QAEXXZ 004010a0 f i AllPropertyPage.obj
 0001:000000c0       ?StringCompare@?$ChTraitsCRT@_W@ATL@@SAHPB_W0@Z 004010c0 f i AllPropertyPage.obj
 0001:00000100       ?StringUppercase@?$ChTraitsCRT@_W@ATL@@SAPA_WPA_WI@Z 00401100 f i AllPropertyPage.obj
 0001:00000120       ?GetFormattedLength@?$ChTraitsCRT@_W@ATL@@SAHPB_WPAD@Z 00401120 f i AllPropertyPage.obj
 0001:00000130       ?Format@?$ChTraitsCRT@_W@ATL@@SAHPA_WIPB_WPAD@Z 00401130 f i AllPropertyPage.obj
 0001:00000140       ??0CRect@@QAE@XZ           00401140 f i AllPropertyPage.obj
 0001:00000150       ?Width@CRect@@QBEHXZ       00401150 f i AllPropertyPage.obj
 0001:00000160       ?Height@CRect@@QBEHXZ      00401160 f i AllPropertyPage.obj
 0001:00000170       ??BCRect@@QAEPAUtagRECT@@XZ 00401170 f i AllPropertyPage.obj
 0001:00000180       ?GetAt@CPtrArray@@QBEPAXH@Z 00401180 f i AllPropertyPage.obj
 0001:000001a0       ??ACPtrArray@@QBEPAXH@Z    004011a0 f i AllPropertyPage.obj
 0001:000001c0       ??0CObject@@IAE@XZ         004011c0 f i AllPropertyPage.obj
 0001:000001d0       ??1CObject@@UAE@XZ         004011d0 f i AllPropertyPage.obj
 0001:000001e0       ?GetSafeHandle@CGdiObject@@QBEPAXXZ 004011e0 f i AllPropertyPage.obj
 0001:000001f0       ??0CGdiObject@@QAE@XZ      004011f0 f i AllPropertyPage.obj
 0001:00000200       ?Serialize@CObject@@UAEXAAVCArchive@@@Z 00401200 f i AllPropertyPage.obj
 0001:00000210       ??3CObject@@SGXPAX@Z       00401210 f i AllPropertyPage.obj
 0001:00000220       ?FromHandle@CFont@@SGPAV1@PAUHFONT__@@@Z 00401220 f i AllPropertyPage.obj
 0001:00000230       ?GetTextMetricsW@CDC@@QBEHPAUtagTEXTMETRICW@@@Z 00401230 f i AllPropertyPage.obj
 0001:00000250       ?SendMessageW@CWnd@@QBEJIIJ@Z 00401250 f i AllPropertyPage.obj
 0001:00000270       ?SetFont@CWnd@@QAEXPAVCFont@@H@Z 00401270 f i AllPropertyPage.obj
 0001:000002b0       ?GetFont@CWnd@@QBEPAVCFont@@XZ 004012b0 f i AllPropertyPage.obj
 0001:000002d0       ?MoveWindow@CWnd@@QAEXPBUtagRECT@@H@Z 004012d0 f i AllPropertyPage.obj
 0001:00000300       ?GetWindowRect@CWnd@@QBEXPAUtagRECT@@@Z 00401300 f i AllPropertyPage.obj
 0001:00000320       ?GetClientRect@CWnd@@QBEXPAUtagRECT@@@Z 00401320 f i AllPropertyPage.obj
 0001:00000340       ?GetDC@CWnd@@QAEPAVCDC@@XZ 00401340 f i AllPropertyPage.obj
 0001:00000360       ?ReleaseDC@CWnd@@QAEHPAVCDC@@@Z 00401360 f i AllPropertyPage.obj
 0001:00000380       ?GetDesktopWindow@CWnd@@SGPAV1@XZ 00401380 f i AllPropertyPage.obj
 0001:00000390       ?GetWindow@CWnd@@QBEPAV1@I@Z 00401390 f i AllPropertyPage.obj
 0001:000003b0       ?GetParent@CWnd@@QBEPAV1@XZ 004013b0 f i AllPropertyPage.obj
 0001:000003d0       ?GetPage@CPropertySheet@@QBEPAVCPropertyPage@@H@Z 004013d0 f i AllPropertyPage.obj
 0001:00000400       ??B?$CSimpleStringT@_W$0A@@ATL@@QBEPB_WXZ 00401400 f i AllPropertyPage.obj
 0001:00000410       ?GetString@?$CSimpleStringT@_W$0A@@ATL@@QBEPB_WXZ 00401410 f i AllPropertyPage.obj
 0001:00000420       ?GetData@?$CSimpleStringT@_W$0A@@ATL@@ABEPAUCStringData@2@XZ 00401420 f i AllPropertyPage.obj
 0001:00000430       ?SetLength@?$CSimpleStringT@_W$0A@@ATL@@AAEXH@Z 00401430 f i AllPropertyPage.obj
 0001:00000460       ?GetDefaultManager@?$StrTraitMFC@_WV?$ChTraitsCRT@_W@ATL@@@@SAPAUIAtlStringMgr@ATL@@XZ 00401460 f i AllPropertyPage.obj
 0001:00000470       ?ReleaseBufferSetLength@?$CSimpleStringT@_W$0A@@ATL@@QAEXH@Z 00401470 f i AllPropertyPage.obj
 0001:000004a0       ?Attach@?$CSimpleStringT@_W$0A@@ATL@@AAEXPAUCStringData@2@@Z 004014a0 f i AllPropertyPage.obj
 0001:000004b0       ?CopyChars@?$CSimpleStringT@_W$0A@@ATL@@SAXPA_WIPB_WH@Z 004014b0 f i AllPropertyPage.obj
 0001:000004d0       ?ThrowMemoryException@?$CSimpleStringT@_W$0A@@ATL@@KAXXZ 004014d0 f i AllPropertyPage.obj
 0001:000004e0       ?Fork@?$CSimpleStringT@_W$0A@@ATL@@AAEXH@Z 004014e0 f i AllPropertyPage.obj
 0001:00000560       ?Reallocate@?$CSimpleStringT@_W$0A@@ATL@@AAEXH@Z 00401560 f i AllPropertyPage.obj
 0001:000005a0       ?GetMessageMap@CAllPropertyPage@@MBEPBUAFX_MSGMAP@@XZ 004015a0 f   AllPropertyPage.obj
 0001:000005b0       ?Compare@?$CStringT@_WV?$StrTraitMFC@_WV?$ChTraitsCRT@_W@ATL@@@@@ATL@@QBEHPB_W@Z 004015b0 f i AllPropertyPage.obj
 0001:00000600       ?GetLength@?$CSimpleStringT@_W$0A@@ATL@@QBEHXZ 00401600 f i AllPropertyPage.obj
 0001:00000610       ??0?$CSimpleStringT@_W$0A@@ATL@@QAE@PAUIAtlStringMgr@1@@Z 00401610 f i AllPropertyPage.obj
 0001:00000640       ??1?$CSimpleStringT@_W$0A@@ATL@@QAE@XZ 00401640 f i AllPropertyPage.obj
 0001:00000660       ?PrepareWrite2@?$CSimpleStringT@_W$0A@@ATL@@AAEXH@Z 00401660 f i AllPropertyPage.obj
 0001:000006b0       ??8ATL@@YA_NABV?$CStringT@_WV?$StrTraitMFC@_WV?$ChTraitsCRT@_W@ATL@@@@@0@PB_W@Z 004016b0 f i AllPropertyPage.obj
 0001:00000710       ??0?$CStringT@_WV?$StrTraitMFC@_WV?$ChTraitsCRT@_W@ATL@@@@@ATL@@QAE@XZ 00401710 f i AllPropertyPage.obj
 0001:00000740       ??1?$CStringT@_WV?$StrTraitMFC@_WV?$ChTraitsCRT@_W@ATL@@@@@ATL@@QAE@XZ 00401740 f i AllPropertyPage.obj
 0001:00000760       ?PrepareWrite@?$CSimpleStringT@_W$0A@@ATL@@AAEPA_WH@Z 00401760 f i AllPropertyPage.obj
 0001:00000790       ?BuildPropPageArray@CAllPropertyPage@@MAEXXZ 00401790 f   AllPropertyPage.obj
 0001:000008d0       ?GetBuffer@?$CSimpleStringT@_W$0A@@ATL@@QAEPA_WH@Z 004018d0 f i AllPropertyPage.obj
 0001:00000900       ?GetBufferSetLength@?$CSimpleStringT@_W$0A@@ATL@@QAEPA_WH@Z 00401900 f i AllPropertyPage.obj
 0001:00000950       ?FormatV@?$CStringT@_WV?$StrTraitMFC@_WV?$ChTraitsCRT@_W@ATL@@@@@ATL@@QAEXPB_WPAD@Z 00401950 f i AllPropertyPage.obj
 0001:000009d0       ?MakeUpper@?$CStringT@_WV?$StrTraitMFC@_WV?$ChTraitsCRT@_W@ATL@@@@@ATL@@QAEAAV12@XZ 004019d0 f i AllPropertyPage.obj
 0001:00000a30       ?Format@?$CStringT@_WV?$StrTraitMFC@_WV?$ChTraitsCRT@_W@ATL@@@@@ATL@@QAAXPB_WZZ 00401a30 f i AllPropertyPage.obj
 0001:00000f60       ?OnInitDialog@CAllPropertyPage@@UAEHXZ 00401f60 f   AllPropertyPage.obj
 0001:00001020       ??1CGdiObject@@UAE@XZ      00402020 f i AllPropertyPage.obj
 0001:00001130       ??0CFont@@QAE@XZ           00402130 f i AllPropertyPage.obj
 0001:00001140       ??1CFont@@UAE@XZ           00402140 f i AllPropertyPage.obj
 0001:00001150       ??0CAllPropertyPage@@QAE@IPAVCWnd@@I@Z 00402150 f   AllPropertyPage.obj
 0001:000011f0       ?DoDataExchange@CWnd@@MAEXPAVCDataExchange@@@Z 004021f0 f i AllPropertyPage.obj
 0001:00001200       ?BeginModalState@CWnd@@UAEXXZ 00402200 f i AllPropertyPage.obj
 0001:00001210       ?EndModalState@CWnd@@UAEXXZ 00402210 f i AllPropertyPage.obj
 0001:00001220       ??0CAllPropertyPage@@QAE@PB_WPAVCWnd@@I@Z 00402220 f   AllPropertyPage.obj
 0001:000012c0       ??0CAllPropertyPage@@QAE@XZ 004022c0 f   AllPropertyPage.obj
 0001:00001360       ??1CAllPropertyPage@@UAE@XZ 00402360 f   AllPropertyPage.obj
 0001:00001400       ??_ECGdiObject@@UAEPAXI@Z  00402400 f i AllPropertyPage.obj
 0001:00001400       ??_GCGdiObject@@UAEPAXI@Z  00402400 f i AllPropertyPage.obj
 0001:00001420       ??_ECFont@@UAEPAXI@Z       00402420 f i AllPropertyPage.obj
 0001:00001420       ??_GCFont@@UAEPAXI@Z       00402420 f i AllPropertyPage.obj
 0001:00001450       ??_ECAllPropertyPage@@UAEPAXI@Z 00402450 f i AllPropertyPage.obj
 0001:00001450       ??_GCAllPropertyPage@@UAEPAXI@Z 00402450 f i AllPropertyPage.obj
 0001:00001470       ??0CChannelServerApp@@QAE@XZ 00402470 f   ChannelServer.obj
 0001:00001490       ??1CChannelServerApp@@UAE@XZ 00402490 f i ChannelServer.obj
 0001:000014a0       ?OnAppAbout@CChannelServerApp@@QAEXXZ 004024a0 f   ChannelServer.obj
 0001:00001520       ?ExitInstance@CChannelServerApp@@UAEHXZ 00402520 f   ChannelServer.obj
 0001:00001530       ??2CObject@@SGPAXI@Z       00402530 f i ChannelServer.obj
 0001:00001540       ?UpdateWindow@CWnd@@QAEXXZ 00402540 f i ChannelServer.obj
 0001:00001550       ?GetThisMessageMap@CChannelServerApp@@KGPBUAFX_MSGMAP@@XZ 00402550 f   ChannelServer.obj
 0001:00001560       ??_GCChannelServerApp@@UAEPAXI@Z 00402560 f i ChannelServer.obj
 0001:00001560       ??_ECChannelServerApp@@UAEPAXI@Z 00402560 f i ChannelServer.obj
 0001:00001580       ?InitInstance@CChannelServerApp@@UAEHXZ 00402580 f   ChannelServer.obj
 0001:000016a0       ?GetMessageMap@CChannelServerApp@@MBEPBUAFX_MSGMAP@@XZ 004026a0 f   ChannelServer.obj
 0001:000016b0       ?GetRuntimeClass@CChannelServerDoc@@UBEPAUCRuntimeClass@@XZ 004026b0 f   ChannelServerDoc.obj
 0001:000016c0       ?GetThisMessageMap@CChannelServerDoc@@KGPBUAFX_MSGMAP@@XZ 004026c0 f   ChannelServerDoc.obj
 0001:000016d0       ??0CChannelServerDoc@@IAE@XZ 004026d0 f   ChannelServerDoc.obj
 0001:000016f0       ??1CChannelServerDoc@@UAE@XZ 004026f0 f   ChannelServerDoc.obj
 0001:00001700       ?OnNewDocument@CChannelServerDoc@@UAEHXZ 00402700 f   ChannelServerDoc.obj
 0001:00001710       ?IsStoring@CArchive@@QBEHXZ 00402710 f i ChannelServerDoc.obj
 0001:00001720       ?IsModified@CDocument@@UAEHXZ 00402720 f i ChannelServerDoc.obj
 0001:00001730       ?SetModifiedFlag@CDocument@@UAEXH@Z 00402730 f i ChannelServerDoc.obj
 0001:00001740       ?CreateObject@CChannelServerDoc@@SGPAVCObject@@XZ 00402740 f   ChannelServerDoc.obj
 0001:000017b0       ?GetMessageMap@CChannelServerDoc@@MBEPBUAFX_MSGMAP@@XZ 004027b0 f   ChannelServerDoc.obj
 0001:000017c0       ??_GCChannelServerDoc@@UAEPAXI@Z 004027c0 f i ChannelServerDoc.obj
 0001:000017c0       ??_ECChannelServerDoc@@UAEPAXI@Z 004027c0 f i ChannelServerDoc.obj
 0001:000017e0       ?Serialize@CChannelServerDoc@@UAEXAAVCArchive@@@Z 004027e0 f   ChannelServerDoc.obj
 0001:000017f0       ?GetDocument@CChannelServerView@@QAEPAVCChannelServerDoc@@XZ 004027f0 f i ChannelServerView.obj
 0001:00001800       ?GetRuntimeClass@CChannelServerView@@UBEPAUCRuntimeClass@@XZ 00402800 f   ChannelServerView.obj
 0001:00001810       ?GetThisMessageMap@CChannelServerView@@KGPBUAFX_MSGMAP@@XZ 00402810 f   ChannelServerView.obj
 0001:00001820       ??0CChannelServerView@@IAE@XZ 00402820 f   ChannelServerView.obj
 0001:00001840       ??1CChannelServerView@@UAE@XZ 00402840 f   ChannelServerView.obj
 0001:00001850       ?PreCreateWindow@CChannelServerView@@UAEHAAUtagCREATESTRUCTW@@@Z 00402850 f   ChannelServerView.obj
 0001:00001860       ?OnDraw@CChannelServerView@@UAEXPAVCDC@@@Z 00402860 f   ChannelServerView.obj
 0001:00001870       ?CreateObject@CChannelServerView@@SGPAVCObject@@XZ 00402870 f   ChannelServerView.obj
 0001:000018e0       ?GetMessageMap@CChannelServerView@@MBEPBUAFX_MSGMAP@@XZ 004028e0 f   ChannelServerView.obj
 0001:000018f0       ??_GCChannelServerView@@UAEPAXI@Z 004028f0 f i ChannelServerView.obj
 0001:000018f0       ??_ECChannelServerView@@UAEPAXI@Z 004028f0 f i ChannelServerView.obj
 0001:00001920       ?GetRuntimeClass@CClientInfoSheet@@UBEPAUCRuntimeClass@@XZ 00402920 f   ClientInfoSheet.obj
 0001:00001930       ??1CClientInfoSheet@@UAE@XZ 00402930 f   ClientInfoSheet.obj
 0001:000019a0       ?AfxGetMainWnd@@YGPAVCWnd@@XZ 004029a0 f i ClientInfoSheet.obj
 0001:000019c0       ?Create@CDialog@@UAEHIPAVCWnd@@@Z 004029c0 f i ClientInfoSheet.obj
 0001:000019d0       ??0CListCtrl@@QAE@XZ       004029d0 f i ClientInfoSheet.obj
 0001:000019f0       ??_ECListCtrl@@UAEPAXI@Z   004029f0 f i ClientInfoSheet.obj
 0001:000019f0       ??_GCListCtrl@@UAEPAXI@Z   004029f0 f i ClientInfoSheet.obj
 0001:00001a10       ?InsertItem@CListCtrl@@QAEHHPB_W@Z 00402a10 f i ClientInfoSheet.obj
 0001:00001a30       ?DeleteAllItems@CListCtrl@@QAEHXZ 00402a30 f i ClientInfoSheet.obj
 0001:00001a50       ??0CClientInfoSheet@@QAE@XZ 00402a50 f   ClientInfoSheet.obj
 0001:00001ad0       ??_GCClientInfoSheet@@UAEPAXI@Z 00402ad0 f i ClientInfoSheet.obj
 0001:00001ad0       ??_ECClientInfoSheet@@UAEPAXI@Z 00402ad0 f i ClientInfoSheet.obj
 0001:00001af0       ?DoDataExchange@CClientInfoSheet@@MAEXPAVCDataExchange@@@Z 00402af0 f   ClientInfoSheet.obj
 0001:00001b30       ?RefreshClientInfo@CClientInfoSheet@@QAEXXZ 00402b30 f   ClientInfoSheet.obj
 0001:00001c10       ?CreateObject@CClientInfoSheet@@SGPAVCObject@@XZ 00402c10 f   ClientInfoSheet.obj
 0001:00001c80       ?OnBtnRefresh@CClientInfoSheet@@IAEXXZ 00402c80 f   ClientInfoSheet.obj
 0001:00001c90       ?GetThisMessageMap@CClientInfoSheet@@KGPBUAFX_MSGMAP@@XZ 00402c90 f   ClientInfoSheet.obj
 0001:00001ca0       ?OnInitDialog@CClientInfoSheet@@MAEHXZ 00402ca0 f   ClientInfoSheet.obj
 0001:00001d10       ?GetMessageMap@CClientInfoSheet@@MBEPBUAFX_MSGMAP@@XZ 00402d10 f   ClientInfoSheet.obj
 0001:00001d20       ??1_Container_base_aux@std@@QAE@XZ 00402d20 f i ConfigureSheet.obj
 0001:00001d30       _wmemcpy_s                 00402d30 f i ConfigureSheet.obj
 0001:00001d50       ?AfxCrtErrorCheck@@YAHH@Z  00402d50 f i ConfigureSheet.obj
 0001:00001de0       ?GetRuntimeClass@CConfigureSheet@@UBEPAUCRuntimeClass@@XZ 00402de0 f   ConfigureSheet.obj
 0001:00001df0       ?_AtlGetConversionACP@ATL@@YGIXZ 00402df0 f i ConfigureSheet.obj
 0001:00001e00       ?AtlW2AHelper@@YGPADPADPB_WHI@Z 00402e00 f i ConfigureSheet.obj
 0001:00001e40       ?CheckServerPort@CConfigureSheet@@IAEHXZ 00402e40 f   ConfigureSheet.obj
 0001:00001e90       ?CheckTimeout@CConfigureSheet@@IAEHXZ 00402e90 f   ConfigureSheet.obj
 0001:00001ee0       ?GetUartParam@CConfigureSheet@@QAEXAAK000@Z 00402ee0 f   ConfigureSheet.obj
 0001:00001f20       ?IsNeedPortReset@CConfigureSheet@@QAEHXZ 00402f20 f   ConfigureSheet.obj
 0001:00001f40       ?GetUartInfo@CConfigureSheet@@QAEXXZ 00402f40 f   ConfigureSheet.obj
 0001:00001f50       ?IsRightPort@CConfigureSheet@@QAEHKPB_WH@Z 00402f50 f   ConfigureSheet.obj
 0001:00001f60       ?GetServerParam@CConfigureSheet@@QAEXAAK0@Z 00402f60 f   ConfigureSheet.obj
 0001:00001f80       ?GetSocketParam@CConfigureSheet@@QAEXAAK0AAH@Z 00402f80 f   ConfigureSheet.obj
 0001:00001fb0       ?DeleteMergedFile@CConfigureSheet@@QAEXXZ 00402fb0 f   ConfigureSheet.obj
 0001:00001fc0       ?IsDiagPort@CConfigureSheet@@QAEHK@Z 00402fc0 f   ConfigureSheet.obj
 0001:00001fe0       ?IsLogPort@CConfigureSheet@@QAEHK@Z 00402fe0 f   ConfigureSheet.obj
 0001:00002000       ?GetEnumPortDelay@CConfigureSheet@@QAEKXZ 00403000 f   ConfigureSheet.obj
 0001:00002010       ?GetEndian@CConfigureSheet@@QAEHXZ 00403010 f   ConfigureSheet.obj
 0001:00002040       ?wmemcpy_s@Checked@ATL@@YAXPA_WIPB_WI@Z 00403040 f i ConfigureSheet.obj
 0001:00002070       ?deallocate@?$allocator@UDEV_INFO@@@std@@QAEXPAUDEV_INFO@@I@Z 00403070 f i ConfigureSheet.obj
 0001:00002080       ?deallocate@?$allocator@V_Aux_cont@std@@@std@@QAEXPAV_Aux_cont@2@I@Z 00403080 f i ConfigureSheet.obj
 0001:00002090       ?_AtlGetStringResourceImage@ATL@@YAPBUATLSTRINGRESOURCEIMAGE@1@PAUHINSTANCE__@@PAUHRSRC__@@I@Z 00403090 f i ConfigureSheet.obj
 0001:00002100       ?AtlGetStringResourceImage@ATL@@YAPBUATLSTRINGRESOURCEIMAGE@1@PAUHINSTANCE__@@I@Z 00403100 f i ConfigureSheet.obj
 0001:00002140       ??$_Ptr_cat@PAUDEV_INFO@@PAU1@@std@@YA?AU_Nonscalar_ptr_iterator_tag@0@AAPAUDEV_INFO@@0@Z 00403140 f i ConfigureSheet.obj
 0001:00002150       ??$_Destroy@UDEV_INFO@@@std@@YAXPAUDEV_INFO@@@Z 00403150 f i ConfigureSheet.obj
 0001:00002160       ?AddRef@CStringData@ATL@@QAEXXZ 00403160 f i ConfigureSheet.obj
 0001:00002170       ?IsLocked@CStringData@ATL@@QBE_NXZ 00403170 f i ConfigureSheet.obj
 0001:00002180       ?CharNextW@?$ChTraitsCRT@_W@ATL@@SAPA_WPB_W@Z 00403180 f i ConfigureSheet.obj
 0001:00002190       ?IsSpace@?$ChTraitsCRT@_W@ATL@@SAH_W@Z 00403190 f i ConfigureSheet.obj
 0001:000021a0       ?StringFindString@?$ChTraitsCRT@_W@ATL@@SAPB_WPB_W0@Z 004031a0 f i ConfigureSheet.obj
 0001:000021b0       ?StringLowercase@?$ChTraitsCRT@_W@ATL@@SAPA_WPA_WI@Z 004031b0 f i ConfigureSheet.obj
 0001:000021d0       ?GetBaseTypeLength@?$ChTraitsCRT@_W@ATL@@SAHPBD@Z 004031d0 f i ConfigureSheet.obj
 0001:000021f0       ?GetBaseTypeLength@?$ChTraitsCRT@_W@ATL@@SAHPB_W@Z 004031f0 f i ConfigureSheet.obj
 0001:00002210       ?GetBaseTypeLength@?$ChTraitsCRT@_W@ATL@@SAHPB_WH@Z 00403210 f i ConfigureSheet.obj
 0001:00002220       ?ConvertToBaseType@?$ChTraitsCRT@_W@ATL@@SAXPA_WHPBDH@Z 00403220 f i ConfigureSheet.obj
 0001:00002240       ?ConvertToBaseType@?$ChTraitsCRT@_W@ATL@@SAXPA_WHPB_WH@Z 00403240 f i ConfigureSheet.obj
 0001:00002290       ?GetSafeHwnd@CWnd@@QBEPAUHWND__@@XZ 00403290 f i ConfigureSheet.obj
 0001:000022a0       ?SetParent@CWnd@@QAEPAV1@PAV1@@Z 004032a0 f i ConfigureSheet.obj
 0001:000022e0       ??0CComboBox@@QAE@XZ       004032e0 f i ConfigureSheet.obj
 0001:00002300       ??_GCComboBox@@UAEPAXI@Z   00403300 f i ConfigureSheet.obj
 0001:00002300       ??_ECComboBox@@UAEPAXI@Z   00403300 f i ConfigureSheet.obj
 0001:00002320       ?GetCurSel@CComboBox@@QBEHXZ 00403320 f i ConfigureSheet.obj
 0001:00002340       ?SetCurSel@CComboBox@@QAEHH@Z 00403340 f i ConfigureSheet.obj
 0001:00002360       ?FindStringResourceInstance@?$StrTraitMFC@_WV?$ChTraitsCRT@_W@ATL@@@@SAPAUHINSTANCE__@@I@Z 00403360 f i ConfigureSheet.obj
 0001:00002370       ?GetAllocLength@?$CSimpleStringT@_W$0A@@ATL@@QBEHXZ 00403370 f i ConfigureSheet.obj
 0001:00002380       ?CopyCharsOverlapped@?$CSimpleStringT@_W$0A@@ATL@@SAXPA_WIPB_WH@Z 00403380 f i ConfigureSheet.obj
 0001:000023a0       ?StringLength@?$CSimpleStringT@_W$0A@@ATL@@SAHPB_W@Z 004033a0 f i ConfigureSheet.obj
 0001:000023c0       ?DoDataExchange@CConfigureSheet@@MAEXPAVCDataExchange@@@Z 004033c0 f   ConfigureSheet.obj
 0001:00002410       ?CheckData@CConfigureSheet@@IAEHXZ 00403410 f   ConfigureSheet.obj
 0001:00002490       ?CreateCtrls@CConfigureSheet@@QAEXXZ 00403490 f   ConfigureSheet.obj
 0001:000025e0       ??1?$_Container_base_aux_alloc_real@V?$allocator@UDEV_INFO@@@std@@@std@@IAE@XZ 004035e0 f i ConfigureSheet.obj
 0001:000025f0       ??0?$CSimpleStringT@_W$0A@@ATL@@QAE@PB_WHPAUIAtlStringMgr@1@@Z 004035f0 f i ConfigureSheet.obj
 0001:00002670       ?GetManager@?$CSimpleStringT@_W$0A@@ATL@@QBEPAUIAtlStringMgr@2@XZ 00403670 f i ConfigureSheet.obj
 0001:00002690       ?destroy@?$allocator@UDEV_INFO@@@std@@QAEXPAUDEV_INFO@@@Z 00403690 f i ConfigureSheet.obj
 0001:000026a0       ?Empty@?$CSimpleStringT@_W$0A@@ATL@@QAEXXZ 004036a0 f i ConfigureSheet.obj
 0001:00002710       ?CloneData@?$CSimpleStringT@_W$0A@@ATL@@CAPAUCStringData@2@PAU32@@Z 00403710 f i ConfigureSheet.obj
 0001:00002780       ?OnInitDialog@CConfigureSheet@@MAEHXZ 00403780 f   ConfigureSheet.obj
 0001:00002840       ?OnKillActive@CConfigureSheet@@UAEHXZ 00403840 f   ConfigureSheet.obj
 0001:00002860       ?Find@?$CStringT@_WV?$StrTraitMFC@_WV?$ChTraitsCRT@_W@ATL@@@@@ATL@@QBEHPB_WH@Z 00403860 f i ConfigureSheet.obj
 0001:000028a0       ?IsEmpty@?$CSimpleStringT@_W$0A@@ATL@@QBE_NXZ 004038a0 f i ConfigureSheet.obj
 0001:000028b0       ??1?$_Vector_val@UDEV_INFO@@V?$allocator@UDEV_INFO@@@std@@@std@@QAE@XZ 004038b0 f i ConfigureSheet.obj
 0001:000028c0       ??0?$CStringT@_WV?$StrTraitMFC@_WV?$ChTraitsCRT@_W@ATL@@@@@ATL@@QAE@PB_WHPAUIAtlStringMgr@1@@Z 004038c0 f i ConfigureSheet.obj
 0001:000028e0       ?GetManager@?$CStringT@_WV?$StrTraitMFC@_WV?$ChTraitsCRT@_W@ATL@@@@@ATL@@QBEPAUIAtlStringMgr@2@XZ 004038e0 f i ConfigureSheet.obj
 0001:00002910       ??$_Destroy_range@V?$allocator@UDEV_INFO@@@std@@@std@@YAXPAUDEV_INFO@@0AAV?$allocator@UDEV_INFO@@@0@U_Nonscalar_ptr_iterator_tag@0@@Z 00403910 f i ConfigureSheet.obj
 0001:00002920       ??0?$CSimpleStringT@_W$0A@@ATL@@QAE@ABV01@@Z 00403920 f i ConfigureSheet.obj
 0001:00002940       ??1CDlgSocketConfig@@UAE@XZ 00403940 f i ConfigureSheet.obj
 0001:000029c0       ??1CDlgFileConfig@@UAE@XZ  004039c0 f i ConfigureSheet.obj
 0001:00002a50       ?OnSelchangeChannelType@CConfigureSheet@@IAEXXZ 00403a50 f   ConfigureSheet.obj
 0001:00002b60       ??$_Destroy_range@V?$allocator@UDEV_INFO@@@std@@@std@@YAXPAUDEV_INFO@@0AAV?$allocator@UDEV_INFO@@@0@@Z 00403b60 f i ConfigureSheet.obj
 0001:00002b70       ??0?$CStringT@_WV?$StrTraitMFC@_WV?$ChTraitsCRT@_W@ATL@@@@@ATL@@QAE@ABV01@@Z 00403b70 f i ConfigureSheet.obj
 0001:00002b90       ??4?$CStringT@_WV?$StrTraitMFC@_WV?$ChTraitsCRT@_W@ATL@@@@@ATL@@QAEAAV01@PBD@Z 00403b90 f i ConfigureSheet.obj
 0001:00002c20       ?LoadStringW@?$CStringT@_WV?$StrTraitMFC@_WV?$ChTraitsCRT@_W@ATL@@@@@ATL@@QAEHPAUHINSTANCE__@@I@Z 00403c20 f i ConfigureSheet.obj
 0001:00002cf0       ?SetString@?$CSimpleStringT@_W$0A@@ATL@@QAEXPB_WH@Z 00403cf0 f i ConfigureSheet.obj
 0001:00002da0       ?GetThisMessageMap@CConfigureSheet@@KGPBUAFX_MSGMAP@@XZ 00403da0 f   ConfigureSheet.obj
 0001:00002db0       ?MakeLower@?$CStringT@_WV?$StrTraitMFC@_WV?$ChTraitsCRT@_W@ATL@@@@@ATL@@QAEAAV12@XZ 00403db0 f i ConfigureSheet.obj
 0001:00002e10       ?Left@?$CStringT@_WV?$StrTraitMFC@_WV?$ChTraitsCRT@_W@ATL@@@@@ATL@@QBE?AV12@H@Z 00403e10 f i ConfigureSheet.obj
 0001:00002e90       ?Truncate@?$CSimpleStringT@_W$0A@@ATL@@QAEXH@Z 00403e90 f i ConfigureSheet.obj
 0001:00002ee0       ?_Destroy@?$vector@UDEV_INFO@@V?$allocator@UDEV_INFO@@@std@@@std@@IAEXPAUDEV_INFO@@0@Z 00403ee0 f i ConfigureSheet.obj
 0001:00002ef0       ?LoadStringW@?$CStringT@_WV?$StrTraitMFC@_WV?$ChTraitsCRT@_W@ATL@@@@@ATL@@QAEHI@Z 00403ef0 f i ConfigureSheet.obj
 0001:00002f20       ?CheckImplicitLoad@?$CStringT@_WV?$StrTraitMFC@_WV?$ChTraitsCRT@_W@ATL@@@@@ATL@@AAE_NPBX@Z 00403f20 f i ConfigureSheet.obj
 0001:00002f60       ??4?$CSimpleStringT@_W$0A@@ATL@@QAEAAV01@ABV01@@Z 00403f60 f i ConfigureSheet.obj
 0001:00002fe0       ?SetString@?$CSimpleStringT@_W$0A@@ATL@@QAEXPB_W@Z 00403fe0 f i ConfigureSheet.obj
 0001:00003020       ?GetMessageMap@CConfigureSheet@@MBEPBUAFX_MSGMAP@@XZ 00404020 f   ConfigureSheet.obj
 0001:00003030       ?TrimRight@?$CStringT@_WV?$StrTraitMFC@_WV?$ChTraitsCRT@_W@ATL@@@@@ATL@@QAEAAV12@XZ 00404030 f i ConfigureSheet.obj
 0001:00003080       ?_Tidy@?$vector@UDEV_INFO@@V?$allocator@UDEV_INFO@@@std@@@std@@IAEXXZ 00404080 f i ConfigureSheet.obj
 0001:000030b0       ??4?$CStringT@_WV?$StrTraitMFC@_WV?$ChTraitsCRT@_W@ATL@@@@@ATL@@QAEAAV01@ABV01@@Z 004040b0 f i ConfigureSheet.obj
 0001:000030d0       ??4?$CSimpleStringT@_W$0A@@ATL@@QAEAAV01@PB_W@Z 004040d0 f i ConfigureSheet.obj
 0001:00003110       ?GetFileParam@CConfigureSheet@@QAEHAAHAAV?$CStringT@_WV?$StrTraitMFC@_WV?$ChTraitsCRT@_W@ATL@@@@@ATL@@@Z 00404110 f   ConfigureSheet.obj
 0001:00003140       ??1?$vector@UDEV_INFO@@V?$allocator@UDEV_INFO@@@std@@@std@@QAE@XZ 00404140 f i ConfigureSheet.obj
 0001:00003180       ??4?$CStringT@_WV?$StrTraitMFC@_WV?$ChTraitsCRT@_W@ATL@@@@@ATL@@QAEAAV01@PB_W@Z 00404180 f i ConfigureSheet.obj
 0001:000031c0       ??1CDlgUartConfig@@UAE@XZ  004041c0 f i ConfigureSheet.obj
 0001:000032b0       ??1CConfigureSheet@@UAE@XZ 004042b0 f   ConfigureSheet.obj
 0001:00003350       ?SaveConfiguration@CConfigureSheet@@QAEHXZ 00404350 f   ConfigureSheet.obj
 0001:000035b0       ?OnOK@CConfigureSheet@@UAEXXZ 004045b0 f   ConfigureSheet.obj
 0001:00003660       ??0?$CStringT@_WV?$StrTraitMFC@_WV?$ChTraitsCRT@_W@ATL@@@@@ATL@@QAE@PB_W@Z 00404660 f i ConfigureSheet.obj
 0001:00003720       ??_ECConfigureSheet@@UAEPAXI@Z 00404720 f i ConfigureSheet.obj
 0001:00003720       ??_GCConfigureSheet@@UAEPAXI@Z 00404720 f i ConfigureSheet.obj
 0001:00003740       ?GetConfiguration@CConfigureSheet@@QAEXXZ 00404740 f   ConfigureSheet.obj
 0001:00003c60       ??0CConfigureSheet@@QAE@XZ 00404c60 f   ConfigureSheet.obj
 0001:00003d60       ?CreateObject@CConfigureSheet@@SGPAVCObject@@XZ 00404d60 f   ConfigureSheet.obj
 0001:00003dd0       ??2@YAPAXIPAX@Z            00404dd0 f i ControlCenter.obj
 0001:00003de0       ??3@YAXPAX0@Z              00404de0 f i ControlCenter.obj
 0001:00003df0       ?wcsrchr@@YAPA_WPA_W_W@Z   00404df0 f i ControlCenter.obj
 0001:00003e10       ?IsNeedResetPort@CMainFrame@@QAEHXZ 00404e10 f i ControlCenter.obj
 0001:00003e20       ??0IProtocolObserver@@QAE@XZ 00404e20 f i ControlCenter.obj
 0001:00003e30       ?AtlA2WHelper@@YGPA_WPA_WPBDHI@Z 00404e30 f i ControlCenter.obj
 0001:00003e70       ?Reg@CControlCenter@@IAEHKE@Z 00404e70 f   ControlCenter.obj
 0001:00003f20       ?Unreg@CControlCenter@@IAEXKEH@Z 00404f20 f   ControlCenter.obj
 0001:00003fe0       ?SendDown@CControlCenter@@IAEKPAUPRT_BUFF@@@Z 00404fe0 f   ControlCenter.obj
 0001:000040a0       ?SendUp@CControlCenter@@IAEKGPAEK@Z 004050a0 f   ControlCenter.obj
 0001:00004130       ?IsLastPackage@CControlCenter@@IAE_NPAUDIAG_HEADER@@@Z 00405130 f   ControlCenter.obj
 0001:00004180       ?LoadTypeDef@CControlCenter@@IAEXXZ 00405180 f   ControlCenter.obj
 0001:000042a0       ?StartLog@CControlCenter@@QAEXXZ 004052a0 f   ControlCenter.obj
 0001:00004310       ?StopLog@CControlCenter@@QAEXXZ 00405310 f   ControlCenter.obj
 0001:00004360       ?IsCommSockData@CControlCenter@@IAEHPAE@Z 00405360 f   ControlCenter.obj
 0001:000043e0       ?GetCount@?$CMap@GGPAUClient_Info@@PAU1@@@QBEHXZ 004053e0 f i ControlCenter.obj
 0001:000043f0       ?GetStartPosition@?$CMap@GGPAUClient_Info@@PAU1@@@QBEPAU__POSITION@@XZ 004053f0 f i ControlCenter.obj
 0001:00004400       ?GetNextAssoc@?$CMap@GGPAUClient_Info@@PAU1@@@QBEXAAPAU__POSITION@@AAGAAPAUClient_Info@@@Z 00405400 f i ControlCenter.obj
 0001:00004490       ?RemoveAll@?$CMap@GGPAUClient_Info@@PAU1@@@QAEXXZ 00405490 f i ControlCenter.obj
 0001:000044e0       ?FreeAssoc@?$CMap@GGPAUClient_Info@@PAU1@@@IAEXPAVCAssoc@1@@Z 004054e0 f i ControlCenter.obj
 0001:00004500       ??$HashKey@G@@YGIG@Z       00405500 f i ControlCenter.obj
 0001:00004510       ??$CompareElements@GG@@YGHPBG0@Z 00405510 f i ControlCenter.obj
 0001:00004540       ?InitHashTable@?$CMap@GGPAUClient_Info@@PAU1@@@QAEXIH@Z 00405540 f i ControlCenter.obj
 0001:000045b0       ??0CPair@?$CMap@GGPAUClient_Info@@PAU1@@@IAE@G@Z 004055b0 f i ControlCenter.obj
 0001:000045c0       ?data@CPlex@@QAEPAXXZ      004055c0 f i ControlCenter.obj
 0001:000045d0       ?ProcessRequest@CControlCenter@@IAEXKPAUPRT_BUFF@@@Z 004055d0 f   ControlCenter.obj
 0001:00004600       ?SendUp@CControlCenter@@IAEKGPAUPRT_BUFF@@H@Z 00405600 f   ControlCenter.obj
 0001:000046a0       ?SendUp@CControlCenter@@IAEKGKEEH@Z 004056a0 f   ControlCenter.obj
 0001:00004770       ?GetClientInfo@CControlCenter@@QAEIPAPAUClient_Info@@@Z 00405770 f   ControlCenter.obj
 0001:00004830       ?TellClientsEndian@CControlCenter@@IAEXXZ 00405830 f   ControlCenter.obj
 0001:000048a0       ?TellClientsConnectState@CControlCenter@@QAEXH@Z 004058a0 f   ControlCenter.obj
 0001:00004920       ??0?$CMap@GGPAUClient_Info@@PAU1@@@QAE@H@Z 00405920 f i ControlCenter.obj
 0001:00004950       ?EnsureRead@CArchive@@QAEXPAXI@Z 00405950 f i ControlCenter.obj
 0001:00004980       ?RemoveKey@?$CMap@GGPAUClient_Info@@PAU1@@@QAEHG@Z 00405980 f i ControlCenter.obj
 0001:000049f0       ??1?$CMap@GGPAUClient_Info@@PAU1@@@UAE@XZ 004059f0 f i ControlCenter.obj
 0001:00004a00       ??_E?$CMap@GGPAUClient_Info@@PAU1@@@UAEPAXI@Z 00405a00 f i ControlCenter.obj
 0001:00004a00       ??_G?$CMap@GGPAUClient_Info@@PAU1@@@UAEPAXI@Z 00405a00 f i ControlCenter.obj
 0001:00004a20       ?GetAssocAt@?$CMap@GGPAUClient_Info@@PAU1@@@IBEPAVCAssoc@1@GAAI0@Z 00405a20 f i ControlCenter.obj
 0001:00004a80       ??$SerializeElements@G@@YGXAAVCArchive@@PAGH@Z 00405a80 f i ControlCenter.obj
 0001:00004b20       ??$SerializeElements@PAUClient_Info@@@@YGXAAVCArchive@@PAPAUClient_Info@@H@Z 00405b20 f i ControlCenter.obj
 0001:00004bd0       ??0CAssoc@?$CMap@GGPAUClient_Info@@PAU1@@@QAE@G@Z 00405bd0 f i ControlCenter.obj
 0001:00004be0       ??0CControlCenter@@QAE@XZ  00405be0 f   ControlCenter.obj
 0001:00004cd0       ??1CControlCenter@@UAE@XZ  00405cd0 f   ControlCenter.obj
 0001:00004d70       ?Lookup@?$CMap@GGPAUClient_Info@@PAU1@@@QBEHGAAPAUClient_Info@@@Z 00405d70 f i ControlCenter.obj
 0001:00004da0       ?NewAssoc@?$CMap@GGPAUClient_Info@@PAU1@@@IAEPAVCAssoc@1@G@Z 00405da0 f i ControlCenter.obj
 0001:00004e20       ??_ECControlCenter@@UAEPAXI@Z 00405e20 f i ControlCenter.obj
 0001:00004e20       ??_GCControlCenter@@UAEPAXI@Z 00405e20 f i ControlCenter.obj
 0001:00004e40       ?OnItcReq@CControlCenter@@IAEHKPAUPRT_BUFF@@@Z 00405e40 f   ControlCenter.obj
 0001:000051d0       ??A?$CMap@GGPAUClient_Info@@PAU1@@@QAEAAPAUClient_Info@@G@Z 004061d0 f i ControlCenter.obj
 0001:00005240       ?ProcessData@CControlCenter@@IAEXKPAUPRT_BUFF@@@Z 00406240 f   ControlCenter.obj
 0001:00005330       ?SetAt@?$CMap@GGPAUClient_Info@@PAU1@@@QAEXGPAUClient_Info@@@Z 00406330 f i ControlCenter.obj
 0001:00005350       ?Serialize@?$CMap@GGPAUClient_Info@@PAU1@@@UAEXAAVCArchive@@@Z 00406350 f i ControlCenter.obj
 0001:00005400       ?OnChannelData@CControlCenter@@UAEHPAXK@Z 00406400 f   ControlCenter.obj
 0001:000056f0       ?OnChannelEvent@CControlCenter@@UAEHIPAX@Z 004066f0 f   ControlCenter.obj
 0001:00005810       ?RefreshClientInfo@CControlCenter@@IAEXXZ 00406810 f   ControlCenter.obj
 0001:00005c40       ?AddClient@CControlCenter@@IAEXK@Z 00406c40 f   ControlCenter.obj
 0001:00005c50       ?RemoveClient@CControlCenter@@IAEXK@Z 00406c50 f   ControlCenter.obj
 0001:00005c60       ?OnTimerInterval@CControlCenter@@QAEXXZ 00406c60 f   ControlCenter.obj
 0001:00005d10       ?OnHiLvlEvent@CControlCenter@@QAEHIPAX@Z 00406d10 f   ControlCenter.obj
 0001:00005d40       ?OnHiLvlData@CControlCenter@@QAEHPAXK@Z 00406d40 f   ControlCenter.obj
 0001:00005ec0       ?PreTranslateMessage@CDlgFileConfig@@UAEHPAUtagMSG@@@Z 00406ec0 f   DlgFileConfig.obj
 0001:00005ef0       ?memmove_s@Checked@ATL@@YAXPAXIPBXI@Z 00406ef0 f i DlgFileConfig.obj
 0001:00005f20       ?ElementAt@CStringArray@@QAEAAV?$CStringT@_WV?$StrTraitMFC@_WV?$ChTraitsCRT@_W@ATL@@@@@ATL@@H@Z 00406f20 f i DlgFileConfig.obj
 0001:00005f40       ??ACStringArray@@QAEAAV?$CStringT@_WV?$StrTraitMFC@_WV?$ChTraitsCRT@_W@ATL@@@@@ATL@@H@Z 00406f40 f i DlgFileConfig.obj
 0001:00005f60       ?GetStartPosition@CFileDialog@@QBEPAU__POSITION@@XZ 00406f60 f i DlgFileConfig.obj
 0001:00005f70       ?StringLengthN@?$CSimpleStringT@_W$0A@@ATL@@SAHPB_WI@Z 00406f70 f i DlgFileConfig.obj
 0001:00005f90       ?DoDataExchange@CDlgFileConfig@@MAEXPAVCDataExchange@@@Z 00406f90 f   DlgFileConfig.obj
 0001:00005fc0       ?DeleteMergedFile@CDlgFileConfig@@QAEXXZ 00406fc0 f   DlgFileConfig.obj
 0001:00005fd0       ?ReleaseBuffer@?$CSimpleStringT@_W$0A@@ATL@@QAEXH@Z 00406fd0 f i DlgFileConfig.obj
 0001:00006020       ?MergeChannelFiles@CDlgFileConfig@@QAEHXZ 00407020 f   DlgFileConfig.obj
 0001:00006280       ?TrimLeft@?$CStringT@_WV?$StrTraitMFC@_WV?$ChTraitsCRT@_W@ATL@@@@@ATL@@QAEAAV12@XZ 00407280 f i DlgFileConfig.obj
 0001:00006320       ?Append@?$CSimpleStringT@_W$0A@@ATL@@QAEXPB_WH@Z 00407320 f i DlgFileConfig.obj
 0001:000063f0       ?ChangeDialogFont@CDlgFileConfig@@QAEXPAVCFont@@@Z 004073f0 f   DlgFileConfig.obj
 0001:00006890       ?Append@?$CSimpleStringT@_W$0A@@ATL@@QAEXPB_W@Z 00407890 f i DlgFileConfig.obj
 0001:000068d0       ?Append@?$CSimpleStringT@_W$0A@@ATL@@QAEXABV12@@Z 004078d0 f i DlgFileConfig.obj
 0001:000068f0       ?CheckConfig@CDlgFileConfig@@QAEHXZ 004078f0 f   DlgFileConfig.obj
 0001:00006930       ?UpdateConfig@CDlgFileConfig@@QAEXXZ 00407930 f   DlgFileConfig.obj
 0001:00006960       ?OnInitDialog@CDlgFileConfig@@MAEHXZ 00407960 f   DlgFileConfig.obj
 0001:00006990       ??Y?$CSimpleStringT@_W$0A@@ATL@@QAEAAV01@ABV01@@Z 00407990 f i DlgFileConfig.obj
 0001:000069b0       ??Y?$CSimpleStringT@_W$0A@@ATL@@QAEAAV01@PB_W@Z 004079b0 f i DlgFileConfig.obj
 0001:000069f0       ??0CDlgFileConfig@@QAE@PAVCWnd@@@Z 004079f0 f   DlgFileConfig.obj
 0001:00006bd0       ??_ECDlgFileConfig@@UAEPAXI@Z 00407bd0 f i DlgFileConfig.obj
 0001:00006bd0       ??_GCDlgFileConfig@@UAEPAXI@Z 00407bd0 f i DlgFileConfig.obj
 0001:00006bf0       ?GetCurFile@CDlgFileConfig@@QAEPB_WH@Z 00407bf0 f   DlgFileConfig.obj
 0001:00006d10       ??Y?$CStringT@_WV?$StrTraitMFC@_WV?$ChTraitsCRT@_W@ATL@@@@@ATL@@QAEAAV01@ABV?$CSimpleStringT@_W$0A@@1@@Z 00407d10 f i DlgFileConfig.obj
 0001:00006d30       ??Y?$CStringT@_WV?$StrTraitMFC@_WV?$ChTraitsCRT@_W@ATL@@@@@ATL@@QAEAAV01@PB_W@Z 00407d30 f i DlgFileConfig.obj
 0001:00006d70       ?OnBtnBrw@CDlgFileConfig@@IAEXXZ 00407d70 f   DlgFileConfig.obj
 0001:00006f40       ?LoadConfig@CDlgFileConfig@@QAEXPB_W@Z 00407f40 f   DlgFileConfig.obj
 0001:00007070       ?SaveConfig@CDlgFileConfig@@QAEXPB_W@Z 00408070 f   DlgFileConfig.obj
 0001:00007190       ?GetFlowType@CDlgFileConfig@@QAEHXZ 00408190 f   DlgFileConfig.obj
 0001:000073b0       ?GetThisMessageMap@CDlgFileConfig@@KGPBUAFX_MSGMAP@@XZ 004083b0 f   DlgFileConfig.obj
 0001:000073c0       ?GetMessageMap@CDlgFileConfig@@MBEPBUAFX_MSGMAP@@XZ 004083c0 f   DlgFileConfig.obj
 0001:000073d0       ?GetThisMessageMap@CDlgSocketConfig@@KGPBUAFX_MSGMAP@@XZ 004083d0 f   DlgSocketConfig.obj
 0001:000073e0       ?CheckPort@CDlgSocketConfig@@QAEHXZ 004083e0 f   DlgSocketConfig.obj
 0001:00007430       ?PreTranslateMessage@CDlgSocketConfig@@UAEHPAUtagMSG@@@Z 00408430 f   DlgSocketConfig.obj
 0001:00007460       ??0CIPAddressCtrl@@QAE@XZ  00408460 f i DlgSocketConfig.obj
 0001:00007480       ??_GCIPAddressCtrl@@UAEPAXI@Z 00408480 f i DlgSocketConfig.obj
 0001:00007480       ??_ECIPAddressCtrl@@UAEPAXI@Z 00408480 f i DlgSocketConfig.obj
 0001:000074a0       ?GetAddress@CIPAddressCtrl@@QBEHAAK@Z 004084a0 f i DlgSocketConfig.obj
 0001:000074c0       ?DoDataExchange@CDlgSocketConfig@@MAEXPAVCDataExchange@@@Z 004084c0 f   DlgSocketConfig.obj
 0001:00007500       ?GetMessageMap@CDlgSocketConfig@@MBEPBUAFX_MSGMAP@@XZ 00408500 f   DlgSocketConfig.obj
 0001:00007510       ?CheckIP@CDlgSocketConfig@@QAEHXZ 00408510 f   DlgSocketConfig.obj
 0001:00007560       ?CheckConfig@CDlgSocketConfig@@QAEHXZ 00408560 f   DlgSocketConfig.obj
 0001:00007580       ?OnInitDialog@CDlgSocketConfig@@MAEHXZ 00408580 f   DlgSocketConfig.obj
 0001:000075c0       ?UpdateConfig@CDlgSocketConfig@@QAEXXZ 004085c0 f   DlgSocketConfig.obj
 0001:00007610       ?ChangeDialogFont@CDlgSocketConfig@@QAEXPAVCFont@@@Z 00408610 f   DlgSocketConfig.obj
 0001:00007ac0       ??0CDlgSocketConfig@@QAE@PAVCWnd@@@Z 00408ac0 f   DlgSocketConfig.obj
 0001:00007bb0       ??_ECDlgSocketConfig@@UAEPAXI@Z 00408bb0 f i DlgSocketConfig.obj
 0001:00007bb0       ??_GCDlgSocketConfig@@UAEPAXI@Z 00408bb0 f i DlgSocketConfig.obj
 0001:00007bd0       ?LoadConfig@CDlgSocketConfig@@QAEXPB_W@Z 00408bd0 f   DlgSocketConfig.obj
 0001:00007d50       ?SaveConfig@CDlgSocketConfig@@QAEXPB_W@Z 00408d50 f   DlgSocketConfig.obj
 0001:00007e90       ?assign@?$char_traits@D@std@@SAXAADABD@Z 00408e90 f i DlgUartConfig.obj
 0001:00007ea0       ?length@?$char_traits@D@std@@SAIPBD@Z 00408ea0 f i DlgUartConfig.obj
 0001:00007ec0       ?_Copy_s@?$char_traits@D@std@@SAPADPADIPBDI@Z 00408ec0 f i DlgUartConfig.obj
 0001:00007ef0       ?_Move_s@?$char_traits@D@std@@SAPADPADIPBDI@Z 00408ef0 f i DlgUartConfig.obj
 0001:00007f20       ??0_Aux_cont@std@@QAE@QBV_Container_base_aux@1@@Z 00408f20 f i DlgUartConfig.obj
 0001:00007f30       ?_Getcont@_Aux_cont@std@@QBEPBV_Container_base_aux@2@XZ 00408f30 f i DlgUartConfig.obj
 0001:00007f40       ??0_Container_base_aux@std@@QAE@XZ 00408f40 f i DlgUartConfig.obj
 0001:00007f50       ??0_Iterator_base_aux@std@@QAE@XZ 00408f50 f i DlgUartConfig.obj
 0001:00007f60       ?_Set_container@_Iterator_base_aux@std@@QAEXQBV_Container_base_aux@2@@Z 00408f60 f i DlgUartConfig.obj
 0001:00007f70       ?_Getmycont@_Iterator_base_aux@std@@QBEPBV_Container_base_aux@2@XZ 00408f70 f i DlgUartConfig.obj
 0001:00007f80       ?_Same_container@_Iterator_base_aux@std@@QBE_NABV12@@Z 00408f80 f i DlgUartConfig.obj
 0001:00007fa0       ?_Has_container@_Iterator_base_aux@std@@QBE_NXZ 00408fa0 f i DlgUartConfig.obj
 0001:00007fb0       ??0bad_alloc@std@@QAE@PBD@Z 00408fb0 f i DlgUartConfig.obj
 0001:00007fd0       ??1bad_alloc@std@@UAE@XZ   00408fd0 f i DlgUartConfig.obj
 0001:00007fe0       ??_Gbad_alloc@std@@UAEPAXI@Z 00408fe0 f i DlgUartConfig.obj
 0001:00007fe0       ??_Ebad_alloc@std@@UAEPAXI@Z 00408fe0 f i DlgUartConfig.obj
 0001:00008010       ?GetThisMessageMap@CDlgUartConfig@@KGPBUAFX_MSGMAP@@XZ 00409010 f   DlgUartConfig.obj
 0001:00008020       ?OnInitDialog@CDlgUartConfig@@MAEHXZ 00409020 f   DlgUartConfig.obj
 0001:00008060       ?LoadPortFilters@CDlgUartConfig@@QAEXPB_W@Z 00409060 f   DlgUartConfig.obj
 0001:00008130       ?PreTranslateMessage@CDlgUartConfig@@UAEHPAUtagMSG@@@Z 00409130 f   DlgUartConfig.obj
 0001:00008160       ?size@?$vector@UDEV_INFO@@V?$allocator@UDEV_INFO@@@std@@@std@@QBEIXZ 00409160 f i DlgUartConfig.obj
 0001:00008180       ??A?$vector@UDEV_INFO@@V?$allocator@UDEV_INFO@@@std@@@std@@QAEAAUDEV_INFO@@I@Z 00409180 f i DlgUartConfig.obj
 0001:000081c0       ?_Myptr@?$basic_string@DU?$char_traits@D@std@@V?$allocator@D@2@@std@@IBEPBDXZ 004091c0 f i DlgUartConfig.obj
 0001:000081d0       ?capacity@?$vector@UDEV_INFO@@V?$allocator@UDEV_INFO@@@std@@@std@@QBEIXZ 004091d0 f i DlgUartConfig.obj
 0001:000081f0       ??0?$allocator@UDEV_INFO@@@std@@QAE@XZ 004091f0 f i DlgUartConfig.obj
 0001:00008200       ?size@?$basic_string@DU?$char_traits@D@std@@V?$allocator@D@2@@std@@QBEIXZ 00409200 f i DlgUartConfig.obj
 0001:00008210       ?_Myptr@?$basic_string@DU?$char_traits@D@std@@V?$allocator@D@2@@std@@IAEPADXZ 00409210 f i DlgUartConfig.obj
 0001:00008220       ??0?$allocator@D@std@@QAE@ABV01@@Z 00409220 f i DlgUartConfig.obj
 0001:00008230       ?deallocate@?$allocator@D@std@@QAEXPADI@Z 00409230 f i DlgUartConfig.obj
 0001:00008240       ??0?$allocator@UDEV_INFO@@@std@@QAE@ABV01@@Z 00409240 f i DlgUartConfig.obj
 0001:00008250       ??G?$_Vector_const_iterator@UDEV_INFO@@V?$allocator@UDEV_INFO@@@std@@@std@@QBEHABV01@@Z 00409250 f i DlgUartConfig.obj
 0001:00008290       ?max_size@?$allocator@UDEV_INFO@@@std@@QBEIXZ 00409290 f i DlgUartConfig.obj
 0001:000082a0       ??8?$_Vector_const_iterator@UDEV_INFO@@V?$allocator@UDEV_INFO@@@std@@@std@@QBE_NABV01@@Z 004092a0 f i DlgUartConfig.obj
 0001:000082d0       ??0?$_Iterator_with_base@Urandom_access_iterator_tag@std@@UDEV_INFO@@HPBU3@ABU3@V_Iterator_base_aux@2@@std@@QAE@XZ 004092d0 f i DlgUartConfig.obj
 0001:000082e0       ??0?$_String_val@DV?$allocator@D@std@@@std@@IAE@V?$allocator@D@1@@Z 004092e0 f i DlgUartConfig.obj
 0001:000082f0       ??0?$allocator@D@std@@QAE@XZ 004092f0 f i DlgUartConfig.obj
 0001:00008300       ?max_size@?$allocator@D@std@@QBEIXZ 00409300 f i DlgUartConfig.obj
 0001:00008310       ??Y?$_Vector_const_iterator@UDEV_INFO@@V?$allocator@UDEV_INFO@@@std@@@std@@QAEAAV01@H@Z 00409310 f i DlgUartConfig.obj
 0001:00008360       ?_Inside@?$basic_string@DU?$char_traits@D@std@@V?$allocator@D@2@@std@@IAE_NPBD@Z 00409360 f i DlgUartConfig.obj
 0001:000083a0       ??$?0UDEV_INFO@@@?$allocator@V_Aux_cont@std@@@std@@QAE@ABV?$allocator@UDEV_INFO@@@1@@Z 004093a0 f i DlgUartConfig.obj
 0001:000083b0       ??$_Allocate@UDEV_INFO@@@std@@YAPAUDEV_INFO@@IPAU1@@Z 004093b0 f i DlgUartConfig.obj
 0001:00008410       ??$_Allocate@V_Aux_cont@std@@@std@@YAPAV_Aux_cont@0@IPAV10@@Z 00409410 f i DlgUartConfig.obj
 0001:00008470       ??$_Allocate@D@std@@YAPADIPAD@Z 00409470 f i DlgUartConfig.obj
 0001:000084d0       ??0bad_alloc@std@@QAE@ABV01@@Z 004094d0 f i DlgUartConfig.obj
 0001:000084f0       ??$_Char_traits_cat@U?$char_traits@D@std@@@std@@YA?AU_Secure_char_traits_tag@0@XZ 004094f0 f i DlgUartConfig.obj
 0001:00008500       ??$copy_s@U?$char_traits@D@std@@@_Traits_helper@std@@YAPADPADIPBDIU_Secure_char_traits_tag@1@@Z 00409500 f i DlgUartConfig.obj
 0001:00008530       ??$_Iter_random@PAUDEV_INFO@@PAU1@@std@@YA?AUrandom_access_iterator_tag@0@ABQAUDEV_INFO@@0@Z 00409530 f i DlgUartConfig.obj
 0001:00008540       ??$move_s@U?$char_traits@D@std@@@_Traits_helper@std@@YAPADPADIPBDIU_Secure_char_traits_tag@1@@Z 00409540 f i DlgUartConfig.obj
 0001:00008570       ??$_Fill@PAUDEV_INFO@@U1@@std@@YAXPAUDEV_INFO@@0ABU1@@Z 00409570 f i DlgUartConfig.obj
 0001:000085a0       ??$_Move_cat@PAUDEV_INFO@@@std@@YA?AU_Undefined_move_tag@0@ABQAUDEV_INFO@@@Z 004095a0 f i DlgUartConfig.obj
 0001:000085b0       ??$_Checked_base@PAUDEV_INFO@@@std@@YAPAUDEV_INFO@@AAPAU1@U_Unchanged_checked_iterator_base_type_tag@0@@Z 004095b0 f i DlgUartConfig.obj
 0001:000085c0       ??$_Copy_opt@PAUDEV_INFO@@PAU1@Uforward_iterator_tag@std@@@std@@YAPAUDEV_INFO@@PAU1@00Uforward_iterator_tag@0@U_Nonscalar_ptr_iterator_tag@0@U_Range_checked_iterator_tag@0@@Z 004095c0 f i DlgUartConfig.obj
 0001:00008600       ??$_Construct@UDEV_INFO@@U1@@std@@YAXPAUDEV_INFO@@ABU1@@Z 00409600 f i DlgUartConfig.obj
 0001:00008620       ??$_Copy_backward_opt@PAUDEV_INFO@@PAU1@Uforward_iterator_tag@std@@@std@@YAPAUDEV_INFO@@PAU1@00Uforward_iterator_tag@0@U_Nonscalar_ptr_iterator_tag@0@U_Range_checked_iterator_tag@0@@Z 00409620 f i DlgUartConfig.obj
 0001:00008660       ?StringCompareIgnore@?$ChTraitsCRT@_W@ATL@@SAHPB_W0@Z 00409660 f i DlgUartConfig.obj
 0001:00008670       ?GetSize@CStringArray@@QBEHXZ 00409670 f i DlgUartConfig.obj
 0001:00008680       ?GetItemData@CComboBox@@QBEKH@Z 00409680 f i DlgUartConfig.obj
 0001:000086a0       ?SetItemData@CComboBox@@QAEHHK@Z 004096a0 f i DlgUartConfig.obj
 0001:000086c0       ?AddString@CComboBox@@QAEHPB_W@Z 004096c0 f i DlgUartConfig.obj
 0001:000086e0       ?ResetContent@CComboBox@@QAEXXZ 004096e0 f i DlgUartConfig.obj
 0001:00008700       ?DoDataExchange@CDlgUartConfig@@MAEXPAVCDataExchange@@@Z 00409700 f   DlgUartConfig.obj
 0001:00008750       ?GetMessageMap@CDlgUartConfig@@MBEPBUAFX_MSGMAP@@XZ 00409750 f   DlgUartConfig.obj
 0001:00008760       ?RecreatePortCtrl@CDlgUartConfig@@QAEHHH@Z 00409760 f   DlgUartConfig.obj
 0001:00008830       ?CompareNoCase@?$CStringT@_WV?$StrTraitMFC@_WV?$ChTraitsCRT@_W@ATL@@@@@ATL@@QBEHPB_W@Z 00409830 f i DlgUartConfig.obj
 0001:00008860       ??0?$_String_val@DV?$allocator@D@std@@@std@@QAE@ABV01@@Z 00409860 f i DlgUartConfig.obj
 0001:00008870       ?_Eos@?$basic_string@DU?$char_traits@D@std@@V?$allocator@D@2@@std@@IAEXI@Z 00409870 f i DlgUartConfig.obj
 0001:00008890       ?max_size@?$vector@UDEV_INFO@@V?$allocator@UDEV_INFO@@@std@@@std@@QBEIXZ 00409890 f i DlgUartConfig.obj
 0001:000088a0       ?allocate@?$allocator@UDEV_INFO@@@std@@QAEPAUDEV_INFO@@I@Z 004098a0 f i DlgUartConfig.obj
 0001:000088c0       ??9?$_Vector_const_iterator@UDEV_INFO@@V?$allocator@UDEV_INFO@@@std@@@std@@QBE_NABV01@@Z 004098c0 f i DlgUartConfig.obj
 0001:000088f0       ?max_size@?$basic_string@DU?$char_traits@D@std@@V?$allocator@D@2@@std@@QBEIXZ 004098f0 f i DlgUartConfig.obj
 0001:00008900       ?allocate@?$allocator@V_Aux_cont@std@@@std@@QAEPAV_Aux_cont@2@I@Z 00409900 f i DlgUartConfig.obj
 0001:00008920       ??Y?$_Vector_iterator@UDEV_INFO@@V?$allocator@UDEV_INFO@@@std@@@std@@QAEAAV01@H@Z 00409920 f i DlgUartConfig.obj
 0001:00008970       ??0?$_Ranit@UDEV_INFO@@HPBU1@ABU1@@std@@QAE@XZ 00409970 f i DlgUartConfig.obj
 0001:00008980       ?allocate@?$allocator@D@std@@QAEPADI@Z 00409980 f i DlgUartConfig.obj
 0001:000089a0       ??$copy_s@U?$char_traits@D@std@@@_Traits_helper@std@@YAPADPADIPBDI@Z 004099a0 f i DlgUartConfig.obj
 0001:000089d0       ??$move_s@U?$char_traits@D@std@@@_Traits_helper@std@@YAPADPADIPBDI@Z 004099d0 f i DlgUartConfig.obj
 0001:00008a00       ??$_Checked_base@PAUDEV_INFO@@@std@@YAPAUDEV_INFO@@AAPAU1@@Z 00409a00 f i DlgUartConfig.obj
 0001:00008a10       ??$_Copy_opt@PAUDEV_INFO@@PAU1@@std@@YAPAUDEV_INFO@@PAU1@00Urandom_access_iterator_tag@0@U_Nonscalar_ptr_iterator_tag@0@U_Range_checked_iterator_tag@0@@Z 00409a10 f i DlgUartConfig.obj
 0001:00008a60       ?construct@?$allocator@UDEV_INFO@@@std@@QAEXPAUDEV_INFO@@ABU3@@Z 00409a60 f i DlgUartConfig.obj
 0001:00008a80       ??$_Copy_backward_opt@PAUDEV_INFO@@PAU1@@std@@YAPAUDEV_INFO@@PAU1@00Urandom_access_iterator_tag@0@U_Nonscalar_ptr_iterator_tag@0@U_Range_checked_iterator_tag@0@@Z 00409a80 f i DlgUartConfig.obj
 0001:00008ae0       ??$_Uninit_copy@PAUDEV_INFO@@PAU1@V?$allocator@UDEV_INFO@@@std@@@std@@YAPAUDEV_INFO@@PAU1@00AAV?$allocator@UDEV_INFO@@@0@U_Nonscalar_ptr_iterator_tag@0@U_Range_checked_iterator_tag@0@@Z 00409ae0 f i DlgUartConfig.obj
 0001:00008b20       ?_Tidy@?$basic_string@DU?$char_traits@D@std@@V?$allocator@D@2@@std@@IAEX_NI@Z 00409b20 f i DlgUartConfig.obj
 0001:00008b70       ?erase@?$basic_string@DU?$char_traits@D@std@@V?$allocator@D@2@@std@@QAEAAV12@II@Z 00409b70 f i DlgUartConfig.obj
 0001:00008c00       ??0?$_Container_base_aux_alloc_real@V?$allocator@UDEV_INFO@@@std@@@std@@IAE@V?$allocator@UDEV_INFO@@@1@@Z 00409c00 f i DlgUartConfig.obj
 0001:00008c30       ??H?$_Vector_iterator@UDEV_INFO@@V?$allocator@UDEV_INFO@@@std@@@std@@QBE?AV01@H@Z 00409c30 f i DlgUartConfig.obj
 0001:00008c80       ?_Copy@?$basic_string@DU?$char_traits@D@std@@V?$allocator@D@2@@std@@IAEXII@Z 00409c80 f i DlgUartConfig.obj
 0001:00008dc0       ??0?$_Vector_const_iterator@UDEV_INFO@@V?$allocator@UDEV_INFO@@@std@@@std@@QAE@PAUDEV_INFO@@PBV_Container_base_aux@1@@Z 00409dc0 f i DlgUartConfig.obj
 0001:00008e00       ??$unchecked_copy@PAUDEV_INFO@@PAU1@@stdext@@YAPAUDEV_INFO@@PAU1@00@Z 00409e00 f i DlgUartConfig.obj
 0001:00008e30       ??$fill@PAUDEV_INFO@@U1@@std@@YAXPAUDEV_INFO@@0ABU1@@Z 00409e30 f i DlgUartConfig.obj
 0001:00008e60       ??$_Uninit_fill_n@PAUDEV_INFO@@IU1@V?$allocator@UDEV_INFO@@@std@@@std@@YAXPAUDEV_INFO@@IABU1@AAV?$allocator@UDEV_INFO@@@0@U_Nonscalar_ptr_iterator_tag@0@U_Range_checked_iterator_tag@0@@Z 00409e60 f i DlgUartConfig.obj
 0001:00008e90       ??$_Move_backward_opt@PAUDEV_INFO@@PAU1@Urandom_access_iterator_tag@std@@U_Undefined_move_tag@3@@std@@YAPAUDEV_INFO@@PAU1@00Urandom_access_iterator_tag@0@U_Undefined_move_tag@0@U_Range_checked_iterator_tag@0@@Z 00409e90 f i DlgUartConfig.obj
 0001:00008ec0       ??$unchecked_uninitialized_copy@PAUDEV_INFO@@PAU1@V?$allocator@UDEV_INFO@@@std@@@stdext@@YAPAUDEV_INFO@@PAU1@00AAV?$allocator@UDEV_INFO@@@std@@@Z 00409ec0 f i DlgUartConfig.obj
 0001:00008ef0       ??1?$basic_string@DU?$char_traits@D@std@@V?$allocator@D@2@@std@@QAE@XZ 00409ef0 f i DlgUartConfig.obj
 0001:00008f20       ??0?$_Vector_val@UDEV_INFO@@V?$allocator@UDEV_INFO@@@std@@@std@@IAE@V?$allocator@UDEV_INFO@@@1@@Z 00409f20 f i DlgUartConfig.obj
 0001:00008f50       ?_Grow@?$basic_string@DU?$char_traits@D@std@@V?$allocator@D@2@@std@@IAE_NI_N@Z 00409f50 f i DlgUartConfig.obj
 0001:00009010       ??0?$_Vector_iterator@UDEV_INFO@@V?$allocator@UDEV_INFO@@@std@@@std@@QAE@PAUDEV_INFO@@PBV_Container_base_aux@1@@Z 0040a010 f i DlgUartConfig.obj
 0001:00009050       ??$unchecked_uninitialized_fill_n@PAUDEV_INFO@@IU1@V?$allocator@UDEV_INFO@@@std@@@stdext@@YAXPAUDEV_INFO@@IABU1@AAV?$allocator@UDEV_INFO@@@std@@@Z 0040a050 f i DlgUartConfig.obj
 0001:00009080       ??$_Unchecked_move_backward@PAUDEV_INFO@@PAU1@@stdext@@YAPAUDEV_INFO@@PAU1@00@Z 0040a080 f i DlgUartConfig.obj
 0001:000090b0       ??$_Uninit_move@PAUDEV_INFO@@PAU1@V?$allocator@UDEV_INFO@@@std@@U_Undefined_move_tag@3@@std@@YAPAUDEV_INFO@@PAU1@00AAV?$allocator@UDEV_INFO@@@0@U_Undefined_move_tag@0@U_Range_checked_iterator_tag@0@@Z 0040a0b0 f i DlgUartConfig.obj
 0001:000090e0       ??1logic_error@std@@UAE@XZ 0040a0e0 f i DlgUartConfig.obj
 0001:00009120       ?c_str@?$basic_string@DU?$char_traits@D@std@@V?$allocator@D@2@@std@@QBEPBDXZ 0040a120 f i DlgUartConfig.obj
 0001:00009130       ?what@logic_error@std@@UBEPBDXZ 0040a130 f i DlgUartConfig.obj
 0001:00009140       ??_Glogic_error@std@@UAEPAXI@Z 0040a140 f i DlgUartConfig.obj
 0001:00009140       ??_Elogic_error@std@@UAEPAXI@Z 0040a140 f i DlgUartConfig.obj
 0001:00009190       ?assign@?$basic_string@DU?$char_traits@D@std@@V?$allocator@D@2@@std@@QAEAAV12@ABV12@II@Z 0040a190 f i DlgUartConfig.obj
 0001:00009270       ?begin@?$vector@UDEV_INFO@@V?$allocator@UDEV_INFO@@@std@@@std@@QAE?AV?$_Vector_iterator@UDEV_INFO@@V?$allocator@UDEV_INFO@@@std@@@2@XZ 0040a270 f i DlgUartConfig.obj
 0001:000092a0       ?end@?$vector@UDEV_INFO@@V?$allocator@UDEV_INFO@@@std@@@std@@QAE?AV?$_Vector_iterator@UDEV_INFO@@V?$allocator@UDEV_INFO@@@std@@@2@XZ 0040a2a0 f i DlgUartConfig.obj
 0001:000092d0       ?_Ufill@?$vector@UDEV_INFO@@V?$allocator@UDEV_INFO@@@std@@@std@@IAEPAUDEV_INFO@@PAU3@IABU3@@Z 0040a2d0 f i DlgUartConfig.obj
 0001:00009310       ?_Make_iter@?$vector@UDEV_INFO@@V?$allocator@UDEV_INFO@@@std@@@std@@QBE?AV?$_Vector_iterator@UDEV_INFO@@V?$allocator@UDEV_INFO@@@std@@@2@V?$_Vector_const_iterator@UDEV_INFO@@V?$allocator@UDEV_INFO@@@std@@@2@@Z 0040a310 f i DlgUartConfig.obj
 0001:00009350       ?assign@?$basic_string@DU?$char_traits@D@std@@V?$allocator@D@2@@std@@QAEAAV12@PBDI@Z 0040a350 f i DlgUartConfig.obj
 0001:00009430       ??$_Unchecked_uninitialized_move@PAUDEV_INFO@@PAU1@V?$allocator@UDEV_INFO@@@std@@@stdext@@YAPAUDEV_INFO@@PAU1@00AAV?$allocator@UDEV_INFO@@@std@@@Z 0040a430 f i DlgUartConfig.obj
 0001:00009460       ?ChangeDialogFont@CDlgUartConfig@@QAEXPAVCFont@@@Z 0040a460 f   DlgUartConfig.obj
 0001:00009950       ??0?$basic_string@DU?$char_traits@D@std@@V?$allocator@D@2@@std@@QAE@ABV01@@Z 0040a950 f i DlgUartConfig.obj
 0001:00009980       ?erase@?$vector@UDEV_INFO@@V?$allocator@UDEV_INFO@@@std@@@std@@QAE?AV?$_Vector_iterator@UDEV_INFO@@V?$allocator@UDEV_INFO@@@std@@@2@V?$_Vector_const_iterator@UDEV_INFO@@V?$allocator@UDEV_INFO@@@std@@@2@0@Z 0040a980 f i DlgUartConfig.obj
 0001:00009a10       ?assign@?$basic_string@DU?$char_traits@D@std@@V?$allocator@D@2@@std@@QAEAAV12@PBD@Z 0040aa10 f i DlgUartConfig.obj
 0001:00009a40       ??$_Umove@PAUDEV_INFO@@@?$vector@UDEV_INFO@@V?$allocator@UDEV_INFO@@@std@@@std@@IAEPAUDEV_INFO@@PAU2@00@Z 0040aa40 f i DlgUartConfig.obj
 0001:00009a70       ??0logic_error@std@@QAE@ABV?$basic_string@DU?$char_traits@D@std@@V?$allocator@D@2@@1@@Z 0040aa70 f i DlgUartConfig.obj
 0001:00009ae0       ??0length_error@std@@QAE@ABV?$basic_string@DU?$char_traits@D@std@@V?$allocator@D@2@@1@@Z 0040aae0 f i DlgUartConfig.obj
 0001:00009b00       ??1length_error@std@@UAE@XZ 0040ab00 f i DlgUartConfig.obj
 0001:00009b40       ??_Elength_error@std@@UAEPAXI@Z 0040ab40 f i DlgUartConfig.obj
 0001:00009b40       ??_Glength_error@std@@UAEPAXI@Z 0040ab40 f i DlgUartConfig.obj
 0001:00009b90       ?clear@?$vector@UDEV_INFO@@V?$allocator@UDEV_INFO@@@std@@@std@@QAEXXZ 0040ab90 f i DlgUartConfig.obj
 0001:00009bd0       ??0?$basic_string@DU?$char_traits@D@std@@V?$allocator@D@2@@std@@QAE@PBD@Z 0040abd0 f i DlgUartConfig.obj
 0001:00009c10       ?_GetPortInfo@CDlgUartConfig@@IAEXPAVCComboBox@@AAIAAV?$CStringT@_WV?$StrTraitMFC@_WV?$ChTraitsCRT@_W@ATL@@@@@ATL@@@Z 0040ac10 f   DlgUartConfig.obj
 0001:00009df0       ?_Xlen@?$vector@UDEV_INFO@@V?$allocator@UDEV_INFO@@@std@@@std@@KAXXZ 0040adf0 f i DlgUartConfig.obj
 0001:00009e70       ??0logic_error@std@@QAE@ABV01@@Z 0040ae70 f i DlgUartConfig.obj
 0001:00009ef0       ??0length_error@std@@QAE@ABV01@@Z 0040aef0 f i DlgUartConfig.obj
 0001:00009f10       ?UpdatePorts@CDlgUartConfig@@QAEXH@Z 0040af10 f   DlgUartConfig.obj
 0001:00009f70       ?IsRightPort@CDlgUartConfig@@QAEHKPB_WH@Z 0040af70 f   DlgUartConfig.obj
 0001:0000a260       ?LoadConfig@CDlgUartConfig@@QAEXPB_W@Z 0040b260 f   DlgUartConfig.obj
 0001:0000a490       ?SaveConfig@CDlgUartConfig@@QAEXPB_W@Z 0040b490 f   DlgUartConfig.obj
 0001:0000a690       ?CheckConfig@CDlgUartConfig@@QAEHXZ 0040b690 f   DlgUartConfig.obj
 0001:0000a880       ?UpdateConfig@CDlgUartConfig@@QAEXXZ 0040b880 f   DlgUartConfig.obj
 0001:0000a8d0       ?_Buy@?$vector@UDEV_INFO@@V?$allocator@UDEV_INFO@@@std@@@std@@IAE_NI@Z 0040b8d0 f i DlgUartConfig.obj
 0001:0000a920       ?_Insert_n@?$vector@UDEV_INFO@@V?$allocator@UDEV_INFO@@@std@@@std@@IAEXV?$_Vector_const_iterator@UDEV_INFO@@V?$allocator@UDEV_INFO@@@std@@@2@IABUDEV_INFO@@@Z 0040b920 f i DlgUartConfig.obj
 0001:0000abf0       ?UpdateControls@CDlgUartConfig@@QAEXH@Z 0040bbf0 f   DlgUartConfig.obj
 0001:0000aec0       ??0?$vector@UDEV_INFO@@V?$allocator@UDEV_INFO@@@std@@@std@@QAE@XZ 0040bec0 f i DlgUartConfig.obj
 0001:0000af20       ?insert@?$vector@UDEV_INFO@@V?$allocator@UDEV_INFO@@@std@@@std@@QAE?AV?$_Vector_iterator@UDEV_INFO@@V?$allocator@UDEV_INFO@@@std@@@2@V?$_Vector_const_iterator@UDEV_INFO@@V?$allocator@UDEV_INFO@@@std@@@2@ABUDEV_INFO@@@Z 0040bf20 f i DlgUartConfig.obj
 0001:0000aff0       ??0CDlgUartConfig@@QAE@PAVCWnd@@@Z 0040bff0 f   DlgUartConfig.obj
 0001:0000b120       ??_GCDlgUartConfig@@UAEPAXI@Z 0040c120 f i DlgUartConfig.obj
 0001:0000b120       ??_ECDlgUartConfig@@UAEPAXI@Z 0040c120 f i DlgUartConfig.obj
 0001:0000b140       ?push_back@?$vector@UDEV_INFO@@V?$allocator@UDEV_INFO@@@std@@@std@@QAEXABUDEV_INFO@@@Z 0040c140 f i DlgUartConfig.obj
 0001:0000b1f0       ?GetUartInfo@CDlgUartConfig@@QAEXXZ 0040c1f0 f   DlgUartConfig.obj
 0001:0000cc90       _dlmalloc                  0040dc90 f   dlmalloc.obj
 0001:0000cfb0       _dlfree                    0040dfb0 f   dlmalloc.obj
 0001:0000d680       _dlcalloc                  0040e680 f   dlmalloc.obj
 0001:0000d6e0       _dlmalloc_trim             0040e6e0 f   dlmalloc.obj
 0001:0000d7a0       _dlmalloc_footprint        0040e7a0 f   dlmalloc.obj
 0001:0000d7b0       _dlmalloc_max_footprint    0040e7b0 f   dlmalloc.obj
 0001:0000d7c0       _dlmallinfo                0040e7c0 f   dlmalloc.obj
 0001:0000d7f0       _dlmalloc_stats            0040e7f0 f   dlmalloc.obj
 0001:0000d800       _dlmallopt                 0040e800 f   dlmalloc.obj
 0001:0000d820       _dlmalloc_usable_size      0040e820 f   dlmalloc.obj
 0001:0000ded0       _dlrealloc                 0040eed0 f   dlmalloc.obj
 0001:0000df00       _dlmemalign                0040ef00 f   dlmalloc.obj
 0001:0000df20       _dlindependent_calloc      0040ef20 f   dlmalloc.obj
 0001:0000df50       _dlindependent_comalloc    0040ef50 f   dlmalloc.obj
 0001:0000df70       _dlvalloc                  0040ef70 f   dlmalloc.obj
 0001:0000dfa0       _dlpvalloc                 0040efa0 f   dlmalloc.obj
 0001:0000dfd0       ?wcschr@@YAPA_WPA_W_W@Z    0040efd0 f i Function.obj
 0001:0000dfe0       ?GetAppPath@@YAXPA_W@Z     0040efe0 f   Function.obj
 0001:0000e070       ?HiLvlRcvThread@@YAIPAX@Z  0040f070 f   MainFrm.obj
 0001:0000e0e0       ?GetRuntimeClass@CMainFrame@@UBEPAUCRuntimeClass@@XZ 0040f0e0 f   MainFrm.obj
 0001:0000e0f0       ?PreCreateWindow@CMainFrame@@UAEHAAUtagCREATESTRUCTW@@@Z 0040f0f0 f   MainFrm.obj
 0001:0000e120       ?CrashCallBack@@YAHPAU_EXCEPTION_POINTERS@@@Z 0040f120 f   MainFrm.obj
 0001:0000e130       ?OnCommSockData@CMainFrame@@IAEJIJ@Z 0040f130 f   MainFrm.obj
 0001:0000e150       ?OpenServer@CMainFrame@@QAEHXZ 0040f150 f   MainFrm.obj
 0001:0000e1f0       ?CloseServer@CMainFrame@@QAEHXZ 0040f1f0 f   MainFrm.obj
 0001:0000e220       ?OnUpdateChansvrConfig@CMainFrame@@IAEXPAVCCmdUI@@@Z 0040f220 f   MainFrm.obj
 0001:0000e240       ?OnUpdateConnectMssim@CMainFrame@@IAEXPAVCCmdUI@@@Z 0040f240 f   MainFrm.obj
 0001:0000e270       ?OnUpdateDisconnectMssim@CMainFrame@@IAEXPAVCCmdUI@@@Z 0040f270 f   MainFrm.obj
 0001:0000e2a0       ?OnLogData@CMainFrame@@IAEXXZ 0040f2a0 f   MainFrm.obj
 0001:0000e2d0       ?OnUpdateLogData@CMainFrame@@IAEXPAVCCmdUI@@@Z 0040f2d0 f   MainFrm.obj
 0001:0000e2f0       ?OnUpdateAssert@CMainFrame@@IAEXPAVCCmdUI@@@Z 0040f2f0 f   MainFrm.obj
 0001:0000e320       ?WindowProc@CMainFrame@@MAEJIIJ@Z 0040f320 f   MainFrm.obj
 0001:0000e330       ?ChangeIcon@CMainFrame@@IAEXXZ 0040f330 f   MainFrm.obj
 0001:0000e440       ?OnEndianEvent@CMainFrame@@IAEJIJ@Z 0040f440 f   MainFrm.obj
 0001:0000e450       ?AfxGetApp@@YGPAVCWinApp@@XZ 0040f450 f i MainFrm.obj
 0001:0000e460       ?AfxGetInstanceHandle@@YGPAUHINSTANCE__@@XZ 0040f460 f i MainFrm.obj
 0001:0000e470       ?AfxGetResourceHandle@@YGPAUHINSTANCE__@@XZ 0040f470 f i MainFrm.obj
 0001:0000e480       ??0CMenu@@QAE@XZ           0040f480 f i MainFrm.obj
 0001:0000e490       ??1CMenu@@UAE@XZ           0040f490 f i MainFrm.obj
 0001:0000e4a0       ?GetSubMenu@CMenu@@QBEPAV1@H@Z 0040f4a0 f i MainFrm.obj
 0001:0000e4c0       ?LoadMenuW@CMenu@@QAEHI@Z  0040f4c0 f i MainFrm.obj
 0001:0000e4f0       ?PostMessageW@CWnd@@QAEHIIJ@Z 0040f4f0 f i MainFrm.obj
 0001:0000e510       ?SetTimer@CWnd@@QAEIIIP6GXPAUHWND__@@IIK@Z@Z 0040f510 f i MainFrm.obj
 0001:0000e530       ?SetForegroundWindow@CWnd@@QAEHXZ 0040f530 f i MainFrm.obj
 0001:0000e540       ?OnTimer@CWnd@@IAEXI@Z     0040f540 f i MainFrm.obj
 0001:0000e550       ??0CWaitCursor@@QAE@XZ     0040f550 f i MainFrm.obj
 0001:0000e570       ??0CMainFrame@@IAE@XZ      0040f570 f   MainFrm.obj
 0001:0000e7a0       ?OnNifChanSvr@CMainFrame@@IAEJIJ@Z 0040f7a0 f   MainFrm.obj
 0001:0000e860       ?OnTimer@CMainFrame@@IAEXI@Z 0040f860 f   MainFrm.obj
 0001:0000ea00       ?OnAssert@CMainFrame@@IAEJIJ@Z 0040fa00 f   MainFrm.obj
 0001:0000ea20       ?Log@CMainFrame@@QAEXAAV?$CStringT@_WV?$StrTraitMFC@_WV?$ChTraitsCRT@_W@ATL@@@@@ATL@@@Z 0040fa20 f   MainFrm.obj
 0001:0000ea60       ??_ECMenu@@UAEPAXI@Z       0040fa60 f i MainFrm.obj
 0001:0000ea60       ??_GCMenu@@UAEPAXI@Z       0040fa60 f i MainFrm.obj
 0001:0000ea90       ?CreateObject@CMainFrame@@SGPAVCObject@@XZ 0040fa90 f   MainFrm.obj
 0001:0000eb00       ?StopSocketMonitor@CMainFrame@@QAEXXZ 0040fb00 f   MainFrm.obj
 0001:0000ebf0       ?TryToOpen@CMainFrame@@QAEHPAVIProtocolChannel@@AAU_CHANNEL_ATTRIBUTE@@@Z 0040fbf0 f   MainFrm.obj
 0001:0000ed10       ?OnNotify2Client@CMainFrame@@QAEXH@Z 0040fd10 f   MainFrm.obj
 0001:0000edf0       ??1CWaitCursor@@QAE@XZ     0040fdf0 f i MainFrm.obj
 0001:0000ef00       ??1CMainFrame@@UAE@XZ      0040ff00 f   MainFrm.obj
 0001:0000f020       ?OnConnectMssim@CMainFrame@@IAEXXZ 00410020 f   MainFrm.obj
 0001:0000f450       ?SocketMonitorFunc@CMainFrame@@QAEKXZ 00410450 f   MainFrm.obj
 0001:0000f4a0       ??_GCMainFrame@@UAEPAXI@Z  004104a0 f i MainFrm.obj
 0001:0000f4a0       ??_ECMainFrame@@UAEPAXI@Z  004104a0 f i MainFrm.obj
 0001:0000f4c0       ?GetThreadFunc@CMainFrame@@SGKPAX@Z 004104c0 f   MainFrm.obj
 0001:0000f4d0       ?StartSocketMonitor@CMainFrame@@QAEXXZ 004104d0 f   MainFrm.obj
 0001:0000f5e0       ?OnCreate@CMainFrame@@IAEHPAUtagCREATESTRUCTW@@@Z 004105e0 f   MainFrm.obj
 0001:0000f9a0       ?OnDisconnectMssim@CMainFrame@@IAEXXZ 004109a0 f   MainFrm.obj
 0001:0000faf0       ?OnDisconnectMssim2@CMainFrame@@IAEJIJ@Z 00410af0 f   MainFrm.obj
 0001:0000fbd0       ?OnFileReadOver@CMainFrame@@IAEJIJ@Z 00410bd0 f   MainFrm.obj
 0001:0000fbe0       ?OnRecvDeviceChange@CMainFrame@@IAEJIJ@Z 00410be0 f   MainFrm.obj
 0001:0000fef0       ?OnPortReset@CMainFrame@@IAEJIJ@Z 00410ef0 f   MainFrm.obj
 0001:00010000       ?OnChansvrConfig@CMainFrame@@IAEXXZ 00411000 f   MainFrm.obj
 0001:000101d0       ?OnClose@CMainFrame@@IAEXXZ 004111d0 f   MainFrm.obj
 0001:00010330       ?GetThisMessageMap@CMainFrame@@KGPBUAFX_MSGMAP@@XZ 00411330 f   MainFrm.obj
 0001:00010340       ?GetMessageMap@CMainFrame@@MBEPBUAFX_MSGMAP@@XZ 00411340 f   MainFrm.obj
 0001:00010350       ??1ISpLog@@UAE@XZ          00411350 f i SpLog.obj
 0001:00010360       ??_EISpLog@@UAEPAXI@Z      00411360 f i SpLog.obj
 0001:00010360       ??_GISpLog@@UAEPAXI@Z      00411360 f i SpLog.obj
 0001:00010380       ?GetLocalTime@CSpLog@@IBEPBDXZ 00411380 f i SpLog.obj
 0001:000103e0       ??0ISpLog@@QAE@XZ          004113e0 f i SpLog.obj
 0001:000103f0       ?Close@CSpLog@@UAEHXZ      004113f0 f   SpLog.obj
 0001:00010480       ?GetProperty@CSpLog@@UAEHJJPAX@Z 00411480 f   SpLog.obj
 0001:000106b0       ?WriteConsoleWindow@CSpLog@@IAEXPBXK@Z 004116b0 f   SpLog.obj
 0001:000106f0       ?AllocConsoleWindow@CSpLog@@IAEXXZ 004116f0 f   SpLog.obj
 0001:000107c0       ?CreateMultiDirectory@CSpLog@@IAEHPB_W@Z 004117c0 f   SpLog.obj
 0001:00010940       ?GetLogExtension@CSpLog@@IAEXPB_WPA_WH@Z 00411940 f   SpLog.obj
 0001:00010a20       ?GetLogFilePath@CSpLog@@IAEXPB_WPA_WH@Z 00411a20 f   SpLog.obj
 0001:00010c60       ?GetBinFilePath@CSpLog@@IAEXPB_WPA_WH@Z 00411c60 f   SpLog.obj
 0001:00010d80       ?GetNextPartLog@CSpLog@@IAEXPB_WPA_WI@Z 00411d80 f   SpLog.obj
 0001:00010e90       ?OpenFile@CSpLog@@IAEPAXPB_W@Z 00411e90 f   SpLog.obj
 0001:00010ef0       ?FlushBuff@CSpLog@@QAEXXZ  00411ef0 f   SpLog.obj
 0001:00010f10       ??0CFnLog@@QAA@PAVISpLog@@PBD1ZZ 00411f10 f   SpLog.obj
 0001:00011020       ??0CFnLog@@QAA@PAVISpLog@@PB_W1ZZ 00412020 f   SpLog.obj
 0001:00011180       ??1CFnLog@@UAE@XZ          00412180 f   SpLog.obj
 0001:000111b0       ??0CSpLog@@QAE@XZ          004121b0 f   SpLog.obj
 0001:000113d0       ?Release@CSpLog@@UAEXXZ    004123d0 f i SpLog.obj
 0001:000113e0       ??1CSpLog@@UAE@XZ          004123e0 f   SpLog.obj
 0001:00011430       ?Open@CSpLog@@UAEHPB_WIII@Z 00412430 f   SpLog.obj
 0001:000115e0       ?SetProperty@CSpLog@@UAEHJJPBX@Z 004125e0 f   SpLog.obj
 0001:00011890       ?WriteLog@CSpLog@@IAEHAAPAXPB_WAAIPBXK@Z 00412890 f   SpLog.obj
 0001:000119b0       ?LogString@CSpLog@@IAEHPBD@Z 004129b0 f   SpLog.obj
 0001:00011a80       ?LogHexData@CSpLog@@UAEHPBEKI@Z 00412a80 f   SpLog.obj
 0001:00011ae0       ?LogRawStrA@CSpLog@@UAEHIPBD@Z 00412ae0 f   SpLog.obj
 0001:00011b10       ?LogRawStrW@CSpLog@@UAEHIPB_W@Z 00412b10 f   SpLog.obj
 0001:00011bb0       ?LogFmtStrA@CSpLog@@UAAHIPBDZZ 00412bb0 f   SpLog.obj
 0001:00011c70       ?LogFmtStrW@CSpLog@@UAAHIPB_WZZ 00412c70 f   SpLog.obj
 0001:00011d70       ?LogBufData@CSpLog@@UAEHIPBEKIPBK@Z 00412d70 f   SpLog.obj
 0001:00012130       ??_GCFnLog@@UAEPAXI@Z      00413130 f i SpLog.obj
 0001:00012130       ??_ECFnLog@@UAEPAXI@Z      00413130 f i SpLog.obj
 0001:00012150       ??_ECSpLog@@UAEPAXI@Z      00413150 f i SpLog.obj
 0001:00012150       ??_GCSpLog@@UAEPAXI@Z      00413150 f i SpLog.obj
 0001:00012170       ?XX_MulDiv@@YAJJJJ@Z       00413170 f   StdAfx.obj
 0001:000121d0       ??0Thank_you@Define_the_symbol__ATL_MIXED@@QAE@XZ 004131d0 f i StdAfx.obj
 0001:000121e0       ?one@Thank_you@Define_the_symbol__ATL_MIXED@@UAEXXZ 004131e0 f i StdAfx.obj
 0001:000121f0       ?RemoveAll@CStringArray@@QAEXXZ 004131f0 f i StdAfx.obj
 0001:00012200       ?Add@CStringArray@@QAEHABV?$CStringT@_WV?$StrTraitMFC@_WV?$ChTraitsCRT@_W@ATL@@@@@ATL@@@Z 00413200 f i StdAfx.obj
 0001:00012220       ?_AfxInitManaged@@YAHXZ    00413220 f i StdAfx.obj
 0001:00012230       ?SplitStr@@YAHPB_WAAVCStringArray@@_W@Z 00413230 f   StdAfx.obj
 0001:00012410       ?OnLButtonDown@CXAboutDlg@@IAEXIVCPoint@@@Z 00413410 f   XAboutDlg.obj
 0001:00012420       ?OnRButtonDown@CXAboutDlg@@IAEXIVCPoint@@@Z 00413420 f   XAboutDlg.obj
 0001:000124c0       ??0CXVerInfo@@QAE@XZ       004134c0 f   XAboutDlg.obj
 0001:00012510       ??1CXVerInfo@@QAE@XZ       00413510 f   XAboutDlg.obj
 0001:00012520       ?Init@CXVerInfo@@QAEHPB_W@Z 00413520 f   XAboutDlg.obj
 0001:00012610       ?GetAllLangCodePage@CXVerInfo@@QAEHAAPAU_LANGANDCODEPAGE_T@@AAI@Z 00413610 f   XAboutDlg.obj
 0001:00012650       ?SetCurLangCodePage@CXVerInfo@@QAEXPAU_LANGANDCODEPAGE_T@@@Z 00413650 f   XAboutDlg.obj
 0001:00012690       ?GetComments@CXVerInfo@@QAEPB_WXZ 00413690 f   XAboutDlg.obj
 0001:00012720       ?GetCompanyName@CXVerInfo@@QAEPB_WXZ 00413720 f   XAboutDlg.obj
 0001:000127b0       ?GetLegalCopyright@CXVerInfo@@QAEPB_WXZ 004137b0 f   XAboutDlg.obj
 0001:00012840       ?GetLegalTrademarks@CXVerInfo@@QAEPB_WXZ 00413840 f   XAboutDlg.obj
 0001:000128d0       ?GetProductName@CXVerInfo@@QAEPB_WXZ 004138d0 f   XAboutDlg.obj
 0001:00012960       ?GetProductVersion@CXVerInfo@@QAEPB_WXZ 00413960 f   XAboutDlg.obj
 0001:000129f0       ?GetPrivateBuild@CXVerInfo@@QAEPB_WXZ 004139f0 f   XAboutDlg.obj
 0001:00012a80       ?GetSpecialBuild@CXVerInfo@@QAEPB_WXZ 00413a80 f   XAboutDlg.obj
 0001:00012b10       ?GetNextWindow@@YAPAUHWND__@@PAU1@I@Z 00413b10 f i XAboutDlg.obj
 0001:00012b30       ?memcpy_s@Checked@ATL@@YAXPAXIPBXI@Z 00413b30 f i XAboutDlg.obj
 0001:00012b60       ?StringFindString@?$ChTraitsCRT@_W@ATL@@SAPA_WPA_WPB_W@Z 00413b60 f i XAboutDlg.obj
 0001:00012b70       ?StringFindCharRev@?$ChTraitsCRT@_W@ATL@@SAPB_WPB_W_W@Z 00413b70 f i XAboutDlg.obj
 0001:00012b80       ?SafeStringLen@?$ChTraitsCRT@_W@ATL@@SAHPB_W@Z 00413b80 f i XAboutDlg.obj
 0001:00012bb0       ?CreateSolidBrush@CBrush@@QAEHK@Z 00413bb0 f i XAboutDlg.obj
 0001:00012bd0       ?CreateFontW@CFont@@QAEHHHHHHEEEEEEEEPB_W@Z 00413bd0 f i XAboutDlg.obj
 0001:00012c40       ?FromHandle@CBitmap@@SGPAV1@PAUHBITMAP__@@@Z 00413c40 f i XAboutDlg.obj
 0001:00012c50       ?GetBitmap@CBitmap@@QAEHPAUtagBITMAP@@@Z 00413c50 f i XAboutDlg.obj
 0001:00012c70       ?GetSafeHdc@CDC@@QBEPAUHDC__@@XZ 00413c70 f i XAboutDlg.obj
 0001:00012c80       ?CreateCompatibleDC@CDC@@QAEHPAV1@@Z 00413c80 f i XAboutDlg.obj
 0001:00012cc0       ?SelectObject@CDC@@QAEPAVCBitmap@@PAV2@@Z 00413cc0 f i XAboutDlg.obj
 0001:00012cf0       ?FillRect@CDC@@QAEXPBUtagRECT@@PAVCBrush@@@Z 00413cf0 f i XAboutDlg.obj
 0001:00012d30       ?DrawIcon@CDC@@QAEHHHPAUHICON__@@@Z 00413d30 f i XAboutDlg.obj
 0001:00012d50       ?BitBlt@CDC@@QAEHHHHHPAV1@HHK@Z 00413d50 f i XAboutDlg.obj
 0001:00012d90       ?GetNextWindow@CWnd@@QBEPAV1@I@Z 00413d90 f i XAboutDlg.obj
 0001:00012db0       ?OnCreate@CWnd@@IAEHPAUtagCREATESTRUCTW@@@Z 00413db0 f i XAboutDlg.obj
 0001:00012dc0       ?LoadIconW@CWinApp@@QBEPAUHICON__@@I@Z 00413dc0 f i XAboutDlg.obj
 0001:00012de0       ?DoDataExchange@CXAboutDlg@@MAEXPAVCDataExchange@@@Z 00413de0 f   XAboutDlg.obj
 0001:00012df0       ?OnCreate@CXAboutDlg@@IAEHPAUtagCREATESTRUCTW@@@Z 00413df0 f   XAboutDlg.obj
 0001:00012e30       ?ReverseFind@?$CStringT@_WV?$StrTraitMFC@_WV?$ChTraitsCRT@_W@ATL@@@@@ATL@@QBEH_W@Z 00413e30 f i XAboutDlg.obj
 0001:00012e60       ?TextOutW@CDC@@QAEHHHABV?$CStringT@_WV?$StrTraitMFC@_WV?$ChTraitsCRT@_W@ATL@@@@@ATL@@@Z 00413e60 f i XAboutDlg.obj
 0001:00012e90       ?Replace@?$CStringT@_WV?$StrTraitMFC@_WV?$ChTraitsCRT@_W@ATL@@@@@ATL@@QAEHPB_W0@Z 00413e90 f i XAboutDlg.obj
 0001:000130c0       ?Remove@?$CStringT@_WV?$StrTraitMFC@_WV?$ChTraitsCRT@_W@ATL@@@@@ATL@@QAEH_W@Z 004140c0 f i XAboutDlg.obj
 0001:00013180       ?Right@?$CStringT@_WV?$StrTraitMFC@_WV?$ChTraitsCRT@_W@ATL@@@@@ATL@@QBE?AV12@H@Z 00414180 f i XAboutDlg.obj
 0001:00013200       ??0CBrush@@QAE@XZ          00414200 f i XAboutDlg.obj
 0001:00013210       ??1CBrush@@UAE@XZ          00414210 f i XAboutDlg.obj
 0001:00013220       ??0CBitmap@@QAE@XZ         00414220 f i XAboutDlg.obj
 0001:00013230       ??1CBitmap@@UAE@XZ         00414230 f i XAboutDlg.obj
 0001:00013240       ??1CXAboutDlg@@UAE@XZ      00414240 f   XAboutDlg.obj
 0001:000133f0       ?OnEraseBkgnd@CXAboutDlg@@IAEHPAVCDC@@@Z 004143f0 f   XAboutDlg.obj
 0001:00013770       ??_ECBrush@@UAEPAXI@Z      00414770 f i XAboutDlg.obj
 0001:00013770       ??_GCBrush@@UAEPAXI@Z      00414770 f i XAboutDlg.obj
 0001:000137a0       ??_GCBitmap@@UAEPAXI@Z     004147a0 f i XAboutDlg.obj
 0001:000137a0       ??_ECBitmap@@UAEPAXI@Z     004147a0 f i XAboutDlg.obj
 0001:000137d0       ??0CXAboutDlg@@QAE@PB_WPAVCWnd@@@Z 004147d0 f   XAboutDlg.obj
 0001:00013a40       ??_ECXAboutDlg@@UAEPAXI@Z  00414a40 f i XAboutDlg.obj
 0001:00013a40       ??_GCXAboutDlg@@UAEPAXI@Z  00414a40 f i XAboutDlg.obj
 0001:00013a60       ?GetThisMessageMap@CXAboutDlg@@KGPBUAFX_MSGMAP@@XZ 00414a60 f   XAboutDlg.obj
 0001:00013a70       ?SetProductName@CXAboutDlg@@QAEXPB_W@Z 00414a70 f   XAboutDlg.obj
 0001:00013aa0       ?GetMessageMap@CXAboutDlg@@MBEPBUAFX_MSGMAP@@XZ 00414aa0 f   XAboutDlg.obj
 0001:00013ab0       ?OnInitDialog@CXAboutDlg@@MAEHXZ 00414ab0 f   XAboutDlg.obj
 0001:00013ef0       ?GetSPRDVersionString@CXVerInfo@@QAEPB_WXZ 00414ef0 f   XAboutDlg.obj
 0001:000141ae       _VerQueryValueW@16         004151ae f   version:VERSION.dll
 0001:000141b4       _GetFileVersionInfoW@16    004151b4 f   version:VERSION.dll
 0001:000141ba       _GetFileVersionInfoSizeW@8 004151ba f   version:VERSION.dll
 0001:000141c0       _htonl@4                   004151c0 f   Ws2_32:WS2_32.dll
 0001:000141c6       _inet_addr@4               004151c6 f   Ws2_32:WS2_32.dll
 0001:000141cc       _gethostbyaddr@12          004151cc f   Ws2_32:WS2_32.dll
 0001:000141d2       _CreateDevHound            004151d2 f   porthound:PortHound.dll
 0001:000141d8       _ReleaseDevHound           004151d8 f   porthound:PortHound.dll
 0001:000141de       _InitCrashReportW          004151de f   CrashReport:CrashReport.dll
 0001:000141e4       _CreateChannel             004151e4 f   Channel9:Channel9.dll
 0001:000141ea       _ReleaseChannel            004151ea f   Channel9:Channel9.dll
 0001:000141f0       _CreateDiagPackage         004151f0 f   DiagChan9:DiagChan9.dll
 0001:000141f6       _ReleaseDiagPackage        004151f6 f   DiagChan9:DiagChan9.dll
 0001:000141fc       _ReleaseProtoPackage       004151fc f   DiagChan9:DiagChan9.dll
 0001:00014202       _CreateProtoPackage        00415202 f   DiagChan9:DiagChan9.dll
 0001:00014208       _ReleaseProtoChannel       00415208 f   DiagChan9:DiagChan9.dll
 0001:0001420e       _CreateProtoChannel        0041520e f   DiagChan9:DiagChan9.dll
 0001:00014214       ?AfxNewHandler@@YAHI@Z     00415214 f   uafxcw:afxmem.obj
 0001:00014219       ?AfxGetNewHandler@@YGP6AHI@ZXZ 00415219 f   uafxcw:afxmem.obj
 0001:0001421f       ?AfxSetNewHandler@@YGP6AHI@ZP6AHI@Z@Z 0041521f f   uafxcw:afxmem.obj
 0001:00014236       ??2@YAPAXI@Z               00415236 f   uafxcw:afxmem.obj
 0001:00014265       ??3@YAXPAX@Z               00415265 f   uafxcw:afxmem.obj
 0001:00014270       ??_U@YAPAXI@Z              00415270 f   uafxcw:afxmem.obj
 0001:0001427b       ??_V@YAXPAX@Z              0041527b f   uafxcw:afxmem.obj
 0001:00014286       ?AfxPropPageCallback@@YGIPAUHWND__@@IPAU_PROPSHEETPAGEW@@@Z 00415286 f   uafxcw:dlgprop.obj
 0001:000142c5       ?GetPSP@CPropertyPage@@QBEABU_PROPSHEETPAGEW@@XZ 004152c5 f   uafxcw:dlgprop.obj
 0001:000142c9       ?GetPSP@CPropertyPage@@QAEAAU_PROPSHEETPAGEW@@XZ 004152c9 f   uafxcw:dlgprop.obj
 0001:000142cd       ?AllocPSP@CPropertyPage@@IAEXK@Z 004152cd f   uafxcw:dlgprop.obj
 0001:0001430a       ?Cleanup@CPropertyPage@@IAEXXZ 0041530a f   uafxcw:dlgprop.obj
 0001:00014339       ?InitDialogInfo@CPropertyPage@@IAEPBUDLGTEMPLATE@@PBU2@@Z 00415339 f   uafxcw:dlgprop.obj
 0001:0001436b       ?OnApply@CPropertyPage@@UAEHXZ 0041536b f   uafxcw:dlgprop.obj
 0001:00014377       ?OnReset@CPropertyPage@@UAEXXZ 00415377 f   uafxcw:dlgprop.obj
 0001:0001437f       ?OnOK@CPropertyPage@@UAEXXZ 0041537f f   uafxcw:dlgprop.obj
 0001:00014380       ?OnCancel@CPropertyPage@@UAEXXZ 00415380 f   uafxcw:dlgprop.obj
 0001:00014381       ?OnSetActive@CPropertyPage@@UAEHXZ 00415381 f   uafxcw:dlgprop.obj
 0001:00014397       ?OnKillActive@CPropertyPage@@UAEHXZ 00415397 f   uafxcw:dlgprop.obj
 0001:000143a5       ?OnQueryCancel@CPropertyPage@@UAEHXZ 004153a5 f   uafxcw:dlgprop.obj
 0001:000143a9       ?OnWizardBack@CPropertyPage@@UAEJXZ 004153a9 f   uafxcw:dlgprop.obj
 0001:000143ac       ?OnWizardNext@CPropertyPage@@UAEJXZ 004153ac f   uafxcw:dlgprop.obj
 0001:000143af       ?OnWizardFinishEx@CPropertyPage@@UAEPAUHWND__@@XZ 004153af f   uafxcw:dlgprop.obj
 0001:000143bd       ?IsButtonEnabled@CPropertyPage@@IAEHH@Z 004153bd f   uafxcw:dlgprop.obj
 0001:000143e4       ?PreTranslateMessage@CPropertyPage@@MAEHPAUtagMSG@@@Z 004153e4 f   uafxcw:dlgprop.obj
 0001:000143f7       ?OnCtlColor@CPropertyPage@@IAEPAUHBRUSH__@@PAVCDC@@PAVCWnd@@I@Z 004153f7 f   uafxcw:dlgprop.obj
 0001:0001442a       ?EnableStackedTabs@CPropertySheet@@QAEXH@Z 0041542a f   uafxcw:dlgprop.obj
 0001:0001443c       ??0CRect@@QAE@HHHH@Z       0041543c f i uafxcw:dlgprop.obj
 0001:0001445e       ?AfxPropSheetCallback@@YGHPAUHWND__@@IJ@Z 0041545e f   uafxcw:dlgprop.obj
 0001:000144bd       ?EndDialog@CPropertySheet@@QAEXH@Z 004154bd f   uafxcw:dlgprop.obj
 0001:000144e4       ?OnClose@CPropertySheet@@IAEXXZ 004154e4 f   uafxcw:dlgprop.obj
 0001:0001450c       ?OnNcCreate@CPropertySheet@@IAEHPAUtagCREATESTRUCTW@@@Z 0041550c f   uafxcw:dlgprop.obj
 0001:0001452a       ?HandleInitDialog@CPropertySheet@@IAEJIJ@Z 0041552a f   uafxcw:dlgprop.obj
 0001:00014535       ?OnCommand@CPropertySheet@@UAEHIJ@Z 00415535 f   uafxcw:dlgprop.obj
 0001:000145a9       ?OnCtlColor@CPropertySheet@@IAEPAUHBRUSH__@@PAVCDC@@PAVCWnd@@I@Z 004155a9 f   uafxcw:dlgprop.obj
 0001:000145e7       ?GetRuntimeClass@CPropertyPage@@UBEPAUCRuntimeClass@@XZ 004155e7 f   uafxcw:dlgprop.obj
 0001:000145ed       ?GetRuntimeClass@CPropertySheet@@UBEPAUCRuntimeClass@@XZ 004155ed f   uafxcw:dlgprop.obj
 0001:000145f3       ?GetSize@CPtrArray@@QBEHXZ 004155f3 f i uafxcw:dlgprop.obj
 0001:000145f7       ?Add@CPtrArray@@QAEHPAX@Z  004155f7 f i uafxcw:dlgprop.obj
 0001:00014610       ??4CreatePropertySheetPageW_Type@CComCtlWrapper@@QAEXP6GPAU_PSP@@PBU_PROPSHEETPAGEW@@@Z@Z 00415610 f i uafxcw:dlgprop.obj
 0001:0001461e       ??BCreatePropertySheetPageW_Type@CComCtlWrapper@@QAEP6GPAU_PSP@@PBU_PROPSHEETPAGEW@@@ZXZ 0041561e f i uafxcw:dlgprop.obj
 0001:00014621       ??7CreatePropertySheetPageW_Type@CComCtlWrapper@@QBE_NXZ 00415621 f i uafxcw:dlgprop.obj
 0001:00014629       ??4DestroyPropertySheetPage_Type@CComCtlWrapper@@QAEXP6GHPAU_PSP@@@Z@Z 00415629 f i uafxcw:dlgprop.obj
 0001:00014637       ??BDestroyPropertySheetPage_Type@CComCtlWrapper@@QAEP6GHPAU_PSP@@@ZXZ 00415637 f i uafxcw:dlgprop.obj
 0001:0001463a       ??7DestroyPropertySheetPage_Type@CComCtlWrapper@@QBE_NXZ 0041563a f i uafxcw:dlgprop.obj
 0001:00014642       ??4PropertySheetW_Type@CComCtlWrapper@@QAEXP6GHPBU_PROPSHEETHEADERW_V2@@@Z@Z 00415642 f i uafxcw:dlgprop.obj
 0001:00014650       ??BPropertySheetW_Type@CComCtlWrapper@@QAEP6GHPBU_PROPSHEETHEADERW_V2@@@ZXZ 00415650 f i uafxcw:dlgprop.obj
 0001:00014653       ??7PropertySheetW_Type@CComCtlWrapper@@QBE_NXZ 00415653 f i uafxcw:dlgprop.obj
 0001:0001465b       ?GetTabControl@CPropertySheet@@QBEPAVCTabCtrl@@XZ 0041565b f i uafxcw:dlgprop.obj
 0001:00014674       ?IsWizard@CPropertySheet@@QBEHXZ 00415674 f i uafxcw:dlgprop.obj
 0001:00014683       ?IsModeless@CPropertySheet@@QBEHXZ 00415683 f i uafxcw:dlgprop.obj
 0001:0001468a       ?GetItemCount@CTabCtrl@@QBEHXZ 0041568a f i uafxcw:dlgprop.obj
 0001:0001469d       ?GetCurSel@CTabCtrl@@QBEHXZ 0041569d f i uafxcw:dlgprop.obj
 0001:000146b0       ?GetThisMessageMap@CPropertyPage@@KGPBUAFX_MSGMAP@@XZ 004156b0 f   uafxcw:dlgprop.obj
 0001:000146b6       ?CancelToClose@CPropertyPage@@QAEXXZ 004156b6 f   uafxcw:dlgprop.obj
 0001:000146d8       ?SetModified@CPropertyPage@@QAEXH@Z 004156d8 f   uafxcw:dlgprop.obj
 0001:00014719       ?QuerySiblings@CPropertyPage@@QAEJIJ@Z 00415719 f   uafxcw:dlgprop.obj
 0001:00014745       ?OnWizardFinish@CPropertyPage@@UAEHXZ 00415745 f   uafxcw:dlgprop.obj
 0001:0001479d       ?MapWizardResult@CPropertyPage@@IAEJJ@Z 0041579d f   uafxcw:dlgprop.obj
 0001:0001480d       ?OnNotify@CPropertyPage@@MAEHIJPAJ@Z 0041580d f   uafxcw:dlgprop.obj
 0001:00014965       ?EndDialog@CPropertyPage@@QAEXH@Z 00415965 f   uafxcw:dlgprop.obj
 0001:00014996       ?OnSetDefID@CPropertySheet@@IAEJIJ@Z 00415996 f   uafxcw:dlgprop.obj
 0001:00014a5c       ?CommonConstruct@CPropertySheet@@QAEXPAVCWnd@@I@Z 00415a5c f   uafxcw:dlgprop.obj
 0001:00014ac1       ?CommonConstruct@CPropertySheet@@QAEXPAVCWnd@@IPAUHBITMAP__@@PAUHPALETTE__@@1@Z 00415ac1 f   uafxcw:dlgprop.obj
 0001:00014b1e       ?PreTranslateMessage@CPropertySheet@@UAEHPAUtagMSG@@@Z 00415b1e f   uafxcw:dlgprop.obj
 0001:00014bf6       ?OnCmdMsg@CPropertySheet@@UAEHIHPAXPAUAFX_CMDHANDLERINFO@@@Z 00415bf6 f   uafxcw:dlgprop.obj
 0001:00014c80       ?ContinueModal@CPropertySheet@@UAEHXZ 00415c80 f   uafxcw:dlgprop.obj
 0001:00014caa       ?GetPageCount@CPropertySheet@@QBEHXZ 00415caa f   uafxcw:dlgprop.obj
 0001:00014ccc       ?GetActiveIndex@CPropertySheet@@QBEHXZ 00415ccc f   uafxcw:dlgprop.obj
 0001:00014ceb       ?SetActivePage@CPropertySheet@@QAEHH@Z 00415ceb f   uafxcw:dlgprop.obj
 0001:00014d17       ?GetPageIndex@CPropertySheet@@QAEHPAVCPropertyPage@@@Z 00415d17 f   uafxcw:dlgprop.obj
 0001:00014d51       ?SetActivePage@CPropertySheet@@QAEHPAVCPropertyPage@@@Z 00415d51 f   uafxcw:dlgprop.obj
 0001:00014d79       ?RemovePage@CPropertySheet@@QAEXH@Z 00415d79 f   uafxcw:dlgprop.obj
 0001:00014dae       ?OnSysCommand@CPropertySheet@@IAEXIJ@Z 00415dae f   uafxcw:dlgprop.obj
 0001:00014deb       ?OnInitDialog@CPropertySheet@@UAEHXZ 00415deb f   uafxcw:dlgprop.obj
 0001:00014fbe       ?GetModuleHandleW@CDllIsolationWrapperBase@@QAEPAUHINSTANCE__@@XZ 00415fbe f i uafxcw:dlgprop.obj
 0001:00014ff2       ?GetProcAddress_CreatePropertySheetPageW@CComCtlWrapper@@QAE?AUCreatePropertySheetPageW_Type@1@XZ 00415ff2 f i uafxcw:dlgprop.obj
 0001:00015022       ?_CreatePropertySheetPageW@CComCtlWrapper@@QAEPAU_PSP@@PBU_PROPSHEETPAGEW@@@Z 00416022 f i uafxcw:dlgprop.obj
 0001:000150d0       ?GetProcAddress_DestroyPropertySheetPage@CComCtlWrapper@@QAE?AUDestroyPropertySheetPage_Type@1@XZ 004160d0 f i uafxcw:dlgprop.obj
 0001:00015100       ?_DestroyPropertySheetPage@CComCtlWrapper@@QAEHPAU_PSP@@@Z 00416100 f i uafxcw:dlgprop.obj
 0001:000151ae       ?GetProcAddress_PropertySheetW@CComCtlWrapper@@QAE?AUPropertySheetW_Type@1@XZ 004161ae f i uafxcw:dlgprop.obj
 0001:000151de       ?_PropertySheetW@CComCtlWrapper@@QAEHPBU_PROPSHEETHEADERW_V2@@@Z 004161de f i uafxcw:dlgprop.obj
 0001:0001528f       ?AfxCreatePropertySheetPageW@@YGPAU_PSP@@PBU_PROPSHEETPAGEW@@@Z 0041628f f i uafxcw:dlgprop.obj
 0001:000152aa       ?AfxDestroyPropertySheetPage@@YGHPAU_PSP@@@Z 004162aa f i uafxcw:dlgprop.obj
 0001:000152c5       ?AfxPropertySheetW@@YGHPBU_PROPSHEETHEADERW_V2@@@Z 004162c5 f i uafxcw:dlgprop.obj
 0001:000152e0       ?GetMessageMap@CPropertyPage@@MBEPBUAFX_MSGMAP@@XZ 004162e0 f   uafxcw:dlgprop.obj
 0001:000152e6       ?GetActivePage@CPropertySheet@@QBEPAVCPropertyPage@@XZ 004162e6 f   uafxcw:dlgprop.obj
 0001:00015319       ?DoModal@CPropertySheet@@UAEHXZ 00416319 f   uafxcw:dlgprop.obj
 0001:000154b8       ?Create@CPropertySheet@@UAEHPAVCWnd@@KK@Z 004164b8 f   uafxcw:dlgprop.obj
 0001:000155c6       ?RemovePage@CPropertySheet@@QAEXPAVCPropertyPage@@@Z 004165c6 f   uafxcw:dlgprop.obj
 0001:000155ee       ?OnKickIdle@CPropertySheet@@IAEJIJ@Z 004165ee f   uafxcw:dlgprop.obj
 0001:00015618       ?OnCommandHelp@CPropertySheet@@IAEJIJ@Z 00416618 f   uafxcw:dlgprop.obj
 0001:0001563a       ??9ATL@@YA_NABV?$CStringT@_WV?$StrTraitMFC@_WV?$ChTraitsCRT@_W@ATL@@@@@0@0@Z 0041663a f i uafxcw:dlgprop.obj
 0001:00015654       ??1CPropertyPage@@UAE@XZ   00416654 f   uafxcw:dlgprop.obj
 0001:000156c8       ?_AfxChangePropPageFont@@YGPAUDLGTEMPLATE@@PBU1@H@Z 004166c8 f   uafxcw:dlgprop.obj
 0001:000157a2       ?PreProcessPageTemplate@CPropertyPage@@IAEXAAU_PROPSHEETPAGEW@@H@Z 004167a2 f   uafxcw:dlgprop.obj
 0001:00015847       ?GetThisMessageMap@CPropertySheet@@KGPBUAFX_MSGMAP@@XZ 00416847 f   uafxcw:dlgprop.obj
 0001:0001584d       ??0CPropertySheet@@QAE@XZ  0041684d f   uafxcw:dlgprop.obj
 0001:0001589a       ??1CPropertySheet@@UAE@XZ  0041689a f   uafxcw:dlgprop.obj
 0001:000158e8       ?BuildPropPageArray@CPropertySheet@@UAEXXZ 004168e8 f   uafxcw:dlgprop.obj
 0001:000159e1       ?AddPage@CPropertySheet@@QAEXPAVCPropertyPage@@@Z 004169e1 f   uafxcw:dlgprop.obj
 0001:00015b0a       ??_GCPropertyPage@@UAEPAXI@Z 00416b0a f i uafxcw:dlgprop.obj
 0001:00015b0a       ??_ECPropertyPage@@UAEPAXI@Z 00416b0a f i uafxcw:dlgprop.obj
 0001:00015b2b       ?GetMessageMap@CPropertySheet@@MBEPBUAFX_MSGMAP@@XZ 00416b2b f   uafxcw:dlgprop.obj
 0001:00015b31       ??_GCPropertySheet@@UAEPAXI@Z 00416b31 f i uafxcw:dlgprop.obj
 0001:00015b31       ??_ECPropertySheet@@UAEPAXI@Z 00416b31 f i uafxcw:dlgprop.obj
 0001:00015b52       ?CommonConstruct@CPropertyPage@@IAEXPB_WI@Z 00416b52 f   uafxcw:dlgprop.obj
 0001:00015bfb       ?CommonConstruct@CPropertyPage@@IAEXPB_WIII@Z 00416bfb f   uafxcw:dlgprop.obj
 0001:00015c48       ??0CPropertySheet@@QAE@IPAVCWnd@@I@Z 00416c48 f   uafxcw:dlgprop.obj
 0001:00015cae       ?Construct@CPropertySheet@@QAEXIPAVCWnd@@I@Z 00416cae f   uafxcw:dlgprop.obj
 0001:00015cdf       ??0CPropertySheet@@QAE@IPAVCWnd@@IPAUHBITMAP__@@PAUHPALETTE__@@1@Z 00416cdf f   uafxcw:dlgprop.obj
 0001:00015d4e       ?Construct@CPropertySheet@@QAEXIPAVCWnd@@IPAUHBITMAP__@@PAUHPALETTE__@@1@Z 00416d4e f   uafxcw:dlgprop.obj
 0001:00015d88       ??0CPropertyPage@@QAE@IIK@Z 00416d88 f   uafxcw:dlgprop.obj
 0001:00015ded       ??0CPropertyPage@@QAE@PB_WIK@Z 00416ded f   uafxcw:dlgprop.obj
 0001:00015e63       ?Construct@CPropertyPage@@QAEXII@Z 00416e63 f   uafxcw:dlgprop.obj
 0001:00015e79       ?Construct@CPropertyPage@@QAEXPB_WI@Z 00416e79 f   uafxcw:dlgprop.obj
 0001:00015eaf       ??0CPropertyPage@@QAE@XZ   00416eaf f   uafxcw:dlgprop.obj
 0001:00015f0d       ??0CPropertyPage@@QAE@IIIIK@Z 00416f0d f   uafxcw:dlgprop.obj
 0001:00015f78       ??0CPropertyPage@@QAE@PB_WIIIK@Z 00416f78 f   uafxcw:dlgprop.obj
 0001:00015fe1       ?Construct@CPropertyPage@@QAEXIIII@Z 00416fe1 f   uafxcw:dlgprop.obj
 0001:00015ffd       ?Construct@CPropertyPage@@QAEXPB_WIII@Z 00416ffd f   uafxcw:dlgprop.obj
 0001:0001603b       ??0CPropertySheet@@QAE@PB_WPAVCWnd@@I@Z 0041703b f   uafxcw:dlgprop.obj
 0001:000160ab       ?Construct@CPropertySheet@@QAEXPB_WPAVCWnd@@I@Z 004170ab f   uafxcw:dlgprop.obj
 0001:000160e6       ??0CPropertySheet@@QAE@PB_WPAVCWnd@@IPAUHBITMAP__@@PAUHPALETTE__@@2@Z 004170e6 f   uafxcw:dlgprop.obj
 0001:0001615f       ?Construct@CPropertySheet@@QAEXPB_WPAVCWnd@@IPAUHBITMAP__@@PAUHPALETTE__@@2@Z 0041715f f   uafxcw:dlgprop.obj
 0001:000161a3       ?SetTitle@CPropertySheet@@QAEXPB_WI@Z 004171a3 f   uafxcw:dlgprop.obj
 0001:000161ee       ?Process@COleException@@SGJPBVCException@@@Z 004171ee f   uafxcw:olemisc.obj
 0001:00016242       ?AfxUnmergeMenus@@YGXPAUHMENU__@@00@Z 00417242 f   uafxcw:olemisc.obj
 0001:00016305       ?_AfxFillFormatEtc@@YGPAUtagFORMATETC@@PAU1@G0@Z 00417305 f   uafxcw:olemisc.obj
 0001:00016345       ?_AfxOleDoConvert@@YGJPAUIStorage@@ABU_GUID@@@Z 00417345 f   uafxcw:olemisc.obj
 0001:00016417       ?_AfxOleGetFirstMoniker@@YGPAUIMoniker@@PAU1@@Z 00417417 f   uafxcw:olemisc.obj
 0001:00016480       ?_AfxOleGetLenFilePrefixOfMoniker@@YGKPAUIMoniker@@@Z 00417480 f   uafxcw:olemisc.obj
 0001:00016513       ?_AfxDeleteMetafilePict@@YGXPAX@Z 00417513 f   uafxcw:olemisc.obj
 0001:0001653e       ?_AfxXformSizeInPixelsToHimetric@@YGXPAUHDC__@@PAUtagSIZE@@1@Z 0041753e f   uafxcw:olemisc.obj
 0001:000165a7       ?_AfxXformSizeInHimetricToPixels@@YGXPAUHDC__@@PAUtagSIZE@@1@Z 004175a7 f   uafxcw:olemisc.obj
 0001:00016616       ??$AtlMultiply@I@ATL@@YAJPAIII@Z 00417616 f i uafxcw:olemisc.obj
 0001:0001663a       ?GetRuntimeClass@COleException@@UBEPAUCRuntimeClass@@XZ 0041763a f   uafxcw:olemisc.obj
 0001:00016640       ??$AtlMultiply@K@ATL@@YAJPAKKK@Z 00417640 f i uafxcw:olemisc.obj
 0001:00016664       ?AtlCoTaskMemCAlloc@ATL@@YAPAXKK@Z 00417664 f i uafxcw:olemisc.obj
 0001:00016693       ?Free@CCRTAllocator@ATL@@SAXPAX@Z 00417693 f i uafxcw:olemisc.obj
 0001:0001669e       ??B?$CHeapPtrBase@_WVCComAllocator@ATL@@@ATL@@QBEPA_WXZ 0041769e f i uafxcw:olemisc.obj
 0001:000166a1       ??I?$CHeapPtrBase@_WVCComAllocator@ATL@@@ATL@@QAEPAPA_WXZ 004176a1 f i uafxcw:olemisc.obj
 0001:000166a4       ?Detach@?$CHeapPtrBase@_WVCComAllocator@ATL@@@ATL@@QAEPA_WXZ 004176a4 f i uafxcw:olemisc.obj
 0001:000166aa       ??1?$CComPtrBase@UIMoniker@@@ATL@@QAE@XZ 004176aa f i uafxcw:olemisc.obj
 0001:000166b7       ??I?$CComPtrBase@UIMoniker@@@ATL@@QAEPAPAUIMoniker@@XZ 004176b7 f i uafxcw:olemisc.obj
 0001:000166ba       ??C?$CComPtrBase@UIMoniker@@@ATL@@QBEPAV?$_NoAddRefReleaseOnCComPtr@UIMoniker@@@1@XZ 004176ba f i uafxcw:olemisc.obj
 0001:000166bd       ??1?$CComPtrBase@UIViewObject2@@@ATL@@QAE@XZ 004176bd f i uafxcw:olemisc.obj
 0001:000166ca       ??B?$CComPtrBase@UIViewObject2@@@ATL@@QBEPAUIViewObject2@@XZ 004176ca f i uafxcw:olemisc.obj
 0001:000166cd       ??C?$CComPtrBase@UIViewObject2@@@ATL@@QBEPAV?$_NoAddRefReleaseOnCComPtr@UIViewObject2@@@1@XZ 004176cd f i uafxcw:olemisc.obj
 0001:000166d0       ??1?$CComPtrBase@UIOleLink@@@ATL@@QAE@XZ 004176d0 f i uafxcw:olemisc.obj
 0001:000166dd       ?ocslen@@YAHPB_W@Z         004176dd f i uafxcw:olemisc.obj
 0001:000166ed       ??C?$CComPtrBase@UIOleLink@@@ATL@@QBEPAV?$_NoAddRefReleaseOnCComPtr@UIOleLink@@@1@XZ 004176ed f i uafxcw:olemisc.obj
 0001:000166f0       ??1?$CComPtrBase@UIBindCtx@@@ATL@@QAE@XZ 004176f0 f i uafxcw:olemisc.obj
 0001:000166fd       ??B?$CComPtrBase@UIBindCtx@@@ATL@@QBEPAUIBindCtx@@XZ 004176fd f i uafxcw:olemisc.obj
 0001:00016700       ??I?$CComPtrBase@UIBindCtx@@@ATL@@QAEPAPAUIBindCtx@@XZ 00417700 f i uafxcw:olemisc.obj
 0001:00016703       ??0?$CComPtrBase@UIMoniker@@@ATL@@IAE@XZ 00417703 f i uafxcw:olemisc.obj
 0001:00016709       ??8?$CComPtrBase@UIOleLink@@@ATL@@QBE_NPAUIOleLink@@@Z 00417709 f i uafxcw:olemisc.obj
 0001:0001671c       ??0?$CComPtrBase@UIBindCtx@@@ATL@@IAE@XZ 0041771c f i uafxcw:olemisc.obj
 0001:00016722       ??0?$CHeapPtrBase@_WVCComAllocator@ATL@@@ATL@@IAE@XZ 00417722 f i uafxcw:olemisc.obj
 0001:00016728       ??0?$CComPtrBase@UIViewObject2@@@ATL@@IAE@XZ 00417728 f i uafxcw:olemisc.obj
 0001:0001672e       ??0?$CComPtrBase@UIOleLink@@@ATL@@IAE@XZ 0041772e f i uafxcw:olemisc.obj
 0001:00016734       ?DEVMODEOLE2T_EX@@YAPAU_devicemodeW@@PAU1@@Z 00417734 f i uafxcw:olemisc.obj
 0001:0001673e       ?DEVMODET2OLE_EX@@YAPAU_devicemodeW@@PAU1@@Z 0041773e f i uafxcw:olemisc.obj
 0001:00016748       ?wcscpy_s@Checked@ATL@@YAXPA_WIPB_W@Z 00417748 f i uafxcw:olemisc.obj
 0001:00016766       ?tcsncpy_s@Checked@ATL@@YAHPA_WIPB_WI@Z 00417766 f i uafxcw:olemisc.obj
 0001:00016787       ??1CException@@UAE@XZ      00417787 f i uafxcw:olemisc.obj
 0001:00016788       ?Allocate@CComAllocator@ATL@@SAPAXI@Z 00417788 f i uafxcw:olemisc.obj
 0001:00016798       ?Free@CComAllocator@ATL@@SAXPAX@Z 00417798 f i uafxcw:olemisc.obj
 0001:000167a8       ?AfxGetAppName@@YGPB_WXZ   004177a8 f i uafxcw:olemisc.obj
 0001:000167b1       ??0COleException@@QAE@XZ   004177b1 f i uafxcw:olemisc.obj
 0001:000167c9       ??1COleException@@UAE@XZ   004177c9 f i uafxcw:olemisc.obj
 0001:000167d0       ?TASKSTRINGOLE2T@@YAPA_WPA_W@Z 004177d0 f i uafxcw:olemisc.obj
 0001:000167da       ??0?$CAtlSafeAllocBufferManager@VCCRTAllocator@ATL@@@_ATL_SAFE_ALLOCA_IMPL@ATL@@QAE@XZ 004177da f i uafxcw:olemisc.obj
 0001:000167e0       ??1?$CAtlSafeAllocBufferManager@VCCRTAllocator@ATL@@@_ATL_SAFE_ALLOCA_IMPL@ATL@@QAE@XZ 004177e0 f i uafxcw:olemisc.obj
 0001:000167fb       ?AfxThrowOleException@@YGXJ@Z 004177fb f   uafxcw:olemisc.obj
 0001:0001683e       ?GetErrorMessage@COleException@@UBEHPA_WIPAI@Z 0041783e f   uafxcw:olemisc.obj
 0001:00016897       ?_AfxCopyGlobalMemory@@YGPAXPAX0@Z 00417897 f   uafxcw:olemisc.obj
 0001:00016910       ?_AfxOleGetObjectDescriptorData@@YGPAXU_GUID@@KUtagSIZE@@U_POINTL@@KPB_W3@Z 00417910 f   uafxcw:olemisc.obj
 0001:00016a27       ??1?$CComPtr@UIMoniker@@@ATL@@QAE@XZ 00417a27 f i uafxcw:olemisc.obj
 0001:00016a34       ??1?$CComPtr@UIBindCtx@@@ATL@@QAE@XZ 00417a34 f i uafxcw:olemisc.obj
 0001:00016a41       ??1?$CComPtr@UIViewObject2@@@ATL@@QAE@XZ 00417a41 f i uafxcw:olemisc.obj
 0001:00016a4e       ??1?$CComPtr@UIOleLink@@@ATL@@QAE@XZ 00417a4e f i uafxcw:olemisc.obj
 0001:00016a5b       ?_AfxOleDoTreatAsClass@@YGJPB_WABU_GUID@@1@Z 00417a5b f   uafxcw:olemisc.obj
 0001:00016ae2       ?_AfxOleCopyTargetDevice@@YGPAUtagDVTARGETDEVICE@@PAU1@@Z 00417ae2 f   uafxcw:olemisc.obj
 0001:00016b18       ?_AfxOleCopyFormatEtc@@YGXPAUtagFORMATETC@@0@Z 00417b18 f   uafxcw:olemisc.obj
 0001:00016b4e       ?Attach@?$CHeapPtrBase@_WVCComAllocator@ATL@@@ATL@@QAEXPA_W@Z 00417b4e f i uafxcw:olemisc.obj
 0001:00016b68       ??0?$CComPtr@UIMoniker@@@ATL@@QAE@XZ 00417b68 f i uafxcw:olemisc.obj
 0001:00016b6e       ??9?$CComPtrBase@UIOleLink@@@ATL@@QBE_NPAUIOleLink@@@Z 00417b6e f i uafxcw:olemisc.obj
 0001:00016b81       ??0?$CComPtr@UIBindCtx@@@ATL@@QAE@XZ 00417b81 f i uafxcw:olemisc.obj
 0001:00016b87       ?AllocateBytes@?$CHeapPtrBase@_WVCComAllocator@ATL@@@ATL@@QAE_NI@Z 00417b87 f i uafxcw:olemisc.obj
 0001:00016ba4       ?Free@?$CHeapPtrBase@_WVCComAllocator@ATL@@@ATL@@QAEXXZ 00417ba4 f i uafxcw:olemisc.obj
 0001:00016bb6       ??0?$CComPtr@UIViewObject2@@@ATL@@QAE@XZ 00417bb6 f i uafxcw:olemisc.obj
 0001:00016bbc       ??0?$CComPtr@UIOleLink@@@ATL@@QAE@XZ 00417bbc f i uafxcw:olemisc.obj
 0001:00016bc2       ?AtlCrtErrorCheck@ATL@@YAHH@Z 00417bc2 f i uafxcw:olemisc.obj
 0001:00016bfc       ??_GCOleException@@UAEPAXI@Z 00417bfc f i uafxcw:olemisc.obj
 0001:00016bfc       ??_ECOleException@@UAEPAXI@Z 00417bfc f i uafxcw:olemisc.obj
 0001:00016c1e       ??1?$CComQIPtr@UIViewObject2@@$1?_GUID_00000127_0000_0000_c000_000000000046@@3U__s_GUID@@B@ATL@@QAE@XZ 00417c1e f i uafxcw:olemisc.obj
 0001:00016c2b       ??1?$CComQIPtr@UIOleLink@@$1?_GUID_0000011d_0000_0000_c000_000000000046@@3U__s_GUID@@B@ATL@@QAE@XZ 00417c2b f i uafxcw:olemisc.obj
 0001:00016c38       ?Allocate@?$CHeapPtr@_WVCComAllocator@ATL@@@ATL@@QAE_NI@Z 00417c38 f i uafxcw:olemisc.obj
 0001:00016c6d       ??1?$CHeapPtrBase@_WVCComAllocator@ATL@@@ATL@@QAE@XZ 00417c6d f i uafxcw:olemisc.obj
 0001:00016c7f       ??0?$CComQIPtr@UIViewObject2@@$1?_GUID_00000127_0000_0000_c000_000000000046@@3U__s_GUID@@B@ATL@@QAE@PAUIUnknown@@@Z 00417c7f f i uafxcw:olemisc.obj
 0001:00016ca3       ??0?$CComQIPtr@UIOleLink@@$1?_GUID_0000011d_0000_0000_c000_000000000046@@3U__s_GUID@@B@ATL@@QAE@PAUIUnknown@@@Z 00417ca3 f i uafxcw:olemisc.obj
 0001:00016cc7       ??0?$CHeapPtr@_WVCComAllocator@ATL@@@ATL@@QAE@XZ 00417cc7 f i uafxcw:olemisc.obj
 0001:00016ccd       ??1?$CHeapPtr@_WVCComAllocator@ATL@@@ATL@@QAE@XZ 00417ccd f i uafxcw:olemisc.obj
 0001:00016cdf       ??0?$CComHeapPtr@_W@ATL@@QAE@XZ 00417cdf f i uafxcw:olemisc.obj
 0001:00016ce5       ??1?$CComHeapPtr@_W@ATL@@QAE@XZ 00417ce5 f i uafxcw:olemisc.obj
 0001:00016cf7       ?AppendChar@?$CSimpleStringT@_W$0A@@ATL@@QAEX_W@Z 00417cf7 f i uafxcw:olemisc.obj
 0001:00016d26       ??Y?$CSimpleStringT@_W$0A@@ATL@@QAEAAV01@D@Z 00417d26 f i uafxcw:olemisc.obj
 0001:00016d43       ?_AfxOleGetObjectDescriptorData@@YGPAXPAUIOleObject@@PB_WKU_POINTL@@PAUtagSIZE@@@Z 00417d43 f   uafxcw:olemisc.obj
 0001:00016fb7       ??Y?$CStringT@_WV?$StrTraitMFC@_WV?$ChTraitsCRT@_W@ATL@@@@@ATL@@QAEAAV01@D@Z 00417fb7 f i uafxcw:olemisc.obj
 0001:00016fce       ?AfxMergeMenus@@YGPAUHMENU__@@PAU1@0PAJHH@Z 00417fce f   uafxcw:olemisc.obj
 0001:0001723b       ?_AfxCopyStgMedium@@YGHGPAUtagSTGMEDIUM@@0@Z 0041823b f   uafxcw:olemisc.obj
 0001:000174bc       ?_AfxOleCreateTargetDevice@@YGPAUtagDVTARGETDEVICE@@PAUtagDEVNAMES@@PAU_devicemodeW@@@Z 004184bc f   uafxcw:olemisc.obj
 0001:0001769c       ?_AfxOleCreateTargetDevice@@YGPAUtagDVTARGETDEVICE@@PAUtagPDW@@@Z 0041869c f   uafxcw:olemisc.obj
 0001:000176f2       ?_AfxOleCreateDC@@YGPAUHDC__@@PAUtagDVTARGETDEVICE@@@Z 004186f2 f   uafxcw:olemisc.obj
 0001:000177b8       ?Delete@CException@@QAEXXZ 004187b8 f   uafxcw:except.obj
 0001:000177c6       ?GetErrorMessage@CException@@UBEHPA_WIPAI@Z 004187c6 f   uafxcw:except.obj
 0001:000177ed       ?GetErrorMessage@CException@@UAEHPA_WIPAI@Z 004187ed f   uafxcw:except.obj
 0001:000177f8       ?ReportError@CException@@UAEHII@Z 004187f8 f   uafxcw:except.obj
 0001:0001786c       ?GetRuntimeClass@CException@@UBEPAUCRuntimeClass@@XZ 0041886c f   uafxcw:except.obj
 0001:00017872       ?GetRuntimeClass@CSimpleException@@UBEPAUCRuntimeClass@@XZ 00418872 f   uafxcw:except.obj
 0001:00017878       ?GetRuntimeClass@CMemoryException@@UBEPAUCRuntimeClass@@XZ 00418878 f   uafxcw:except.obj
 0001:0001787e       ?GetRuntimeClass@CNotSupportedException@@UBEPAUCRuntimeClass@@XZ 0041887e f   uafxcw:except.obj
 0001:00017884       ?GetRuntimeClass@CInvalidArgException@@UBEPAUCRuntimeClass@@XZ 00418884 f   uafxcw:except.obj
 0001:0001788a       ?InitString@CSimpleException@@QAEXXZ 0041888a f   uafxcw:except.obj
 0001:000178b5       ?AfxThrowMemoryException@@YGXXZ 004188b5 f   uafxcw:except.obj
 0001:000178d1       ?AfxThrowNotSupportedException@@YGXXZ 004188d1 f   uafxcw:except.obj
 0001:000178ed       ?AfxThrowInvalidArgException@@YGXXZ 004188ed f   uafxcw:except.obj
 0001:00017909       ?CreateObject@?$CThreadLocal@V_AFX_THREAD_STATE@@@@SGPAVCNoTrackObject@@XZ 00418909 f i uafxcw:except.obj
 0001:00017938       ??1CSimpleException@@UAE@XZ 00418938 f i uafxcw:except.obj
 0001:0001793f       ??1CMemoryException@@UAE@XZ 0041893f f i uafxcw:except.obj
 0001:00017946       ??1CNotSupportedException@@UAE@XZ 00418946 f i uafxcw:except.obj
 0001:0001794d       ??1CInvalidArgException@@UAE@XZ 0041894d f i uafxcw:except.obj
 0001:00017954       ??0CException@@QAE@XZ      00418954 f   uafxcw:except.obj
 0001:0001795e       ??0CException@@QAE@H@Z     0041895e f   uafxcw:except.obj
 0001:0001796f       ?GetErrorMessage@CSimpleException@@UBEHPA_WIPAI@Z 0041896f f   uafxcw:except.obj
 0001:000179c6       ?GetData@?$CThreadLocal@V_AFX_THREAD_STATE@@@@QAEPAV_AFX_THREAD_STATE@@XZ 004189c6 f i uafxcw:except.obj
 0001:000179da       ??0CSimpleException@@QAE@H@Z 004189da f i uafxcw:except.obj
 0001:000179f9       ??0CMemoryException@@QAE@HI@Z 004189f9 f i uafxcw:except.obj
 0001:00017a1f       ??_GCMemoryException@@UAEPAXI@Z 00418a1f f i uafxcw:except.obj
 0001:00017a1f       ??_ECMemoryException@@UAEPAXI@Z 00418a1f f i uafxcw:except.obj
 0001:00017a41       ??0CNotSupportedException@@QAE@HI@Z 00418a41 f i uafxcw:except.obj
 0001:00017a67       ??_GCNotSupportedException@@UAEPAXI@Z 00418a67 f i uafxcw:except.obj
 0001:00017a67       ??_ECNotSupportedException@@UAEPAXI@Z 00418a67 f i uafxcw:except.obj
 0001:00017a89       ??0CInvalidArgException@@QAE@HI@Z 00418a89 f i uafxcw:except.obj
 0001:00017aaf       ??_GCInvalidArgException@@UAEPAXI@Z 00418aaf f i uafxcw:except.obj
 0001:00017aaf       ??_ECInvalidArgException@@UAEPAXI@Z 00418aaf f i uafxcw:except.obj
 0001:00017ad1       ??C?$CThreadLocal@V_AFX_THREAD_STATE@@@@QAEPAV_AFX_THREAD_STATE@@XZ 00418ad1 f i uafxcw:except.obj
 0001:00017ad6       ?AfxGetExceptionContext@@YAPAUAFX_EXCEPTION_CONTEXT@@XZ 00418ad6 f i uafxcw:except.obj
 0001:00017b09       ??0AFX_EXCEPTION_LINK@@QAE@XZ 00418b09 f   uafxcw:except.obj
 0001:00017b21       ?AfxTryCleanup@@YGXXZ      00418b21 f   uafxcw:except.obj
 0001:00017b45       ?AfxThrowLastCleanup@@YGXXZ 00418b45 f   uafxcw:except.obj
 0001:00017b55       ?SetAttribDC@CDC@@UAEXPAUHDC__@@@Z 00418b55 f   uafxcw:wingdi.obj
 0001:00017b64       ?SetOutputDC@CDC@@UAEXPAUHDC__@@@Z 00418b64 f   uafxcw:wingdi.obj
 0001:00017b73       ?ReleaseAttribDC@CDC@@UAEXXZ 00418b73 f   uafxcw:wingdi.obj
 0001:00017b78       ?ReleaseOutputDC@CDC@@UAEXXZ 00418b78 f   uafxcw:wingdi.obj
 0001:00017b7d       ?SaveDC@CDC@@UAEHXZ        00418b7d f   uafxcw:wingdi.obj
 0001:00017bb0       ?RestoreDC@CDC@@UAEHH@Z    00418bb0 f   uafxcw:wingdi.obj
 0001:00017bf2       ?SetBkColor@CDC@@UAEKK@Z   00418bf2 f   uafxcw:wingdi.obj
 0001:00017c25       ?SetBkMode@CDC@@QAEHH@Z    00418c25 f   uafxcw:wingdi.obj
 0001:00017c57       ?SetPolyFillMode@CDC@@QAEHH@Z 00418c57 f   uafxcw:wingdi.obj
 0001:00017c89       ?SetROP2@CDC@@QAEHH@Z      00418c89 f   uafxcw:wingdi.obj
 0001:00017cbb       ?SetStretchBltMode@CDC@@QAEHH@Z 00418cbb f   uafxcw:wingdi.obj
 0001:00017ced       ?SetTextColor@CDC@@UAEKK@Z 00418ced f   uafxcw:wingdi.obj
 0001:00017d20       ?SetGraphicsMode@CDC@@QAEHH@Z 00418d20 f   uafxcw:wingdi.obj
 0001:00017d52       ?SetWorldTransform@CDC@@QAEHPBUtagXFORM@@@Z 00418d52 f   uafxcw:wingdi.obj
 0001:00017d84       ?ModifyWorldTransform@CDC@@QAEHPBUtagXFORM@@K@Z 00418d84 f   uafxcw:wingdi.obj
 0001:00017dbc       ?SetMapMode@CDC@@UAEHH@Z   00418dbc f   uafxcw:wingdi.obj
 0001:00017dee       ?GetClipBox@CDC@@UBEHPAUtagRECT@@@Z 00418dee f   uafxcw:wingdi.obj
 0001:00017e03       ?ExcludeClipRect@CDC@@QAEHHHHH@Z 00418e03 f   uafxcw:wingdi.obj
 0001:00017e47       ?ExcludeClipRect@CDC@@QAEHPBUtagRECT@@@Z 00418e47 f   uafxcw:wingdi.obj
 0001:00017e8e       ?IntersectClipRect@CDC@@QAEHHHHH@Z 00418e8e f   uafxcw:wingdi.obj
 0001:00017ed2       ?IntersectClipRect@CDC@@QAEHPBUtagRECT@@@Z 00418ed2 f   uafxcw:wingdi.obj
 0001:00017f19       ?OffsetClipRgn@CDC@@QAEHHH@Z 00418f19 f   uafxcw:wingdi.obj
 0001:00017f51       ?OffsetClipRgn@CDC@@QAEHUtagSIZE@@@Z 00418f51 f   uafxcw:wingdi.obj
 0001:00017f89       ?LineTo@CDC@@QAEHHH@Z      00418f89 f   uafxcw:wingdi.obj
 0001:00017fc0       ?SetTextAlign@CDC@@QAEII@Z 00418fc0 f   uafxcw:wingdi.obj
 0001:00017ff9       ?SetTextJustification@CDC@@QAEHHH@Z 00418ff9 f   uafxcw:wingdi.obj
 0001:00018031       ?SetTextCharacterExtra@CDC@@QAEHH@Z 00419031 f   uafxcw:wingdi.obj
 0001:00018066       ?SetMapperFlags@CDC@@QAEKK@Z 00419066 f   uafxcw:wingdi.obj
 0001:00018099       ?GetLayout@CDC@@QBEKXZ     00419099 f   uafxcw:wingdi.obj
 0001:000180d1       ?SetLayout@CDC@@QAEKK@Z    004190d1 f   uafxcw:wingdi.obj
 0001:0001811b       ?SetArcDirection@CDC@@QAEHH@Z 0041911b f   uafxcw:wingdi.obj
 0001:0001814d       ?SetColorAdjustment@CDC@@QAEHPBUtagCOLORADJUSTMENT@@@Z 0041914d f   uafxcw:wingdi.obj
 0001:0001817f       ?SelectClipPath@CDC@@QAEHH@Z 0041917f f   uafxcw:wingdi.obj
 0001:000181e6       ?GetRuntimeClass@CResourceException@@UBEPAUCRuntimeClass@@XZ 004191e6 f   uafxcw:wingdi.obj
 0001:000181ec       ?GetRuntimeClass@CUserException@@UBEPAUCRuntimeClass@@XZ 004191ec f   uafxcw:wingdi.obj
 0001:000181f2       ?GetRuntimeClass@CDC@@UBEPAUCRuntimeClass@@XZ 004191f2 f   uafxcw:wingdi.obj
 0001:000181f8       ?GetRuntimeClass@CClientDC@@UBEPAUCRuntimeClass@@XZ 004191f8 f   uafxcw:wingdi.obj
 0001:000181fe       ?GetRuntimeClass@CWindowDC@@UBEPAUCRuntimeClass@@XZ 004191fe f   uafxcw:wingdi.obj
 0001:00018204       ?GetRuntimeClass@CPaintDC@@UBEPAUCRuntimeClass@@XZ 00419204 f   uafxcw:wingdi.obj
 0001:0001820a       ?GetRuntimeClass@CGdiObject@@UBEPAUCRuntimeClass@@XZ 0041920a f   uafxcw:wingdi.obj
 0001:00018210       ?GetRuntimeClass@CPen@@UBEPAUCRuntimeClass@@XZ 00419210 f   uafxcw:wingdi.obj
 0001:00018216       ?GetRuntimeClass@CBrush@@UBEPAUCRuntimeClass@@XZ 00419216 f   uafxcw:wingdi.obj
 0001:0001821c       ?GetRuntimeClass@CFont@@UBEPAUCRuntimeClass@@XZ 0041921c f   uafxcw:wingdi.obj
 0001:00018222       ?GetRuntimeClass@CBitmap@@UBEPAUCRuntimeClass@@XZ 00419222 f   uafxcw:wingdi.obj
 0001:00018228       ?GetRuntimeClass@CPalette@@UBEPAUCRuntimeClass@@XZ 00419228 f   uafxcw:wingdi.obj
 0001:0001822e       ?GetRuntimeClass@CRgn@@UBEPAUCRuntimeClass@@XZ 0041922e f   uafxcw:wingdi.obj
 0001:00018234       ?AfxThrowResourceException@@YGXXZ 00419234 f   uafxcw:wingdi.obj
 0001:00018250       ?AfxThrowUserException@@YGXXZ 00419250 f   uafxcw:wingdi.obj
 0001:0001826c       ?Destruct@?$ConstructDestruct@VCDC@@@@SGXPAVCObject@@@Z 0041926c f i uafxcw:wingdi.obj
 0001:0001827f       ?Destruct@?$ConstructDestruct@VCGdiObject@@@@SGXPAVCObject@@@Z 0041927f f i uafxcw:wingdi.obj
 0001:00018292       ??0CSize@@QAE@XZ           00419292 f i uafxcw:wingdi.obj
 0001:00018295       ??0CSize@@QAE@UtagSIZE@@@Z 00419295 f i uafxcw:wingdi.obj
 0001:000182ab       ??0CPoint@@QAE@XZ          004192ab f i uafxcw:wingdi.obj
 0001:000182ae       ?SwapLeftRight@CRect@@SGXPAUtagRECT@@@Z 004192ae f i uafxcw:wingdi.obj
 0001:000182c4       ??2CObject@@SGPAXIPAX@Z    004192c4 f i uafxcw:wingdi.obj
 0001:000182d0       ??3CObject@@SGXPAX0@Z      004192d0 f i uafxcw:wingdi.obj
 0001:000182e2       ??0CResourceException@@QAE@HI@Z 004192e2 f i uafxcw:wingdi.obj
 0001:00018308       ??1CResourceException@@UAE@XZ 00419308 f i uafxcw:wingdi.obj
 0001:0001830f       ??0CUserException@@QAE@HI@Z 0041930f f i uafxcw:wingdi.obj
 0001:00018335       ??1CUserException@@UAE@XZ  00419335 f i uafxcw:wingdi.obj
 0001:0001833c       ?GetViewportExt@CDC@@QBE?AVCSize@@XZ 0041933c f i uafxcw:wingdi.obj
 0001:00018362       ?GetWindowExt@CDC@@QBE?AVCSize@@XZ 00419362 f i uafxcw:wingdi.obj
 0001:00018388       ?GetPixel@CDC@@QBEKHH@Z    00419388 f i uafxcw:wingdi.obj
 0001:000183a0       ?StartDocW@CDC@@QAEHPAU_DOCINFOW@@@Z 004193a0 f i uafxcw:wingdi.obj
 0001:000183b5       ?abs@@YAJJ@Z               004193b5 f i uafxcw:wingdi.obj
 0001:000183c0       ?SetPermanent@CHandleMap@@QAEXPAXPAVCObject@@@Z 004193c0 f i uafxcw:wingdi.obj
 0001:000183d9       ?RemoveHandle@CHandleMap@@QAEXPAX@Z 004193d9 f i uafxcw:wingdi.obj
 0001:000183e7       ??0CDC@@QAE@XZ             004193e7 f   uafxcw:wingdi.obj
 0001:000183fb       ??0CSize@@QAE@K@Z          004193fb f i uafxcw:wingdi.obj
 0001:00018417       ?PtVisible@CDC@@UBEHHH@Z   00419417 f i uafxcw:wingdi.obj
 0001:0001842f       ?RectVisible@CDC@@UBEHPBUtagRECT@@@Z 0041942f f i uafxcw:wingdi.obj
 0001:00018444       ?TextOutW@CDC@@UAEHHHPB_WH@Z 00419444 f i uafxcw:wingdi.obj
 0001:00018462       ?ExtTextOutW@CDC@@UAEHHHIPBUtagRECT@@PB_WIPAH@Z 00419462 f i uafxcw:wingdi.obj
 0001:00018489       ?TabbedTextOutW@CDC@@UAE?AVCSize@@HHPB_WHHPAHH@Z 00419489 f i uafxcw:wingdi.obj
 0001:000184c1       ?DrawTextW@CDC@@UAEHPB_WHPAUtagRECT@@I@Z 004194c1 f i uafxcw:wingdi.obj
 0001:000184df       ?DrawTextExW@CDC@@UAEHPA_WHPAUtagRECT@@IPAUtagDRAWTEXTPARAMS@@@Z 004194df f i uafxcw:wingdi.obj
 0001:00018500       ?GrayStringW@CDC@@UAEHPAVCBrush@@P6GHPAUHDC__@@JH@ZJHHHHH@Z 00419500 f i uafxcw:wingdi.obj
 0001:00018532       ?Escape@CDC@@UAEHHHPBDPAX@Z 00419532 f i uafxcw:wingdi.obj
 0001:00018550       ?StartDocW@CDC@@QAEHPB_W@Z 00419550 f   uafxcw:wingdi.obj
 0001:0001858a       ?SelectObject@CDC@@QAEHPAVCRgn@@@Z 0041958a f   uafxcw:wingdi.obj
 0001:000185d4       ?SetViewportOrg@CDC@@UAE?AVCPoint@@HH@Z 004195d4 f   uafxcw:wingdi.obj
 0001:00018613       ?OffsetViewportOrg@CDC@@UAE?AVCPoint@@HH@Z 00419613 f   uafxcw:wingdi.obj
 0001:00018652       ?SetViewportExt@CDC@@UAE?AVCSize@@HH@Z 00419652 f   uafxcw:wingdi.obj
 0001:00018691       ?ScaleViewportExt@CDC@@UAE?AVCSize@@HHHH@Z 00419691 f   uafxcw:wingdi.obj
 0001:000186dc       ?SetWindowOrg@CDC@@QAE?AVCPoint@@HH@Z 004196dc f   uafxcw:wingdi.obj
 0001:0001871b       ?OffsetWindowOrg@CDC@@QAE?AVCPoint@@HH@Z 0041971b f   uafxcw:wingdi.obj
 0001:0001875a       ?SetWindowExt@CDC@@UAE?AVCSize@@HH@Z 0041975a f   uafxcw:wingdi.obj
 0001:00018799       ?ScaleWindowExt@CDC@@UAE?AVCSize@@HHHH@Z 00419799 f   uafxcw:wingdi.obj
 0001:000187e4       ?SelectClipRgn@CDC@@QAEHPAVCRgn@@@Z 004197e4 f   uafxcw:wingdi.obj
 0001:00018829       ?MoveTo@CDC@@QAE?AVCPoint@@HH@Z 00419829 f   uafxcw:wingdi.obj
 0001:00018868       ?ScreenToClient@CWnd@@QBEXPAUtagRECT@@@Z 00419868 f   uafxcw:wingdi.obj
 0001:000188a9       ?ClientToScreen@CWnd@@QBEXPAUtagRECT@@@Z 004198a9 f   uafxcw:wingdi.obj
 0001:000188ea       ?ArcTo@CDC@@QAEHHHHHHHHH@Z 004198ea f   uafxcw:wingdi.obj
 0001:00018944       ?PolyDraw@CDC@@QAEHPBUtagPOINT@@PBEH@Z 00419944 f   uafxcw:wingdi.obj
 0001:0001898f       ?PolylineTo@CDC@@QAEHPBUtagPOINT@@H@Z 0041998f f   uafxcw:wingdi.obj
 0001:000189d7       ?PolyBezierTo@CDC@@QAEHPBUtagPOINT@@H@Z 004199d7 f   uafxcw:wingdi.obj
 0001:00018a1f       ?SelectClipRgn@CDC@@QAEHPAVCRgn@@H@Z 00419a1f f   uafxcw:wingdi.obj
 0001:00018a6a       ?LPtoDP@CDC@@QBEXPAUtagSIZE@@@Z 00419a6a f   uafxcw:wingdi.obj
 0001:00018ad5       ?DPtoLP@CDC@@QBEXPAUtagSIZE@@@Z 00419ad5 f   uafxcw:wingdi.obj
 0001:00018b40       ?CreateObject@CDC@@SGPAVCObject@@XZ 00419b40 f   uafxcw:wingdi.obj
 0001:00018b61       ?CreateObject@CGdiObject@@SGPAVCObject@@XZ 00419b61 f   uafxcw:wingdi.obj
 0001:00018b7b       ?Construct@?$ConstructDestruct@VCDC@@@@SGXPAVCObject@@@Z 00419b7b f i uafxcw:wingdi.obj
 0001:00018b9c       ?Construct@?$ConstructDestruct@VCGdiObject@@@@SGXPAVCObject@@@Z 00419b9c f i uafxcw:wingdi.obj
 0001:00018bb6       ??_ECResourceException@@UAEPAXI@Z 00419bb6 f i uafxcw:wingdi.obj
 0001:00018bb6       ??_GCResourceException@@UAEPAXI@Z 00419bb6 f i uafxcw:wingdi.obj
 0001:00018bd8       ??_GCUserException@@UAEPAXI@Z 00419bd8 f i uafxcw:wingdi.obj
 0001:00018bd8       ??_ECUserException@@UAEPAXI@Z 00419bd8 f i uafxcw:wingdi.obj
 0001:00018bfa       ?afxMapHDC@@YGPAVCHandleMap@@H@Z 00419bfa f   uafxcw:wingdi.obj
 0001:00018c6e       ?FromHandle@CDC@@SGPAV1@PAUHDC__@@@Z 00419c6e f   uafxcw:wingdi.obj
 0001:00018c82       ?Attach@CDC@@QAEHPAUHDC__@@@Z 00419c82 f   uafxcw:wingdi.obj
 0001:00018cb8       ?Detach@CDC@@QAEPAUHDC__@@XZ 00419cb8 f   uafxcw:wingdi.obj
 0001:00018ceb       ?DeleteDC@CDC@@QAEHXZ      00419ceb f   uafxcw:wingdi.obj
 0001:00018d01       ??1CDC@@UAE@XZ             00419d01 f   uafxcw:wingdi.obj
 0001:00018d1a       ??0CClientDC@@QAE@PAVCWnd@@@Z 00419d1a f   uafxcw:wingdi.obj
 0001:00018d6e       ??1CClientDC@@UAE@XZ       00419d6e f   uafxcw:wingdi.obj
 0001:00018da9       ??0CWindowDC@@QAE@PAVCWnd@@@Z 00419da9 f   uafxcw:wingdi.obj
 0001:00018dfd       ??1CWindowDC@@UAE@XZ       00419dfd f   uafxcw:wingdi.obj
 0001:00018e38       ??0CPaintDC@@QAE@PAVCWnd@@@Z 00419e38 f   uafxcw:wingdi.obj
 0001:00018e8c       ??1CPaintDC@@UAE@XZ        00419e8c f   uafxcw:wingdi.obj
 0001:00018ecc       ?afxMapHGDIOBJ@@YGPAVCHandleMap@@H@Z 00419ecc f   uafxcw:wingdi.obj
 0001:00018f40       ?FromHandle@CGdiObject@@SGPAV1@PAX@Z 00419f40 f   uafxcw:wingdi.obj
 0001:00018f54       ?Attach@CGdiObject@@QAEHPAX@Z 00419f54 f   uafxcw:wingdi.obj
 0001:00018f80       ?Detach@CGdiObject@@QAEPAXXZ 00419f80 f   uafxcw:wingdi.obj
 0001:00018fac       ?DeleteObject@CGdiObject@@QAEHXZ 00419fac f   uafxcw:wingdi.obj
 0001:00018fc2       ?CreateDIBPatternBrush@CBrush@@QAEHPAXI@Z 00419fc2 f   uafxcw:wingdi.obj
 0001:00018ff7       ?CreatePatternBrush@CBrush@@QAEHPAVCBitmap@@@Z 00419ff7 f i uafxcw:wingdi.obj
 0001:0001901d       ?CreateBitmap@CBitmap@@QAEHHHIIPBX@Z 0041a01d f i uafxcw:wingdi.obj
 0001:00019047       ??_GCDC@@UAEPAXI@Z         0041a047 f i uafxcw:wingdi.obj
 0001:00019047       ??_ECDC@@UAEPAXI@Z         0041a047 f i uafxcw:wingdi.obj
 0001:00019068       ?SelectGdiObject@CDC@@KGPAVCGdiObject@@PAUHDC__@@PAX@Z 0041a068 f   uafxcw:wingdi.obj
 0001:00019083       ?SelectStockObject@CDC@@UAEPAVCGdiObject@@H@Z 0041a083 f   uafxcw:wingdi.obj
 0001:000190c4       ?SelectObject@CDC@@QAEPAVCPen@@PAV2@@Z 0041a0c4 f   uafxcw:wingdi.obj
 0001:0001910f       ?SelectObject@CDC@@QAEPAVCBrush@@PAV2@@Z 0041a10f f   uafxcw:wingdi.obj
 0001:0001915a       ?SelectObject@CDC@@UAEPAVCFont@@PAV2@@Z 0041a15a f   uafxcw:wingdi.obj
 0001:000191a5       ?SelectPalette@CDC@@QAEPAVCPalette@@PAV2@H@Z 0041a1a5 f   uafxcw:wingdi.obj
 0001:000191cb       ?AfxEnumMetaFileProc@@YGHPAUHDC__@@PAUtagHANDLETABLE@@PAUtagMETARECORD@@HJ@Z 0041a1cb f   uafxcw:wingdi.obj
 0001:00019404       ?PlayMetaFile@CDC@@QAEHPAUHMETAFILE__@@@Z 0041a404 f   uafxcw:wingdi.obj
 0001:00019441       ??_ECClientDC@@UAEPAXI@Z   0041a441 f i uafxcw:wingdi.obj
 0001:00019441       ??_GCClientDC@@UAEPAXI@Z   0041a441 f i uafxcw:wingdi.obj
 0001:00019462       ??_ECWindowDC@@UAEPAXI@Z   0041a462 f i uafxcw:wingdi.obj
 0001:00019462       ??_GCWindowDC@@UAEPAXI@Z   0041a462 f i uafxcw:wingdi.obj
 0001:00019483       ??_GCPaintDC@@UAEPAXI@Z    0041a483 f i uafxcw:wingdi.obj
 0001:00019483       ??_ECPaintDC@@UAEPAXI@Z    0041a483 f i uafxcw:wingdi.obj
 0001:000194a4       ??0CPen@@QAE@HHK@Z         0041a4a4 f   uafxcw:wingdi.obj
 0001:000194ed       ??1CPen@@UAE@XZ            0041a4ed f i uafxcw:wingdi.obj
 0001:000194f8       ??0CPen@@QAE@HHPBUtagLOGBRUSH@@HPBK@Z 0041a4f8 f   uafxcw:wingdi.obj
 0001:00019547       ??0CBrush@@QAE@K@Z         0041a547 f   uafxcw:wingdi.obj
 0001:0001958a       ??0CBrush@@QAE@HK@Z        0041a58a f   uafxcw:wingdi.obj
 0001:000195d0       ??0CBrush@@QAE@PAVCBitmap@@@Z 0041a5d0 f   uafxcw:wingdi.obj
 0001:00019616       ?AfxGetGrayBitmap@@YGXABVCBitmap@@PAV1@K@Z 0041a616 f   uafxcw:wingdi.obj
 0001:0001986d       ?AfxDrawGrayBitmap@@YGXPAVCDC@@HHABVCBitmap@@K@Z 0041a86d f   uafxcw:wingdi.obj
 0001:00019a9f       ?AfxGetDitheredBitmap@@YGXABVCBitmap@@PAV1@KK@Z 0041aa9f f   uafxcw:wingdi.obj
 0001:00019d57       ?AfxDrawDitheredBitmap@@YGXPAVCDC@@HHABVCBitmap@@KK@Z 0041ad57 f   uafxcw:wingdi.obj
 0001:00019fba       ??_ECPen@@UAEPAXI@Z        0041afba f i uafxcw:wingdi.obj
 0001:00019fba       ??_GCPen@@UAEPAXI@Z        0041afba f i uafxcw:wingdi.obj
 0001:00019fe1       ?OnAmbientProperty@CWnd@@UAEHPAVCOleControlSite@@JPAUtagVARIANT@@@Z 0041afe1 f   uafxcw:winocc.obj
 0001:00019fef       ?GetControlUnknown@CWnd@@QAEPAUIUnknown@@XZ 0041afef f   uafxcw:winocc.obj
 0001:00019ffb       ?PaintWindowlessControls@CWnd@@QAEHPAVCDC@@@Z 0041affb f   uafxcw:winocc.obj
 0001:0001a018       ?GetOleControlSite@CWnd@@QBEPAVCOleControlSite@@I@Z 0041b018 f   uafxcw:winocc.obj
 0001:0001a032       ?CheckDlgButton@CWnd@@QAEXHI@Z 0041b032 f   uafxcw:winocc.obj
 0001:0001a059       ?CheckRadioButton@CWnd@@QAEXHHH@Z 0041b059 f   uafxcw:winocc.obj
 0001:0001a083       ?GetDlgItem@CWnd@@QBEPAV1@H@Z 0041b083 f   uafxcw:winocc.obj
 0001:0001a0ad       ?GetDlgItem@CWnd@@QBEXHPAPAUHWND__@@@Z 0041b0ad f   uafxcw:winocc.obj
 0001:0001a0d6       ?GetDlgItemInt@CWnd@@QBEIHPAHH@Z 0041b0d6 f   uafxcw:winocc.obj
 0001:0001a100       ?GetDlgItemTextW@CWnd@@QBEHHPA_WH@Z 0041b100 f   uafxcw:winocc.obj
 0001:0001a12a       ?SendDlgItemMessageW@CWnd@@QAEJHIIJ@Z 0041b12a f   uafxcw:winocc.obj
 0001:0001a15a       ?SetDlgItemInt@CWnd@@QAEXHIH@Z 0041b15a f   uafxcw:winocc.obj
 0001:0001a187       ?SetDlgItemTextW@CWnd@@QAEXHPB_W@Z 0041b187 f   uafxcw:winocc.obj
 0001:0001a1b1       ?IsDlgButtonChecked@CWnd@@QBEIH@Z 0041b1b1 f   uafxcw:winocc.obj
 0001:0001a1d8       ?IsDialogMessageW@CWnd@@QAEHPAUtagMSG@@@Z 0041b1d8 f   uafxcw:winocc.obj
 0001:0001a20f       ?GetStyle@CWnd@@QBEKXZ     0041b20f f   uafxcw:winocc.obj
 0001:0001a229       ?GetExStyle@CWnd@@QBEKXZ   0041b229 f   uafxcw:winocc.obj
 0001:0001a243       ?ModifyStyle@CWnd@@QAEHKKI@Z 0041b243 f   uafxcw:winocc.obj
 0001:0001a26f       ?ModifyStyleEx@CWnd@@QAEHKKI@Z 0041b26f f   uafxcw:winocc.obj
 0001:0001a29b       ?SetWindowTextW@CWnd@@QAEXPB_W@Z 0041b29b f   uafxcw:winocc.obj
 0001:0001a2e2       ?GetDlgCtrlID@CWnd@@QBEHXZ 0041b2e2 f   uafxcw:winocc.obj
 0001:0001a2fd       ?SetDlgCtrlID@CWnd@@QAEHH@Z 0041b2fd f   uafxcw:winocc.obj
 0001:0001a326       ?MoveWindow@CWnd@@QAEXHHHHH@Z 0041b326 f   uafxcw:winocc.obj
 0001:0001a366       ?ShowWindow@CWnd@@QAEHH@Z  0041b366 f   uafxcw:winocc.obj
 0001:0001a38d       ?IsWindowEnabled@CWnd@@QBEHXZ 0041b38d f   uafxcw:winocc.obj
 0001:0001a3a8       ?EnableWindow@CWnd@@QAEHH@Z 0041b3a8 f   uafxcw:winocc.obj
 0001:0001a3cf       ?SetFocus@CWnd@@QAEPAV1@XZ 0041b3cf f   uafxcw:winocc.obj
 0001:0001a3f0       ?InvokeHelper@CWnd@@QAAXJGGPAXPBEZZ 0041b3f0 f   uafxcw:winocc.obj
 0001:0001a419       ?GetProperty@CWnd@@QBEXJGPAX@Z 0041b419 f   uafxcw:winocc.obj
 0001:0001a43e       ?SetProperty@CWnd@@QAAXJGZZ 0041b43e f   uafxcw:winocc.obj
 0001:0001a45e       ?GetDSCCursor@CWnd@@QAEPAUIUnknown@@XZ 0041b45e f   uafxcw:winocc.obj
 0001:0001a486       ?BindDefaultProperty@CWnd@@QAEXJGPB_WPAV1@@Z 0041b486 f   uafxcw:winocc.obj
 0001:0001a497       ?BindProperty@CWnd@@QAEXJPAV1@@Z 0041b497 f   uafxcw:winocc.obj
 0001:0001a4a8       ?AttachControlSite@CWnd@@QAEXPAV1@I@Z 0041b4a8 f   uafxcw:winocc.obj
 0001:0001a4d1       ?GetStyle@COleControlSiteOrWnd@@QBEKXZ 0041b4d1 f   uafxcw:winocc.obj
 0001:0001a4ea       ?IsDisabled@CDlgGroupRadioButtonIterator@@SA_NPBUCOleControlSiteOrWnd@@@Z 0041b4ea f i uafxcw:winocc.obj
 0001:0001a533       ?IsGroup@CDlgGroupRadioButtonIterator@@SA_NPBUCOleControlSiteOrWnd@@@Z 0041b533 f i uafxcw:winocc.obj
 0001:0001a548       ?AttachControlSite@COleControlContainer@@UAEXPAVCWnd@@I@Z 0041b548 f   uafxcw:winocc.obj
 0001:0001a58b       ??0?$CTypedPtrListIterator@VCPtrList@@PAUCOleControlSiteOrWnd@@@@QAE@ABV?$CTypedPtrList@VCPtrList@@PAUCOleControlSiteOrWnd@@@@PAU__POSITION@@@Z 0041b58b f i uafxcw:winocc.obj
 0001:0001a5a1       ??0?$CTypedPtrListIterator@VCPtrList@@PAUCOleControlSiteOrWnd@@@@QAE@ABV0@@Z 0041b5a1 f i uafxcw:winocc.obj
 0001:0001a5c2       ??4?$CTypedPtrListIterator@VCPtrList@@PAUCOleControlSiteOrWnd@@@@QAEAAV0@ABV0@@Z 0041b5c2 f i uafxcw:winocc.obj
 0001:0001a5e1       ?GetPosition@?$CTypedPtrListIterator@VCPtrList@@PAUCOleControlSiteOrWnd@@@@QBEPAU__POSITION@@XZ 0041b5e1 f i uafxcw:winocc.obj
 0001:0001a5e5       ?IsEnd@?$CTypedPtrListIterator@VCPtrList@@PAUCOleControlSiteOrWnd@@@@QBE_NXZ 0041b5e5 f i uafxcw:winocc.obj
 0001:0001a5ee       ??7?$CTypedPtrListIterator@VCPtrList@@PAUCOleControlSiteOrWnd@@@@QBE_NXZ 0041b5ee f i uafxcw:winocc.obj
 0001:0001a5f7       ?GetHeadPosition@CPtrList@@QBEPAU__POSITION@@XZ 0041b5f7 f i uafxcw:winocc.obj
 0001:0001a5fb       ?GetTailPosition@CPtrList@@QBEPAU__POSITION@@XZ 0041b5fb f i uafxcw:winocc.obj
 0001:0001a5ff       ?GetNext@CPtrList@@QAEAAPAXAAPAU__POSITION@@@Z 0041b5ff f i uafxcw:winocc.obj
 0001:0001a61d       ?GetNext@CPtrList@@QBEPBXAAPAU__POSITION@@@Z 0041b61d f i uafxcw:winocc.obj
 0001:0001a63b       ?GetPrev@CPtrList@@QAEAAPAXAAPAU__POSITION@@@Z 0041b63b f i uafxcw:winocc.obj
 0001:0001a65a       ?GetPrev@CPtrList@@QBEPBXAAPAU__POSITION@@@Z 0041b65a f i uafxcw:winocc.obj
 0001:0001a679       ?GetAt@CPtrList@@QBEPBXPAU__POSITION@@@Z 0041b679 f i uafxcw:winocc.obj
 0001:0001a691       ?LookupPermanent@CHandleMap@@QAEPAVCObject@@PAX@Z 0041b691 f i uafxcw:winocc.obj
 0001:0001a69f       ?ScrollWindowEx@CWnd@@QAEHHHPBUtagRECT@@0PAVCRgn@@PAU2@I@Z 0041b69f f   uafxcw:winocc.obj
 0001:0001a6f2       ?SetWindowPos@CWnd@@QAEHPBV1@HHHHI@Z 0041b6f2 f   uafxcw:winocc.obj
 0001:0001a730       ?AttachControlSite@CWnd@@IAEXPAVCHandleMap@@@Z 0041b730 f   uafxcw:winocc.obj
 0001:0001a774       ??0CDlgControlIterator@@QAE@ABVCOleControlContainer@@PAU__POSITION@@@Z 0041b774 f i uafxcw:winocc.obj
 0001:0001a78d       ??0CDlgControlIterator@@QAE@ABV0@@Z 0041b78d f i uafxcw:winocc.obj
 0001:0001a7a4       ??0CDlgControlIterator@@IAE@ABV?$CTypedPtrListIterator@VCPtrList@@PAUCOleControlSiteOrWnd@@@@@Z 0041b7a4 f i uafxcw:winocc.obj
 0001:0001a7bb       ??0CDlgGroupRadioButtonIterator@@QAE@AAVCOleControlContainer@@PAU__POSITION@@@Z 0041b7bb f i uafxcw:winocc.obj
 0001:0001a7d4       ?IsEnd@CDlgGroupRadioButtonIterator@@QBE_NXZ 0041b7d4 f i uafxcw:winocc.obj
 0001:0001a7dd       ??4CDlgControlIterator@@QAEAAV0@ABV0@@Z 0041b7dd f i uafxcw:winocc.obj
 0001:0001a7f4       ?GetNext@?$_CTypedPtrList@VCPtrList@@PAUCOleControlSiteOrWnd@@@@QAEAAPAUCOleControlSiteOrWnd@@AAPAU__POSITION@@@Z 0041b7f4 f i uafxcw:winocc.obj
 0001:0001a7ff       ?GetPrev@?$_CTypedPtrList@VCPtrList@@PAUCOleControlSiteOrWnd@@@@QAEAAPAUCOleControlSiteOrWnd@@AAPAU__POSITION@@@Z 0041b7ff f i uafxcw:winocc.obj
 0001:0001a80a       ??0?$CTypedPtrListIterator@VCPtrList@@PAUCOleControlSiteOrWnd@@@@QAE@ABV?$CTypedPtrList@VCPtrList@@PAUCOleControlSiteOrWnd@@@@@Z 0041b80a f i uafxcw:winocc.obj
 0001:0001a820       ?GetNext@?$_CTypedPtrList@VCPtrList@@PAUCOleControlSiteOrWnd@@@@QBEPAUCOleControlSiteOrWnd@@AAPAU__POSITION@@@Z 0041b820 f i uafxcw:winocc.obj
 0001:0001a82b       ?GetPrev@?$_CTypedPtrList@VCPtrList@@PAUCOleControlSiteOrWnd@@@@QBEPAUCOleControlSiteOrWnd@@AAPAU__POSITION@@@Z 0041b82b f i uafxcw:winocc.obj
 0001:0001a836       ?GetAt@?$_CTypedPtrList@VCPtrList@@PAUCOleControlSiteOrWnd@@@@QBEPAUCOleControlSiteOrWnd@@PAU__POSITION@@@Z 0041b836 f i uafxcw:winocc.obj
 0001:0001a841       ?GetNextDlgTabItem@CWnd@@QBEPAUCOleControlSiteOrWnd@@PAU2@H@Z 0041b841 f   uafxcw:winocc.obj
 0001:0001a981       ??0CDlgControlIterator@@QAE@ABVCOleControlContainer@@@Z 0041b981 f i uafxcw:winocc.obj
 0001:0001a99a       ?RemoveRadioCheckFromGroup@CWnd@@QBEXPBUCOleControlSiteOrWnd@@@Z 0041b99a f   uafxcw:winocc.obj
 0001:0001aaac       ?MoveNext@?$CTypedPtrListIterator@VCPtrList@@PAUCOleControlSiteOrWnd@@@@QAEXXZ 0041baac f i uafxcw:winocc.obj
 0001:0001aabd       ?MovePrev@?$CTypedPtrListIterator@VCPtrList@@PAUCOleControlSiteOrWnd@@@@QAEXXZ 0041babd f i uafxcw:winocc.obj
 0001:0001aace       ?Skip@?$CTypedPtrListIterator@VCPtrList@@PAUCOleControlSiteOrWnd@@@@QBE?AV1@H@Z 0041bace f i uafxcw:winocc.obj
 0001:0001ab0c       ??D?$CTypedPtrListIterator@VCPtrList@@PAUCOleControlSiteOrWnd@@@@QAEPAUCOleControlSiteOrWnd@@XZ 0041bb0c f i uafxcw:winocc.obj
 0001:0001ab21       ??D?$CTypedPtrListIterator@VCPtrList@@PAUCOleControlSiteOrWnd@@@@QBEQAUCOleControlSiteOrWnd@@XZ 0041bb21 f i uafxcw:winocc.obj
 0001:0001ab26       ?GetWindowTextW@CWnd@@QBEHPA_WH@Z 0041bb26 f   uafxcw:winocc.obj
 0001:0001ab99       ?GetWindowTextLengthW@CWnd@@QBEHXZ 0041bb99 f   uafxcw:winocc.obj
 0001:0001abe9       ?Skip@CDlgControlIterator@@QBE?AV1@H@Z 0041bbe9 f i uafxcw:winocc.obj
 0001:0001ac0c       ??BCDlgGroupRadioButtonIterator@@QBEPAUCOleControlSiteOrWnd@@XZ 0041bc0c f i uafxcw:winocc.obj
 0001:0001ac1c       ?GetFirstButton@CDlgGroupRadioButtonIterator@@QBE?AVCDlgControlIterator@@XZ 0041bc1c f i uafxcw:winocc.obj
 0001:0001ac82       ?GetLastButton@CDlgGroupRadioButtonIterator@@QBE?AVCDlgControlIterator@@XZ 0041bc82 f i uafxcw:winocc.obj
 0001:0001ace3       ?FindSiteOrWnd@CWnd@@QBEPAU__POSITION@@PBUCOleControlSiteOrWnd@@@Z 0041bce3 f   uafxcw:winocc.obj
 0001:0001ad3c       ?FindSiteOrWndWithFocus@CWnd@@QBEPAU__POSITION@@XZ 0041bd3c f   uafxcw:winocc.obj
 0001:0001adca       ?MoveNext@CDlgGroupRadioButtonIterator@@QAEXXZ 0041bdca f i uafxcw:winocc.obj
 0001:0001ae53       ?MovePrev@CDlgGroupRadioButtonIterator@@QAEXXZ 0041be53 f i uafxcw:winocc.obj
 0001:0001aede       ?GetPrevDlgGroupItem@CWnd@@QBEPAUCOleControlSiteOrWnd@@PAU2@@Z 0041bede f   uafxcw:winocc.obj
 0001:0001af35       ?GetNextDlgGroupItem@CWnd@@QBEPAUCOleControlSiteOrWnd@@PAU2@@Z 0041bf35 f   uafxcw:winocc.obj
 0001:0001af8c       ?UnlockResource@@YGHPAX@Z  0041bf8c f i uafxcw:wincore.obj
 0001:0001af91       ?AllocSysString@?$ChTraitsCRT@_W@ATL@@SAPA_WPB_WH@Z 0041bf91 f i uafxcw:wincore.obj
 0001:0001afa4       _IsPlatformNT              0041bfa4 f   uafxcw:wincore.obj
 0001:0001affe       _InitMultipleMonitorStubs  0041bffe f   uafxcw:wincore.obj
 0001:0001b108       _xGetSystemMetrics@4       0041c108 f   uafxcw:wincore.obj
 0001:0001b156       _xMonitorFromPoint@12      0041c156 f   uafxcw:wincore.obj
 0001:0001b1ae       _xMonitorFromRect@8        0041c1ae f   uafxcw:wincore.obj
 0001:0001b1ff       _xMonitorFromWindow@8      0041c1ff f   uafxcw:wincore.obj
 0001:0001b26c       _xGetMonitorInfo@8         0041c26c f   uafxcw:wincore.obj
 0001:0001b332       _xEnumDisplayMonitors@16   0041c332 f   uafxcw:wincore.obj
 0001:0001b41f       _xEnumDisplayDevices@16    0041c41f f   uafxcw:wincore.obj
 0001:0001b498       ?AtlIAccessibleInvokeHelper@ATL@@YGJPAUIAccessible@@JABU_GUID@@KGPAUtagDISPPARAMS@@PAUtagVARIANT@@PAUtagEXCEPINFO@@PAI@Z 0041c498 f i uafxcw:wincore.obj
 0001:0001ba64       ?AtlIAccessibleGetIDsOfNamesHelper@ATL@@YGJABU_GUID@@PAPA_WIKPAJ@Z 0041ca64 f i uafxcw:wincore.obj
 0001:0001bac6       ??1?$CProcessLocal@V_AFX_HTMLHELP_STATE@@@@QAE@XZ 0041cac6 f i uafxcw:wincore.obj
 0001:0001bacb       ??0XAccessible@CWnd@@QAE@XZ 0041cacb f i uafxcw:wincore.obj
 0001:0001bad4       ??0XAccessibleServer@CWnd@@QAE@XZ 0041cad4 f i uafxcw:wincore.obj
 0001:0001badd       ??0CWnd@@AAE@PAUHWND__@@@Z 0041cadd f   uafxcw:wincore.obj
 0001:0001bb28       ??0CPoint@@QAE@HH@Z        0041cb28 f i uafxcw:wincore.obj
 0001:0001bb3e       ??0CPoint@@QAE@J@Z         0041cb3e f i uafxcw:wincore.obj
 0001:0001bb5a       ?_AfxModifyStyle@@YGHPAUHWND__@@HKKI@Z 0041cb5a f   uafxcw:wincore.obj
 0001:0001bbac       ?ModifyStyle@CWnd@@SGHPAUHWND__@@KKI@Z 0041cbac f   uafxcw:wincore.obj
 0001:0001bbc8       ?ModifyStyleEx@CWnd@@SGHPAUHWND__@@KKI@Z 0041cbc8 f   uafxcw:wincore.obj
 0001:0001bbe4       ?PreSubclassWindow@CWnd@@UAEXXZ 0041cbe4 f   uafxcw:wincore.obj
 0001:0001bbe5       ?GetMenu@CWnd@@UBEPAVCMenu@@XZ 0041cbe5 f   uafxcw:wincore.obj
 0001:0001bbf5       ?TopLeft@CRect@@QAEAAVCPoint@@XZ 0041cbf5 f i uafxcw:wincore.obj
 0001:0001bbf8       ?BottomRight@CRect@@QAEAAVCPoint@@XZ 0041cbf8 f i uafxcw:wincore.obj
 0001:0001bbfc       ?PtInRect@CRect@@QBEHUtagPOINT@@@Z 0041cbfc f i uafxcw:wincore.obj
 0001:0001bc12       ??4CRect@@QAEXABUtagRECT@@@Z 0041cc12 f i uafxcw:wincore.obj
 0001:0001bc25       ?PostNcDestroy@CWnd@@MAEXXZ 0041cc25 f   uafxcw:wincore.obj
 0001:0001bc26       ?OnFinalRelease@CWnd@@UAEXXZ 0041cc26 f   uafxcw:wincore.obj
 0001:0001bc37       ?DefWindowProcW@CWnd@@MAEJIIJ@Z 0041cc37 f   uafxcw:wincore.obj
 0001:0001bc80       ?GetSuperWndProcAddr@CWnd@@MAEPAP6GJPAUHWND__@@IIJ@ZXZ 0041cc80 f   uafxcw:wincore.obj
 0001:0001bc84       ?PreTranslateMessage@CWnd@@UAEHPAUtagMSG@@@Z 0041cc84 f   uafxcw:wincore.obj
 0001:0001bca5       ??1CNoTrackObject@@UAE@XZ  0041cca5 f i uafxcw:wincore.obj
 0001:0001bca6       ?OnToolHitTest@CWnd@@UBEHVCPoint@@PAUtagTOOLINFOW@@@Z 0041cca6 f   uafxcw:wincore.obj
 0001:0001bd19       ?GetWindowPlacement@CWnd@@QBEHPAUtagWINDOWPLACEMENT@@@Z 0041cd19 f   uafxcw:wincore.obj
 0001:0001bd35       ?SetWindowPlacement@CWnd@@QAEHPBUtagWINDOWPLACEMENT@@@Z 0041cd35 f   uafxcw:wincore.obj
 0001:0001bd51       ??1_AFX_HTMLHELP_STATE@@UAE@XZ 0041cd51 f   uafxcw:wincore.obj
 0001:0001bd66       ??_G_AFX_HTMLHELP_STATE@@UAEPAXI@Z 0041cd66 f i uafxcw:wincore.obj
 0001:0001bd66       ??_E_AFX_HTMLHELP_STATE@@UAEPAXI@Z 0041cd66 f i uafxcw:wincore.obj
 0001:0001bd86       ?AfxFindMessageEntry@@YGPBUAFX_MSGMAP_ENTRY@@PBU1@III@Z 0041cd86 f   uafxcw:wincore.obj
 0001:0001bdc8       ?AfxResetMsgCache@@YGXXZ   0041cdc8 f   uafxcw:wincore.obj
 0001:0001bddd       ?WindowProc@CWnd@@MAEJIIJ@Z 0041cddd f   uafxcw:wincore.obj
 0001:0001be23       ??0CTestCmdUI@@QAE@XZ      0041ce23 f   uafxcw:wincore.obj
 0001:0001be3e       ?Enable@CTestCmdUI@@UAEXH@Z 0041ce3e f   uafxcw:wincore.obj
 0001:0001be54       ?SetCheck@CTestCmdUI@@UAEXH@Z 0041ce54 f   uafxcw:wincore.obj
 0001:0001be57       ?SetRadio@CTestCmdUI@@UAEXH@Z 0041ce57 f   uafxcw:wincore.obj
 0001:0001be5a       ?SetText@CTestCmdUI@@UAEXPB_W@Z 0041ce5a f   uafxcw:wincore.obj
 0001:0001be5d       ?GetScrollBarCtrl@CWnd@@UBEPAVCScrollBar@@H@Z 0041ce5d f   uafxcw:wincore.obj
 0001:0001be62       ?SetScrollInfo@CWnd@@QAEHHPAUtagSCROLLINFO@@H@Z 0041ce62 f   uafxcw:wincore.obj
 0001:0001bea2       ?GetScrollInfo@CWnd@@QAEHHPAUtagSCROLLINFO@@I@Z 0041cea2 f   uafxcw:wincore.obj
 0001:0001bee2       ?AfxRepositionWindow@@YGXPAUAFX_SIZEPARENTPARAMS@@PAUHWND__@@PBUtagRECT@@@Z 0041cee2 f   uafxcw:wincore.obj
 0001:0001bf70       ?CalcWindowRect@CWnd@@UAEXPAUtagRECT@@I@Z 0041cf70 f   uafxcw:wincore.obj
 0001:0001bfa1       ?GetInterfaceMap@CWnd@@MBEPBUAFX_INTERFACEMAP@@XZ 0041cfa1 f   uafxcw:wincore.obj
 0001:0001bfa7       ?GetIDsOfNames@XAccessible@CWnd@@UAGJABU_GUID@@PAPA_WIKPAJ@Z 0041cfa7 f   uafxcw:wincore.obj
 0001:0001bfc4       ?GetTypeInfoCount@XAccessible@CWnd@@UAGJPAI@Z 0041cfc4 f   uafxcw:wincore.obj
 0001:0001bfe3       ?GetTypeInfo@XAccessible@CWnd@@UAGJIKPAPAUITypeInfo@@@Z 0041cfe3 f   uafxcw:wincore.obj
 0001:0001bfeb       ?GetEnumVariant@XAccessibleServer@CWnd@@UAGJPAPAUIEnumVARIANT@@@Z 0041cfeb f   uafxcw:wincore.obj
 0001:0001c00a       ?EnsureStdObj@CWnd@@UAEJXZ 0041d00a f   uafxcw:wincore.obj
 0001:0001c029       ?get_accParent@CWnd@@UAEJPAPAUIDispatch@@@Z 0041d029 f   uafxcw:wincore.obj
 0001:0001c03e       ?get_accChildCount@CWnd@@UAEJPAJ@Z 0041d03e f   uafxcw:wincore.obj
 0001:0001c053       ?get_accChild@CWnd@@UAEJUtagVARIANT@@PAPAUIDispatch@@@Z 0041d053 f   uafxcw:wincore.obj
 0001:0001c078       ?get_accName@CWnd@@UAEJUtagVARIANT@@PAPA_W@Z 0041d078 f   uafxcw:wincore.obj
 0001:0001c09d       ?get_accValue@CWnd@@UAEJUtagVARIANT@@PAPA_W@Z 0041d09d f   uafxcw:wincore.obj
 0001:0001c0c2       ?get_accDescription@CWnd@@UAEJUtagVARIANT@@PAPA_W@Z 0041d0c2 f   uafxcw:wincore.obj
 0001:0001c0e7       ?get_accRole@CWnd@@UAEJUtagVARIANT@@PAU2@@Z 0041d0e7 f   uafxcw:wincore.obj
 0001:0001c10c       ?get_accState@CWnd@@UAEJUtagVARIANT@@PAU2@@Z 0041d10c f   uafxcw:wincore.obj
 0001:0001c131       ?get_accHelp@CWnd@@UAEJUtagVARIANT@@PAPA_W@Z 0041d131 f   uafxcw:wincore.obj
 0001:0001c156       ?get_accHelpTopic@CWnd@@UAEJPAPA_WUtagVARIANT@@PAJ@Z 0041d156 f   uafxcw:wincore.obj
 0001:0001c17e       ?get_accKeyboardShortcut@CWnd@@UAEJUtagVARIANT@@PAPA_W@Z 0041d17e f   uafxcw:wincore.obj
 0001:0001c1a3       ?get_accFocus@CWnd@@UAEJPAUtagVARIANT@@@Z 0041d1a3 f   uafxcw:wincore.obj
 0001:0001c1b8       ?get_accSelection@CWnd@@UAEJPAUtagVARIANT@@@Z 0041d1b8 f   uafxcw:wincore.obj
 0001:0001c1cd       ?get_accDefaultAction@CWnd@@UAEJUtagVARIANT@@PAPA_W@Z 0041d1cd f   uafxcw:wincore.obj
 0001:0001c1f2       ?accSelect@CWnd@@UAEJJUtagVARIANT@@@Z 0041d1f2 f   uafxcw:wincore.obj
 0001:0001c217       ?accLocation@CWnd@@UAEJPAJ000UtagVARIANT@@@Z 0041d217 f   uafxcw:wincore.obj
 0001:0001c245       ?accNavigate@CWnd@@UAEJJUtagVARIANT@@PAU2@@Z 0041d245 f   uafxcw:wincore.obj
 0001:0001c26d       ?accHitTest@CWnd@@UAEJJJPAUtagVARIANT@@@Z 0041d26d f   uafxcw:wincore.obj
 0001:0001c288       ?accDoDefaultAction@CWnd@@UAEJUtagVARIANT@@@Z 0041d288 f   uafxcw:wincore.obj
 0001:0001c2aa       ?put_accName@CWnd@@UAEJUtagVARIANT@@PA_W@Z 0041d2aa f   uafxcw:wincore.obj
 0001:0001c2cf       ?put_accValue@CWnd@@UAEJUtagVARIANT@@PA_W@Z 0041d2cf f   uafxcw:wincore.obj
 0001:0001c2f4       ?SetProxy@CWnd@@UAEJPAUIAccessibleProxy@@@Z 0041d2f4 f   uafxcw:wincore.obj
 0001:0001c305       ?GrayCtlColor@CWnd@@SGHPAUHDC__@@PAUHWND__@@IPAUHBRUSH__@@K@Z 0041d305 f   uafxcw:wincore.obj
 0001:0001c37c       ??0CDataExchange@@QAE@PAVCWnd@@H@Z 0041d37c f   uafxcw:wincore.obj
 0001:0001c396       ?CheckAutoCenter@CWnd@@UAEHXZ 0041d396 f   uafxcw:wincore.obj
 0001:0001c39a       ?PreTranslateInput@CWnd@@QAEHPAUtagMSG@@@Z 0041d39a f   uafxcw:wincore.obj
 0001:0001c3cf       ?ContinueModal@CWnd@@UAEHXZ 0041d3cf f   uafxcw:wincore.obj
 0001:0001c3d6       ?SetOccDialogInfo@CWnd@@MAEHPAU_AFX_OCC_DIALOG_INFO@@@Z 0041d3d6 f   uafxcw:wincore.obj
 0001:0001c3db       ?GetOccDialogInfo@CWnd@@MAEPAU_AFX_OCC_DIALOG_INFO@@XZ 0041d3db f   uafxcw:wincore.obj
 0001:0001c3de       ?IsFrameWnd@CWnd@@UBEHXZ   0041d3de f   uafxcw:wincore.obj
 0001:0001c3e1       ?IsFrameWnd@CFrameWnd@@UBEHXZ 0041d3e1 f   uafxcw:wincore.obj
 0001:0001c3e5       ?IsTracking@CFrameWnd@@QBEHXZ 0041d3e5 f   uafxcw:wincore.obj
 0001:0001c404       ?CreateControlContainer@CWnd@@MAEHPAPAVCOleControlContainer@@@Z 0041d404 f   uafxcw:wincore.obj
 0001:0001c41f       ?CreateControlSite@CWnd@@MAEHPAVCOleControlContainer@@PAPAVCOleControlSite@@IABU_GUID@@@Z 0041d41f f   uafxcw:wincore.obj
 0001:0001c43a       ?GetControlContainer@CWnd@@QAEPAVCOleControlContainer@@XZ 0041d43a f   uafxcw:wincore.obj
 0001:0001c43e       ?GetRuntimeClass@CWnd@@UBEPAUCRuntimeClass@@XZ 0041d43e f   uafxcw:wincore.obj
 0001:0001c444       ??0IUnknown@@QAE@XZ        0041d444 f i uafxcw:wincore.obj
 0001:0001c447       ?Destruct@?$ConstructDestruct@VCWnd@@@@SGXPAVCObject@@@Z 0041d447 f i uafxcw:wincore.obj
 0001:0001c45a       ??1?$CComPtrBase@UIAccessibleProxy@@@ATL@@QAE@XZ 0041d45a f i uafxcw:wincore.obj
 0001:0001c467       ??B?$CComPtrBase@UIAccessibleProxy@@@ATL@@QBEPAUIAccessibleProxy@@XZ 0041d467 f i uafxcw:wincore.obj
 0001:0001c46a       ??I?$CComPtrBase@UIAccessibleProxy@@@ATL@@QAEPAPAUIAccessibleProxy@@XZ 0041d46a f i uafxcw:wincore.obj
 0001:0001c46d       ??C?$CComPtrBase@UIAccessibleProxy@@@ATL@@QBEPAV?$_NoAddRefReleaseOnCComPtr@UIAccessibleProxy@@@1@XZ 0041d46d f i uafxcw:wincore.obj
 0001:0001c470       ??0IAccessibleProxy@@QAE@XZ 0041d470 f i uafxcw:wincore.obj
 0001:0001c473       ??0IDispatch@@QAE@XZ       0041d473 f i uafxcw:wincore.obj
 0001:0001c476       ??0?$CComPtrBase@UIAccessibleProxy@@@ATL@@IAE@XZ 0041d476 f i uafxcw:wincore.obj
 0001:0001c47c       ??$QueryInterface@UIAccessibleProxy@@@?$CMFCComObject@VCAccessibleProxy@ATL@@@@QAGJPAPAUIAccessibleProxy@@@Z 0041d47c f i uafxcw:wincore.obj
 0001:0001c495       ??0CNoTrackObject@@QAE@XZ  0041d495 f i uafxcw:wincore.obj
 0001:0001c498       ??4InitCommonControls_Type@CComCtlWrapper@@QAEXP6GXXZ@Z 0041d498 f i uafxcw:wincore.obj
 0001:0001c4a6       ??BInitCommonControls_Type@CComCtlWrapper@@QAEP6GXXZXZ 0041d4a6 f i uafxcw:wincore.obj
 0001:0001c4a9       ??7InitCommonControls_Type@CComCtlWrapper@@QBE_NXZ 0041d4a9 f i uafxcw:wincore.obj
 0001:0001c4b1       ??4InitCommonControlsEx_Type@CComCtlWrapper@@QAEXP6GHPAUtagINITCOMMONCONTROLSEX@@@Z@Z 0041d4b1 f i uafxcw:wincore.obj
 0001:0001c4bf       ??BInitCommonControlsEx_Type@CComCtlWrapper@@QAEP6GHPAUtagINITCOMMONCONTROLSEX@@@ZXZ 0041d4bf f i uafxcw:wincore.obj
 0001:0001c4c2       ??7InitCommonControlsEx_Type@CComCtlWrapper@@QBE_NXZ 0041d4c2 f i uafxcw:wincore.obj
 0001:0001c4ca       ?AfxCtxRegisterClassW@@YAGPBUtagWNDCLASSW@@@Z 0041d4ca f i uafxcw:wincore.obj
 0001:0001c55c       ?AfxCtxGetClassInfoW@@YAHPAUHINSTANCE__@@PB_WPAUtagWNDCLASSW@@@Z 0041d55c f i uafxcw:wincore.obj
 0001:0001c5f0       ?AfxCtxGetClassInfoExW@@YAHPAUHINSTANCE__@@PB_WPAUtagWNDCLASSEXW@@@Z 0041d5f0 f i uafxcw:wincore.obj
 0001:0001c684       ?AfxCtxCreateWindowExW@@YAPAUHWND__@@KPB_W0KHHHHPAU1@PAUHMENU__@@PAUHINSTANCE__@@PAX@Z 0041d684 f i uafxcw:wincore.obj
 0001:0001c733       ?AfxCtxMessageBoxW@@YAHPAUHWND__@@PB_W1I@Z 0041d733 f i uafxcw:wincore.obj
 0001:0001c7ca       ?AfxCtxLoadLibraryA@@YAPAUHINSTANCE__@@PBD@Z 0041d7ca f i uafxcw:wincore.obj
 0001:0001c858       ??4InitNetworkAddressControl_Type@CShellWrapper@@QAEXP6GHXZ@Z 0041d858 f i uafxcw:wincore.obj
 0001:0001c866       ??BInitNetworkAddressControl_Type@CShellWrapper@@QAEP6GHXZXZ 0041d866 f i uafxcw:wincore.obj
 0001:0001c869       ??7InitNetworkAddressControl_Type@CShellWrapper@@QBE_NXZ 0041d869 f i uafxcw:wincore.obj
 0001:0001c871       ??1AFX_MAINTAIN_STATE2@@QAE@XZ 0041d871 f i uafxcw:wincore.obj
 0001:0001c881       ?GetSafeHmenu@CMenu@@QBEPAUHMENU__@@XZ 0041d881 f i uafxcw:wincore.obj
 0001:0001c88c       ?GetMenuItemCount@CMenu@@QBEIXZ 0041d88c f i uafxcw:wincore.obj
 0001:0001c896       ?GetMenuItemID@CMenu@@QBEIH@Z 0041d896 f i uafxcw:wincore.obj
 0001:0001c8ab       ?ScreenToClient@CWnd@@QBEXPAUtagPOINT@@@Z 0041d8ab f i uafxcw:wincore.obj
 0001:0001c8c0       ?IsWindowVisible@CWnd@@QBEHXZ 0041d8c0 f i uafxcw:wincore.obj
 0001:0001c8ca       ?ShowScrollBar@CWnd@@QAEXIH@Z 0041d8ca f i uafxcw:wincore.obj
 0001:0001c8e2       ?GetScrollPos@CScrollBar@@QBEHXZ 0041d8e2 f i uafxcw:wincore.obj
 0001:0001c8ee       ?SetScrollPos@CScrollBar@@QAEHHH@Z 0041d8ee f i uafxcw:wincore.obj
 0001:0001c908       ?GetScrollRange@CScrollBar@@QBEXPAH0@Z 0041d908 f i uafxcw:wincore.obj
 0001:0001c922       ?SetScrollRange@CScrollBar@@QAEXHHH@Z 0041d922 f i uafxcw:wincore.obj
 0001:0001c93f       ?SetWindowLongPtrW@@YAJPAUHWND__@@HJ@Z 0041d93f f i uafxcw:wincore.obj
 0001:0001c955       ?GetWindowLongPtrW@@YAJPAUHWND__@@H@Z 0041d955 f i uafxcw:wincore.obj
 0001:0001c968       ?AfxInvariantStrICmp@@YAHPB_W0@Z 0041d968 f i uafxcw:wincore.obj
 0001:0001c988       ?Lock@CInternalGlobalLock@@QAEXH@Z 0041d988 f i uafxcw:wincore.obj
 0001:0001c9bc       ?Unlock@CInternalGlobalLock@@QAEXXZ 0041d9bc f i uafxcw:wincore.obj
 0001:0001c9d8       ??0CComObjectRootBase@ATL@@QAE@XZ 0041d9d8 f i uafxcw:wincore.obj
 0001:0001c9de       ??1CComObjectRootBase@ATL@@QAE@XZ 0041d9de f i uafxcw:wincore.obj
 0001:0001c9df       ?FinalConstruct@CComObjectRootBase@ATL@@QAEJXZ 0041d9df f i uafxcw:wincore.obj
 0001:0001c9e2       ?_AtlFinalConstruct@CComObjectRootBase@ATL@@QAEJXZ 0041d9e2 f i uafxcw:wincore.obj
 0001:0001c9e5       ?SetVoid@CComObjectRootBase@ATL@@QAEXPAX@Z 0041d9e5 f i uafxcw:wincore.obj
 0001:0001c9e8       ?InternalFinalConstructAddRef@CComObjectRootBase@ATL@@QAEXXZ 0041d9e8 f i uafxcw:wincore.obj
 0001:0001c9e9       ?InternalFinalConstructRelease@CComObjectRootBase@ATL@@QAEXXZ 0041d9e9 f i uafxcw:wincore.obj
 0001:0001c9ea       ??1?$CComObjectRootEx@VCComSingleThreadModel@ATL@@@ATL@@QAE@XZ 0041d9ea f i uafxcw:wincore.obj
 0001:0001c9eb       ?_AtlInitialConstruct@?$CComObjectRootEx@VCComSingleThreadModel@ATL@@@ATL@@QAEJXZ 0041d9eb f i uafxcw:wincore.obj
 0001:0001c9ee       ??1CAccessibleProxy@ATL@@UAE@XZ 0041d9ee f i uafxcw:wincore.obj
 0001:0001c9ef       ??0?$CComObjectRootEx@VCComSingleThreadModel@ATL@@@ATL@@QAE@XZ 0041d9ef f i uafxcw:wincore.obj
 0001:0001c9f5       ??0IOleWindow@@QAE@XZ      0041d9f5 f i uafxcw:wincore.obj
 0001:0001c9f8       ??0CWnd@@QAE@XZ            0041d9f8 f   uafxcw:wincore.obj
 0001:0001ca3d       ?_AfxPreInitDialog@@YGXPAVCWnd@@PAUtagRECT@@PAK@Z 0041da3d f   uafxcw:wincore.obj
 0001:0001ca5e       ?SetMenu@CWnd@@UAEHPAVCMenu@@@Z 0041da5e f   uafxcw:wincore.obj
 0001:0001ca7b       ?CreateEx@CWnd@@UAEHKPB_W0KABUtagRECT@@PAV1@IPAX@Z 0041da7b f   uafxcw:wincore.obj
 0001:0001cac6       ?Create@CWnd@@UAEHPB_W0KABUtagRECT@@PAV1@IPAUCCreateContext@@@Z 0041dac6 f   uafxcw:wincore.obj
 0001:0001cb16       ?CancelToolTips@CWnd@@SGXH@Z 0041db16 f   uafxcw:wincore.obj
 0001:0001cb6c       ?TrackPopupMenu@CMenu@@QAEHIHHPAVCWnd@@PBUtagRECT@@@Z 0041db6c f   uafxcw:wincore.obj
 0001:0001cbc2       ?TrackPopupMenuEx@CMenu@@QAEHIHHPAVCWnd@@PAUtagTPMPARAMS@@@Z 0041dbc2 f   uafxcw:wincore.obj
 0001:0001cc16       ?_AfxFindPopupMenuFromID@@YGPAVCMenu@@PAV1@I@Z 0041dc16 f   uafxcw:wincore.obj
 0001:0001cc82       ?WinHelpInternal@CWnd@@UAEXKI@Z 0041dc82 f   uafxcw:wincore.obj
 0001:0001ccd8       ?MessageBoxW@CWnd@@QAEHPB_W0I@Z 0041dcd8 f   uafxcw:wincore.obj
 0001:0001cd0f       ?SetScrollPos@CWnd@@QAEHHHH@Z 0041dd0f f   uafxcw:wincore.obj
 0001:0001cd43       ?GetScrollPos@CWnd@@QBEHH@Z 0041dd43 f   uafxcw:wincore.obj
 0001:0001cd6f       ?SetScrollRange@CWnd@@QAEXHHHH@Z 0041dd6f f   uafxcw:wincore.obj
 0001:0001cda6       ?GetScrollRange@CWnd@@QBEXHPAH0@Z 0041dda6 f   uafxcw:wincore.obj
 0001:0001cdda       ?EnableScrollBarCtrl@CWnd@@QAEXHH@Z 0041ddda f   uafxcw:wincore.obj
 0001:0001ce1e       ?GetScrollLimit@CWnd@@QAEHH@Z 0041de1e f   uafxcw:wincore.obj
 0001:0001ce67       ?ScrollWindow@CWnd@@QAEXHHPBUtagRECT@@0@Z 0041de67 f   uafxcw:wincore.obj
 0001:0001cf13       ?OnActivateTopLevel@CWnd@@IAEJIJ@Z 0041df13 f   uafxcw:wincore.obj
 0001:0001cf41       ?AddRef@XAccessible@CWnd@@UAGKXZ 0041df41 f   uafxcw:wincore.obj
 0001:0001cf89       ?Release@XAccessible@CWnd@@UAGKXZ 0041df89 f   uafxcw:wincore.obj
 0001:0001cfd1       ?QueryInterface@XAccessible@CWnd@@UAGJABU_GUID@@PAPAX@Z 0041dfd1 f   uafxcw:wincore.obj
 0001:0001d01f       ?Invoke@XAccessible@CWnd@@UAGJJABU_GUID@@KGPAUtagDISPPARAMS@@PAUtagVARIANT@@PAUtagEXCEPINFO@@PAI@Z 0041e01f f   uafxcw:wincore.obj
 0001:0001d07b       ?get_accParent@XAccessible@CWnd@@UAGJPAPAUIDispatch@@@Z 0041e07b f   uafxcw:wincore.obj
 0001:0001d0c9       ?get_accChildCount@XAccessible@CWnd@@UAGJPAJ@Z 0041e0c9 f   uafxcw:wincore.obj
 0001:0001d117       ?get_accChild@XAccessible@CWnd@@UAGJUtagVARIANT@@PAPAUIDispatch@@@Z 0041e117 f   uafxcw:wincore.obj
 0001:0001d171       ?get_accName@XAccessible@CWnd@@UAGJUtagVARIANT@@PAPA_W@Z 0041e171 f   uafxcw:wincore.obj
 0001:0001d1cb       ?get_accValue@XAccessible@CWnd@@UAGJUtagVARIANT@@PAPA_W@Z 0041e1cb f   uafxcw:wincore.obj
 0001:0001d225       ?get_accDescription@XAccessible@CWnd@@UAGJUtagVARIANT@@PAPA_W@Z 0041e225 f   uafxcw:wincore.obj
 0001:0001d27f       ?get_accRole@XAccessible@CWnd@@UAGJUtagVARIANT@@PAU3@@Z 0041e27f f   uafxcw:wincore.obj
 0001:0001d2d9       ?get_accState@XAccessible@CWnd@@UAGJUtagVARIANT@@PAU3@@Z 0041e2d9 f   uafxcw:wincore.obj
 0001:0001d333       ?get_accHelp@XAccessible@CWnd@@UAGJUtagVARIANT@@PAPA_W@Z 0041e333 f   uafxcw:wincore.obj
 0001:0001d38d       ?get_accHelpTopic@XAccessible@CWnd@@UAGJPAPA_WUtagVARIANT@@PAJ@Z 0041e38d f   uafxcw:wincore.obj
 0001:0001d3ea       ?get_accKeyboardShortcut@XAccessible@CWnd@@UAGJUtagVARIANT@@PAPA_W@Z 0041e3ea f   uafxcw:wincore.obj
 0001:0001d444       ?get_accFocus@XAccessible@CWnd@@UAGJPAUtagVARIANT@@@Z 0041e444 f   uafxcw:wincore.obj
 0001:0001d492       ?get_accSelection@XAccessible@CWnd@@UAGJPAUtagVARIANT@@@Z 0041e492 f   uafxcw:wincore.obj
 0001:0001d4e0       ?get_accDefaultAction@XAccessible@CWnd@@UAGJUtagVARIANT@@PAPA_W@Z 0041e4e0 f   uafxcw:wincore.obj
 0001:0001d53a       ?accSelect@XAccessible@CWnd@@UAGJJUtagVARIANT@@@Z 0041e53a f   uafxcw:wincore.obj
 0001:0001d594       ?accLocation@XAccessible@CWnd@@UAGJPAJ000UtagVARIANT@@@Z 0041e594 f   uafxcw:wincore.obj
 0001:0001d5f7       ?accNavigate@XAccessible@CWnd@@UAGJJUtagVARIANT@@PAU3@@Z 0041e5f7 f   uafxcw:wincore.obj
 0001:0001d654       ?accHitTest@XAccessible@CWnd@@UAGJJJPAUtagVARIANT@@@Z 0041e654 f   uafxcw:wincore.obj
 0001:0001d6a8       ?accDoDefaultAction@XAccessible@CWnd@@UAGJUtagVARIANT@@@Z 0041e6a8 f   uafxcw:wincore.obj
 0001:0001d6ff       ?put_accName@XAccessible@CWnd@@UAGJUtagVARIANT@@PA_W@Z 0041e6ff f   uafxcw:wincore.obj
 0001:0001d759       ?put_accValue@XAccessible@CWnd@@UAGJUtagVARIANT@@PA_W@Z 0041e759 f   uafxcw:wincore.obj
 0001:0001d7b3       ?AddRef@XAccessibleServer@CWnd@@UAGKXZ 0041e7b3 f   uafxcw:wincore.obj
 0001:0001d7fb       ?Release@XAccessibleServer@CWnd@@UAGKXZ 0041e7fb f   uafxcw:wincore.obj
 0001:0001d843       ?QueryInterface@XAccessibleServer@CWnd@@UAGJABU_GUID@@PAPAX@Z 0041e843 f   uafxcw:wincore.obj
 0001:0001d891       ?SetProxy@XAccessibleServer@CWnd@@UAGJPAUIAccessibleProxy@@@Z 0041e891 f   uafxcw:wincore.obj
 0001:0001d8df       ?GetHWND@XAccessibleServer@CWnd@@UAGJPAPAUHWND__@@@Z 0041e8df f   uafxcw:wincore.obj
 0001:0001d921       ??1?$CComPtr@UIAccessibleProxy@@@ATL@@QAE@XZ 0041e921 f i uafxcw:wincore.obj
 0001:0001d92e       ?GetWindowLessChildCount@CWnd@@QAEJXZ 0041e92e f   uafxcw:wincore.obj
 0001:0001d976       ?GetAccessibilityLocation@CWnd@@QAEJUtagVARIANT@@PAJ111@Z 0041e976 f   uafxcw:wincore.obj
 0001:0001da49       ?UpdateData@CWnd@@QAEHH@Z  0041ea49 f   uafxcw:wincore.obj
 0001:0001dad4       ?CenterWindow@CWnd@@QAEXPAV1@@Z 0041ead4 f   uafxcw:wincore.obj
 0001:0001dc94       ?RunModalLoop@CWnd@@QAEHK@Z 0041ec94 f   uafxcw:wincore.obj
 0001:0001ddd8       ?EndModalLoop@CWnd@@UAEXH@Z 0041edd8 f   uafxcw:wincore.obj
 0001:0001de02       ?CreateObject@CWnd@@SGPAVCObject@@XZ 0041ee02 f   uafxcw:wincore.obj
 0001:0001de2f       ?Construct@?$ConstructDestruct@VCWnd@@@@SGXPAVCObject@@@Z 0041ee2f f i uafxcw:wincore.obj
 0001:0001de56       ??0?$CComPtr@UIAccessibleProxy@@@ATL@@QAE@XZ 0041ee56 f i uafxcw:wincore.obj
 0001:0001de5c       ??0IAccessible@@QAE@XZ     0041ee5c f i uafxcw:wincore.obj
 0001:0001de5f       ??0_AFX_HTMLHELP_STATE@@QAE@XZ 0041ee5f f i uafxcw:wincore.obj
 0001:0001de68       ?GetProcAddress_InitCommonControls@CComCtlWrapper@@QAE?AUInitCommonControls_Type@1@XZ 0041ee68 f i uafxcw:wincore.obj
 0001:0001de97       ?_InitCommonControls@CComCtlWrapper@@QAEXXZ 0041ee97 f i uafxcw:wincore.obj
 0001:0001df0b       ?GetProcAddress_InitCommonControlsEx@CComCtlWrapper@@QAE?AUInitCommonControlsEx_Type@1@XZ 0041ef0b f i uafxcw:wincore.obj
 0001:0001df3a       ?_InitCommonControlsEx@CComCtlWrapper@@QAEHPAUtagINITCOMMONCONTROLSEX@@@Z 0041ef3a f i uafxcw:wincore.obj
 0001:0001dfe5       ?GetProcAddress_InitNetworkAddressControl@CShellWrapper@@QAE?AUInitNetworkAddressControl_Type@1@XZ 0041efe5 f i uafxcw:wincore.obj
 0001:0001e014       ?_InitNetworkAddressControl@CShellWrapper@@QAEHXZ 0041f014 f i uafxcw:wincore.obj
 0001:0001e0ba       ?AfxInitCommonControls@@YGXXZ 0041f0ba f i uafxcw:wincore.obj
 0001:0001e0c9       ?AfxInitCommonControlsEx@@YGHPAUtagINITCOMMONCONTROLSEX@@@Z 0041f0c9 f i uafxcw:wincore.obj
 0001:0001e0e4       ?AfxCtxInitNetworkAddressControl@@YGHXZ 0041f0e4 f i uafxcw:wincore.obj
 0001:0001e0f4       ??0CInternalGlobalLock@@QAE@H@Z 0041f0f4 f i uafxcw:wincore.obj
 0001:0001e115       ??1CInternalGlobalLock@@QAE@XZ 0041f115 f i uafxcw:wincore.obj
 0001:0001e11a       ?GetCurrentMessage@CWnd@@KGPBUtagMSG@@XZ 0041f11a f   uafxcw:wincore.obj
 0001:0001e158       ?Default@CWnd@@IAEJXZ      0041f158 f   uafxcw:wincore.obj
 0001:0001e18a       ?afxMapHWND@@YGPAVCHandleMap@@H@Z 0041f18a f   uafxcw:wincore.obj
 0001:0001e1fe       ?FromHandle@CWnd@@SGPAV1@PAUHWND__@@@Z 0041f1fe f   uafxcw:wincore.obj
 0001:0001e22a       ?FromHandlePermanent@CWnd@@SGPAV1@PAUHWND__@@@Z 0041f22a f   uafxcw:wincore.obj
 0001:0001e24b       ?Attach@CWnd@@QAEHPAUHWND__@@@Z 0041f24b f   uafxcw:wincore.obj
 0001:0001e287       ?Detach@CWnd@@QAEPAUHWND__@@XZ 0041f287 f   uafxcw:wincore.obj
 0001:0001e2b7       ?AfxUnhookWindowCreate@@YGHXZ 0041f2b7 f   uafxcw:wincore.obj
 0001:0001e304       ?OnDestroy@CWnd@@IAEXXZ    0041f304 f   uafxcw:wincore.obj
 0001:0001e341       ?OnNcDestroy@CWnd@@IAEXXZ  0041f341 f   uafxcw:wincore.obj
 0001:0001e454       ?DestroyWindow@CWnd@@UAEHXZ 0041f454 f   uafxcw:wincore.obj
 0001:0001e4b3       ?OnNTCtlColor@CWnd@@IAEJIJ@Z 0041f4b3 f   uafxcw:wincore.obj
 0001:0001e504       ?GetTopLevelOwner@CWnd@@QBEPAV1@XZ 0041f504 f   uafxcw:wincore.obj
 0001:0001e536       ?GetParentOwner@CWnd@@QBEPAV1@XZ 0041f536 f   uafxcw:wincore.obj
 0001:0001e57c       ?GetSafeOwner@CWnd@@SGPAV1@PAV1@PAPAUHWND__@@@Z 0041f57c f   uafxcw:wincore.obj
 0001:0001e59e       ?GetDescendantWindow@CWnd@@SGPAV1@PAUHWND__@@HH@Z 0041f59e f   uafxcw:wincore.obj
 0001:0001e617       ?RepositionBars@CWnd@@QAEXIIIIPAUtagRECT@@PBU2@H@Z 0041f617 f   uafxcw:wincore.obj
 0001:0001e763       ?WalkPreTranslateTree@CWnd@@SGHPAUHWND__@@PAUtagMSG@@@Z 0041f763 f   uafxcw:wincore.obj
 0001:0001e7a9       ?SendChildNotifyLastMsg@CWnd@@QAEHPAJ@Z 0041f7a9 f   uafxcw:wincore.obj
 0001:0001e7e4       ?OnSetFocus@CWnd@@IAEXPAV1@@Z 0041f7e4 f   uafxcw:wincore.obj
 0001:0001e809       ?OnHelpInfo@CWnd@@IAEHPAUtagHELPINFO@@@Z 0041f809 f   uafxcw:wincore.obj
 0001:0001e875       ?OnGetObject@CWnd@@IAEJIJ@Z 0041f875 f   uafxcw:wincore.obj
 0001:0001e8b3       ?OnHScroll@CWnd@@IAEXIIPAVCScrollBar@@@Z 0041f8b3 f   uafxcw:wincore.obj
 0001:0001e8d9       ?OnVScroll@CWnd@@IAEXIIPAVCScrollBar@@@Z 0041f8d9 f   uafxcw:wincore.obj
 0001:0001e8ff       ?OnPaint@CWnd@@IAEXXZ      0041f8ff f   uafxcw:wincore.obj
 0001:0001e948       ?OnEnterIdle@CWnd@@IAEXIPAV1@@Z 0041f948 f   uafxcw:wincore.obj
 0001:0001e98a       ?OnCtlColor@CWnd@@IAEPAUHBRUSH__@@PAVCDC@@PAV1@I@Z 0041f98a f   uafxcw:wincore.obj
 0001:0001e9b3       ?_AfxInitCommonControls@@YGJPAUtagINITCOMMONCONTROLSEX@@J@Z 0041f9b3 f   uafxcw:wincore.obj
 0001:0001ea0c       ?AfxInitNetworkAddressControl@@YGHXZ 0041fa0c f   uafxcw:wincore.obj
 0001:0001eaa8       ?UnsubclassWindow@CWnd@@QAEPAUHWND__@@XZ 0041faa8 f   uafxcw:wincore.obj
 0001:0001ead1       ?AllocSysString@?$CStringT@_WV?$StrTraitMFC@_WV?$ChTraitsCRT@_W@ATL@@@@@ATL@@QBEPA_WXZ 0041fad1 f i uafxcw:wincore.obj
 0001:0001eae7       ??0?$IAccessibleProxyImpl@VCAccessibleProxy@ATL@@@ATL@@QAE@XZ 0041fae7 f i uafxcw:wincore.obj
 0001:0001eaff       ?get_accParent@?$IAccessibleProxyImpl@VCAccessibleProxy@ATL@@@ATL@@UAGJPAPAUIDispatch@@@Z 0041faff f i uafxcw:wincore.obj
 0001:0001eb31       ?get_accChildCount@?$IAccessibleProxyImpl@VCAccessibleProxy@ATL@@@ATL@@UAGJPAJ@Z 0041fb31 f i uafxcw:wincore.obj
 0001:0001eb63       ?get_accChild@?$IAccessibleProxyImpl@VCAccessibleProxy@ATL@@@ATL@@UAGJUtagVARIANT@@PAPAUIDispatch@@@Z 0041fb63 f i uafxcw:wincore.obj
 0001:0001eba3       ?get_accName@?$IAccessibleProxyImpl@VCAccessibleProxy@ATL@@@ATL@@UAGJUtagVARIANT@@PAPA_W@Z 0041fba3 f i uafxcw:wincore.obj
 0001:0001ebe3       ?get_accValue@?$IAccessibleProxyImpl@VCAccessibleProxy@ATL@@@ATL@@UAGJUtagVARIANT@@PAPA_W@Z 0041fbe3 f i uafxcw:wincore.obj
 0001:0001ec23       ?get_accDescription@?$IAccessibleProxyImpl@VCAccessibleProxy@ATL@@@ATL@@UAGJUtagVARIANT@@PAPA_W@Z 0041fc23 f i uafxcw:wincore.obj
 0001:0001ec63       ?get_accRole@?$IAccessibleProxyImpl@VCAccessibleProxy@ATL@@@ATL@@UAGJUtagVARIANT@@PAU3@@Z 0041fc63 f i uafxcw:wincore.obj
 0001:0001eca3       ?get_accState@?$IAccessibleProxyImpl@VCAccessibleProxy@ATL@@@ATL@@UAGJUtagVARIANT@@PAU3@@Z 0041fca3 f i uafxcw:wincore.obj
 0001:0001ece3       ?get_accHelp@?$IAccessibleProxyImpl@VCAccessibleProxy@ATL@@@ATL@@UAGJUtagVARIANT@@PAPA_W@Z 0041fce3 f i uafxcw:wincore.obj
 0001:0001ed23       ?get_accHelpTopic@?$IAccessibleProxyImpl@VCAccessibleProxy@ATL@@@ATL@@UAGJPAPA_WUtagVARIANT@@PAJ@Z 0041fd23 f i uafxcw:wincore.obj
 0001:0001ed6c       ?get_accKeyboardShortcut@?$IAccessibleProxyImpl@VCAccessibleProxy@ATL@@@ATL@@UAGJUtagVARIANT@@PAPA_W@Z 0041fd6c f i uafxcw:wincore.obj
 0001:0001edac       ?get_accFocus@?$IAccessibleProxyImpl@VCAccessibleProxy@ATL@@@ATL@@UAGJPAUtagVARIANT@@@Z 0041fdac f i uafxcw:wincore.obj
 0001:0001edde       ?get_accSelection@?$IAccessibleProxyImpl@VCAccessibleProxy@ATL@@@ATL@@UAGJPAUtagVARIANT@@@Z 0041fdde f i uafxcw:wincore.obj
 0001:0001ee10       ?get_accDefaultAction@?$IAccessibleProxyImpl@VCAccessibleProxy@ATL@@@ATL@@UAGJUtagVARIANT@@PAPA_W@Z 0041fe10 f i uafxcw:wincore.obj
 0001:0001ee50       ?accSelect@?$IAccessibleProxyImpl@VCAccessibleProxy@ATL@@@ATL@@UAGJJUtagVARIANT@@@Z 0041fe50 f i uafxcw:wincore.obj
 0001:0001ee83       ?accLocation@?$IAccessibleProxyImpl@VCAccessibleProxy@ATL@@@ATL@@UAGJPAJ000UtagVARIANT@@@Z 0041fe83 f i uafxcw:wincore.obj
 0001:0001eedc       ?accNavigate@?$IAccessibleProxyImpl@VCAccessibleProxy@ATL@@@ATL@@UAGJJUtagVARIANT@@PAU3@@Z 0041fedc f i uafxcw:wincore.obj
 0001:0001ef1f       ?accHitTest@?$IAccessibleProxyImpl@VCAccessibleProxy@ATL@@@ATL@@UAGJJJPAUtagVARIANT@@@Z 0041ff1f f i uafxcw:wincore.obj
 0001:0001ef57       ?accDoDefaultAction@?$IAccessibleProxyImpl@VCAccessibleProxy@ATL@@@ATL@@UAGJUtagVARIANT@@@Z 0041ff57 f i uafxcw:wincore.obj
 0001:0001ef87       ?put_accName@?$IAccessibleProxyImpl@VCAccessibleProxy@ATL@@@ATL@@UAGJUtagVARIANT@@PA_W@Z 0041ff87 f i uafxcw:wincore.obj
 0001:0001efa4       ?put_accValue@?$IAccessibleProxyImpl@VCAccessibleProxy@ATL@@@ATL@@UAGJUtagVARIANT@@PA_W@Z 0041ffa4 f i uafxcw:wincore.obj
 0001:0001efc1       ?SetServer@?$IAccessibleProxyImpl@VCAccessibleProxy@ATL@@@ATL@@UAGJPAUIAccessible@@PAUIAccessibleServer@@@Z 0041ffc1 f i uafxcw:wincore.obj
 0001:0001efdb       ?Invoke@?$IAccessibleProxyImpl@VCAccessibleProxy@ATL@@@ATL@@UAGJJABU_GUID@@KGPAUtagDISPPARAMS@@PAUtagVARIANT@@PAUtagEXCEPINFO@@PAI@Z 0041ffdb f i uafxcw:wincore.obj
 0001:0001f015       ?GetIDsOfNames@?$IAccessibleProxyImpl@VCAccessibleProxy@ATL@@@ATL@@UAGJABU_GUID@@PAPA_WIKPAJ@Z 00420015 f i uafxcw:wincore.obj
 0001:0001f046       ?GetTypeInfoCount@?$IAccessibleProxyImpl@VCAccessibleProxy@ATL@@@ATL@@UAGJPAI@Z 00420046 f i uafxcw:wincore.obj
 0001:0001f06b       ?GetTypeInfo@?$IAccessibleProxyImpl@VCAccessibleProxy@ATL@@@ATL@@UAGJIKPAPAUITypeInfo@@@Z 0042006b f i uafxcw:wincore.obj
 0001:0001f096       ?CreateObject@?$CProcessLocal@V_AFX_HTMLHELP_STATE@@@@SGPAVCNoTrackObject@@XZ 00420096 f i uafxcw:wincore.obj
 0001:0001f0ab       ?GetDescendantWindow@CWnd@@QBEPAV1@HH@Z 004200ab f i uafxcw:wincore.obj
 0001:0001f0c2       ?SetActiveWindow@CWnd@@QAEPAV1@XZ 004200c2 f i uafxcw:wincore.obj
 0001:0001f0d2       ?GetLastActivePopup@CWnd@@QBEPAV1@XZ 004200d2 f i uafxcw:wincore.obj
 0001:0001f0e2       ?GetForegroundWindow@CWnd@@SGPAV1@XZ 004200e2 f i uafxcw:wincore.obj
 0001:0001f0ef       ??0CAccessibleProxy@ATL@@QAE@XZ 004200ef f i uafxcw:wincore.obj
 0001:0001f10a       ?_AfxPostInitDialog@@YGXPAVCWnd@@ABUtagRECT@@K@Z 0042010a f   uafxcw:wincore.obj
 0001:0001f180       ?AfxCallWndProc@@YGJPAVCWnd@@PAUHWND__@@IIJ@Z 00420180 f   uafxcw:wincore.obj
 0001:0001f273       ?AfxWndProc@@YGJPAUHWND__@@IIJ@Z 00420273 f   uafxcw:wincore.obj
 0001:0001f2c0       ?AfxGetAfxWndProc@@YGP6GJPAUHWND__@@IIJ@ZXZ 004202c0 f   uafxcw:wincore.obj
 0001:0001f2c6       ??1CWnd@@UAE@XZ            004202c6 f   uafxcw:wincore.obj
 0001:0001f33b       ?OnCharToItem@CWnd@@IAEHIPAVCListBox@@I@Z 0042033b f   uafxcw:wincore.obj
 0001:0001f368       ?OnVKeyToItem@CWnd@@IAEHIPAVCListBox@@I@Z 00420368 f   uafxcw:wincore.obj
 0001:0001f395       ?OnMeasureItem@CWnd@@IAEXHPAUtagMEASUREITEMSTRUCT@@@Z 00420395 f   uafxcw:wincore.obj
 0001:0001f41e       ?GetParentFrame@CWnd@@QBEPAVCFrameWnd@@XZ 0042041e f   uafxcw:wincore.obj
 0001:0001f45d       ?GetTopLevelFrame@CWnd@@QBEPAVCFrameWnd@@XZ 0042045d f   uafxcw:wincore.obj
 0001:0001f49e       ?SendMessageToDescendants@CWnd@@SGXPAUHWND__@@IIJHH@Z 0042049e f   uafxcw:wincore.obj
 0001:0001f51d       ?ReflectLastMsg@CWnd@@KGHPAUHWND__@@PAJ@Z 0042051d f   uafxcw:wincore.obj
 0001:0001f5bd       ?OnParentNotify@CWnd@@IAEXIJ@Z 004205bd f   uafxcw:wincore.obj
 0001:0001f5ed       ?OnDragList@CWnd@@IAEJIJ@Z 004205ed f   uafxcw:wincore.obj
 0001:0001f619       ?GetWindowedChildCount@CWnd@@QAEJXZ 00420619 f   uafxcw:wincore.obj
 0001:0001f639       ?GetAccessibleChildCount@CWnd@@QAEJXZ 00420639 f   uafxcw:wincore.obj
 0001:0001f652       ?GetAccessibleChild@CWnd@@QAEJUtagVARIANT@@PAPAUIDispatch@@@Z 00420652 f   uafxcw:wincore.obj
 0001:0001f6b3       ?GetAccessibilityHitTest@CWnd@@QAEJJJPAUtagVARIANT@@@Z 004206b3 f   uafxcw:wincore.obj
 0001:0001f758       ?UpdateDialogControls@CWnd@@QAEXPAVCCmdTarget@@H@Z 00420758 f   uafxcw:wincore.obj
 0001:0001f859       ?SubclassWindow@CWnd@@QAEHPAUHWND__@@@Z 00420859 f   uafxcw:wincore.obj
 0001:0001f89f       ?SubclassDlgItem@CWnd@@QAEHIPAV1@@Z 0042089f f   uafxcw:wincore.obj
 0001:0001f90d       ?GetData@?$CProcessLocal@V_AFX_HTMLHELP_STATE@@@@QAEPAV_AFX_HTMLHELP_STATE@@XZ 0042090d f i uafxcw:wincore.obj
 0001:0001f921       ??0?$CMFCComObject@VCAccessibleProxy@ATL@@@@QAE@PAX@Z 00420921 f i uafxcw:wincore.obj
 0001:0001f94e       _InlineIsEqualGUID         0042094e f i uafxcw:wincore.obj
 0001:0001f980       ?GetWindow@CAccessibleProxy@ATL@@UAGJPAPAUHWND__@@@Z 00420980 f i uafxcw:wincore.obj
 0001:0001f985       ?ContextSensitiveHelp@CAccessibleProxy@ATL@@UAGJH@Z 00420985 f i uafxcw:wincore.obj
 0001:0001f98d       ?FinalRelease@CAccessibleProxy@ATL@@QAEJXZ 0042098d f i uafxcw:wincore.obj
 0001:0001f9a2       ?_GetEntries@CAccessibleProxy@ATL@@SGPBU_ATL_INTMAP_ENTRY@2@XZ 004209a2 f i uafxcw:wincore.obj
 0001:0001f9a8       ?Increment@CComSingleThreadModel@ATL@@SGKPAJ@Z 004209a8 f i uafxcw:wincore.obj
 0001:0001f9b8       ?Decrement@CComSingleThreadModel@ATL@@SGKPAJ@Z 004209b8 f i uafxcw:wincore.obj
 0001:0001f9c8       ?InlineIsEqualUnknown@ATL@@YGHABU_GUID@@@Z 004209c8 f i uafxcw:wincore.obj
 0001:0001f9f8       ?AtlInternalQueryInterface@ATL@@YGJPAXPBU_ATL_INTMAP_ENTRY@1@ABU_GUID@@PAPAX@Z 004209f8 f i uafxcw:wincore.obj
 0001:0001fa9b       ?InternalQueryInterface@CComObjectRootBase@ATL@@SGJPAXPBU_ATL_INTMAP_ENTRY@2@ABU_GUID@@PAPAX@Z 00420a9b f i uafxcw:wincore.obj
 0001:0001faa6       ?InternalAddRef@?$CComObjectRootEx@VCComSingleThreadModel@ATL@@@ATL@@QAEKXZ 00420aa6 f i uafxcw:wincore.obj
 0001:0001faab       ?InternalRelease@?$CComObjectRootEx@VCComSingleThreadModel@ATL@@@ATL@@QAEKXZ 00420aab f i uafxcw:wincore.obj
 0001:0001fab0       ?_InternalQueryInterface@CAccessibleProxy@ATL@@QAEJABU_GUID@@PAPAX@Z 00420ab0 f i uafxcw:wincore.obj
 0001:0001faca       ??1?$CMFCComObject@VCAccessibleProxy@ATL@@@@UAE@XZ 00420aca f i uafxcw:wincore.obj
 0001:0001faef       ?AddRef@?$CMFCComObject@VCAccessibleProxy@ATL@@@@UAGKXZ 00420aef f i uafxcw:wincore.obj
 0001:0001fb01       ?Release@?$CMFCComObject@VCAccessibleProxy@ATL@@@@UAGKXZ 00420b01 f i uafxcw:wincore.obj
 0001:0001fb24       ?QueryInterface@?$CMFCComObject@VCAccessibleProxy@ATL@@@@UAGJABU_GUID@@PAPAX@Z 00420b24 f i uafxcw:wincore.obj
 0001:0001fb3b       ??_G?$CMFCComObject@VCAccessibleProxy@ATL@@@@UAEPAXI@Z 00420b3b f i uafxcw:wincore.obj
 0001:0001fb3b       ??_E?$CMFCComObject@VCAccessibleProxy@ATL@@@@UAEPAXI@Z 00420b3b f i uafxcw:wincore.obj
 0001:0001fb5c       ?Release@?$CMFCComObject@VCAccessibleProxy@ATL@@@@WBA@AGKXZ 00420b5c f i uafxcw:wincore.obj
 0001:0001fb66       ?QueryInterface@?$CMFCComObject@VCAccessibleProxy@ATL@@@@W3AGJABU_GUID@@PAPAX@Z 00420b66 f i uafxcw:wincore.obj
 0001:0001fb70       ?AddRef@?$CMFCComObject@VCAccessibleProxy@ATL@@@@WBA@AGKXZ 00420b70 f i uafxcw:wincore.obj
 0001:0001fb7a       ?QueryInterface@?$CMFCComObject@VCAccessibleProxy@ATL@@@@WBA@AGJABU_GUID@@PAPAX@Z 00420b7a f i uafxcw:wincore.obj
 0001:0001fb84       ?Release@?$CMFCComObject@VCAccessibleProxy@ATL@@@@W3AGKXZ 00420b84 f i uafxcw:wincore.obj
 0001:0001fb8e       ?AddRef@?$CMFCComObject@VCAccessibleProxy@ATL@@@@W3AGKXZ 00420b8e f i uafxcw:wincore.obj
 0001:0001fb98       ?GetOwner@CWnd@@QBEPAV1@XZ 00420b98 f i uafxcw:wincore.obj
 0001:0001fbaf       ?SendMessageToDescendants@CWnd@@QAEXIIJHH@Z 00420baf f i uafxcw:wincore.obj
 0001:0001fbcf       ??_ECWnd@@UAEPAXI@Z        00420bcf f i uafxcw:wincore.obj
 0001:0001fbcf       ??_GCWnd@@UAEPAXI@Z        00420bcf f i uafxcw:wincore.obj
 0001:0001fbf0       ?GetWindowTextW@CWnd@@QBEXAAV?$CStringT@_WV?$StrTraitMFC@_WV?$ChTraitsCRT@_W@ATL@@@@@ATL@@@Z 00420bf0 f   uafxcw:wincore.obj
 0001:0001fc3a       ?OnDrawItem@CWnd@@IAEXHPAUtagDRAWITEMSTRUCT@@@Z 00420c3a f   uafxcw:wincore.obj
 0001:0001fc7c       ?OnCompareItem@CWnd@@IAEHHPAUtagCOMPAREITEMSTRUCT@@@Z 00420c7c f   uafxcw:wincore.obj
 0001:0001fca8       ?OnDeleteItem@CWnd@@IAEXHPAUtagDELETEITEMSTRUCT@@@Z 00420ca8 f   uafxcw:wincore.obj
 0001:0001fccd       ?AfxHtmlHelp@@YGPAUHWND__@@PAU1@PB_WIK@Z 00420ccd f   uafxcw:wincore.obj
 0001:0001fd4d       ?OnCommand@CWnd@@MAEHIJ@Z  00420d4d f   uafxcw:wincore.obj
 0001:0001fde6       ?OnNotify@CWnd@@MAEHIJPAJ@Z 00420de6 f   uafxcw:wincore.obj
 0001:0001fe68       ?AfxGetParentOwner@@YGPAUHWND__@@PAU1@@Z 00420e68 f   uafxcw:wincore.obj
 0001:0001feb2       ?GetTopLevelParent@CWnd@@QBEPAV1@XZ 00420eb2 f   uafxcw:wincore.obj
 0001:0001feda       ?HandleFloatingSysCommand@CWnd@@QAEHIJ@Z 00420eda f   uafxcw:wincore.obj
 0001:0001ff9a       ?OnSysColorChange@CWnd@@IAEXXZ 00420f9a f   uafxcw:wincore.obj
 0001:0001ffe2       ?OnDevModeChange@CWnd@@IAEXPA_W@Z 00420fe2 f   uafxcw:wincore.obj
 0001:00020032       ?OnDisplayChange@CWnd@@IAEJIJ@Z 00421032 f   uafxcw:wincore.obj
 0001:0002007d       ?GetAccessibleName@CWnd@@QAEJUtagVARIANT@@PAPA_W@Z 0042107d f   uafxcw:wincore.obj
 0001:00020141       ?CreateInstance@?$CMFCComObject@VCAccessibleProxy@ATL@@@@SGJPAPAV1@@Z 00421141 f i uafxcw:wincore.obj
 0001:000201b3       ?EnsureTopLevelParent@CWnd@@QBEPAV1@XZ 004211b3 f i uafxcw:wincore.obj
 0001:000201c2       ?_AfxHandleActivate@@YGXPAVCWnd@@I0@Z 004211c2 f   uafxcw:wincore.obj
 0001:0002023a       ?_AfxHandleSetCursor@@YGHPAVCWnd@@II@Z 0042123a f   uafxcw:wincore.obj
 0001:000202b2       ?_AfxActivationWndProc@@YGJPAUHWND__@@IIJ@Z 004212b2 f   uafxcw:wincore.obj
 0001:000203ff       ?_AfxCbtFilterHook@@YGJHIJ@Z 004213ff f   uafxcw:wincore.obj
 0001:0002061f       ?AfxHookWindowCreate@@YGXPAVCWnd@@@Z 0042161f f   uafxcw:wincore.obj
 0001:00020679       ?CreateEx@CWnd@@UAEHKPB_W0KHHHHPAUHWND__@@PAUHMENU__@@PAX@Z 00421679 f   uafxcw:wincore.obj
 0001:00020758       ?PrepareForHelp@CWnd@@QAEXXZ 00421758 f   uafxcw:wincore.obj
 0001:000207d6       ?OnWndMsg@CWnd@@MAEHIIJPAJ@Z 004217d6 f   uafxcw:wincore.obj
 0001:00020eea       ?IsTopParentActive@CWnd@@QBEHXZ 00421eea f   uafxcw:wincore.obj
 0001:00020f27       ?ActivateTopParent@CWnd@@QAEXXZ 00421f27 f   uafxcw:wincore.obj
 0001:00020f6d       ?ReflectChildNotify@CWnd@@IAEHIIJPAJ@Z 00421f6d f   uafxcw:wincore.obj
 0001:00021054       ?OnSettingChange@CWnd@@IAEXIPB_W@Z 00422054 f   uafxcw:wincore.obj
 0001:00021080       ?CreateAccessibleProxy@CWnd@@UAEJIJPAJ@Z 00422080 f   uafxcw:wincore.obj
 0001:0002113a       ?WinHelpW@CWnd@@UAEXKI@Z   0042213a f   uafxcw:wincore.obj
 0001:000211aa       ?HtmlHelpW@CWnd@@UAEXKI@Z  004221aa f   uafxcw:wincore.obj
 0001:00021219       ?GetThisMessageMap@CWnd@@KGPBUAFX_MSGMAP@@XZ 00422219 f   uafxcw:wincore.obj
 0001:0002121f       ?OnChildNotify@CWnd@@MAEHIIJPAJ@Z 0042221f f   uafxcw:wincore.obj
 0001:00021268       ?GetDlgItemTextW@CWnd@@QBEHHAAV?$CStringT@_WV?$StrTraitMFC@_WV?$ChTraitsCRT@_W@ATL@@@@@ATL@@@Z 00422268 f   uafxcw:wincore.obj
 0001:000212dc       ?GetMessageMap@CWnd@@MBEPBUAFX_MSGMAP@@XZ 004222dc f   uafxcw:wincore.obj
 0001:000212e2       ?AfxRegisterClass@@YGHPAUtagWNDCLASSW@@@Z 004222e2 f   uafxcw:wincore.obj
 0001:0002136f       ?AfxRegisterWndClass@@YGPB_WIPAUHICON__@@PAUHBRUSH__@@0@Z 0042236f f   uafxcw:wincore.obj
 0001:00021474       ?ExecuteDlgInit@CWnd@@QAEHPAX@Z 00422474 f   uafxcw:wincore.obj
 0001:000215a1       ?_AfxRegisterWithIcon@@YGHPAUtagWNDCLASSW@@PB_WI@Z 004225a1 f   uafxcw:wincore.obj
 0001:000215e5       ?AfxEndDeferRegisterClass@@YGHJ@Z 004225e5 f   uafxcw:wincore.obj
 0001:000218d7       ?PreCreateWindow@CWnd@@UAEHAAUtagCREATESTRUCTW@@@Z 004228d7 f   uafxcw:wincore.obj
 0001:000218fc       ?ExecuteDlgInit@CWnd@@QAEHPB_W@Z 004228fc f   uafxcw:wincore.obj
 0001:00021966       ??$HashKey@PB_W@@YGIPB_W@Z 00422966 f   uafxcw:strcore.obj
 0001:0002199b       ??$HashKey@PBD@@YGIPBD@Z   0042299b f   uafxcw:strcore.obj
 0001:000219cd       ?AfxGetStringManager@@YGPAUIAtlStringMgr@ATL@@XZ 004229cd f   uafxcw:strcore.obj
 0001:000219d3       ?Allocate@CAfxStringMgr@@UAEPAUCStringData@ATL@@HH@Z 004229d3 f   uafxcw:strcore.obj
 0001:00021a12       ?Free@CAfxStringMgr@@UAEXPAUCStringData@ATL@@@Z 00422a12 f   uafxcw:strcore.obj
 0001:00021a24       ?Reallocate@CAfxStringMgr@@UAEPAUCStringData@ATL@@PAU23@HH@Z 00422a24 f   uafxcw:strcore.obj
 0001:00021a56       ?Clone@CAfxStringMgr@@UAEPAUIAtlStringMgr@ATL@@XZ 00422a56 f   uafxcw:strcore.obj
 0001:00021a59       ??B?$CSimpleStringT@D$0A@@ATL@@QBEPBDXZ 00422a59 f i uafxcw:strcore.obj
 0001:00021a5c       ??B?$CTempBuffer@D$0IA@VCCRTAllocator@ATL@@@ATL@@QBEPADXZ 00422a5c f i uafxcw:strcore.obj
 0001:00021a5f       ??B?$CTempBuffer@_W$0IA@VCCRTAllocator@ATL@@@ATL@@QBEPA_WXZ 00422a5f f i uafxcw:strcore.obj
 0001:00021a62       ?GetString@?$CSimpleStringT@D$0A@@ATL@@QBEPBDXZ 00422a62 f i uafxcw:strcore.obj
 0001:00021a65       ?CopyCharsOverlapped@?$CSimpleStringT@D$0A@@ATL@@SAXPADIPBDH@Z 00422a65 f i uafxcw:strcore.obj
 0001:00021a70       ?Allocate@CCRTAllocator@ATL@@SAPAXI@Z 00422a70 f i uafxcw:strcore.obj
 0001:00021a7b       ?Length@CComBSTR@ATL@@QBEIXZ 00422a7b f i uafxcw:strcore.obj
 0001:00021a84       ??7CComBSTR@ATL@@QBE_NXZ   00422a84 f i uafxcw:strcore.obj
 0001:00021a8c       ??1CComBSTR@ATL@@QAE@XZ    00422a8c f i uafxcw:strcore.obj
 0001:00021a95       ??0CNilStringData@ATL@@QAE@XZ 00422a95 f i uafxcw:strcore.obj
 0001:00021ab1       ?SetManager@CNilStringData@ATL@@QAEXPAUIAtlStringMgr@2@@Z 00422ab1 f i uafxcw:strcore.obj
 0001:00021abf       ?GetBaseTypeLength@?$ChTraitsCRT@_W@ATL@@SAHPBDH@Z 00422abf f i uafxcw:strcore.obj
 0001:00021ad9       ?Attach@?$CSimpleStringT@D$0A@@ATL@@AAEXPAUCStringData@2@@Z 00422ad9 f i uafxcw:strcore.obj
 0001:00021aea       ?GetData@?$CSimpleStringT@D$0A@@ATL@@ABEPAUCStringData@2@XZ 00422aea f i uafxcw:strcore.obj
 0001:00021af0       ?SetLength@?$CSimpleStringT@D$0A@@ATL@@AAEXH@Z 00422af0 f i uafxcw:strcore.obj
 0001:00021b1b       ?GetDefaultManager@?$StrTraitMFC@DV?$ChTraitsCRT@D@ATL@@@@SAPAUIAtlStringMgr@ATL@@XZ 00422b1b f i uafxcw:strcore.obj
 0001:00021b21       ?ConvertToBaseType@?$ChTraitsCRT@D@ATL@@SAXPADHPB_WH@Z 00422b21 f i uafxcw:strcore.obj
 0001:00021b41       ?CopyChars@?$CSimpleStringT@D$0A@@ATL@@SAXPADIPBDH@Z 00422b41 f i uafxcw:strcore.obj
 0001:00021b4c       ?ThrowMemoryException@?$CSimpleStringT@D$0A@@ATL@@KAXXZ 00422b4c f i uafxcw:strcore.obj
 0001:00021b57       ?Reallocate@?$CSimpleStringT@D$0A@@ATL@@AAEXH@Z 00422b57 f i uafxcw:strcore.obj
 0001:00021b90       ??$AtlMultiplyThrow@I@ATL@@YAIII@Z 00422b90 f i uafxcw:strcore.obj
 0001:00021bb7       ?AfxA2WHelper@@YGPA_WPA_WPBDH@Z 00422bb7 f   uafxcw:strcore.obj
 0001:00021bd0       ?AfxW2AHelper@@YGPADPADPB_WH@Z 00422bd0 f   uafxcw:strcore.obj
 0001:00021be9       ??$HashKey@VCComBSTR@ATL@@@@YGIVCComBSTR@ATL@@@Z 00422be9 f   uafxcw:strcore.obj
 0001:00021c1e       ??0CAfxStringMgr@@QAE@XZ   00422c1e f i uafxcw:strcore.obj
 0001:00021c41       ?GetNilString@CAfxStringMgr@@UAEPAUCStringData@ATL@@XZ 00422c41 f   uafxcw:strcore.obj
 0001:00021c4f       ??0?$CSimpleStringT@D$0A@@ATL@@QAE@PBDHPAUIAtlStringMgr@1@@Z 00422c4f f i uafxcw:strcore.obj
 0001:00021cb1       ?GetBaseTypeLength@?$ChTraitsCRT@D@ATL@@SAHPB_WH@Z 00422cb1 f i uafxcw:strcore.obj
 0001:00021ccd       ?FreeHeap@?$CTempBuffer@D$0IA@VCCRTAllocator@ATL@@@ATL@@AAEXXZ 00422ccd f i uafxcw:strcore.obj
 0001:00021cd6       ?FreeHeap@?$CTempBuffer@_W$0IA@VCCRTAllocator@ATL@@@ATL@@AAEXXZ 00422cd6 f i uafxcw:strcore.obj
 0001:00021cdf       ?CloneData@?$CSimpleStringT@D$0A@@ATL@@CAPAUCStringData@2@PAU32@@Z 00422cdf f i uafxcw:strcore.obj
 0001:00021d3f       ?GetAllocLength@?$CSimpleStringT@D$0A@@ATL@@QBEHXZ 00422d3f f i uafxcw:strcore.obj
 0001:00021d45       ?AllocateHeap@?$CTempBuffer@D$0IA@VCCRTAllocator@ATL@@@ATL@@AAEXI@Z 00422d45 f i uafxcw:strcore.obj
 0001:00021d6b       ?AllocateHeap@?$CTempBuffer@_W$0IA@VCCRTAllocator@ATL@@@ATL@@AAEXI@Z 00422d6b f i uafxcw:strcore.obj
 0001:00021d91       ?Copy@CComBSTR@ATL@@QBEPA_WXZ 00422d91 f i uafxcw:strcore.obj
 0001:00021db0       ?Empty@?$CSimpleStringT@D$0A@@ATL@@QAEXXZ 00422db0 f i uafxcw:strcore.obj
 0001:00021de7       ?GetLength@?$CSimpleStringT@D$0A@@ATL@@QBEHXZ 00422de7 f i uafxcw:strcore.obj
 0001:00021ded       ??0?$CSimpleStringT@D$0A@@ATL@@QAE@PAUIAtlStringMgr@1@@Z 00422ded f i uafxcw:strcore.obj
 0001:00021e17       ??1?$CSimpleStringT@D$0A@@ATL@@QAE@XZ 00422e17 f i uafxcw:strcore.obj
 0001:00021e21       ?ReleaseBufferSetLength@?$CSimpleStringT@D$0A@@ATL@@QAEXH@Z 00422e21 f i uafxcw:strcore.obj
 0001:00021e2c       ?Fork@?$CSimpleStringT@D$0A@@ATL@@AAEXH@Z 00422e2c f i uafxcw:strcore.obj
 0001:00021e96       ?PrepareWrite2@?$CSimpleStringT@D$0A@@ATL@@AAEXH@Z 00422e96 f i uafxcw:strcore.obj
 0001:00021ee4       ??$?6DV?$StrTraitMFC@DV?$ChTraitsCRT@D@ATL@@@@@CArchive@@QAEAAV0@ABV?$CStringT@DV?$StrTraitMFC@DV?$ChTraitsCRT@D@ATL@@@@@ATL@@@Z 00422ee4 f i uafxcw:strcore.obj
 0001:00021f12       ??$?6_WV?$StrTraitMFC@_WV?$ChTraitsCRT@_W@ATL@@@@@CArchive@@QAEAAV0@ABV?$CStringT@_WV?$StrTraitMFC@_WV?$ChTraitsCRT@_W@ATL@@@@@ATL@@@Z 00422f12 f i uafxcw:strcore.obj
 0001:00021f43       ??0?$CStringT@DV?$StrTraitMFC@DV?$ChTraitsCRT@D@ATL@@@@@ATL@@QAE@PBDH@Z 00422f43 f i uafxcw:strcore.obj
 0001:00021f62       ??1?$CTempBuffer@D$0IA@VCCRTAllocator@ATL@@@ATL@@QAE@XZ 00422f62 f i uafxcw:strcore.obj
 0001:00021f6f       ??1?$CTempBuffer@_W$0IA@VCCRTAllocator@ATL@@@ATL@@QAE@XZ 00422f6f f i uafxcw:strcore.obj
 0001:00021f7c       ?AllocateBytes@?$CTempBuffer@D$0IA@VCCRTAllocator@ATL@@@ATL@@QAEPADI@Z 00422f7c f i uafxcw:strcore.obj
 0001:00021fa3       ?AllocateBytes@?$CTempBuffer@_W$0IA@VCCRTAllocator@ATL@@@ATL@@QAEPA_WI@Z 00422fa3 f i uafxcw:strcore.obj
 0001:00021fca       ??0CComBSTR@ATL@@QAE@ABV01@@Z 00422fca f i uafxcw:strcore.obj
 0001:00021ffa       ??0?$CStringT@_WV?$StrTraitMFC@_WV?$ChTraitsCRT@_W@ATL@@@@@ATL@@QAE@PB_WH@Z 00422ffa f i uafxcw:strcore.obj
 0001:00022019       ??1?$CStringT@DV?$StrTraitMFC@DV?$ChTraitsCRT@D@ATL@@@@@ATL@@QAE@XZ 00423019 f i uafxcw:strcore.obj
 0001:00022023       ?PrepareWrite@?$CSimpleStringT@D$0A@@ATL@@AAEPADH@Z 00423023 f i uafxcw:strcore.obj
 0001:00022051       ??$SerializeElementsInsertExtract@VCComBSTR@ATL@@@@YGXAAVCArchive@@PAVCComBSTR@ATL@@H@Z 00423051 f i uafxcw:strcore.obj
 0001:000220aa       ?Allocate@?$CTempBuffer@D$0IA@VCCRTAllocator@ATL@@@ATL@@QAEPADI@Z 004230aa f i uafxcw:strcore.obj
 0001:000220cb       ?Allocate@?$CTempBuffer@_W$0IA@VCCRTAllocator@ATL@@@ATL@@QAEPA_WI@Z 004230cb f i uafxcw:strcore.obj
 0001:000220ec       ?GetBuffer@?$CSimpleStringT@D$0A@@ATL@@QAEPADH@Z 004230ec f i uafxcw:strcore.obj
 0001:000220f7       ??$SerializeElements@VCComBSTR@ATL@@@@YGXAAVCArchive@@PAVCComBSTR@ATL@@H@Z 004230f7 f   uafxcw:strcore.obj
 0001:00022102       ??0?$CStringT@DV?$StrTraitMFC@DV?$ChTraitsCRT@D@ATL@@@@@ATL@@QAE@PB_WH@Z 00423102 f i uafxcw:strcore.obj
 0001:0002216f       ??0?$CTempBuffer@D$0IA@VCCRTAllocator@ATL@@@ATL@@QAE@I@Z 0042316f f i uafxcw:strcore.obj
 0001:00022189       ??0?$CTempBuffer@_W$0IA@VCCRTAllocator@ATL@@@ATL@@QAE@I@Z 00423189 f i uafxcw:strcore.obj
 0001:000221a3       ?SetString@?$CSimpleStringT@D$0A@@ATL@@QAEXPBDH@Z 004231a3 f i uafxcw:strcore.obj
 0001:00022214       ??0?$CStringT@_WV?$StrTraitMFC@_WV?$ChTraitsCRT@_W@ATL@@@@@ATL@@QAE@PBDH@Z 00423214 f i uafxcw:strcore.obj
 0001:00022281       ??4?$CSimpleStringT@D$0A@@ATL@@QAEAAV01@ABV01@@Z 00423281 f i uafxcw:strcore.obj
 0001:000222d3       ??$?5_WV?$StrTraitMFC@_WV?$ChTraitsCRT@_W@ATL@@@@@CArchive@@QAEAAV0@AAV?$CStringT@_WV?$StrTraitMFC@_WV?$ChTraitsCRT@_W@ATL@@@@@ATL@@@Z 004232d3 f i uafxcw:strcore.obj
 0001:000223f7       ??4?$CStringT@DV?$StrTraitMFC@DV?$ChTraitsCRT@D@ATL@@@@@ATL@@QAEAAV01@ABV01@@Z 004233f7 f i uafxcw:strcore.obj
 0001:0002240e       ??$SerializeElementsInsertExtract@V?$CStringT@_WV?$StrTraitMFC@_WV?$ChTraitsCRT@_W@ATL@@@@@ATL@@@@YGXAAVCArchive@@PAV?$CStringT@_WV?$StrTraitMFC@_WV?$ChTraitsCRT@_W@ATL@@@@@ATL@@H@Z 0042340e f i uafxcw:strcore.obj
 0001:0002245e       ??$?5DV?$StrTraitMFC@DV?$ChTraitsCRT@D@ATL@@@@@CArchive@@QAEAAV0@AAV?$CStringT@DV?$StrTraitMFC@DV?$ChTraitsCRT@D@ATL@@@@@ATL@@@Z 0042345e f i uafxcw:strcore.obj
 0001:00022582       ??$SerializeElements@V?$CStringT@_WV?$StrTraitMFC@_WV?$ChTraitsCRT@_W@ATL@@@@@ATL@@@@YGXAAVCArchive@@PAV?$CStringT@_WV?$StrTraitMFC@_WV?$ChTraitsCRT@_W@ATL@@@@@ATL@@H@Z 00423582 f   uafxcw:strcore.obj
 0001:0002258d       ??$SerializeElementsInsertExtract@V?$CStringT@DV?$StrTraitMFC@DV?$ChTraitsCRT@D@ATL@@@@@ATL@@@@YGXAAVCArchive@@PAV?$CStringT@DV?$StrTraitMFC@DV?$ChTraitsCRT@D@ATL@@@@@ATL@@H@Z 0042358d f i uafxcw:strcore.obj
 0001:000225dd       ??$SerializeElements@V?$CStringT@DV?$StrTraitMFC@DV?$ChTraitsCRT@D@ATL@@@@@ATL@@@@YGXAAVCArchive@@PAV?$CStringT@DV?$StrTraitMFC@DV?$ChTraitsCRT@D@ATL@@@@@ATL@@H@Z 004235dd f   uafxcw:strcore.obj
 0001:000225e8       ?IsDialogEx@@YAHPBUDLGTEMPLATE@@@Z 004235e8 f i uafxcw:dlgtempl.obj
 0001:00022602       ?HasFont@@YAHPBUDLGTEMPLATE@@@Z 00423602 f i uafxcw:dlgtempl.obj
 0001:00022621       ?FontAttrSize@@YAHH@Z      00423621 f i uafxcw:dlgtempl.obj
 0001:00022636       ??1CDialogTemplate@@QAE@XZ 00423636 f   uafxcw:dlgtempl.obj
 0001:00022644       ?Detach@CDialogTemplate@@QAEPAXXZ 00423644 f   uafxcw:dlgtempl.obj
 0001:0002264a       ?HasFont@CDialogTemplate@@QBEHXZ 0042364a f   uafxcw:dlgtempl.obj
 0001:0002266e       ?_SkipString@@YAPA_WPA_W@Z 0042366e f i uafxcw:dlgtempl.obj
 0001:00022682       ?GetFontSizeField@CDialogTemplate@@KAPAEPBUDLGTEMPLATE@@@Z 00423682 f   uafxcw:dlgtempl.obj
 0001:000226d3       ?GetTemplateSize@CDialogTemplate@@KAIPBUDLGTEMPLATE@@@Z 004236d3 f   uafxcw:dlgtempl.obj
 0001:000227a5       ?GetSizeInDialogUnits@CDialogTemplate@@QBEXPAUtagSIZE@@@Z 004237a5 f   uafxcw:dlgtempl.obj
 0001:000227e9       ?_AfxConvertDialogUnitsToPixels@@YGXPB_WGHHPAUtagSIZE@@@Z 004237e9 f   uafxcw:dlgtempl.obj
 0001:00022928       ?SetTemplate@CDialogTemplate@@IAEHPBUDLGTEMPLATE@@I@Z 00423928 f   uafxcw:dlgtempl.obj
 0001:0002298a       ?Load@CDialogTemplate@@QAEHPB_W@Z 0042398a f   uafxcw:dlgtempl.obj
 0001:000229f2       ?SetFont@CDialogTemplate@@QAEHPB_WG@Z 004239f2 f   uafxcw:dlgtempl.obj
 0001:00022b17       ?SetSystemFont@CDialogTemplate@@QAEHG@Z 00423b17 f   uafxcw:dlgtempl.obj
 0001:00022bbb       ??0CDialogTemplate@@QAE@PBUDLGTEMPLATE@@@Z 00423bbb f   uafxcw:dlgtempl.obj
 0001:00022bf7       ??0CDialogTemplate@@QAE@PAX@Z 00423bf7 f   uafxcw:dlgtempl.obj
 0001:00022c49       ?GetFont@CDialogTemplate@@SAHPBUDLGTEMPLATE@@AAV?$CStringT@_WV?$StrTraitMFC@_WV?$ChTraitsCRT@_W@ATL@@@@@ATL@@AAG@Z 00423c49 f   uafxcw:dlgtempl.obj
 0001:00022c91       ?GetFont@CDialogTemplate@@QBEHAAV?$CStringT@_WV?$StrTraitMFC@_WV?$ChTraitsCRT@_W@ATL@@@@@ATL@@AAG@Z 00423c91 f   uafxcw:dlgtempl.obj
 0001:00022cc3       ?GetSizeInPixels@CDialogTemplate@@QBEXPAUtagSIZE@@@Z 00423cc3 f   uafxcw:dlgtempl.obj
 0001:00022d62       ?AfxWingdixTerm@@YAXXZ     00423d62 f   uafxcw:wingdix.obj
 0001:00022d6d       ?FillSolidRect@CDC@@QAEXPBUtagRECT@@K@Z 00423d6d f   uafxcw:wingdix.obj
 0001:00022db0       ??0CRect@@QAE@ABUtagRECT@@@Z 00423db0 f i uafxcw:wingdix.obj
 0001:00022dc9       ?InflateRect@CRect@@QAEXHH@Z 00423dc9 f i uafxcw:wingdix.obj
 0001:00022ddf       ?IntersectRect@CRect@@QAEHPBUtagRECT@@0@Z 00423ddf f i uafxcw:wingdix.obj
 0001:00022df5       ?FromHandle@CBrush@@SGPAV1@PAUHBRUSH__@@@Z 00423df5 f i uafxcw:wingdix.obj
 0001:00022e00       ?CreateFontIndirectW@CFont@@QAEHPBUtagLOGFONTW@@@Z 00423e00 f i uafxcw:wingdix.obj
 0001:00022e1e       ?CreateRectRgn@CRgn@@QAEHHHHH@Z 00423e1e f i uafxcw:wingdix.obj
 0001:00022e45       ?CreateRectRgnIndirect@CRgn@@QAEHPBUtagRECT@@@Z 00423e45 f i uafxcw:wingdix.obj
 0001:00022e63       ?SetRectRgn@CRgn@@QAEXPBUtagRECT@@@Z 00423e63 f i uafxcw:wingdix.obj
 0001:00022e83       ?CombineRgn@CRgn@@QAEHPBV1@0H@Z 00423e83 f i uafxcw:wingdix.obj
 0001:00022eb2       ?GetDeviceCaps@CDC@@QBEHH@Z 00423eb2 f i uafxcw:wingdix.obj
 0001:00022ec7       ?GetMapMode@CDC@@QBEHXZ    00423ec7 f i uafxcw:wingdix.obj
 0001:00022ed1       ?PatBlt@CDC@@QAEHHHHHK@Z   00423ed1 f i uafxcw:wingdix.obj
 0001:00022ef2       ?DPtoHIMETRIC@CDC@@QBEXPAUtagSIZE@@@Z 00423ef2 f   uafxcw:wingdix.obj
 0001:00022f82       ?HIMETRICtoDP@CDC@@QBEXPAUtagSIZE@@@Z 00423f82 f   uafxcw:wingdix.obj
 0001:00023012       ?LPtoHIMETRIC@CDC@@QBEXPAUtagSIZE@@@Z 00424012 f   uafxcw:wingdix.obj
 0001:00023031       ?HIMETRICtoLP@CDC@@QBEXPAUtagSIZE@@@Z 00424031 f   uafxcw:wingdix.obj
 0001:00023050       ?GetHalftoneBrush@CDC@@SGPAVCBrush@@XZ 00424050 f   uafxcw:wingdix.obj
 0001:000230f5       ?FillSolidRect@CDC@@QAEXHHHHK@Z 004240f5 f   uafxcw:wingdix.obj
 0001:00023143       ?Draw3dRect@CDC@@QAEXHHHHKK@Z 00424143 f   uafxcw:wingdix.obj
 0001:000231af       ?CreatePointFontIndirect@CFont@@QAEHPBUtagLOGFONTW@@PAVCDC@@@Z 004241af f   uafxcw:wingdix.obj
 0001:00023265       ?Draw3dRect@CDC@@QAEXPBUtagRECT@@KK@Z 00424265 f   uafxcw:wingdix.obj
 0001:00023293       ?CreatePointFont@CFont@@QAEHHPB_WPAVCDC@@@Z 00424293 f   uafxcw:wingdix.obj
 0001:000232fb       ??0CRgn@@QAE@XZ            004242fb f i uafxcw:wingdix.obj
 0001:00023308       ??1CRgn@@UAE@XZ            00424308 f i uafxcw:wingdix.obj
 0001:00023313       ?DrawDragRect@CDC@@QAEXPBUtagRECT@@UtagSIZE@@01PAVCBrush@@2@Z 00424313 f   uafxcw:wingdix.obj
 0001:000235a1       ??_ECRgn@@UAEPAXI@Z        004245a1 f i uafxcw:wingdix.obj
 0001:000235a1       ??_GCRgn@@UAEPAXI@Z        004245a1 f i uafxcw:wingdix.obj
 0001:000235c8       ?GetRoutingView_@CCmdTarget@@KGPAVCView@@XZ 004245c8 f   uafxcw:appui1.obj
 0001:000235d4       ?GetRoutingFrame_@CCmdTarget@@KGPAVCFrameWnd@@XZ 004245d4 f   uafxcw:appui1.obj
 0001:000235e0       ?DoEnableModeless@CWinApp@@SAXH@Z 004245e0 f   uafxcw:appui1.obj
 0001:00023619       ?GetSafeOwner_@CWnd@@SGPAUHWND__@@PAU2@PAPAU2@@Z 00424619 f   uafxcw:appui1.obj
 0001:000236b9       ?EnableModeless@CWinApp@@QAEXH@Z 004246b9 f   uafxcw:appui1.obj
 0001:000236cb       ?ShowAppMessageBox@CWinApp@@SAHPAV1@PB_WII@Z 004246cb f   uafxcw:appui1.obj
 0001:00023830       ?AfxMessageBox@@YGHPB_WII@Z 00424830 f   uafxcw:appui1.obj
 0001:00023863       ?DoMessageBox@CWinApp@@UAEHPB_WII@Z 00424863 f   uafxcw:appui1.obj
 0001:0002387e       ?AfxMessageBox@@YGHIII@Z   0042487e f   uafxcw:appui1.obj
 0001:000238cd       _IsEqualGUID               004248cd f i uafxcw:cmdtarg.obj
 0001:000238e9       ?_AfxDispatchCmdMsg@@YGHPAVCCmdTarget@@IHP81@AEXXZPAXIPAUAFX_CMDHANDLERINFO@@@Z 004248e9 f   uafxcw:cmdtarg.obj
 0001:00023a21       ?OnCmdMsg@CCmdTarget@@UAEHIHPAXPAUAFX_CMDHANDLERINFO@@@Z 00424a21 f   uafxcw:cmdtarg.obj
 0001:00023b3f       ?IsInvokeAllowed@CCmdTarget@@UAEHJ@Z 00424b3f f   uafxcw:cmdtarg.obj
 0001:00023b45       ?GetDispatchIID@CCmdTarget@@UAEHPAU_GUID@@@Z 00424b45 f   uafxcw:cmdtarg.obj
 0001:00023b4a       ?GetTypeInfoCount@CCmdTarget@@UAEIXZ 00424b4a f   uafxcw:cmdtarg.obj
 0001:00023b4d       ?GetTypeLibCache@CCmdTarget@@UAEPAVCTypeLibCache@@XZ 00424b4d f   uafxcw:cmdtarg.obj
 0001:00023b50       ?GetTypeLib@CCmdTarget@@UAEJKPAPAUITypeLib@@@Z 00424b50 f   uafxcw:cmdtarg.obj
 0001:00023b58       ?GetThisMessageMap@CCmdTarget@@KGPBUAFX_MSGMAP@@XZ 00424b58 f   uafxcw:cmdtarg.obj
 0001:00023b5e       ?GetDispatchMap@CCmdTarget@@MBEPBUAFX_DISPMAP@@XZ 00424b5e f   uafxcw:cmdtarg.obj
 0001:00023b64       ?GetEventSinkMap@CCmdTarget@@MBEPBUAFX_EVENTSINKMAP@@XZ 00424b64 f   uafxcw:cmdtarg.obj
 0001:00023b6a       ?GetInterfaceMap@CCmdTarget@@MBEPBUAFX_INTERFACEMAP@@XZ 00424b6a f   uafxcw:cmdtarg.obj
 0001:00023b70       ?OnFinalRelease@CCmdTarget@@UAEXXZ 00424b70 f   uafxcw:cmdtarg.obj
 0001:00023ba0       ?OnCreateAggregates@CCmdTarget@@UAEHXZ 00424ba0 f   uafxcw:cmdtarg.obj
 0001:00023ba4       ?GetInterfaceHook@CCmdTarget@@UAEPAUIUnknown@@PBX@Z 00424ba4 f   uafxcw:cmdtarg.obj
 0001:00023ba9       ?GetConnectionMap@CCmdTarget@@MBEPBUAFX_CONNECTIONMAP@@XZ 00424ba9 f   uafxcw:cmdtarg.obj
 0001:00023baf       ?GetConnectionHook@CCmdTarget@@MAEPAUIConnectionPoint@@ABU_GUID@@@Z 00424baf f   uafxcw:cmdtarg.obj
 0001:00023bb4       ?GetExtraConnectionPoints@CCmdTarget@@MAEHPAVCPtrArray@@@Z 00424bb4 f   uafxcw:cmdtarg.obj
 0001:00023bb9       ?GetCommandMap@CCmdTarget@@MBEPBUAFX_OLECMDMAP@@XZ 00424bb9 f   uafxcw:cmdtarg.obj
 0001:00023bbf       ?GetRoutingView@CCmdTarget@@IAEPAVCView@@XZ 00424bbf f   uafxcw:cmdtarg.obj
 0001:00023bc4       ?GetRoutingFrame@CCmdTarget@@IAEPAVCFrameWnd@@XZ 00424bc4 f   uafxcw:cmdtarg.obj
 0001:00023bc9       ??0CCmdUI@@QAE@XZ          00424bc9 f   uafxcw:cmdtarg.obj
 0001:00023bef       ?DoUpdate@CCmdUI@@QAEHPAVCCmdTarget@@H@Z 00424bef f   uafxcw:cmdtarg.obj
 0001:00023c5f       ?GetRuntimeClass@CCmdTarget@@UBEPAUCRuntimeClass@@XZ 00424c5f f   uafxcw:cmdtarg.obj
 0001:00023c65       ?CheckMenuItem@CMenu@@QAEIII@Z 00424c65 f i uafxcw:cmdtarg.obj
 0001:00023c7d       ?EnableMenuItem@CMenu@@QAEIII@Z 00424c7d f i uafxcw:cmdtarg.obj
 0001:00023c95       ?GetMenuState@CMenu@@QBEIII@Z 00424c95 f i uafxcw:cmdtarg.obj
 0001:00023cad       ?ModifyMenuW@CMenu@@QAEHIIIPB_W@Z 00424cad f i uafxcw:cmdtarg.obj
 0001:00023ccb       ??0CCmdTarget@@QAE@XZ      00424ccb f   uafxcw:cmdtarg.obj
 0001:00023cf3       ??1CCmdTarget@@UAE@XZ      00424cf3 f   uafxcw:cmdtarg.obj
 0001:00023d0a       ?BeginWaitCursor@CCmdTarget@@QAEXXZ 00424d0a f   uafxcw:cmdtarg.obj
 0001:00023d1f       ?EndWaitCursor@CCmdTarget@@QAEXXZ 00424d1f f   uafxcw:cmdtarg.obj
 0001:00023d34       ?RestoreWaitCursor@CCmdTarget@@QAEXXZ 00424d34 f   uafxcw:cmdtarg.obj
 0001:00023d49       ?GetMessageMap@CCmdTarget@@MBEPBUAFX_MSGMAP@@XZ 00424d49 f   uafxcw:cmdtarg.obj
 0001:00023d4f       ?Enable@CCmdUI@@UAEXH@Z    00424d4f f   uafxcw:cmdtarg.obj
 0001:00023ddd       ?SetCheck@CCmdUI@@UAEXH@Z  00424ddd f   uafxcw:cmdtarg.obj
 0001:00023e53       ?SetText@CCmdUI@@UAEXPB_W@Z 00424e53 f   uafxcw:cmdtarg.obj
 0001:00023ec0       ?_AfxLoadDotBitmap@@YGXXZ  00424ec0 f   uafxcw:cmdtarg.obj
 0001:00023fe2       ?SetRadio@CCmdUI@@UAEXH@Z  00424fe2 f   uafxcw:cmdtarg.obj
 0001:0002404a       ?GetThisMessageMap@CWinApp@@KGPBUAFX_MSGMAP@@XZ 0042504a f   uafxcw:appcore.obj
 0001:0002406a       ??0CActivationContext@@QAE@PAX@Z 0042506a f i uafxcw:appcore.obj
 0001:00024121       ?Create@CActivationContext@@QAE_NPBUtagACTCTXW@@@Z 00425121 f i uafxcw:appcore.obj
 0001:0002415b       ?Activate@CActivationContext@@QAE_NXZ 0042515b f i uafxcw:appcore.obj
 0001:00024188       ?Deactivate@CActivationContext@@QAE_NXZ 00425188 f i uafxcw:appcore.obj
 0001:000241ae       ?_LoadSysPolicies@CWinApp@@IAEHXZ 004251ae f   uafxcw:appcore.obj
 0001:00024273       ?GetSysPolicyValue@CWinApp@@QAEHKPAH@Z 00425273 f   uafxcw:appcore.obj
 0001:00024297       ?InitApplication@CWinApp@@UAEHXZ 00425297 f   uafxcw:appcore.obj
 0001:000242d7       ?LoadStdProfileSettings@CWinApp@@IAEXI@Z 004252d7 f   uafxcw:appcore.obj
 0001:0002435d       ?ParseCommandLine@CWinApp@@QAEXAAVCCommandLineInfo@@@Z 0042535d f   uafxcw:appcore.obj
 0001:000243bb       ?SaveStdProfileSettings@CWinApp@@IAEXXZ 004253bb f   uafxcw:appcore.obj
 0001:000243f2       ?ExitInstance@CWinApp@@UAEHXZ 004253f2 f   uafxcw:appcore.obj
 0001:00024455       ?AfxPostQuitMessage@@YGXH@Z 00425455 f   uafxcw:appcore.obj
 0001:00024477       ?ProcessWndProcException@CWinApp@@UAEJPAVCException@@PBUtagMSG@@@Z 00425477 f   uafxcw:appcore.obj
 0001:000244fa       ?OnIdle@CWinApp@@UAEHJ@Z   004254fa f   uafxcw:appcore.obj
 0001:00024560       ?DevModeChange@CWinApp@@QAEXPA_W@Z 00425560 f   uafxcw:appcore.obj
 0001:00024601       ?GetRuntimeClass@CWinApp@@UBEPAUCRuntimeClass@@XZ 00425601 f   uafxcw:appcore.obj
 0001:00024607       ??1?$CProcessLocal@V_AFX_WIN_STATE@@@@QAE@XZ 00425607 f i uafxcw:appcore.obj
 0001:0002460c       ?CreateObject@?$CThreadLocal@VAFX_MODULE_THREAD_STATE@@@@SGPAVCNoTrackObject@@XZ 0042560c f i uafxcw:appcore.obj
 0001:00024638       ?InterlockedExchangePointer@@YGPAXPAPAXPAX@Z 00425638 f i uafxcw:appcore.obj
 0001:00024644       ?FindStringResourceInstance@?$StrTraitMFC@DV?$ChTraitsCRT@D@ATL@@@@SAPAUHINSTANCE__@@I@Z 00425644 f i uafxcw:appcore.obj
 0001:00024653       ?tcscpy_s@Checked@ATL@@YAXPA_WIPB_W@Z 00425653 f i uafxcw:appcore.obj
 0001:00024671       ?SetResourceInstance@CAtlBaseModule@ATL@@QAEPAUHINSTANCE__@@PAU3@@Z 00425671 f i uafxcw:appcore.obj
 0001:00024687       ?AfxSetResourceHandle@@YGXPAUHINSTANCE__@@@Z 00425687 f i uafxcw:appcore.obj
 0001:0002469b       ?AfxInvariantStrICmp@@YAHPBD0@Z 0042569b f i uafxcw:appcore.obj
 0001:000246bb       ?GetBaseTypeLength@?$ChTraitsCRT@D@ATL@@SAHPB_W@Z 004256bb f i uafxcw:appcore.obj
 0001:000246d7       ?GetMessageMap@CWinApp@@MBEPBUAFX_MSGMAP@@XZ 004256d7 f   uafxcw:appcore.obj
 0001:000247a9       ?Release@CActivationContext@@QAEXXZ 004257a9 f i uafxcw:appcore.obj
 0001:000247c9       ?LoadSysPolicies@CWinApp@@UAEHXZ 004257c9 f   uafxcw:appcore.obj
 0001:000247ce       ?InitInstance@CWinApp@@UAEHXZ 004257ce f   uafxcw:appcore.obj
 0001:00024802       ?ParseParamFlag@CCommandLineInfo@@IAEXPBD@Z 00425802 f   uafxcw:appcore.obj
 0001:00024972       ?Run@CWinApp@@UAEHXZ       00425972 f   uafxcw:appcore.obj
 0001:00024995       ?WinHelpW@CWinApp@@UAEXKI@Z 00425995 f   uafxcw:appcore.obj
 0001:000249d6       ?HtmlHelpW@CWinApp@@UAEXKI@Z 004259d6 f   uafxcw:appcore.obj
 0001:00024a1a       ?WinHelpInternal@CWinApp@@UAEXKI@Z 00425a1a f   uafxcw:appcore.obj
 0001:00024a5e       ?GetData@?$CThreadLocal@VAFX_MODULE_THREAD_STATE@@@@QAEPAVAFX_MODULE_THREAD_STATE@@XZ 00425a5e f i uafxcw:appcore.obj
 0001:00024a72       ??1CActivationContext@@QAE@XZ 00425a72 f i uafxcw:appcore.obj
 0001:00024a77       ?AfxLoadLangResourceDLL@@YGPAUHINSTANCE__@@PB_W0@Z 00425a77 f   uafxcw:appcore.obj
 0001:00024ce8       ?AfxLoadLangResourceDLL@@YGPAUHINSTANCE__@@PB_W@Z 00425ce8 f   uafxcw:appcore.obj
 0001:00024d70       ?LoadAppLangResourceDLL@CWinApp@@UAEPAUHINSTANCE__@@XZ 00425d70 f   uafxcw:appcore.obj
 0001:00024de9       ??B?$CThreadLocal@VAFX_MODULE_THREAD_STATE@@@@QAEPAVAFX_MODULE_THREAD_STATE@@XZ 00425de9 f i uafxcw:appcore.obj
 0001:00024dee       ??0CWinApp@@QAE@PB_W@Z     00425dee f   uafxcw:appcore.obj
 0001:00024ec5       ??0CCommandLineInfo@@QAE@XZ 00425ec5 f   uafxcw:appcore.obj
 0001:00024f09       ??1CCommandLineInfo@@UAE@XZ 00425f09 f   uafxcw:appcore.obj
 0001:00024f41       ?ParseLast@CCommandLineInfo@@IAEXH@Z 00425f41 f   uafxcw:appcore.obj
 0001:00024f75       ??_ECCommandLineInfo@@UAEPAXI@Z 00425f75 f i uafxcw:appcore.obj
 0001:00024f75       ??_GCCommandLineInfo@@UAEPAXI@Z 00425f75 f i uafxcw:appcore.obj
 0001:00024f96       ?LoadStringW@?$CStringT@DV?$StrTraitMFC@DV?$ChTraitsCRT@D@ATL@@@@@ATL@@QAEHPAUHINSTANCE__@@I@Z 00425f96 f i uafxcw:appcore.obj
 0001:00024ff1       ??4?$CStringT@DV?$StrTraitMFC@DV?$ChTraitsCRT@D@ATL@@@@@ATL@@QAEAAV01@PB_W@Z 00425ff1 f i uafxcw:appcore.obj
 0001:00025041       ?ParseParamNotFlag@CCommandLineInfo@@IAEXPBD@Z 00426041 f   uafxcw:appcore.obj
 0001:00025094       ??1CWinApp@@UAE@XZ         00426094 f   uafxcw:appcore.obj
 0001:0002526b       ?LoadStringW@?$CStringT@DV?$StrTraitMFC@DV?$ChTraitsCRT@D@ATL@@@@@ATL@@QAEHI@Z 0042626b f i uafxcw:appcore.obj
 0001:0002528f       ??_ECWinApp@@UAEPAXI@Z     0042628f f i uafxcw:appcore.obj
 0001:0002528f       ??_GCWinApp@@UAEPAXI@Z     0042628f f i uafxcw:appcore.obj
 0001:000252b0       ?ParseParam@CCommandLineInfo@@UAEXPBDHH@Z 004262b0 f   uafxcw:appcore.obj
 0001:000252dc       ?CheckImplicitLoad@?$CStringT@DV?$StrTraitMFC@DV?$ChTraitsCRT@D@ATL@@@@@ATL@@AAE_NPBX@Z 004262dc f i uafxcw:appcore.obj
 0001:00025301       ?ParseParamNotFlag@CCommandLineInfo@@IAEXPB_W@Z 00426301 f   uafxcw:appcore.obj
 0001:00025354       ??0?$CStringT@DV?$StrTraitMFC@DV?$ChTraitsCRT@D@ATL@@@@@ATL@@QAE@PB_W@Z 00426354 f i uafxcw:appcore.obj
 0001:00025398       ?ParseParam@CCommandLineInfo@@UAEXPB_WHH@Z 00426398 f   uafxcw:appcore.obj
 0001:000253e9       ?AfxGetThread@@YGPAVCWinThread@@XZ 004263e9 f   uafxcw:thrdcore.obj
 0001:000253f2       ?AfxGetCurrentMessage@@YGPAUtagMSG@@XZ 004263f2 f   uafxcw:thrdcore.obj
 0001:000253fb       ?AfxInternalProcessWndProcException@@YGJPAVCException@@PBUtagMSG@@@Z 004263fb f   uafxcw:thrdcore.obj
 0001:00025425       ?AfxProcessWndProcException@@YGJPAVCException@@PBUtagMSG@@@Z 00426425 f   uafxcw:thrdcore.obj
 0001:00025442       ?AfxTermThread@@YGXPAUHINSTANCE__@@@Z 00426442 f   uafxcw:thrdcore.obj
 0001:000254e1       ?CommonConstruct@CWinThread@@QAEXXZ 004264e1 f   uafxcw:thrdcore.obj
 0001:0002551a       ??1CWinThread@@UAE@XZ      0042651a f   uafxcw:thrdcore.obj
 0001:00025562       ?Delete@CWinThread@@UAEXXZ 00426562 f   uafxcw:thrdcore.obj
 0001:00025570       ?InitInstance@CWinThread@@UAEHXZ 00426570 f   uafxcw:thrdcore.obj
 0001:00025573       ?Run@CWinThread@@UAEHXZ    00426573 f   uafxcw:thrdcore.obj
 0001:00025607       ?ExitInstance@CWinThread@@UAEHXZ 00426607 f   uafxcw:thrdcore.obj
 0001:00025610       ?DispatchThreadMessageEx@CWinThread@@IAEHPAUtagMSG@@@Z 00426610 f   uafxcw:thrdcore.obj
 0001:0002568e       ?ProcessWndProcException@CWinThread@@UAEJPAVCException@@PBUtagMSG@@@Z 0042668e f   uafxcw:thrdcore.obj
 0001:00025699       ?IsHelpKey@@YGHPAUtagMSG@@@Z 00426699 f   uafxcw:thrdcore.obj
 0001:000256e9       ?IsEnterKey@@YAHPAUtagMSG@@@Z 004266e9 f i uafxcw:thrdcore.obj
 0001:00025709       ?IsButtonUp@@YAHPAUtagMSG@@@Z 00426709 f i uafxcw:thrdcore.obj
 0001:0002571f       ?GetRuntimeClass@CWinThread@@UBEPAUCRuntimeClass@@XZ 0042671f f   uafxcw:thrdcore.obj
 0001:00025725       ??0CPoint@@QAE@UtagPOINT@@@Z 00426725 f i uafxcw:thrdcore.obj
 0001:0002573b       ??8CPoint@@QBEHUtagPOINT@@@Z 0042673b f i uafxcw:thrdcore.obj
 0001:0002575a       ?GetHead@CSimpleList@@QBEPAXXZ 0042675a f i uafxcw:thrdcore.obj
 0001:0002575d       ?GetActiveWindow@CWnd@@SGPAV1@XZ 0042675d f i uafxcw:thrdcore.obj
 0001:0002576a       ?SetThreadPriority@CWinThread@@QAEHH@Z 0042676a f i uafxcw:thrdcore.obj
 0001:0002577f       ?ResumeThread@CWinThread@@QAEKXZ 0042677f f i uafxcw:thrdcore.obj
 0001:00025789       ?AfxInternalPreTranslateMessage@@YAHPAUtagMSG@@@Z 00426789 f   uafxcw:thrdcore.obj
 0001:000257fc       ?AfxPreTranslateMessage@@YAHPAUtagMSG@@@Z 004267fc f   uafxcw:thrdcore.obj
 0001:0002581d       ?AfxInternalIsIdleMessage@@YAHPAUtagMSG@@@Z 0042681d f   uafxcw:thrdcore.obj
 0001:0002588e       ?AfxIsIdleMessage@@YAHPAUtagMSG@@@Z 0042688e f   uafxcw:thrdcore.obj
 0001:000258af       ?AfxEndThread@@YGXIH@Z     004268af f   uafxcw:thrdcore.obj
 0001:000258f8       ??0CWinThread@@QAE@P6AIPAX@Z0@Z 004268f8 f   uafxcw:thrdcore.obj
 0001:00025935       ??_GCWinThread@@UAEPAXI@Z  00426935 f i uafxcw:thrdcore.obj
 0001:00025935       ??_ECWinThread@@UAEPAXI@Z  00426935 f i uafxcw:thrdcore.obj
 0001:00025956       ??0CWinThread@@QAE@XZ      00426956 f   uafxcw:thrdcore.obj
 0001:0002598c       ?IsIdleMessage@CWinThread@@UAEHPAUtagMSG@@@Z 0042698c f   uafxcw:thrdcore.obj
 0001:0002599e       ?DispatchThreadMessage@CWinThread@@IAEXPAUtagMSG@@@Z 0042699e f   uafxcw:thrdcore.obj
 0001:000259a9       ?PreTranslateMessage@CWinThread@@UAEHPAUtagMSG@@@Z 004269a9 f   uafxcw:thrdcore.obj
 0001:000259bb       ?GetMainWnd@CWinThread@@UAEPAVCWnd@@XZ 004269bb f   uafxcw:thrdcore.obj
 0001:000259d6       ??B?$CTypedSimpleList@PAVCFrameWnd@@@@QAEPAVCFrameWnd@@XZ 004269d6 f i uafxcw:thrdcore.obj
 0001:000259d9       ?AfxInternalPumpMessage@@YGHXZ 004269d9 f   uafxcw:thrdcore.obj
 0001:00025a1f       ?AfxPumpMessage@@YGHXZ     00426a1f f   uafxcw:thrdcore.obj
 0001:00025a35       ?_AfxMsgFilterHook@@YGJHIJ@Z 00426a35 f   uafxcw:thrdcore.obj
 0001:00025a99       ?ProcessMessageFilter@CWinThread@@UAEHHPAUtagMSG@@@Z 00426a99 f   uafxcw:thrdcore.obj
 0001:00025bc8       ?PumpMessage@CWinThread@@UAEHXZ 00426bc8 f   uafxcw:thrdcore.obj
 0001:00025bcd       ?AfxInitThread@@YGXXZ      00426bcd f   uafxcw:thrdcore.obj
 0001:00025bfb       ?OnIdle@CWinThread@@UAEHJ@Z 00426bfb f   uafxcw:thrdcore.obj
 0001:00025cfd       ?_AfxThreadEntry@@YGIPAX@Z 00426cfd f   uafxcw:thrdcore.obj
 0001:00025e19       ?CreateThread@CWinThread@@QAEHKIPAU_SECURITY_ATTRIBUTES@@@Z 00426e19 f   uafxcw:thrdcore.obj
 0001:00025f24       ?AfxBeginThread@@YGPAVCWinThread@@P6AIPAX@Z0HIKPAU_SECURITY_ATTRIBUTES@@@Z 00426f24 f   uafxcw:thrdcore.obj
 0001:00025f9b       ?AfxBeginThread@@YGPAVCWinThread@@PAUCRuntimeClass@@HIKPAU_SECURITY_ATTRIBUTES@@@Z 00426f9b f   uafxcw:thrdcore.obj
 0001:00026003       ?InitLibId@CWinApp@@UAEXXZ 00427003 f   uafxcw:appui2.obj
 0001:00026004       ?Register@CWinApp@@UAEHXZ  00427004 f   uafxcw:appui2.obj
 0001:00026008       ?RegisterShellFileTypes@CWinApp@@IAEXH@Z 00427008 f   uafxcw:appui2.obj
 0001:00026021       ?UnregisterShellFileTypes@CWinApp@@IAEXXZ 00427021 f   uafxcw:appui2.obj
 0001:00026032       ?GetOpenDocumentCount@CWinApp@@QAEHXZ 00427032 f   uafxcw:appui2.obj
 0001:00026045       ?GetFirstDocTemplatePosition@CWinApp@@QBEPAU__POSITION@@XZ 00427045 f   uafxcw:appui2.obj
 0001:00026056       ?GetNextDocTemplate@CWinApp@@QBEPAVCDocTemplate@@AAPAU__POSITION@@@Z 00427056 f   uafxcw:appui2.obj
 0001:0002606f       ?ProcessShellCommand@CWinApp@@QAEHAAVCCommandLineInfo@@@Z 0042706f f   uafxcw:appui2.obj
 0001:000261ed       ?AddDocTemplate@CWinApp@@QAEXPAVCDocTemplate@@@Z 004271ed f   uafxcw:appui2.obj
 0001:00026239       ?GetBuffer@?$CSimpleStringT@_W$0A@@ATL@@QAEPA_WXZ 00427239 f i uafxcw:appui2.obj
 0001:00026255       ??0?$CStringT@_WV?$StrTraitMFC@_WV?$ChTraitsCRT@_W@ATL@@@@@ATL@@QAE@PAUIAtlStringMgr@1@@Z 00427255 f i uafxcw:appui2.obj
 0001:0002626c       ?Concatenate@?$CSimpleStringT@_W$0A@@ATL@@KAXAAV12@PB_WH1H@Z 0042726c f i uafxcw:appui2.obj
 0001:000262b6       ??HATL@@YA?AV?$CStringT@_WV?$StrTraitMFC@_WV?$ChTraitsCRT@_W@ATL@@@@@0@ABV10@PB_W@Z 004272b6 f i uafxcw:appui2.obj
 0001:0002630b       ??HATL@@YA?AV?$CStringT@_WV?$StrTraitMFC@_WV?$ChTraitsCRT@_W@ATL@@@@@0@PB_WABV10@@Z 0042730b f i uafxcw:appui2.obj
 0001:00026360       ?AfxDelRegTreeHelper@@YGJPAUHKEY__@@ABV?$CStringT@_WV?$StrTraitMFC@_WV?$ChTraitsCRT@_W@ATL@@@@@ATL@@@Z 00427360 f   uafxcw:appui2.obj
 0001:000264de       ?EnableShellOpen@CWinApp@@IAEXXZ 004274de f   uafxcw:appui2.obj
 0001:00026590       ?DelRegTree@CWinApp@@QAEJPAUHKEY__@@ABV?$CStringT@_WV?$StrTraitMFC@_WV?$ChTraitsCRT@_W@ATL@@@@@ATL@@@Z 00427590 f   uafxcw:appui2.obj
 0001:0002659b       ?Unregister@CWinApp@@UAEHXZ 0042759b f   uafxcw:appui2.obj
 0001:0002670e       ?DoWaitCursor@CWinApp@@UAEXH@Z 0042770e f   uafxcw:appui.obj
 0001:0002678d       ?SaveAllModified@CWinApp@@UAEHXZ 0042778d f   uafxcw:appui.obj
 0001:0002679f       ?AddToRecentFileList@CWinApp@@UAEXPB_W@Z 0042779f f   uafxcw:appui.obj
 0001:000267c8       ?OpenDocumentFile@CWinApp@@UAEPAVCDocument@@PB_W@Z 004277c8 f   uafxcw:appui.obj
 0001:000267e1       ?CloseAllDocuments@CWinApp@@QAEXH@Z 004277e1 f   uafxcw:appui.obj
 0001:000267f9       ?OnUpdateRecentFileMenu@CWinApp@@IAEXPAVCCmdUI@@@Z 004277f9 f   uafxcw:appui.obj
 0001:0002682c       ?OnDDECommand@CWinApp@@UAEHPA_W@Z 0042782c f   uafxcw:appui.obj
 0001:00026846       ?ShowOwnedPopups@CWnd@@QAEXH@Z 00427846 f i uafxcw:appui.obj
 0001:0002685b       ?GetSize@CRecentFileList@@QBEHXZ 0042785b f i uafxcw:appui.obj
 0001:0002685f       ??ACRecentFileList@@QAEAAV?$CStringT@_WV?$StrTraitMFC@_WV?$ChTraitsCRT@_W@ATL@@@@@ATL@@H@Z 0042785f f i uafxcw:appui.obj
 0001:0002687f       ?OnAppExit@CWinApp@@IAEXXZ 0042787f f   uafxcw:appui.obj
 0001:00026892       ?HideApplication@CWinApp@@QAEXXZ 00427892 f   uafxcw:appui.obj
 0001:000268c6       ?OnOpenRecentFile@CWinApp@@IAEHI@Z 004278c6 f   uafxcw:appui.obj
 0001:00026924       ?AfxDlgProc@@YGHPAUHWND__@@IIJ@Z 00427924 f   uafxcw:dlgcore.obj
 0001:00026962       ??0CDialog@@QAE@XZ         00427962 f   uafxcw:dlgcore.obj
 0001:00026986       ??1CDialog@@UAE@XZ         00427986 f   uafxcw:dlgcore.obj
 0001:000269bd       ?OnPaint@CDialog@@IAEXXZ   004279bd f   uafxcw:dlgcore.obj
 0001:00026a00       ?SetOccDialogInfo@CDialog@@MAEHPAU_AFX_OCC_DIALOG_INFO@@@Z 00427a00 f   uafxcw:dlgcore.obj
 0001:00026a12       ?GetOccDialogInfo@CDialog@@MAEPAU_AFX_OCC_DIALOG_INFO@@XZ 00427a12 f   uafxcw:dlgcore.obj
 0001:00026a16       ??0CDialog@@QAE@PB_WPAVCWnd@@@Z 00427a16 f   uafxcw:dlgcore.obj
 0001:00026a5a       ??0CDialog@@QAE@IPAVCWnd@@@Z 00427a5a f   uafxcw:dlgcore.obj
 0001:00026a97       ?InitModalIndirect@CDialog@@QAEHPAXPAVCWnd@@@Z 00427a97 f   uafxcw:dlgcore.obj
 0001:00026ab5       ?InitModalIndirect@CDialog@@QAEHPBUDLGTEMPLATE@@PAVCWnd@@PAX@Z 00427ab5 f   uafxcw:dlgcore.obj
 0001:00026ad9       ?EndDialog@CDialog@@QAEXH@Z 00427ad9 f   uafxcw:dlgcore.obj
 0001:00026b03       ?PreInitDialog@CDialog@@MAEXXZ 00427b03 f   uafxcw:dlgcore.obj
 0001:00026b04       ?OnSetFont@CDialog@@UAEXPAVCFont@@@Z 00427b04 f   uafxcw:dlgcore.obj
 0001:00026b07       ?OnOK@CDialog@@MAEXXZ      00427b07 f   uafxcw:dlgcore.obj
 0001:00026b22       ?OnCancel@CDialog@@MAEXXZ  00427b22 f   uafxcw:dlgcore.obj
 0001:00026b2a       ?OnHelpHitTest@CDialog@@IAEJIJ@Z 00427b2a f   uafxcw:dlgcore.obj
 0001:00026b3d       ?GetRuntimeClass@CDialog@@UBEPAUCRuntimeClass@@XZ 00427b3d f   uafxcw:dlgcore.obj
 0001:00026b43       ??_9CDialog@@$BBFI@AE      00427b43 f i uafxcw:dlgcore.obj
 0001:00026b4b       ??_9CDialog@@$BBFM@AE      00427b4b f i uafxcw:dlgcore.obj
 0001:00026b53       ?GetNextDlgTabItem@CWnd@@QBEPAV1@PAV1@H@Z 00427b53 f i uafxcw:dlgcore.obj
 0001:00026b79       ?PreTranslateMessage@CDialog@@UAEHPAUtagMSG@@@Z 00427b79 f   uafxcw:dlgcore.obj
 0001:00026c19       ?OnCmdMsg@CDialog@@UAEHIHPAXPAUAFX_CMDHANDLERINFO@@@Z 00427c19 f   uafxcw:dlgcore.obj
 0001:00026ca3       ??_GCDialog@@UAEPAXI@Z     00427ca3 f i uafxcw:dlgcore.obj
 0001:00026ca3       ??_ECDialog@@UAEPAXI@Z     00427ca3 f i uafxcw:dlgcore.obj
 0001:00026cc4       ?PreModal@CDialog@@IAEPAUHWND__@@XZ 00427cc4 f   uafxcw:dlgcore.obj
 0001:00026d00       ?PostModal@CDialog@@IAEXXZ 00427d00 f   uafxcw:dlgcore.obj
 0001:00026d44       ?HandleSetFont@CDialog@@IAEJIJ@Z 00427d44 f   uafxcw:dlgcore.obj
 0001:00026d6b       ?HandleInitDialog@CDialog@@IAEJIJ@Z 00427d6b f   uafxcw:dlgcore.obj
 0001:00026df7       ?AfxHelpEnabled@@YGHXZ     00427df7 f   uafxcw:dlgcore.obj
 0001:00026e4f       ?OnInitDialog@CDialog@@UAEHXZ 00427e4f f   uafxcw:dlgcore.obj
 0001:00026eb2       ?CheckAutoCenter@CDialog@@UAEHXZ 00427eb2 f   uafxcw:dlgcore.obj
 0001:00026f4f       ?OnCommandHelp@CDialog@@IAEJIJ@Z 00427f4f f   uafxcw:dlgcore.obj
 0001:00026f92       ?GetThisMessageMap@CDialog@@KGPBUAFX_MSGMAP@@XZ 00427f92 f   uafxcw:dlgcore.obj
 0001:00026f98       ?GetMessageMap@CDialog@@MBEPBUAFX_MSGMAP@@XZ 00427f98 f   uafxcw:dlgcore.obj
 0001:00026f9e       ?CreateDlgIndirect@CWnd@@IAEHPBUDLGTEMPLATE@@PAV1@PAUHINSTANCE__@@@Z 00427f9e f   uafxcw:dlgcore.obj
 0001:00027159       ?DoModal@CDialog@@UAEHXZ   00428159 f   uafxcw:dlgcore.obj
 0001:00027325       ?CreateIndirect@CDialog@@IAEHPBUDLGTEMPLATE@@PAVCWnd@@PAXPAUHINSTANCE__@@@Z 00428325 f   uafxcw:dlgcore.obj
 0001:00027352       ?CreateDlg@CWnd@@IAEHPB_WPAV1@@Z 00428352 f   uafxcw:dlgcore.obj
 0001:000273aa       ?CreateIndirect@CDialog@@IAEHPAXPAVCWnd@@PAUHINSTANCE__@@@Z 004283aa f   uafxcw:dlgcore.obj
 0001:000273d0       ?CreateIndirect@CDialog@@UAEHPBUDLGTEMPLATE@@PAVCWnd@@PAX@Z 004283d0 f   uafxcw:dlgcore.obj
 0001:000273e9       ?Create@CDialog@@UAEHPB_WPAVCWnd@@@Z 004283e9 f   uafxcw:dlgcore.obj
 0001:00027447       ?CreateIndirect@CDialog@@UAEHPAXPAVCWnd@@@Z 00428447 f   uafxcw:dlgcore.obj
 0001:0002745d       ?OnFileNew@CWinApp@@IAEXXZ 0042845d f   uafxcw:appdlg.obj
 0001:0002746c       ?OnFileOpen@CWinApp@@IAEXXZ 0042846c f   uafxcw:appdlg.obj
 0001:0002747f       ?DoPromptFileName@CWinApp@@QAEHAAV?$CStringT@_WV?$StrTraitMFC@_WV?$ChTraitsCRT@_W@ATL@@@@@ATL@@IKHPAVCDocTemplate@@@Z 0042847f f   uafxcw:appdlg.obj
 0001:00027498       ??0CSingleDocTemplate@@QAE@IPAUCRuntimeClass@@00@Z 00428498 f   uafxcw:docsingl.obj
 0001:000274c2       ??1CSingleDocTemplate@@UAE@XZ 004284c2 f   uafxcw:docsingl.obj
 0001:000274cd       ?GetFirstDocPosition@CSingleDocTemplate@@UBEPAU__POSITION@@XZ 004284cd f   uafxcw:docsingl.obj
 0001:000274d5       ?GetNextDoc@CSingleDocTemplate@@UBEPAVCDocument@@AAPAU__POSITION@@@Z 004284d5 f   uafxcw:docsingl.obj
 0001:000274ee       ?AddDocument@CSingleDocTemplate@@UAEXPAVCDocument@@@Z 004284ee f   uafxcw:docsingl.obj
 0001:00027509       ?RemoveDocument@CSingleDocTemplate@@UAEXPAVCDocument@@@Z 00428509 f   uafxcw:docsingl.obj
 0001:00027522       ?GetRuntimeClass@CSingleDocTemplate@@UBEPAUCRuntimeClass@@XZ 00428522 f   uafxcw:docsingl.obj
 0001:00027528       ??_GCSingleDocTemplate@@UAEPAXI@Z 00428528 f i uafxcw:docsingl.obj
 0001:00027528       ??_ECSingleDocTemplate@@UAEPAXI@Z 00428528 f i uafxcw:docsingl.obj
 0001:0002754f       ?SetDefaultTitle@CSingleDocTemplate@@UAEXPAVCDocument@@@Z 0042854f f   uafxcw:docsingl.obj
 0001:000275b7       ?OpenDocumentFile@CSingleDocTemplate@@UAEPAVCDocument@@PB_WH@Z 004285b7 f   uafxcw:docsingl.obj
 0001:00027748       ?SetRegistryKey@CWinApp@@IAEXPB_W@Z 00428748 f   uafxcw:appui3.obj
 0001:0002777e       ?SetRegistryKey@CWinApp@@IAEXI@Z 0042877e f   uafxcw:appui3.obj
 0001:000277c7       ?GetAppRegistryKey@CWinApp@@QAEPAUHKEY__@@XZ 004287c7 f   uafxcw:appui3.obj
 0001:0002785a       ?GetSectionKey@CWinApp@@QAEPAUHKEY__@@PB_W@Z 0042885a f   uafxcw:appui3.obj
 0001:000278a2       ?GetProfileIntW@CWinApp@@QAEIPB_W0H@Z 004288a2 f   uafxcw:appui3.obj
 0001:0002790d       ?WriteProfileInt@CWinApp@@QAEHPB_W0H@Z 0042890d f   uafxcw:appui3.obj
 0001:00027996       ?WriteProfileStringW@CWinApp@@QAEHPB_W00@Z 00428996 f   uafxcw:appui3.obj
 0001:00027a31       ?WriteProfileBinary@CWinApp@@QAEHPB_W0PAEI@Z 00428a31 f   uafxcw:appui3.obj
 0001:00027af0       ??0CRegKey@ATL@@QAE@PAUHKEY__@@@Z 00428af0 f i uafxcw:appui3.obj
 0001:00027b04       ?Close@CRegKey@ATL@@QAEJXZ 00428b04 f i uafxcw:appui3.obj
 0001:00027b21       ??1CRegKey@ATL@@QAE@XZ     00428b21 f i uafxcw:appui3.obj
 0001:00027b26       ??A?$CSimpleStringT@_W$0A@@ATL@@QBE_WH@Z 00428b26 f i uafxcw:appui3.obj
 0001:00027b4c       ?GetProfileStringW@CWinApp@@QAE?AV?$CStringT@_WV?$StrTraitMFC@_WV?$ChTraitsCRT@_W@ATL@@@@@ATL@@PB_W00@Z 00428b4c f   uafxcw:appui3.obj
 0001:00027ce7       ?GetProfileBinary@CWinApp@@QAEHPB_W0PAPAEPAI@Z 00428ce7 f   uafxcw:appui3.obj
 0001:00027e10       ??1?$CProcessLocal@VCOccManager@@@@QAE@XZ 00428e10 f i uafxcw:occmgr.obj
 0001:00027e15       ??1?$CProcessLocal@VCControlSiteFactoryMgr@@@@QAE@XZ 00428e15 f i uafxcw:occmgr.obj
 0001:00027e58       ?_AfxFindFirstDlgItem@@YGPAUDLGITEMTEMPLATE@@PBUDLGTEMPLATE@@@Z 00428e58 f   uafxcw:occmgr.obj
 0001:00027ee1       ?_AfxFindNextDlgItem@@YGPAUDLGITEMTEMPLATE@@PAU1@H@Z 00428ee1 f   uafxcw:occmgr.obj
 0001:00027f4a       ?OnEvent@COccManager@@UAEHPAVCCmdTarget@@IPAUAFX_EVENT@@PAUAFX_CMDHANDLERINFO@@@Z 00428f4a f   uafxcw:occmgr.obj
 0001:00027f64       ?CreateSite@COccManager@@UAEPAVCOleControlSite@@PAVCOleControlContainer@@@Z 00428f64 f   uafxcw:occmgr.obj
 0001:00027f69       ?PreCreateDialog@COccManager@@UAEPBUDLGTEMPLATE@@PAU_AFX_OCC_DIALOG_INFO@@PBU2@@Z 00428f69 f   uafxcw:occmgr.obj
 0001:00028090       ?PostCreateDialog@COccManager@@UAEXPAU_AFX_OCC_DIALOG_INFO@@@Z 00429090 f   uafxcw:occmgr.obj
 0001:000280c2       ?SplitDialogTemplate@COccManager@@UAEPAUDLGTEMPLATE@@PBU2@PAPAUDLGITEMTEMPLATE@@@Z 004290c2 f   uafxcw:occmgr.obj
 0001:00028216       ?PrepareOleCtrl@CDataExchange@@QAEPAVCOleControlSite@@H@Z 00429216 f   uafxcw:occmgr.obj
 0001:00028241       ??0IControlSiteFactory@@QAE@XZ 00429241 f i uafxcw:occmgr.obj
 0001:0002824a       ??0?$CList@PAVIControlSiteFactory@@PAV1@@@QAE@H@Z 0042924a f i uafxcw:occmgr.obj
 0001:00028272       ?GetHeadPosition@?$CList@PAVIControlSiteFactory@@PAV1@@@QBEPAU__POSITION@@XZ 00429272 f i uafxcw:occmgr.obj
 0001:00028276       ?GetNext@?$CList@PAVIControlSiteFactory@@PAV1@@@QAEAAPAVIControlSiteFactory@@AAPAU__POSITION@@@Z 00429276 f i uafxcw:occmgr.obj
 0001:0002828b       ??$CompareElements@PAVIControlSiteFactory@@PAV1@@@YGHPBQAVIControlSiteFactory@@0@Z 0042928b f i uafxcw:occmgr.obj
 0001:000282b0       ??1IControlSiteFactory@@UAE@XZ 004292b0 f i uafxcw:occmgr.obj
 0001:000282b7       ??_EIControlSiteFactory@@UAEPAXI@Z 004292b7 f i uafxcw:occmgr.obj
 0001:000282b7       ??_GIControlSiteFactory@@UAEPAXI@Z 004292b7 f i uafxcw:occmgr.obj
 0001:000282d9       ?RemoveAll@?$CList@PAVIControlSiteFactory@@PAV1@@@QAEXXZ 004292d9 f i uafxcw:occmgr.obj
 0001:00028306       ??$SerializeElements@PAVIControlSiteFactory@@@@YGXAAVCArchive@@PAPAVIControlSiteFactory@@H@Z 00429306 f i uafxcw:occmgr.obj
 0001:0002838e       ?NewNode@?$CList@PAVIControlSiteFactory@@PAV1@@@IAEPAUCNode@1@PAU21@0@Z 0042938e f i uafxcw:occmgr.obj
 0001:000283f0       ?CreateContainer@COccManager@@UAEPAVCOleControlContainer@@PAVCWnd@@@Z 004293f0 f   uafxcw:occmgr.obj
 0001:00028425       ?CreateDlgControls@COccManager@@UAEHPAVCWnd@@PB_WPAU_AFX_OCC_DIALOG_INFO@@@Z 00429425 f   uafxcw:occmgr.obj
 0001:000284b7       ??0COleControlSiteFactory@@QAE@XZ 004294b7 f i uafxcw:occmgr.obj
 0001:000284c0       ?CreateSite@COleControlSiteFactory@@UAEPAVCOleControlSite@@PAVCOleControlContainer@@ABVCControlCreationInfo@@@Z 004294c0 f i uafxcw:occmgr.obj
 0001:000284f5       ??1COleControlSiteFactory@@UAE@XZ 004294f5 f i uafxcw:occmgr.obj
 0001:000284fc       ?CreateSite@CControlSiteFactoryMgr@@QAEPAVCOleControlSite@@PAVCOleControlContainer@@ABVCControlCreationInfo@@@Z 004294fc f   uafxcw:occmgr.obj
 0001:0002852c       ??0COccManager@@QAE@XZ     0042952c f i uafxcw:occmgr.obj
 0001:00028535       ??1COccManager@@UAE@XZ     00429535 f i uafxcw:occmgr.obj
 0001:00028536       ??_ECOccManager@@UAEPAXI@Z 00429536 f i uafxcw:occmgr.obj
 0001:00028536       ??_GCOccManager@@UAEPAXI@Z 00429536 f i uafxcw:occmgr.obj
 0001:00028551       ?AddHead@?$CList@PAVIControlSiteFactory@@PAV1@@@QAEPAU__POSITION@@PAVIControlSiteFactory@@@Z 00429551 f i uafxcw:occmgr.obj
 0001:00028580       ?Find@?$CList@PAVIControlSiteFactory@@PAV1@@@QBEPAU__POSITION@@PAVIControlSiteFactory@@PAU2@@Z 00429580 f i uafxcw:occmgr.obj
 0001:000285b8       ?FreeNode@?$CList@PAVIControlSiteFactory@@PAV1@@@IAEXPAUCNode@1@@Z 004295b8 f i uafxcw:occmgr.obj
 0001:000285d6       ??1?$CList@PAVIControlSiteFactory@@PAV1@@@UAE@XZ 004295d6 f i uafxcw:occmgr.obj
 0001:000285e1       ??_G?$CList@PAVIControlSiteFactory@@PAV1@@@UAEPAXI@Z 004295e1 f i uafxcw:occmgr.obj
 0001:000285e1       ??_E?$CList@PAVIControlSiteFactory@@PAV1@@@UAEPAXI@Z 004295e1 f i uafxcw:occmgr.obj
 0001:00028608       ?AddTail@?$CList@PAVIControlSiteFactory@@PAV1@@@QAEPAU__POSITION@@PAVIControlSiteFactory@@@Z 00429608 f i uafxcw:occmgr.obj
 0001:00028636       ?BindControls@COccManager@@IAEXPAVCWnd@@@Z 00429636 f   uafxcw:occmgr.obj
 0001:0002874b       ??_ECOleControlSiteFactory@@UAEPAXI@Z 0042974b f i uafxcw:occmgr.obj
 0001:0002874b       ??_GCOleControlSiteFactory@@UAEPAXI@Z 0042974b f i uafxcw:occmgr.obj
 0001:0002876d       ??1CControlSiteFactoryMgr@@UAE@XZ 0042976d f   uafxcw:occmgr.obj
 0001:000287b6       ?RegisterSiteFactory@CControlSiteFactoryMgr@@QAEHPAVIControlSiteFactory@@@Z 004297b6 f   uafxcw:occmgr.obj
 0001:000287eb       ?CreateObject@?$CProcessLocal@VCOccManager@@@@SGPAVCNoTrackObject@@XZ 004297eb f i uafxcw:occmgr.obj
 0001:00028800       ?RemoveAt@?$CList@PAVIControlSiteFactory@@PAV1@@@QAEXPAU__POSITION@@@Z 00429800 f i uafxcw:occmgr.obj
 0001:0002883c       ?Serialize@?$CList@PAVIControlSiteFactory@@PAV1@@@UAEXAAVCArchive@@@Z 0042983c f i uafxcw:occmgr.obj
 0001:000288a0       ??0CControlSiteFactoryMgr@@QAE@XZ 004298a0 f   uafxcw:occmgr.obj
 0001:00028911       ??_ECControlSiteFactoryMgr@@UAEPAXI@Z 00429911 f i uafxcw:occmgr.obj
 0001:00028911       ??_GCControlSiteFactoryMgr@@UAEPAXI@Z 00429911 f i uafxcw:occmgr.obj
 0001:00028931       ?UnregisterSiteFactory@CControlSiteFactoryMgr@@QAEHPAVIControlSiteFactory@@@Z 00429931 f   uafxcw:occmgr.obj
 0001:00028969       ?GetData@?$CProcessLocal@VCOccManager@@@@QAEPAVCOccManager@@XZ 00429969 f i uafxcw:occmgr.obj
 0001:0002897d       ?CreateObject@?$CProcessLocal@VCControlSiteFactoryMgr@@@@SGPAVCNoTrackObject@@XZ 0042997d f i uafxcw:occmgr.obj
 0001:000289a9       ?AfxEnableControlContainer@@YAXPAVCOccManager@@@Z 004299a9 f   uafxcw:occmgr.obj
 0001:000289db       ?GetData@?$CProcessLocal@VCControlSiteFactoryMgr@@@@QAEPAVCControlSiteFactoryMgr@@XZ 004299db f i uafxcw:occmgr.obj
 0001:000289ef       ??C?$CProcessLocal@VCControlSiteFactoryMgr@@@@QAEPAVCControlSiteFactoryMgr@@XZ 004299ef f i uafxcw:occmgr.obj
 0001:000289f4       ?CreateSite@COccManager@@UAEPAVCOleControlSite@@PAVCOleControlContainer@@ABVCControlCreationInfo@@@Z 004299f4 f   uafxcw:occmgr.obj
 0001:00028a4a       ?CreateDlgControl@COccManager@@IAEHPAVCWnd@@PAUHWND__@@HPAUDLGITEMTEMPLATE@@GPAEKPAPAU3@@Z 00429a4a f   uafxcw:occmgr.obj
 0001:00028d37       ?AfxRegisterSiteFactory@@YGHPAVIControlSiteFactory@@@Z 00429d37 f   uafxcw:occmgr.obj
 0001:00028d5c       ?AfxUnregisterSiteFactory@@YGHPAVIControlSiteFactory@@@Z 00429d5c f   uafxcw:occmgr.obj
 0001:00028d81       ?CreateDlgControls@COccManager@@UAEHPAVCWnd@@PAXPAU_AFX_OCC_DIALOG_INFO@@@Z 00429d81 f   uafxcw:occmgr.obj
 0001:00028edf       ?OnFinalRelease@CDocument@@UAEXXZ 00429edf f   uafxcw:doccore.obj
 0001:00028ee4       ?DeleteContents@CDocument@@UAEXXZ 00429ee4 f   uafxcw:doccore.obj
 0001:00028ee5       ?CanCloseFrame@CDocument@@UAEHPAVCFrameWnd@@@Z 00429ee5 f   uafxcw:doccore.obj
 0001:00028f30       ?PreCloseFrame@CDocument@@UAEXPAVCFrameWnd@@@Z 00429f30 f   uafxcw:doccore.obj
 0001:00028f33       ?OnFileClose@CDocument@@IAEXXZ 00429f33 f   uafxcw:doccore.obj
 0001:00028f4e       ?OnFileSave@CDocument@@IAEXXZ 00429f4e f   uafxcw:doccore.obj
 0001:00028f56       ?OnFileSaveAs@CDocument@@IAEXXZ 00429f56 f   uafxcw:doccore.obj
 0001:00028f63       ?GetDefaultMenu@CDocument@@UAEPAUHMENU__@@XZ 00429f63 f   uafxcw:doccore.obj
 0001:00028f66       ?GetDefaultAccelerator@CDocument@@UAEPAUHACCEL__@@XZ 00429f66 f   uafxcw:doccore.obj
 0001:00028f69       ?ReleaseFile@CDocument@@UAEXPAVCFile@@H@Z 00429f69 f   uafxcw:doccore.obj
 0001:00028f92       ?OnIdle@CDocument@@UAEXXZ  00429f92 f   uafxcw:doccore.obj
 0001:00028f93       ?AddView@CDocument@@QAEXPAVCView@@@Z 00429f93 f   uafxcw:doccore.obj
 0001:00028fb8       ?RemoveView@CDocument@@QAEXPAVCView@@@Z 00429fb8 f   uafxcw:doccore.obj
 0001:00028fec       ?UpdateAllViews@CDocument@@QAEXPAVCView@@JPAVCObject@@@Z 00429fec f   uafxcw:doccore.obj
 0001:0002902f       ?SendInitialUpdate@CDocument@@QAEXXZ 0042a02f f   uafxcw:doccore.obj
 0001:00029062       ?OnCmdMsg@CDocument@@UAEHIHPAXPAUAFX_CMDHANDLERINFO@@@Z 0042a062 f   uafxcw:doccore.obj
 0001:000290a9       ?GetRuntimeClass@CDocument@@UBEPAUCRuntimeClass@@XZ 0042a0a9 f   uafxcw:doccore.obj
 0001:000290af       ??$AtlAdd@H@ATL@@YAJPAHHH@Z 0042a0af f i uafxcw:doccore.obj
 0001:000290d7       ?StringScanSet@?$ChTraitsCRT@_W@ATL@@SAPB_WPB_W0@Z 0042a0d7 f i uafxcw:doccore.obj
 0001:000290e2       ?StringSpanIncluding@?$ChTraitsCRT@_W@ATL@@SAHPB_W0@Z 0042a0e2 f i uafxcw:doccore.obj
 0001:000290ed       ?StringSpanExcluding@?$ChTraitsCRT@_W@ATL@@SAHPB_W0@Z 0042a0ed f i uafxcw:doccore.obj
 0001:000290f8       ??0CTime@ATL@@QAE@XZ       0042a0f8 f i uafxcw:doccore.obj
 0001:00029102       ?IsEmpty@CPtrList@@QBEHXZ  0042a102 f i uafxcw:doccore.obj
 0001:0002910b       ?GetHead@CPtrList@@QAEAAPAXXZ 0042a10b f i uafxcw:doccore.obj
 0001:00029112       ?EnsureParentFrame@CWnd@@QBEPAVCFrameWnd@@XZ 0042a112 f i uafxcw:doccore.obj
 0001:00029121       ?GetDocTemplate@CDocument@@QBEPAVCDocTemplate@@XZ 0042a121 f i uafxcw:doccore.obj
 0001:00029125       ?GetThisMessageMap@CDocument@@KGPBUAFX_MSGMAP@@XZ 0042a125 f   uafxcw:doccore.obj
 0001:0002912b       ?DisconnectViews@CDocument@@QAEXXZ 0042a12b f   uafxcw:doccore.obj
 0001:0002914e       ?OnChangedViewList@CDocument@@UAEXXZ 0042a14e f   uafxcw:doccore.obj
 0001:00029167       ?UpdateFrameCounts@CDocument@@UAEXXZ 0042a167 f   uafxcw:doccore.obj
 0001:00029256       ?DoFileSave@CDocument@@UAEHXZ 0042a256 f   uafxcw:doccore.obj
 0001:0002928f       ??0CFileStatus@@QAE@XZ     0042a28f f i uafxcw:doccore.obj
 0001:000292a5       ?OnCloseDocument@CDocument@@UAEXXZ 0042a2a5 f   uafxcw:doccore.obj
 0001:0002930e       ?GetFirstViewPosition@CDocument@@UBEPAU__POSITION@@XZ 0042a30e f   uafxcw:doccore.obj
 0001:00029312       ?GetNextView@CDocument@@UBEPAVCView@@AAPAU__POSITION@@@Z 0042a312 f   uafxcw:doccore.obj
 0001:00029330       ?FindOneOf@?$CStringT@_WV?$StrTraitMFC@_WV?$ChTraitsCRT@_W@ATL@@@@@ATL@@QBEHPB_W@Z 0042a330 f i uafxcw:doccore.obj
 0001:00029357       ??$AtlAddThrow@H@ATL@@YAHHH@Z 0042a357 f i uafxcw:doccore.obj
 0001:0002937e       ?GetMessageMap@CDocument@@MBEPBUAFX_MSGMAP@@XZ 0042a37e f   uafxcw:doccore.obj
 0001:00029384       ?OnNewDocument@CDocument@@UAEHXZ 0042a384 f   uafxcw:doccore.obj
 0001:000293a4       ??0CDocument@@QAE@XZ       0042a3a4 f   uafxcw:doccore.obj
 0001:000293f7       ??1CDocument@@UAE@XZ       0042a3f7 f   uafxcw:doccore.obj
 0001:00029456       ?Abort@CMirrorFile@@UAEXXZ 0042a456 f   uafxcw:doccore.obj
 0001:00029471       ?Close@CMirrorFile@@UAEXXZ 0042a471 f   uafxcw:doccore.obj
 0001:000294e9       ??0CMirrorFile@@QAE@XZ     0042a4e9 f i uafxcw:doccore.obj
 0001:00029505       ??1CMirrorFile@@UAE@XZ     0042a505 f i uafxcw:doccore.obj
 0001:0002951d       ?Mid@?$CStringT@_WV?$StrTraitMFC@_WV?$ChTraitsCRT@_W@ATL@@@@@ATL@@QBE?AV12@HH@Z 0042a51d f i uafxcw:doccore.obj
 0001:0002959d       ??1CFileException@@UAE@XZ  0042a59d f i uafxcw:doccore.obj
 0001:000295ae       ?GetFile@CDocument@@UAEPAVCFile@@PB_WIPAVCFileException@@@Z 0042a5ae f   uafxcw:doccore.obj
 0001:00029607       ??_GCMirrorFile@@UAEPAXI@Z 0042a607 f i uafxcw:doccore.obj
 0001:00029607       ??_ECMirrorFile@@UAEPAXI@Z 0042a607 f i uafxcw:doccore.obj
 0001:00029628       ??_ECFileException@@UAEPAXI@Z 0042a628 f i uafxcw:doccore.obj
 0001:00029628       ??_GCFileException@@UAEPAXI@Z 0042a628 f i uafxcw:doccore.obj
 0001:00029655       ?SaveModified@CDocument@@UAEHXZ 0042a655 f   uafxcw:doccore.obj
 0001:00029756       ?SetTitle@CDocument@@UAEXPB_W@Z 0042a756 f   uafxcw:doccore.obj
 0001:00029778       ?SetPathName@CDocument@@UAEXPB_WH@Z 0042a778 f   uafxcw:doccore.obj
 0001:00029830       ?ReportSaveLoadException@CDocument@@UAEXPB_WPAVCException@@HI@Z 0042a830 f   uafxcw:doccore.obj
 0001:000299b4       ?Open@CMirrorFile@@UAEHPB_WIPAVCFileException@@@Z 0042a9b4 f   uafxcw:doccore.obj
 0001:00029c40       ??0?$CStringT@_WV?$StrTraitMFC@_WV?$ChTraitsCRT@_W@ATL@@@@@ATL@@QAE@PB_WPAUIAtlStringMgr@1@@Z 0042ac40 f i uafxcw:doccore.obj
 0001:00029c7f       ??0CFileException@@QAE@HJPB_W@Z 0042ac7f f i uafxcw:doccore.obj
 0001:00029cc9       ?SetFilePath@CFile@@UAEXPB_W@Z 0042acc9 f i uafxcw:doccore.obj
 0001:00029ce3       ?OnOpenDocument@CDocument@@UAEHPB_W@Z 0042ace3 f   uafxcw:doccore.obj
 0001:00029e84       ?OnSaveDocument@CDocument@@UAEHPB_W@Z 0042ae84 f   uafxcw:doccore.obj
 0001:0002a006       ?Tokenize@?$CStringT@_WV?$StrTraitMFC@_WV?$ChTraitsCRT@_W@ATL@@@@@ATL@@QBE?AV12@PB_WAAH@Z 0042b006 f i uafxcw:doccore.obj
 0001:0002a0bb       ?DoSave@CDocument@@UAEHPB_WH@Z 0042b0bb f   uafxcw:doccore.obj
 0001:0002a25d       ?GetDefaultAccelerator@CFrameWnd@@UAEPAUHACCEL__@@XZ 0042b25d f   uafxcw:winfrm.obj
 0001:0002a281       ?PreTranslateMessage@CFrameWnd@@UAEHPAUtagMSG@@@Z 0042b281 f   uafxcw:winfrm.obj
 0001:0002a40f       ?PostNcDestroy@CFrameWnd@@MAEXXZ 0042b40f f   uafxcw:winfrm.obj
 0001:0002a41b       ?OnHelpHitTest@CFrameWnd@@IAEJIJ@Z 0042b41b f   uafxcw:winfrm.obj
 0001:0002a431       ?AfxIsDescendant@@YGHPAUHWND__@@0@Z 0042b431 f   uafxcw:winfrm.obj
 0001:0002a451       ?EndModalState@CFrameWnd@@UAEXXZ 0042b451 f   uafxcw:winfrm.obj
 0001:0002a4ca       ?ShowOwnedWindows@CFrameWnd@@QAEXH@Z 0042b4ca f   uafxcw:winfrm.obj
 0001:0002a574       ?PreCreateWindow@CFrameWnd@@MAEHAAUtagCREATESTRUCTW@@@Z 0042b574 f   uafxcw:winfrm.obj
 0001:0002a5b2       ?OnUpdateFrameMenu@CFrameWnd@@UAEXPAUHMENU__@@@Z 0042b5b2 f   uafxcw:winfrm.obj
 0001:0002a605       ?RemoveControlBar@CFrameWnd@@QAEXPAVCControlBar@@@Z 0042b605 f   uafxcw:winfrm.obj
 0001:0002a62e       ?OnNcActivate@CFrameWnd@@IAEHH@Z 0042b62e f   uafxcw:winfrm.obj
 0001:0002a668       ?OnDDETerminate@CFrameWnd@@IAEJIJ@Z 0042b668 f   uafxcw:winfrm.obj
 0001:0002a687       ?GetActiveView@CFrameWnd@@QBEPAVCView@@XZ 0042b687 f   uafxcw:winfrm.obj
 0001:0002a68e       ?SetActiveView@CFrameWnd@@QAEXPAVCView@@H@Z 0042b68e f   uafxcw:winfrm.obj
 0001:0002a6ec       ?OnSetFocus@CFrameWnd@@IAEXPAVCWnd@@@Z 0042b6ec f   uafxcw:winfrm.obj
 0001:0002a70c       ?OnInitMenu@CFrameWnd@@IAEXPAVCMenu@@@Z 0042b70c f   uafxcw:winfrm.obj
 0001:0002a737       ?OnHelpPromptAddr@CFrameWnd@@IAEJIJ@Z 0042b737 f   uafxcw:winfrm.obj
 0001:0002a73d       ?wcsncpy_s@Checked@ATL@@YAHPA_WIPB_WI@Z 0042b73d f i uafxcw:winfrm.obj
 0001:0002a75e       ?DelayUpdateFrameMenu@CFrameWnd@@UAEXPAUHMENU__@@@Z 0042b75e f   uafxcw:winfrm.obj
 0001:0002a777       ?GetActiveFrame@CFrameWnd@@UAEPAV1@XZ 0042b777 f   uafxcw:winfrm.obj
 0001:0002a77a       ??0?$CTypedPtrArray@VCObArray@@PAVCBitmap@@@@QAE@XZ 0042b77a f i uafxcw:winfrm.obj
 0001:0002a78e       ??1?$CTypedPtrArray@VCObArray@@PAVCBitmap@@@@UAE@XZ 0042b78e f i uafxcw:winfrm.obj
 0001:0002a793       ?BringToTop@CFrameWnd@@IAEXH@Z 0042b793 f   uafxcw:winfrm.obj
 0001:0002a7c7       ?GetDockingFrame@CControlBar@@QBEPAVCFrameWnd@@XZ 0042b7c7 f   uafxcw:winfrm.obj
 0001:0002a7dd       ?IsFloating@CControlBar@@QBEHXZ 0042b7dd f   uafxcw:winfrm.obj
 0001:0002a812       ?GetRuntimeClass@CFrameWnd@@UBEPAUCRuntimeClass@@XZ 0042b812 f   uafxcw:winfrm.obj
 0001:0002a818       ?GetRuntimeClass@CView@@UBEPAUCRuntimeClass@@XZ 0042b818 f   uafxcw:winfrm.obj
 0001:0002a81e       ?GetRuntimeClass@CControlBar@@UBEPAUCRuntimeClass@@XZ 0042b81e f   uafxcw:winfrm.obj
 0001:0002a824       ?SetMenuBarVisibility@CFrameWnd@@UAEXK@Z 0042b824 f   uafxcw:winfrm.obj
 0001:0002a877       ?GetMenuBarVisibility@CFrameWnd@@UBEKXZ 0042b877 f   uafxcw:winfrm.obj
 0001:0002a87e       ?SetMenuBarState@CFrameWnd@@UAEHK@Z 0042b87e f   uafxcw:winfrm.obj
 0001:0002a8f0       ?GetMenuBarState@CFrameWnd@@UBEKXZ 0042b8f0 f   uafxcw:winfrm.obj
 0001:0002a8f7       ?OnShowMenuBar@CFrameWnd@@MAEXXZ 0042b8f7 f   uafxcw:winfrm.obj
 0001:0002a8f8       ?OnHideMenuBar@CFrameWnd@@MAEXXZ 0042b8f8 f   uafxcw:winfrm.obj
 0001:0002a8f9       ?GetMenu@CFrameWnd@@UBEPAVCMenu@@XZ 0042b8f9 f   uafxcw:winfrm.obj
 0001:0002a926       ?AddHead@?$CTypedSimpleList@PAVCFrameWnd@@@@QAEXPAVCFrameWnd@@@Z 0042b926 f i uafxcw:winfrm.obj
 0001:0002a931       ?Remove@?$CTypedSimpleList@PAVCFrameWnd@@@@QAEHPAVCFrameWnd@@@Z 0042b931 f i uafxcw:winfrm.obj
 0001:0002a93c       ?SetAtGrow@?$CTypedPtrArray@VCObArray@@PAVCBitmap@@@@QAEXHPAVCBitmap@@@Z 0042b93c f i uafxcw:winfrm.obj
 0001:0002a947       ?GetCount@?$CArray@PAUHWND__@@PAU1@@@QBEHXZ 0042b947 f i uafxcw:winfrm.obj
 0001:0002a94b       ?GetData@?$CArray@PAUHWND__@@PAU1@@@QAEPAPAUHWND__@@XZ 0042b94b f i uafxcw:winfrm.obj
 0001:0002a94f       ?GetHeadPosition@?$CList@PAUHWND__@@PAU1@@@QBEPAU__POSITION@@XZ 0042b94f f i uafxcw:winfrm.obj
 0001:0002a953       ?GetNext@?$CList@PAUHWND__@@PAU1@@@QAEAAPAUHWND__@@AAPAU__POSITION@@@Z 0042b953 f i uafxcw:winfrm.obj
 0001:0002a968       ?SetSize@?$CArray@PAUHWND__@@PAU1@@@QAEXHH@Z 0042b968 f i uafxcw:winfrm.obj
 0001:0002aaa3       ?SetAtGrow@?$CArray@PAUHWND__@@PAU1@@@QAEXHPAUHWND__@@@Z 0042baa3 f i uafxcw:winfrm.obj
 0001:0002aad7       ?RemoveAll@?$CList@PAUHWND__@@PAU1@@@QAEXXZ 0042bad7 f i uafxcw:winfrm.obj
 0001:0002ab04       ?_wcstombsz@ATL@@YAHPADPB_WK@Z 0042bb04 f i uafxcw:winfrm.obj
 0001:0002ab2f       ??GCPoint@@QBE?AV0@XZ      0042bb2f f i uafxcw:winfrm.obj
 0001:0002ab49       ?IsRectNull@CRect@@QBEHXZ  0042bb49 f i uafxcw:winfrm.obj
 0001:0002ab60       ?SetRectEmpty@CRect@@QAEXXZ 0042bb60 f i uafxcw:winfrm.obj
 0001:0002ab6a       ?CopyRect@CRect@@QAEXPBUtagRECT@@@Z 0042bb6a f i uafxcw:winfrm.obj
 0001:0002ab7d       ?OffsetRect@CRect@@QAEXUtagPOINT@@@Z 0042bb7d f i uafxcw:winfrm.obj
 0001:0002ab93       ?ElementAt@CObArray@@QAEAAPAVCObject@@H@Z 0042bb93 f i uafxcw:winfrm.obj
 0001:0002abb4       ??ACObArray@@QAEAAPAVCObject@@H@Z 0042bbb4 f i uafxcw:winfrm.obj
 0001:0002abbf       ??4ImageList_Draw_Type@CComCtlWrapper@@QAEXP6GHPAU_IMAGELIST@@HPAUHDC__@@HHI@Z@Z 0042bbbf f i uafxcw:winfrm.obj
 0001:0002abcd       ??BImageList_Draw_Type@CComCtlWrapper@@QAEP6GHPAU_IMAGELIST@@HPAUHDC__@@HHI@ZXZ 0042bbcd f i uafxcw:winfrm.obj
 0001:0002abd0       ??7ImageList_Draw_Type@CComCtlWrapper@@QBE_NXZ 0042bbd0 f i uafxcw:winfrm.obj
 0001:0002abd8       ??4ImageList_GetImageInfo_Type@CComCtlWrapper@@QAEXP6GHPAU_IMAGELIST@@HPAU_IMAGEINFO@@@Z@Z 0042bbd8 f i uafxcw:winfrm.obj
 0001:0002abe6       ??BImageList_GetImageInfo_Type@CComCtlWrapper@@QAEP6GHPAU_IMAGELIST@@HPAU_IMAGEINFO@@@ZXZ 0042bbe6 f i uafxcw:winfrm.obj
 0001:0002abe9       ??7ImageList_GetImageInfo_Type@CComCtlWrapper@@QBE_NXZ 0042bbe9 f i uafxcw:winfrm.obj
 0001:0002abf1       ?CreateCompatibleBitmap@CBitmap@@QAEHPAVCDC@@HH@Z 0042bbf1 f i uafxcw:winfrm.obj
 0001:0002ac18       ?CreatePopupMenu@CMenu@@QAEHXZ 0042bc18 f i uafxcw:winfrm.obj
 0001:0002ac2d       ?InsertMenuItemW@CMenu@@QAEHIPAUtagMENUITEMINFOW@@H@Z 0042bc2d f i uafxcw:winfrm.obj
 0001:0002ac48       ?ContinueRouting@CCmdUI@@QAEXXZ 0042bc48 f i uafxcw:winfrm.obj
 0001:0002ac50       ?IsIconic@CWnd@@QBEHXZ     0042bc50 f i uafxcw:winfrm.obj
 0001:0002ac5a       ?Invalidate@CWnd@@QAEXH@Z  0042bc5a f i uafxcw:winfrm.obj
 0001:0002ac71       ?OnActivate@CWnd@@IAEXIPAV1@H@Z 0042bc71 f i uafxcw:winfrm.obj
 0001:0002ac79       ?OnEraseBkgnd@CWnd@@IAEHPAVCDC@@@Z 0042bc79 f i uafxcw:winfrm.obj
 0001:0002ac81       ?OnMenuChar@CWnd@@IAEJIIPAVCMenu@@@Z 0042bc81 f i uafxcw:winfrm.obj
 0001:0002ac89       ?OnQueryNewPalette@CWnd@@IAEHXZ 0042bc89 f i uafxcw:winfrm.obj
 0001:0002ac8e       ?OnSetCursor@CWnd@@IAEHPAV1@II@Z 0042bc8e f i uafxcw:winfrm.obj
 0001:0002ac96       ?OnSize@CWnd@@IAEXIHH@Z    0042bc96 f i uafxcw:winfrm.obj
 0001:0002ac9e       ?OnSysCommand@CWnd@@IAEXIJ@Z 0042bc9e f i uafxcw:winfrm.obj
 0001:0002aca6       ?OnPaletteChanged@CWnd@@IAEXPAV1@@Z 0042bca6 f i uafxcw:winfrm.obj
 0001:0002acae       ?DelayRecalcLayout@CFrameWnd@@QAEXH@Z 0042bcae f i uafxcw:winfrm.obj
 0001:0002acca       ?InModalState@CFrameWnd@@QBEHXZ 0042bcca f i uafxcw:winfrm.obj
 0001:0002acd6       ?GetDocument@CView@@QBEPAVCDocument@@XZ 0042bcd6 f i uafxcw:winfrm.obj
 0001:0002acda       ?GetTitle@CDocument@@QBEABV?$CStringT@_WV?$StrTraitMFC@_WV?$ChTraitsCRT@_W@ATL@@@@@ATL@@XZ 0042bcda f i uafxcw:winfrm.obj
 0001:0002acde       ?GetToolBarCtrl@CToolBar@@QBEAAVCToolBarCtrl@@XZ 0042bcde f i uafxcw:winfrm.obj
 0001:0002ace1       ?GetReBarCtrl@CReBar@@QBEAAVCReBarCtrl@@XZ 0042bce1 f i uafxcw:winfrm.obj
 0001:0002ace4       ?GetReBarBandInfoSize@CReBar@@QBEIXZ 0042bce4 f i uafxcw:winfrm.obj
 0001:0002aceb       ??0CPushRoutingFrame@@QAE@PAVCFrameWnd@@@Z 0042bceb f i uafxcw:winfrm.obj
 0001:0002ad22       ??1CPushRoutingFrame@@QAE@XZ 0042bd22 f i uafxcw:winfrm.obj
 0001:0002ad40       ?Pop@CPushRoutingFrame@@QAEXXZ 0042bd40 f i uafxcw:winfrm.obj
 0001:0002ad65       ?GetButtonCount@CToolBarCtrl@@QBEHXZ 0042bd65 f i uafxcw:winfrm.obj
 0001:0002ad78       ?GetItemRect@CToolBarCtrl@@QBEHHPAUtagRECT@@@Z 0042bd78 f i uafxcw:winfrm.obj
 0001:0002ad95       ?GetImageList@CToolBarCtrl@@QBEPAVCImageList@@XZ 0042bd95 f i uafxcw:winfrm.obj
 0001:0002adae       ?GetBandInfo@CReBarCtrl@@QBEHIPAUtagREBARBANDINFOW@@@Z 0042bdae f i uafxcw:winfrm.obj
 0001:0002adcb       ?GetRect@CReBarCtrl@@QBEHIPAUtagRECT@@@Z 0042bdcb f i uafxcw:winfrm.obj
 0001:0002ade8       ?LoadAccelTable@CFrameWnd@@QAEHPB_W@Z 0042bde8 f   uafxcw:winfrm.obj
 0001:0002ae13       ?OnPaletteChanged@CFrameWnd@@IAEXPAVCWnd@@@Z 0042be13 f   uafxcw:winfrm.obj
 0001:0002ae3a       ?OnQueryNewPalette@CFrameWnd@@IAEHXZ 0042be3a f   uafxcw:winfrm.obj
 0001:0002ae64       ?ExitHelpMode@CFrameWnd@@UAEXXZ 0042be64 f   uafxcw:winfrm.obj
 0001:0002aedb       ?OnSetCursor@CFrameWnd@@IAEHPAVCWnd@@II@Z 0042bedb f   uafxcw:winfrm.obj
 0001:0002af10       ?OnCommandHelp@CFrameWnd@@IAEJIJ@Z 0042bf10 f   uafxcw:winfrm.obj
 0001:0002af6d       ?OnCommand@CFrameWnd@@MAEHIJ@Z 0042bf6d f   uafxcw:winfrm.obj
 0001:0002afef       ?NotifyFloatingWindows@CFrameWnd@@QAEXK@Z 0042bfef f   uafxcw:winfrm.obj
 0001:0002b0aa       ?CreateView@CFrameWnd@@QAEPAVCWnd@@PAUCCreateContext@@I@Z 0042c0aa f   uafxcw:winfrm.obj
 0001:0002b129       ?OnCreateClient@CFrameWnd@@MAEHPAUtagCREATESTRUCTW@@PAUCCreateContext@@@Z 0042c129 f   uafxcw:winfrm.obj
 0001:0002b150       ?OnCreateHelper@CFrameWnd@@IAEHPAUtagCREATESTRUCTW@@PAUCCreateContext@@@Z 0042c150 f   uafxcw:winfrm.obj
 0001:0002b1a3       ?GetIconWndClass@CFrameWnd@@IAEPB_WKI@Z 0042c1a3 f   uafxcw:winfrm.obj
 0001:0002b22a       ?InitialUpdateFrame@CFrameWnd@@QAEXPAVCDocument@@H@Z 0042c22a f   uafxcw:winfrm.obj
 0001:0002b2f3       ?OnClose@CFrameWnd@@IAEXXZ 0042c2f3 f   uafxcw:winfrm.obj
 0001:0002b3ed       ?OnCmdMsg@CFrameWnd@@UAEHIHPAXPAUAFX_CMDHANDLERINFO@@@Z 0042c3ed f   uafxcw:winfrm.obj
 0001:0002b487       ?OnHScroll@CFrameWnd@@IAEXIIPAVCScrollBar@@@Z 0042c487 f   uafxcw:winfrm.obj
 0001:0002b4b1       ?OnVScroll@CFrameWnd@@IAEXIIPAVCScrollBar@@@Z 0042c4b1 f   uafxcw:winfrm.obj
 0001:0002b4db       ?OnActivateTopLevel@CFrameWnd@@IAEJIJ@Z 0042c4db f   uafxcw:winfrm.obj
 0001:0002b571       ?OnActivate@CFrameWnd@@IAEXIPAVCWnd@@H@Z 0042c571 f   uafxcw:winfrm.obj
 0001:0002b66e       ?OnSysCommand@CFrameWnd@@IAEXIJ@Z 0042c66e f   uafxcw:winfrm.obj
 0001:0002b711       ?OnDropFiles@CFrameWnd@@IAEXPAUHDROP__@@@Z 0042c711 f   uafxcw:winfrm.obj
 0001:0002b7bc       ?OnQueryEndSession@CFrameWnd@@IAEHXZ 0042c7bc f   uafxcw:winfrm.obj
 0001:0002b7e2       ?OnEndSession@CFrameWnd@@IAEXH@Z 0042c7e2 f   uafxcw:winfrm.obj
 0001:0002b81f       ?OnDDEInitiate@CFrameWnd@@IAEJIJ@Z 0042c81f f   uafxcw:winfrm.obj
 0001:0002b90a       ?GetActiveDocument@CFrameWnd@@UAEPAVCDocument@@XZ 0042c90a f   uafxcw:winfrm.obj
 0001:0002b91b       ?ShowControlBar@CFrameWnd@@QAEXPAVCControlBar@@HH@Z 0042c91b f   uafxcw:winfrm.obj
 0001:0002ba20       ?OnInitMenuPopup@CFrameWnd@@IAEXPAVCMenu@@IH@Z 0042ca20 f   uafxcw:winfrm.obj
 0001:0002bbc1       ?OnMenuSelect@CFrameWnd@@IAEXIIPAUHMENU__@@@Z 0042cbc1 f   uafxcw:winfrm.obj
 0001:0002bd66       ?OnPopMessageString@CFrameWnd@@IAEJIJ@Z 0042cd66 f   uafxcw:winfrm.obj
 0001:0002bd8d       ?GetMessageBar@CFrameWnd@@UAEPAVCWnd@@XZ 0042cd8d f   uafxcw:winfrm.obj
 0001:0002bd9d       ?SetMessageText@CFrameWnd@@QAEXPB_W@Z 0042cd9d f   uafxcw:winfrm.obj
 0001:0002bdb9       ?SetMessageText@CFrameWnd@@QAEXI@Z 0042cdb9 f   uafxcw:winfrm.obj
 0001:0002bdd5       ?GetControlBar@CFrameWnd@@QAEPAVCControlBar@@I@Z 0042cdd5 f   uafxcw:winfrm.obj
 0001:0002be27       ?OnUpdateControlBarMenu@CFrameWnd@@QAEXPAVCCmdUI@@@Z 0042ce27 f   uafxcw:winfrm.obj
 0001:0002be6a       ?OnBarCheck@CFrameWnd@@QAEHI@Z 0042ce6a f   uafxcw:winfrm.obj
 0001:0002bea8       ?OnUpdateKeyIndicator@CFrameWnd@@IAEXPAVCCmdUI@@@Z 0042cea8 f   uafxcw:winfrm.obj
 0001:0002bf05       ?OnUpdateContextHelp@CFrameWnd@@IAEXPAVCCmdUI@@@Z 0042cf05 f   uafxcw:winfrm.obj
 0001:0002bf42       ?OnSetPreviewMode@CFrameWnd@@UAEXHPAUCPrintPreviewState@@@Z 0042cf42 f   uafxcw:winfrm.obj
 0001:0002c1a4       ?OnIdleUpdateCmdUI@CFrameWnd@@IAEXXZ 0042d1a4 f   uafxcw:winfrm.obj
 0001:0002c21f       ?RecalcLayout@CFrameWnd@@UAEXH@Z 0042d21f f   uafxcw:winfrm.obj
 0001:0002c30b       ?NegotiateBorderSpace@CFrameWnd@@UAEHIPAUtagRECT@@@Z 0042d30b f   uafxcw:winfrm.obj
 0001:0002c379       ?OnSize@CFrameWnd@@IAEXIHH@Z 0042d379 f   uafxcw:winfrm.obj
 0001:0002c39d       ?OnEraseBkgnd@CFrameWnd@@IAEHPAVCDC@@@Z 0042d39d f   uafxcw:winfrm.obj
 0001:0002c3b3       ??_G?$CTypedPtrArray@VCObArray@@PAVCBitmap@@@@UAEPAXI@Z 0042d3b3 f i uafxcw:winfrm.obj
 0001:0002c3b3       ??_E?$CTypedPtrArray@VCObArray@@PAVCBitmap@@@@UAEPAXI@Z 0042d3b3 f i uafxcw:winfrm.obj
 0001:0002c3d4       ?ActivateFrame@CFrameWnd@@UAEXH@Z 0042d3d4 f   uafxcw:winfrm.obj
 0001:0002c42a       ?OnMenuChar@CFrameWnd@@IAEJIIPAVCMenu@@@Z 0042d42a f   uafxcw:winfrm.obj
 0001:0002c45b       ?SetMenu@CFrameWnd@@UAEHPAVCMenu@@@Z 0042d45b f   uafxcw:winfrm.obj
 0001:0002c4a2       ??A?$CTypedPtrArray@VCObArray@@PAVCBitmap@@@@QAEAAPAVCBitmap@@H@Z 0042d4a2 f i uafxcw:winfrm.obj
 0001:0002c4ad       ??0?$CArray@PAUHWND__@@PAU1@@@QAE@XZ 0042d4ad f i uafxcw:winfrm.obj
 0001:0002c4c4       ?Add@?$CArray@PAUHWND__@@PAU1@@@QAEHPAUHWND__@@@Z 0042d4c4 f i uafxcw:winfrm.obj
 0001:0002c4dd       ??1?$CArray@PAUHWND__@@PAU1@@@UAE@XZ 0042d4dd f i uafxcw:winfrm.obj
 0001:0002c4f2       ??0?$CList@PAUHWND__@@PAU1@@@QAE@H@Z 0042d4f2 f i uafxcw:winfrm.obj
 0001:0002c51a       ??1?$CList@PAUHWND__@@PAU1@@@UAE@XZ 0042d51a f i uafxcw:winfrm.obj
 0001:0002c525       ??_E?$CArray@PAUHWND__@@PAU1@@@UAEPAXI@Z 0042d525 f i uafxcw:winfrm.obj
 0001:0002c525       ??_G?$CArray@PAUHWND__@@PAU1@@@UAEPAXI@Z 0042d525 f i uafxcw:winfrm.obj
 0001:0002c546       ??_E?$CList@PAUHWND__@@PAU1@@@UAEPAXI@Z 0042d546 f i uafxcw:winfrm.obj
 0001:0002c546       ??_G?$CList@PAUHWND__@@PAU1@@@UAEPAXI@Z 0042d546 f i uafxcw:winfrm.obj
 0001:0002c56d       ??$SerializeElements@PAUHWND__@@@@YGXAAVCArchive@@PAPAUHWND__@@H@Z 0042d56d f i uafxcw:winfrm.obj
 0001:0002c5f5       ?NewNode@?$CList@PAUHWND__@@PAU1@@@IAEPAUCNode@1@PAU21@0@Z 0042d5f5 f i uafxcw:winfrm.obj
 0001:0002c657       ?GetProcAddress_ImageList_Draw@CComCtlWrapper@@QAE?AUImageList_Draw_Type@1@XZ 0042d657 f i uafxcw:winfrm.obj
 0001:0002c686       ?_ImageList_Draw@CComCtlWrapper@@QAEHPAU_IMAGELIST@@HPAUHDC__@@HHI@Z 0042d686 f i uafxcw:winfrm.obj
 0001:0002c740       ?GetProcAddress_ImageList_GetImageInfo@CComCtlWrapper@@QAE?AUImageList_GetImageInfo_Type@1@XZ 0042d740 f i uafxcw:winfrm.obj
 0001:0002c770       ?_ImageList_GetImageInfo@CComCtlWrapper@@QAEHPAU_IMAGELIST@@HPAU_IMAGEINFO@@@Z 0042d770 f i uafxcw:winfrm.obj
 0001:0002c824       ?AfxImageList_Draw@@YGHPAU_IMAGELIST@@HPAUHDC__@@HHI@Z 0042d824 f i uafxcw:winfrm.obj
 0001:0002c84e       ?AfxImageList_GetImageInfo@@YGHPAU_IMAGELIST@@HPAU_IMAGEINFO@@@Z 0042d84e f i uafxcw:winfrm.obj
 0001:0002c86f       ?Draw@CImageList@@QAEHPAVCDC@@HUtagPOINT@@I@Z 0042d86f f i uafxcw:winfrm.obj
 0001:0002c897       ?GetImageInfo@CImageList@@QBEHHPAU_IMAGEINFO@@@Z 0042d897 f i uafxcw:winfrm.obj
 0001:0002c8ae       ?BeginModalState@CFrameWnd@@UAEXXZ 0042d8ae f   uafxcw:winfrm.obj
 0001:0002c9d7       ?OnEnable@CFrameWnd@@IAEXH@Z 0042d9d7 f   uafxcw:winfrm.obj
 0001:0002cabc       ?OnCreate@CFrameWnd@@IAEHPAUtagCREATESTRUCTW@@@Z 0042dabc f   uafxcw:winfrm.obj
 0001:0002cad9       ?OnEnterIdle@CFrameWnd@@IAEXIPAVCWnd@@@Z 0042dad9 f   uafxcw:winfrm.obj
 0001:0002cb0d       ?Serialize@?$CArray@PAUHWND__@@PAU1@@@UAEXAAVCArchive@@@Z 0042db0d f i uafxcw:winfrm.obj
 0001:0002cb4f       ?AddTail@?$CList@PAUHWND__@@PAU1@@@QAEPAU__POSITION@@PAUHWND__@@@Z 0042db4f f i uafxcw:winfrm.obj
 0001:0002cb7d       ?Serialize@?$CList@PAUHWND__@@PAU1@@@UAEXAAVCArchive@@@Z 0042db7d f i uafxcw:winfrm.obj
 0001:0002cbe1       ?AddFrameWnd@CFrameWnd@@IAEXXZ 0042dbe1 f   uafxcw:winfrm.obj
 0001:0002cc00       ?RemoveFrameWnd@CFrameWnd@@IAEXXZ 0042dc00 f   uafxcw:winfrm.obj
 0001:0002cc1f       ?OnSetMessageString@CFrameWnd@@IAEJIJ@Z 0042dc1f f   uafxcw:winfrm.obj
 0001:0002ccd7       ?DestroyDockBars@CFrameWnd@@QAEXXZ 0042dcd7 f   uafxcw:winfrm.obj
 0001:0002cde6       ?OnToolTipText@CFrameWnd@@IAEHIPAUtagNMHDR@@PAJ@Z 0042dde6 f   uafxcw:winfrm.obj
 0001:0002cf04       ??0CFrameWnd@@QAE@XZ       0042df04 f   uafxcw:winfrm.obj
 0001:0002cfe0       ?OnDestroy@CFrameWnd@@IAEXXZ 0042dfe0 f   uafxcw:winfrm.obj
 0001:0002d03a       ?GetMessageString@CFrameWnd@@UBEXIAAV?$CStringT@_WV?$StrTraitMFC@_WV?$ChTraitsCRT@_W@ATL@@@@@ATL@@@Z 0042e03a f   uafxcw:winfrm.obj
 0001:0002d083       ?CreateObject@CFrameWnd@@SGPAVCObject@@XZ 0042e083 f   uafxcw:winfrm.obj
 0001:0002d0b3       ?GetMenuBarInfo@CFrameWnd@@QBEHJJPAUtagMENUBARINFO@@@Z 0042e0b3 f   uafxcw:winfrm.obj
 0001:0002d180       ??1CFrameWnd@@UAE@XZ       0042e180 f   uafxcw:winfrm.obj
 0001:0002d2c5       ?LoadFrame@CFrameWnd@@UAEHIKPAVCWnd@@PAUCCreateContext@@@Z 0042e2c5 f   uafxcw:winfrm.obj
 0001:0002d3ba       ??_ECFrameWnd@@UAEPAXI@Z   0042e3ba f i uafxcw:winfrm.obj
 0001:0002d3ba       ??_GCFrameWnd@@UAEPAXI@Z   0042e3ba f i uafxcw:winfrm.obj
 0001:0002d3db       ??1CChevronOwnerDrawMenu@@UAE@XZ 0042e3db f i uafxcw:winfrm.obj
 0001:0002d415       ?Create@CFrameWnd@@UAEHPB_W0KABUtagRECT@@PAVCWnd@@0KPAUCCreateContext@@@Z 0042e415 f   uafxcw:winfrm.obj
 0001:0002d4c1       ?OnDDEExecute@CFrameWnd@@IAEJIJ@Z 0042e4c1 f   uafxcw:winfrm.obj
 0001:0002d5a8       ?OnChevronPushed@CFrameWnd@@IAEHIPAUtagNMHDR@@PAJ@Z 0042e5a8 f   uafxcw:winfrm.obj
 0001:0002dace       ?GetThisMessageMap@CFrameWnd@@KGPBUAFX_MSGMAP@@XZ 0042eace f   uafxcw:winfrm.obj
 0001:0002dad4       ?UpdateFrameTitleForDocument@CFrameWnd@@QAEXPB_W@Z 0042ead4 f   uafxcw:winfrm.obj
 0001:0002dbc3       ?GetMessageMap@CFrameWnd@@MBEPBUAFX_MSGMAP@@XZ 0042ebc3 f   uafxcw:winfrm.obj
 0001:0002dbc9       ?OnUpdateFrameTitle@CFrameWnd@@UAEXH@Z 0042ebc9 f   uafxcw:winfrm.obj
 0001:0002dc1c       ??0CView@@IAE@XZ           0042ec1c f   uafxcw:viewcore.obj
 0001:0002dc2e       ?PreCreateWindow@CView@@MAEHAAUtagCREATESTRUCTW@@@Z 0042ec2e f   uafxcw:viewcore.obj
 0001:0002dc6c       ?OnDestroy@CView@@IAEXXZ   0042ec6c f   uafxcw:viewcore.obj
 0001:0002dc9c       ?PostNcDestroy@CView@@MAEXXZ 0042ec9c f   uafxcw:viewcore.obj
 0001:0002dca8       ?CalcWindowRect@CView@@UAEXPAUtagRECT@@I@Z 0042eca8 f   uafxcw:viewcore.obj
 0001:0002dd1a       ?OnPaint@CView@@IAEXXZ     0042ed1a f   uafxcw:viewcore.obj
 0001:0002dd65       ?OnInitialUpdate@CView@@UAEXXZ 0042ed65 f   uafxcw:viewcore.obj
 0001:0002dd73       ?OnPrint@CView@@MAEXPAVCDC@@PAUCPrintInfo@@@Z 0042ed73 f   uafxcw:viewcore.obj
 0001:0002dd87       ?OnDraw@CView@@MAEXPAVCDC@@@Z 0042ed87 f   uafxcw:viewcore.obj
 0001:0002dd8a       ?IsSelected@CView@@UBEHPBVCObject@@@Z 0042ed8a f   uafxcw:viewcore.obj
 0001:0002dd8f       ?OnActivateView@CView@@MAEXHPAV1@0@Z 0042ed8f f   uafxcw:viewcore.obj
 0001:0002ddb2       ?OnActivateFrame@CView@@MAEXIPAVCFrameWnd@@@Z 0042edb2 f   uafxcw:viewcore.obj
 0001:0002ddb5       ?OnScroll@CView@@UAEHIIH@Z 0042edb5 f   uafxcw:viewcore.obj
 0001:0002ddba       ?OnScrollBy@CView@@UAEHVCSize@@H@Z 0042edba f   uafxcw:viewcore.obj
 0001:0002ddbf       ?OnDragScroll@CView@@UAEKKVCPoint@@@Z 0042edbf f   uafxcw:viewcore.obj
 0001:0002ddc7       ?OnDragEnter@CView@@UAEKPAVCOleDataObject@@KVCPoint@@@Z 0042edc7 f   uafxcw:viewcore.obj
 0001:0002ddcc       ?OnDragOver@CView@@UAEKPAVCOleDataObject@@KVCPoint@@@Z 0042edcc f   uafxcw:viewcore.obj
 0001:0002ddd1       ?OnDrop@CView@@UAEHPAVCOleDataObject@@KVCPoint@@@Z 0042edd1 f   uafxcw:viewcore.obj
 0001:0002ddd6       ?OnDropEx@CView@@UAEKPAVCOleDataObject@@KKVCPoint@@@Z 0042edd6 f   uafxcw:viewcore.obj
 0001:0002dddc       ?OnDragLeave@CView@@UAEXXZ 0042eddc f   uafxcw:viewcore.obj
 0001:0002dddd       ?OnPreparePrinting@CView@@MAEHPAUCPrintInfo@@@Z 0042eddd f   uafxcw:viewcore.obj
 0001:0002dde3       ?OnBeginPrinting@CView@@MAEXPAVCDC@@PAUCPrintInfo@@@Z 0042ede3 f   uafxcw:viewcore.obj
 0001:0002dde6       ?OnEndPrinting@CView@@MAEXPAVCDC@@PAUCPrintInfo@@@Z 0042ede6 f   uafxcw:viewcore.obj
 0001:0002dde9       ?OnDraw@CCtrlView@@MAEXPAVCDC@@@Z 0042ede9 f   uafxcw:viewcore.obj
 0001:0002ddec       ?OnPaint@CCtrlView@@IAEXXZ 0042edec f   uafxcw:viewcore.obj
 0001:0002ddf1       ?GetRuntimeClass@CSplitterWnd@@UBEPAUCRuntimeClass@@XZ 0042edf1 f   uafxcw:viewcore.obj
 0001:0002ddf7       ?GetRuntimeClass@CCtrlView@@UBEPAUCRuntimeClass@@XZ 0042edf7 f   uafxcw:viewcore.obj
 0001:0002ddfd       ??_9CView@@$BBGE@AE        0042edfd f i uafxcw:viewcore.obj
 0001:0002de05       ?OnMouseActivate@CWnd@@IAEHPAV1@II@Z 0042ee05 f i uafxcw:viewcore.obj
 0001:0002de0d       ?IsTracking@CSplitterWnd@@QAEHXZ 0042ee0d f i uafxcw:viewcore.obj
 0001:0002de14       ?GetMaxPage@CPrintInfo@@QBEIXZ 0042ee14 f i uafxcw:viewcore.obj
 0001:0002de1e       ??0CPushRoutingView@@QAE@PAVCView@@@Z 0042ee1e f i uafxcw:viewcore.obj
 0001:0002de59       ??1CPushRoutingView@@QAE@XZ 0042ee59 f i uafxcw:viewcore.obj
 0001:0002de77       ?Pop@CPushRoutingView@@QAEXXZ 0042ee77 f i uafxcw:viewcore.obj
 0001:0002de97       ?OnCreate@CView@@IAEHPAUtagCREATESTRUCTW@@@Z 0042ee97 f   uafxcw:viewcore.obj
 0001:0002decc       ?OnCmdMsg@CView@@UAEHIHPAXPAUAFX_CMDHANDLERINFO@@@Z 0042eecc f   uafxcw:viewcore.obj
 0001:0002df33       ?OnUpdate@CView@@MAEXPAV1@JPAVCObject@@@Z 0042ef33 f   uafxcw:viewcore.obj
 0001:0002df43       ?OnMouseActivate@CView@@IAEHPAVCWnd@@II@Z 0042ef43 f   uafxcw:viewcore.obj
 0001:0002dfb7       ?GetParentSplitter@CView@@SGPAVCSplitterWnd@@PBVCWnd@@H@Z 0042efb7 f   uafxcw:viewcore.obj
 0001:0002e021       ?GetScrollBarCtrl@CView@@UBEPAVCScrollBar@@H@Z 0042f021 f   uafxcw:viewcore.obj
 0001:0002e09b       ?OnUpdateSplitCmd@CView@@IAEXPAVCCmdUI@@@Z 0042f09b f   uafxcw:viewcore.obj
 0001:0002e0d5       ?OnSplitCmd@CView@@IAEHI@Z 0042f0d5 f   uafxcw:viewcore.obj
 0001:0002e0f1       ?OnUpdateNextPaneMenu@CView@@IAEXPAVCCmdUI@@@Z 0042f0f1 f   uafxcw:viewcore.obj
 0001:0002e134       ?OnNextPaneCmd@CView@@IAEHI@Z 0042f134 f   uafxcw:viewcore.obj
 0001:0002e163       ?OnPrepareDC@CView@@UAEXPAVCDC@@PAUCPrintInfo@@@Z 0042f163 f   uafxcw:viewcore.obj
 0001:0002e192       ?OnEndPrintPreview@CView@@MAEXPAVCDC@@PAUCPrintInfo@@UtagPOINT@@PAVCPreviewView@@@Z 0042f192 f   uafxcw:viewcore.obj
 0001:0002e251       ?PreCreateWindow@CCtrlView@@MAEHAAUtagCREATESTRUCTW@@@Z 0042f251 f   uafxcw:viewcore.obj
 0001:0002e2a0       ?GetThisMessageMap@CView@@KGPBUAFX_MSGMAP@@XZ 0042f2a0 f   uafxcw:viewcore.obj
 0001:0002e2a6       ?GetThisMessageMap@CCtrlView@@KGPBUAFX_MSGMAP@@XZ 0042f2a6 f   uafxcw:viewcore.obj
 0001:0002e2ac       ?GetMessageMap@CView@@MBEPBUAFX_MSGMAP@@XZ 0042f2ac f   uafxcw:viewcore.obj
 0001:0002e2b2       ?GetMessageMap@CCtrlView@@MBEPBUAFX_MSGMAP@@XZ 0042f2b2 f   uafxcw:viewcore.obj
 0001:0002e2b8       ??1CView@@UAE@XZ           0042f2b8 f   uafxcw:viewcore.obj
 0001:0002e3c2       ??1CCtrlView@@UAE@XZ       0042f3c2 f   uafxcw:viewcore.obj
 0001:0002e3da       ??0CCtrlView@@QAE@PB_WK@Z  0042f3da f   uafxcw:viewcore.obj
 0001:0002e41c       ??1CDragListBox@@UAE@XZ    0042f41c f   uafxcw:winctrl2.obj
 0001:0002e44d       ?CancelDrag@CDragListBox@@UAEXVCPoint@@@Z 0042f44d f   uafxcw:winctrl2.obj
 0001:0002e45a       ?Create@CToolBarCtrl@@QAEHKABUtagRECT@@PAVCWnd@@I@Z 0042f45a f   uafxcw:winctrl2.obj
 0001:0002e48d       ?CreateEx@CToolBarCtrl@@QAEHKKABUtagRECT@@PAVCWnd@@I@Z 0042f48d f   uafxcw:winctrl2.obj
 0001:0002e4c2       ??1CToolBarCtrl@@UAE@XZ    0042f4c2 f   uafxcw:winctrl2.obj
 0001:0002e4f3       ?SaveState@CToolBarCtrl@@QAEXPAUHKEY__@@PB_W1@Z 0042f4f3 f   uafxcw:winctrl2.obj
 0001:0002e525       ?RestoreState@CToolBarCtrl@@QAEXPAUHKEY__@@PB_W1@Z 0042f525 f   uafxcw:winctrl2.obj
 0001:0002e557       ?GetDropTarget@CToolBarCtrl@@QBEJPAPAUIDropTarget@@@Z 0042f557 f   uafxcw:winctrl2.obj
 0001:0002e576       ?Create@CStatusBarCtrl@@QAEHKABUtagRECT@@PAVCWnd@@I@Z 0042f576 f   uafxcw:winctrl2.obj
 0001:0002e5a9       ?CreateEx@CStatusBarCtrl@@QAEHKKABUtagRECT@@PAVCWnd@@I@Z 0042f5a9 f   uafxcw:winctrl2.obj
 0001:0002e5de       ??1CStatusBarCtrl@@UAE@XZ  0042f5de f   uafxcw:winctrl2.obj
 0001:0002e60f       ?GetText@CStatusBarCtrl@@QBEHPA_WHPAH@Z 0042f60f f   uafxcw:winctrl2.obj
 0001:0002e63d       ?GetTextLength@CStatusBarCtrl@@QBEHHPAH@Z 0042f63d f   uafxcw:winctrl2.obj
 0001:0002e66a       ?GetBorders@CStatusBarCtrl@@QBEHAAH00@Z 0042f66a f   uafxcw:winctrl2.obj
 0001:0002e6a6       ?DrawItem@CStatusBarCtrl@@UAEXPAUtagDRAWITEMSTRUCT@@@Z 0042f6a6 f   uafxcw:winctrl2.obj
 0001:0002e6a9       ?OnChildNotify@CStatusBarCtrl@@MAEHIIJPAJ@Z 0042f6a9 f   uafxcw:winctrl2.obj
 0001:0002e6cc       ?Create@CListCtrl@@QAEHKABUtagRECT@@PAVCWnd@@I@Z 0042f6cc f   uafxcw:winctrl2.obj
 0001:0002e6ff       ?CreateEx@CListCtrl@@QAEHKKABUtagRECT@@PAVCWnd@@I@Z 0042f6ff f   uafxcw:winctrl2.obj
 0001:0002e734       ??1CListCtrl@@UAE@XZ       0042f734 f   uafxcw:winctrl2.obj
 0001:0002e765       ?GetItemRect@CListCtrl@@QBEHHPAUtagRECT@@I@Z 0042f765 f   uafxcw:winctrl2.obj
 0001:0002e788       ?SetItemCountEx@CListCtrl@@QAEHHK@Z 0042f788 f   uafxcw:winctrl2.obj
 0001:0002e7a5       ?HitTest@CListCtrl@@QBEHVCPoint@@PAI@Z 0042f7a5 f   uafxcw:winctrl2.obj
 0001:0002e7dd       ?SetItem@CListCtrl@@QAEHHHIPB_WHIIJH@Z 0042f7dd f   uafxcw:winctrl2.obj
 0001:0002e833       ?SetItemState@CListCtrl@@QAEHHII@Z 0042f833 f   uafxcw:winctrl2.obj
 0001:0002e860       ?SetItemText@CListCtrl@@QAEHHHPB_W@Z 0042f860 f   uafxcw:winctrl2.obj
 0001:0002e88d       ?GetItemText@CListCtrl@@QBEHHHPA_WH@Z 0042f88d f   uafxcw:winctrl2.obj
 0001:0002e8d4       ?GetItemData@CListCtrl@@QBEKH@Z 0042f8d4 f   uafxcw:winctrl2.obj
 0001:0002e918       ?DrawItem@CListCtrl@@UAEXPAUtagDRAWITEMSTRUCT@@@Z 0042f918 f   uafxcw:winctrl2.obj
 0001:0002e91b       ?OnChildNotify@CListCtrl@@MAEHIIJPAJ@Z 0042f91b f   uafxcw:winctrl2.obj
 0001:0002e93e       ?Create@CTreeCtrl@@QAEHKABUtagRECT@@PAVCWnd@@I@Z 0042f93e f   uafxcw:winctrl2.obj
 0001:0002e971       ?CreateEx@CTreeCtrl@@QAEHKKABUtagRECT@@PAVCWnd@@I@Z 0042f971 f   uafxcw:winctrl2.obj
 0001:0002e9a6       ??1CTreeCtrl@@UAE@XZ       0042f9a6 f   uafxcw:winctrl2.obj
 0001:0002e9d7       ?GetItemRect@CTreeCtrl@@QBEHPAU_TREEITEM@@PAUtagRECT@@H@Z 0042f9d7 f   uafxcw:winctrl2.obj
 0001:0002e9fa       ?GetItemImage@CTreeCtrl@@QBEHPAU_TREEITEM@@AAH1@Z 0042f9fa f   uafxcw:winctrl2.obj
 0001:0002ea3b       ?GetItemState@CTreeCtrl@@QBEIPAU_TREEITEM@@I@Z 0042fa3b f   uafxcw:winctrl2.obj
 0001:0002ea75       ?GetItemData@CTreeCtrl@@QBEKPAU_TREEITEM@@@Z 0042fa75 f   uafxcw:winctrl2.obj
 0001:0002eabf       ?ItemHasChildren@CTreeCtrl@@QBEHPAU_TREEITEM@@@Z 0042fabf f   uafxcw:winctrl2.obj
 0001:0002eaef       ?SetItem@CTreeCtrl@@QAEHPAU_TREEITEM@@IPB_WHHIIJ@Z 0042faef f   uafxcw:winctrl2.obj
 0001:0002eb3f       ?SetItemEx@CTreeCtrl@@QAEHPAU_TREEITEM@@IPB_WHHIIJIPAUHWND__@@H@Z 0042fb3f f   uafxcw:winctrl2.obj
 0001:0002eba1       ?InsertItem@CTreeCtrl@@QAEPAU_TREEITEM@@IPB_WHHIIJPAU2@1@Z 0042fba1 f   uafxcw:winctrl2.obj
 0001:0002ebf7       ?HitTest@CTreeCtrl@@QBEPAU_TREEITEM@@VCPoint@@PAI@Z 0042fbf7 f   uafxcw:winctrl2.obj
 0001:0002ec2f       ?GetCheck@CTreeCtrl@@QBEHPAU_TREEITEM@@@Z 0042fc2f f   uafxcw:winctrl2.obj
 0001:0002ec6a       ?SetCheck@CTreeCtrl@@QAEHPAU_TREEITEM@@H@Z 0042fc6a f   uafxcw:winctrl2.obj
 0001:0002ecad       ?GetItemPartRect@CTreeCtrl@@QAEHPAU_TREEITEM@@W4_TVITEMPART@@PAUtagRECT@@@Z 0042fcad f   uafxcw:winctrl2.obj
 0001:0002ecdf       ?GetItemStateEx@CTreeCtrl@@QBEIPAU_TREEITEM@@@Z 0042fcdf f   uafxcw:winctrl2.obj
 0001:0002ed0f       ?GetItemExpandedImageIndex@CTreeCtrl@@QBEHPAU_TREEITEM@@@Z 0042fd0f f   uafxcw:winctrl2.obj
 0001:0002ed43       ?Create@CSpinButtonCtrl@@UAEHKABUtagRECT@@PAVCWnd@@I@Z 0042fd43 f   uafxcw:winctrl2.obj
 0001:0002ed73       ?CreateEx@CSpinButtonCtrl@@UAEHKKABUtagRECT@@PAVCWnd@@I@Z 0042fd73 f   uafxcw:winctrl2.obj
 0001:0002edab       ??1CSpinButtonCtrl@@UAE@XZ 0042fdab f   uafxcw:winctrl2.obj
 0001:0002eddc       ?GetRange@CSpinButtonCtrl@@QBEXAAH0@Z 0042fddc f   uafxcw:winctrl2.obj
 0001:0002ee0a       ?Create@CSliderCtrl@@UAEHKABUtagRECT@@PAVCWnd@@I@Z 0042fe0a f   uafxcw:winctrl2.obj
 0001:0002ee3d       ?CreateEx@CSliderCtrl@@UAEHKKABUtagRECT@@PAVCWnd@@I@Z 0042fe3d f   uafxcw:winctrl2.obj
 0001:0002ee75       ??1CSliderCtrl@@UAE@XZ     0042fe75 f   uafxcw:winctrl2.obj
 0001:0002eea6       ?GetSelection@CSliderCtrl@@QBEXAAH0@Z 0042fea6 f   uafxcw:winctrl2.obj
 0001:0002eee1       ?SetSelection@CSliderCtrl@@QAEXHH@Z 0042fee1 f   uafxcw:winctrl2.obj
 0001:0002ef14       ?Create@CProgressCtrl@@UAEHKABUtagRECT@@PAVCWnd@@I@Z 0042ff14 f   uafxcw:winctrl2.obj
 0001:0002ef47       ?CreateEx@CProgressCtrl@@UAEHKKABUtagRECT@@PAVCWnd@@I@Z 0042ff47 f   uafxcw:winctrl2.obj
 0001:0002ef7f       ??1CProgressCtrl@@UAE@XZ   0042ff7f f   uafxcw:winctrl2.obj
 0001:0002efb0       ?Create@CHeaderCtrl@@UAEHKABUtagRECT@@PAVCWnd@@I@Z 0042ffb0 f   uafxcw:winctrl2.obj
 0001:0002efe3       ?CreateEx@CHeaderCtrl@@UAEHKKABUtagRECT@@PAVCWnd@@I@Z 0042ffe3 f   uafxcw:winctrl2.obj
 0001:0002f01b       ??1CHeaderCtrl@@UAE@XZ     0043001b f   uafxcw:winctrl2.obj
 0001:0002f04c       ?DrawItem@CHeaderCtrl@@UAEXPAUtagDRAWITEMSTRUCT@@@Z 0043004c f   uafxcw:winctrl2.obj
 0001:0002f04f       ?OnChildNotify@CHeaderCtrl@@MAEHIIJPAJ@Z 0043004f f   uafxcw:winctrl2.obj
 0001:0002f072       ?Create@CHotKeyCtrl@@UAEHKABUtagRECT@@PAVCWnd@@I@Z 00430072 f   uafxcw:winctrl2.obj
 0001:0002f0a5       ?CreateEx@CHotKeyCtrl@@UAEHKKABUtagRECT@@PAVCWnd@@I@Z 004300a5 f   uafxcw:winctrl2.obj
 0001:0002f0dd       ??1CHotKeyCtrl@@UAE@XZ     004300dd f   uafxcw:winctrl2.obj
 0001:0002f10e       ?GetHotKey@CHotKeyCtrl@@QBEXAAG0@Z 0043010e f   uafxcw:winctrl2.obj
 0001:0002f140       ?Create@CTabCtrl@@UAEHKABUtagRECT@@PAVCWnd@@I@Z 00430140 f   uafxcw:winctrl2.obj
 0001:0002f173       ?CreateEx@CTabCtrl@@UAEHKKABUtagRECT@@PAVCWnd@@I@Z 00430173 f   uafxcw:winctrl2.obj
 0001:0002f1ab       ??1CTabCtrl@@UAE@XZ        004301ab f   uafxcw:winctrl2.obj
 0001:0002f1dc       ?DrawItem@CTabCtrl@@UAEXPAUtagDRAWITEMSTRUCT@@@Z 004301dc f   uafxcw:winctrl2.obj
 0001:0002f1df       ?OnChildNotify@CTabCtrl@@MAEHIIJPAJ@Z 004301df f   uafxcw:winctrl2.obj
 0001:0002f202       ?GetItemState@CTabCtrl@@QBEKHK@Z 00430202 f   uafxcw:winctrl2.obj
 0001:0002f233       ?SetItemState@CTabCtrl@@QAEHHKK@Z 00430233 f   uafxcw:winctrl2.obj
 0001:0002f267       ?InsertItem@CTabCtrl@@QAEJIHPB_WHJ@Z 00430267 f   uafxcw:winctrl2.obj
 0001:0002f2a0       ?InsertItem@CTabCtrl@@QAEJIHPB_WHJKK@Z 004302a0 f   uafxcw:winctrl2.obj
 0001:0002f2e5       ?Create@CAnimateCtrl@@UAEHKABUtagRECT@@PAVCWnd@@I@Z 004302e5 f   uafxcw:winctrl2.obj
 0001:0002f318       ?CreateEx@CAnimateCtrl@@UAEHKKABUtagRECT@@PAVCWnd@@I@Z 00430318 f   uafxcw:winctrl2.obj
 0001:0002f350       ??1CAnimateCtrl@@UAE@XZ    00430350 f   uafxcw:winctrl2.obj
 0001:0002f381       ??1CRichEditCtrl@@UAE@XZ   00430381 f   uafxcw:winctrl2.obj
 0001:0002f3b2       ?GetRuntimeClass@CDragListBox@@UBEPAUCRuntimeClass@@XZ 004303b2 f   uafxcw:winctrl2.obj
 0001:0002f3b8       ?GetRuntimeClass@CSpinButtonCtrl@@UBEPAUCRuntimeClass@@XZ 004303b8 f   uafxcw:winctrl2.obj
 0001:0002f3be       ?GetRuntimeClass@CSliderCtrl@@UBEPAUCRuntimeClass@@XZ 004303be f   uafxcw:winctrl2.obj
 0001:0002f3c4       ?GetRuntimeClass@CProgressCtrl@@UBEPAUCRuntimeClass@@XZ 004303c4 f   uafxcw:winctrl2.obj
 0001:0002f3ca       ?GetRuntimeClass@CComboBoxEx@@UBEPAUCRuntimeClass@@XZ 004303ca f   uafxcw:winctrl2.obj
 0001:0002f3d0       ?GetRuntimeClass@CHeaderCtrl@@UBEPAUCRuntimeClass@@XZ 004303d0 f   uafxcw:winctrl2.obj
 0001:0002f3d6       ?GetRuntimeClass@CHotKeyCtrl@@UBEPAUCRuntimeClass@@XZ 004303d6 f   uafxcw:winctrl2.obj
 0001:0002f3dc       ?GetRuntimeClass@CAnimateCtrl@@UBEPAUCRuntimeClass@@XZ 004303dc f   uafxcw:winctrl2.obj
 0001:0002f3e2       ?GetRuntimeClass@CTabCtrl@@UBEPAUCRuntimeClass@@XZ 004303e2 f   uafxcw:winctrl2.obj
 0001:0002f3e8       ?GetRuntimeClass@CTreeCtrl@@UBEPAUCRuntimeClass@@XZ 004303e8 f   uafxcw:winctrl2.obj
 0001:0002f3ee       ?GetRuntimeClass@CListCtrl@@UBEPAUCRuntimeClass@@XZ 004303ee f   uafxcw:winctrl2.obj
 0001:0002f3f4       ?GetRuntimeClass@CToolBarCtrl@@UBEPAUCRuntimeClass@@XZ 004303f4 f   uafxcw:winctrl2.obj
 0001:0002f3fa       ?GetRuntimeClass@CStatusBarCtrl@@UBEPAUCRuntimeClass@@XZ 004303fa f   uafxcw:winctrl2.obj
 0001:0002f400       ?GetRuntimeClass@CImageList@@UBEPAUCRuntimeClass@@XZ 00430400 f   uafxcw:winctrl2.obj
 0001:0002f406       ?GetRuntimeClass@CRichEditCtrl@@UBEPAUCRuntimeClass@@XZ 00430406 f   uafxcw:winctrl2.obj
 0001:0002f40c       ?Destruct@?$ConstructDestruct@VCImageList@@@@SGXPAVCObject@@@Z 0043040c f i uafxcw:winctrl2.obj
 0001:0002f41f       ??4ImageList_Create_Type@CComCtlWrapper@@QAEXP6GPAU_IMAGELIST@@HHIHH@Z@Z 0043041f f i uafxcw:winctrl2.obj
 0001:0002f42d       ??BImageList_Create_Type@CComCtlWrapper@@QAEP6GPAU_IMAGELIST@@HHIHH@ZXZ 0043042d f i uafxcw:winctrl2.obj
 0001:0002f430       ??7ImageList_Create_Type@CComCtlWrapper@@QBE_NXZ 00430430 f i uafxcw:winctrl2.obj
 0001:0002f438       ??4ImageList_Destroy_Type@CComCtlWrapper@@QAEXP6GHPAU_IMAGELIST@@@Z@Z 00430438 f i uafxcw:winctrl2.obj
 0001:0002f446       ??BImageList_Destroy_Type@CComCtlWrapper@@QAEP6GHPAU_IMAGELIST@@@ZXZ 00430446 f i uafxcw:winctrl2.obj
 0001:0002f449       ??7ImageList_Destroy_Type@CComCtlWrapper@@QBE_NXZ 00430449 f i uafxcw:winctrl2.obj
 0001:0002f451       ??4ImageList_LoadImageW_Type@CComCtlWrapper@@QAEXP6GPAU_IMAGELIST@@PAUHINSTANCE__@@PB_WHHKII@Z@Z 00430451 f i uafxcw:winctrl2.obj
 0001:0002f45f       ??BImageList_LoadImageW_Type@CComCtlWrapper@@QAEP6GPAU_IMAGELIST@@PAUHINSTANCE__@@PB_WHHKII@ZXZ 0043045f f i uafxcw:winctrl2.obj
 0001:0002f462       ??7ImageList_LoadImageW_Type@CComCtlWrapper@@QBE_NXZ 00430462 f i uafxcw:winctrl2.obj
 0001:0002f46a       ??4ImageList_Read_Type@CComCtlWrapper@@QAEXP6GPAU_IMAGELIST@@PAUIStream@@@Z@Z 0043046a f i uafxcw:winctrl2.obj
 0001:0002f478       ??BImageList_Read_Type@CComCtlWrapper@@QAEP6GPAU_IMAGELIST@@PAUIStream@@@ZXZ 00430478 f i uafxcw:winctrl2.obj
 0001:0002f47b       ??7ImageList_Read_Type@CComCtlWrapper@@QBE_NXZ 0043047b f i uafxcw:winctrl2.obj
 0001:0002f483       ??4ImageList_Write_Type@CComCtlWrapper@@QAEXP6GHPAU_IMAGELIST@@PAUIStream@@@Z@Z 00430483 f i uafxcw:winctrl2.obj
 0001:0002f491       ??BImageList_Write_Type@CComCtlWrapper@@QAEP6GHPAU_IMAGELIST@@PAUIStream@@@ZXZ 00430491 f i uafxcw:winctrl2.obj
 0001:0002f494       ??7ImageList_Write_Type@CComCtlWrapper@@QBE_NXZ 00430494 f i uafxcw:winctrl2.obj
 0001:0002f49c       ??4ImageList_Merge_Type@CComCtlWrapper@@QAEXP6GPAU_IMAGELIST@@PAU2@H0HHH@Z@Z 0043049c f i uafxcw:winctrl2.obj
 0001:0002f4aa       ??BImageList_Merge_Type@CComCtlWrapper@@QAEP6GPAU_IMAGELIST@@PAU2@H0HHH@ZXZ 004304aa f i uafxcw:winctrl2.obj
 0001:0002f4ad       ??7ImageList_Merge_Type@CComCtlWrapper@@QBE_NXZ 004304ad f i uafxcw:winctrl2.obj
 0001:0002f4b5       ??4MakeDragList_Type@CComCtlWrapper@@QAEXP6GHPAUHWND__@@@Z@Z 004304b5 f i uafxcw:winctrl2.obj
 0001:0002f4c3       ??BMakeDragList_Type@CComCtlWrapper@@QAEP6GHPAUHWND__@@@ZXZ 004304c3 f i uafxcw:winctrl2.obj
 0001:0002f4c6       ??7MakeDragList_Type@CComCtlWrapper@@QBE_NXZ 004304c6 f i uafxcw:winctrl2.obj
 0001:0002f4ce       ??4LBItemFromPt_Type@CComCtlWrapper@@QAEXP6GHPAUHWND__@@UtagPOINT@@H@Z@Z 004304ce f i uafxcw:winctrl2.obj
 0001:0002f4dc       ??BLBItemFromPt_Type@CComCtlWrapper@@QAEP6GHPAUHWND__@@UtagPOINT@@H@ZXZ 004304dc f i uafxcw:winctrl2.obj
 0001:0002f4df       ??7LBItemFromPt_Type@CComCtlWrapper@@QBE_NXZ 004304df f i uafxcw:winctrl2.obj
 0001:0002f4e7       ?GetCurSel@CListBox@@QBEHXZ 004304e7 f i uafxcw:winctrl2.obj
 0001:0002f4fa       ?SetCurSel@CListBox@@QAEHH@Z 004304fa f i uafxcw:winctrl2.obj
 0001:0002f516       ?GetItemData@CListBox@@QBEKH@Z 00430516 f i uafxcw:winctrl2.obj
 0001:0002f532       ?SetItemData@CListBox@@QAEHHK@Z 00430532 f i uafxcw:winctrl2.obj
 0001:0002f54f       ?GetItemRect@CListBox@@QBEHHPAUtagRECT@@@Z 0043054f f i uafxcw:winctrl2.obj
 0001:0002f56c       ?DeleteString@CListBox@@QAEHI@Z 0043056c f i uafxcw:winctrl2.obj
 0001:0002f588       ?InsertString@CListBox@@QAEHHPB_W@Z 00430588 f i uafxcw:winctrl2.obj
 0001:0002f5a5       ??_ECDragListBox@@UAEPAXI@Z 004305a5 f i uafxcw:winctrl2.obj
 0001:0002f5a5       ??_GCDragListBox@@UAEPAXI@Z 004305a5 f i uafxcw:winctrl2.obj
 0001:0002f5c6       ??_GCToolBarCtrl@@UAEPAXI@Z 004305c6 f i uafxcw:winctrl2.obj
 0001:0002f5c6       ??_ECToolBarCtrl@@UAEPAXI@Z 004305c6 f i uafxcw:winctrl2.obj
 0001:0002f5e7       ?SetButtonStructSize@CToolBarCtrl@@QAEXH@Z 004305e7 f i uafxcw:winctrl2.obj
 0001:0002f603       ??_ECStatusBarCtrl@@UAEPAXI@Z 00430603 f i uafxcw:winctrl2.obj
 0001:0002f603       ??_GCStatusBarCtrl@@UAEPAXI@Z 00430603 f i uafxcw:winctrl2.obj
 0001:0002f624       ?InsertItem@CListCtrl@@QAEHPBUtagLVITEMW@@@Z 00430624 f i uafxcw:winctrl2.obj
 0001:0002f640       ?InsertColumn@CListCtrl@@QAEHHPBUtagLVCOLUMNW@@@Z 00430640 f i uafxcw:winctrl2.obj
 0001:0002f65d       ??_ECTreeCtrl@@UAEPAXI@Z   0043065d f i uafxcw:winctrl2.obj
 0001:0002f65d       ??_GCTreeCtrl@@UAEPAXI@Z   0043065d f i uafxcw:winctrl2.obj
 0001:0002f67e       ??_ECHotKeyCtrl@@UAEPAXI@Z 0043067e f i uafxcw:winctrl2.obj
 0001:0002f67e       ??_GCHotKeyCtrl@@UAEPAXI@Z 0043067e f i uafxcw:winctrl2.obj
 0001:0002f69f       ??_ECSpinButtonCtrl@@UAEPAXI@Z 0043069f f i uafxcw:winctrl2.obj
 0001:0002f69f       ??_GCSpinButtonCtrl@@UAEPAXI@Z 0043069f f i uafxcw:winctrl2.obj
 0001:0002f6c0       ??_GCSliderCtrl@@UAEPAXI@Z 004306c0 f i uafxcw:winctrl2.obj
 0001:0002f6c0       ??_ECSliderCtrl@@UAEPAXI@Z 004306c0 f i uafxcw:winctrl2.obj
 0001:0002f6e1       ?GetRangeMax@CSliderCtrl@@QBEHXZ 004306e1 f i uafxcw:winctrl2.obj
 0001:0002f6f4       ?GetRangeMin@CSliderCtrl@@QBEHXZ 004306f4 f i uafxcw:winctrl2.obj
 0001:0002f707       ?SetRangeMin@CSliderCtrl@@QAEXHH@Z 00430707 f i uafxcw:winctrl2.obj
 0001:0002f724       ?SetRangeMax@CSliderCtrl@@QAEXHH@Z 00430724 f i uafxcw:winctrl2.obj
 0001:0002f741       ??_ECProgressCtrl@@UAEPAXI@Z 00430741 f i uafxcw:winctrl2.obj
 0001:0002f741       ??_GCProgressCtrl@@UAEPAXI@Z 00430741 f i uafxcw:winctrl2.obj
 0001:0002f762       ??_ECHeaderCtrl@@UAEPAXI@Z 00430762 f i uafxcw:winctrl2.obj
 0001:0002f762       ??_GCHeaderCtrl@@UAEPAXI@Z 00430762 f i uafxcw:winctrl2.obj
 0001:0002f783       ??_GCTabCtrl@@UAEPAXI@Z    00430783 f i uafxcw:winctrl2.obj
 0001:0002f783       ??_ECTabCtrl@@UAEPAXI@Z    00430783 f i uafxcw:winctrl2.obj
 0001:0002f7a4       ??_GCAnimateCtrl@@UAEPAXI@Z 004307a4 f i uafxcw:winctrl2.obj
 0001:0002f7a4       ??_ECAnimateCtrl@@UAEPAXI@Z 004307a4 f i uafxcw:winctrl2.obj
 0001:0002f7c5       ??_ECRichEditCtrl@@UAEPAXI@Z 004307c5 f i uafxcw:winctrl2.obj
 0001:0002f7c5       ??_GCRichEditCtrl@@UAEPAXI@Z 004307c5 f i uafxcw:winctrl2.obj
 0001:0002f7e6       ?OnChildNotify@CDragListBox@@MAEHIIJPAJ@Z 004307e6 f   uafxcw:winctrl2.obj
 0001:0002f8a4       ?AddBitmap@CToolBarCtrl@@QAEHHPAVCBitmap@@@Z 004308a4 f   uafxcw:winctrl2.obj
 0001:0002f8da       ?AddBitmap@CToolBarCtrl@@QAEHHI@Z 004308da f   uafxcw:winctrl2.obj
 0001:0002f90f       ?OnCreate@CToolBarCtrl@@IAEHPAUtagCREATESTRUCTW@@@Z 0043090f f   uafxcw:winctrl2.obj
 0001:0002f931       ?SetIconSpacing@CListCtrl@@QAE?AVCSize@@HH@Z 00430931 f   uafxcw:winctrl2.obj
 0001:0002f969       ?SetIconSpacing@CListCtrl@@QAE?AVCSize@@V2@@Z 00430969 f   uafxcw:winctrl2.obj
 0001:0002f9a1       ?GetSubItemRect@CListCtrl@@QBEHHHHAAVCRect@@@Z 004309a1 f   uafxcw:winctrl2.obj
 0001:0002f9e5       ?InsertColumn@CListCtrl@@QAEHHPB_WHHH@Z 004309e5 f   uafxcw:winctrl2.obj
 0001:0002fa31       ?InsertItem@CListCtrl@@QAEHIHPB_WIIHJ@Z 00430a31 f   uafxcw:winctrl2.obj
 0001:0002fa74       ?SetItem@CListCtrl@@QAEHHHIPB_WHIIJ@Z 00430a74 f   uafxcw:winctrl2.obj
 0001:0002fa9c       ?GetRange@CSliderCtrl@@QBEXAAH0@Z 00430a9c f   uafxcw:winctrl2.obj
 0001:0002fabf       ?SetRange@CSliderCtrl@@QAEXHHH@Z 00430abf f   uafxcw:winctrl2.obj
 0001:0002fae4       ??0CImageList@@QAE@XZ      00430ae4 f   uafxcw:winctrl2.obj
 0001:0002faf1       ?CreateObject@CImageList@@SGPAVCObject@@XZ 00430af1 f   uafxcw:winctrl2.obj
 0001:0002fb0b       ?Construct@?$ConstructDestruct@VCImageList@@@@SGXPAVCObject@@@Z 00430b0b f i uafxcw:winctrl2.obj
 0001:0002fb25       ?GetProcAddress_ImageList_Create@CComCtlWrapper@@QAE?AUImageList_Create_Type@1@XZ 00430b25 f i uafxcw:winctrl2.obj
 0001:0002fb54       ?_ImageList_Create@CComCtlWrapper@@QAEPAU_IMAGELIST@@HHIHH@Z 00430b54 f i uafxcw:winctrl2.obj
 0001:0002fc0b       ?GetProcAddress_ImageList_Destroy@CComCtlWrapper@@QAE?AUImageList_Destroy_Type@1@XZ 00430c0b f i uafxcw:winctrl2.obj
 0001:0002fc3a       ?_ImageList_Destroy@CComCtlWrapper@@QAEHPAU_IMAGELIST@@@Z 00430c3a f i uafxcw:winctrl2.obj
 0001:0002fce5       ?GetProcAddress_ImageList_LoadImageW@CComCtlWrapper@@QAE?AUImageList_LoadImageW_Type@1@XZ 00430ce5 f i uafxcw:winctrl2.obj
 0001:0002fd14       ?_ImageList_LoadImageW@CComCtlWrapper@@QAEPAU_IMAGELIST@@PAUHINSTANCE__@@PB_WHHKII@Z 00430d14 f i uafxcw:winctrl2.obj
 0001:0002fdd1       ?GetProcAddress_ImageList_Read@CComCtlWrapper@@QAE?AUImageList_Read_Type@1@XZ 00430dd1 f i uafxcw:winctrl2.obj
 0001:0002fe01       ?_ImageList_Read@CComCtlWrapper@@QAEPAU_IMAGELIST@@PAUIStream@@@Z 00430e01 f i uafxcw:winctrl2.obj
 0001:0002feaf       ?GetProcAddress_ImageList_Write@CComCtlWrapper@@QAE?AUImageList_Write_Type@1@XZ 00430eaf f i uafxcw:winctrl2.obj
 0001:0002fedf       ?_ImageList_Write@CComCtlWrapper@@QAEHPAU_IMAGELIST@@PAUIStream@@@Z 00430edf f i uafxcw:winctrl2.obj
 0001:0002ff90       ?GetProcAddress_ImageList_Merge@CComCtlWrapper@@QAE?AUImageList_Merge_Type@1@XZ 00430f90 f i uafxcw:winctrl2.obj
 0001:0002ffc0       ?_ImageList_Merge@CComCtlWrapper@@QAEPAU_IMAGELIST@@PAU2@H0HHH@Z 00430fc0 f i uafxcw:winctrl2.obj
 0001:0003007d       ?GetProcAddress_MakeDragList@CComCtlWrapper@@QAE?AUMakeDragList_Type@1@XZ 0043107d f i uafxcw:winctrl2.obj
 0001:000300ad       ?_MakeDragList@CComCtlWrapper@@QAEHPAUHWND__@@@Z 004310ad f i uafxcw:winctrl2.obj
 0001:0003015b       ?GetProcAddress_LBItemFromPt@CComCtlWrapper@@QAE?AULBItemFromPt_Type@1@XZ 0043115b f i uafxcw:winctrl2.obj
 0001:0003018b       ?_LBItemFromPt@CComCtlWrapper@@QAEHPAUHWND__@@UtagPOINT@@H@Z 0043118b f i uafxcw:winctrl2.obj
 0001:00030245       ?AfxImageList_Create@@YGPAU_IMAGELIST@@HHIHH@Z 00431245 f i uafxcw:winctrl2.obj
 0001:0003026c       ?AfxImageList_Destroy@@YGHPAU_IMAGELIST@@@Z 0043126c f i uafxcw:winctrl2.obj
 0001:00030287       ?AfxImageList_LoadImageW@@YGPAU_IMAGELIST@@PAUHINSTANCE__@@PB_WHHKII@Z 00431287 f i uafxcw:winctrl2.obj
 0001:000302b4       ?AfxImageList_Read@@YGPAU_IMAGELIST@@PAUIStream@@@Z 004312b4 f i uafxcw:winctrl2.obj
 0001:000302cf       ?AfxImageList_Write@@YGHPAU_IMAGELIST@@PAUIStream@@@Z 004312cf f i uafxcw:winctrl2.obj
 0001:000302ed       ?AfxImageList_Merge@@YGPAU_IMAGELIST@@PAU1@H0HHH@Z 004312ed f i uafxcw:winctrl2.obj
 0001:00030317       ?AfxMakeDragList@@YGHPAUHWND__@@@Z 00431317 f i uafxcw:winctrl2.obj
 0001:00030332       ?AfxLBItemFromPt@@YGHPAUHWND__@@UtagPOINT@@H@Z 00431332 f i uafxcw:winctrl2.obj
 0001:00030356       ?ItemFromPt@CDragListBox@@QBEHVCPoint@@H@Z 00431356 f i uafxcw:winctrl2.obj
 0001:00030370       ?PreSubclassWindow@CDragListBox@@UAEXXZ 00431370 f   uafxcw:winctrl2.obj
 0001:00030379       ?BeginDrag@CDragListBox@@UAEHVCPoint@@@Z 00431379 f   uafxcw:winctrl2.obj
 0001:000303a7       ?Dragging@CDragListBox@@UAEIVCPoint@@@Z 004313a7 f   uafxcw:winctrl2.obj
 0001:000303eb       ?GetThisMessageMap@CToolBarCtrl@@KGPBUAFX_MSGMAP@@XZ 004313eb f   uafxcw:winctrl2.obj
 0001:000303f1       ?afxMapHIMAGELIST@@YGPAVCHandleMap@@H@Z 004313f1 f   uafxcw:winctrl2.obj
 0001:00030465       ?Detach@CImageList@@QAEPAU_IMAGELIST@@XZ 00431465 f   uafxcw:winctrl2.obj
 0001:00030491       ?DeleteImageList@CImageList@@QAEHXZ 00431491 f   uafxcw:winctrl2.obj
 0001:000304a6       ?FromHandle@CImageList@@SGPAV1@PAU_IMAGELIST@@@Z 004314a6 f   uafxcw:winctrl2.obj
 0001:000304ba       ?FromHandlePermanent@CImageList@@SGPAV1@PAU_IMAGELIST@@@Z 004314ba f   uafxcw:winctrl2.obj
 0001:000304db       ?Attach@CImageList@@QAEHPAU_IMAGELIST@@@Z 004314db f   uafxcw:winctrl2.obj
 0001:0003050b       ?Read@CImageList@@QAEHPAVCArchive@@@Z 0043150b f   uafxcw:winctrl2.obj
 0001:0003053a       ?Write@CImageList@@QAEHPAVCArchive@@@Z 0043153a f   uafxcw:winctrl2.obj
 0001:00030560       ?Dropped@CDragListBox@@UAEXHVCPoint@@@Z 00431560 f   uafxcw:winctrl2.obj
 0001:00030604       ?GetMessageMap@CToolBarCtrl@@MBEPBUAFX_MSGMAP@@XZ 00431604 f   uafxcw:winctrl2.obj
 0001:0003060a       ?RemoveImageList@CListCtrl@@IAEXH@Z 0043160a f   uafxcw:winctrl2.obj
 0001:00030647       ?OnNcDestroy@CListCtrl@@IAEXXZ 00431647 f   uafxcw:winctrl2.obj
 0001:0003066d       ?CreateDragImage@CListCtrl@@QAEPAVCImageList@@HPAUtagPOINT@@@Z 0043166d f   uafxcw:winctrl2.obj
 0001:000306bb       ?RemoveImageList@CTreeCtrl@@IAEXH@Z 004316bb f   uafxcw:winctrl2.obj
 0001:000306f8       ?OnDestroy@CTreeCtrl@@QAEXXZ 004316f8 f   uafxcw:winctrl2.obj
 0001:00030715       ?CreateDragImage@CTreeCtrl@@QAEPAVCImageList@@PAU_TREEITEM@@@Z 00431715 f   uafxcw:winctrl2.obj
 0001:00030761       ?OnDestroy@CTabCtrl@@IAEXXZ 00431761 f   uafxcw:winctrl2.obj
 0001:0003079c       ?Create@CImageList@@QAEHHHIHH@Z 0043179c f   uafxcw:winctrl2.obj
 0001:000307c5       ?Create@CImageList@@QAEHIHHK@Z 004317c5 f   uafxcw:winctrl2.obj
 0001:000307f8       ?Create@CImageList@@QAEHPB_WHHK@Z 004317f8 f   uafxcw:winctrl2.obj
 0001:0003082b       ?Create@CImageList@@QAEHAAV1@H0HHH@Z 0043182b f   uafxcw:winctrl2.obj
 0001:0003085d       ?AddString@CToolBarCtrl@@QAEHI@Z 0043185d f   uafxcw:winctrl2.obj
 0001:000308bb       ?GetString@CToolBarCtrl@@QBEHHAAV?$CStringT@_WV?$StrTraitMFC@_WV?$ChTraitsCRT@_W@ATL@@@@@ATL@@@Z 004318bb f   uafxcw:winctrl2.obj
 0001:00030920       ?GetText@CStatusBarCtrl@@QBE?AV?$CStringT@_WV?$StrTraitMFC@_WV?$ChTraitsCRT@_W@ATL@@@@@ATL@@HPAH@Z 00431920 f   uafxcw:winctrl2.obj
 0001:00030998       ?GetThisMessageMap@CListCtrl@@KGPBUAFX_MSGMAP@@XZ 00431998 f   uafxcw:winctrl2.obj
 0001:0003099e       ?GetItemText@CListCtrl@@QBE?AV?$CStringT@_WV?$StrTraitMFC@_WV?$ChTraitsCRT@_W@ATL@@@@@ATL@@HH@Z 0043199e f   uafxcw:winctrl2.obj
 0001:00030a1e       ?GetThisMessageMap@CTreeCtrl@@KGPBUAFX_MSGMAP@@XZ 00431a1e f   uafxcw:winctrl2.obj
 0001:00030a24       ?GetItemText@CTreeCtrl@@QBE?AV?$CStringT@_WV?$StrTraitMFC@_WV?$ChTraitsCRT@_W@ATL@@@@@ATL@@PAU_TREEITEM@@@Z 00431a24 f   uafxcw:winctrl2.obj
 0001:00030a9e       ?GetKeyName@CHotKeyCtrl@@SA?AV?$CStringT@_WV?$StrTraitMFC@_WV?$ChTraitsCRT@_W@ATL@@@@@ATL@@IH@Z 00431a9e f   uafxcw:winctrl2.obj
 0001:00030b0d       ?GetThisMessageMap@CTabCtrl@@KGPBUAFX_MSGMAP@@XZ 00431b0d f   uafxcw:winctrl2.obj
 0001:00030b13       ?GetMessageMap@CListCtrl@@MBEPBUAFX_MSGMAP@@XZ 00431b13 f   uafxcw:winctrl2.obj
 0001:00030b19       ?GetMessageMap@CTreeCtrl@@MBEPBUAFX_MSGMAP@@XZ 00431b19 f   uafxcw:winctrl2.obj
 0001:00030b1f       ?GetMessageMap@CTabCtrl@@MBEPBUAFX_MSGMAP@@XZ 00431b1f f   uafxcw:winctrl2.obj
 0001:00030b25       ??1CImageList@@UAE@XZ      00431b25 f   uafxcw:winctrl2.obj
 0001:00030bf0       ?DrawSingle@CDragListBox@@QAEXH@Z 00431bf0 f   uafxcw:winctrl2.obj
 0001:00030cc6       ??_ECImageList@@UAEPAXI@Z  00431cc6 f i uafxcw:winctrl2.obj
 0001:00030cc6       ??_GCImageList@@UAEPAXI@Z  00431cc6 f i uafxcw:winctrl2.obj
 0001:00030ce7       ?DrawInsert@CDragListBox@@UAEXH@Z 00431ce7 f   uafxcw:winctrl2.obj
 0001:00030d11       ?GetTipText@CStatusBarCtrl@@QBE?AV?$CStringT@_WV?$StrTraitMFC@_WV?$ChTraitsCRT@_W@ATL@@@@@ATL@@H@Z 00431d11 f   uafxcw:winctrl2.obj
 0001:00030d72       ?GetHotKeyName@CHotKeyCtrl@@QBE?AV?$CStringT@_WV?$StrTraitMFC@_WV?$ChTraitsCRT@_W@ATL@@@@@ATL@@XZ 00431d72 f   uafxcw:winctrl2.obj
 0001:00030ea7       ?PrepareCtrl@CDataExchange@@QAEPAUHWND__@@H@Z 00431ea7 f   uafxcw:dlgdata.obj
 0001:00030ee8       ?Fail@CDataExchange@@QAEXXZ 00431ee8 f   uafxcw:dlgdata.obj
 0001:00030f39       ?DDX_Check@@YGXPAVCDataExchange@@HAAH@Z 00431f39 f   uafxcw:dlgdata.obj
 0001:00030f9e       ?DDX_Radio@@YGXPAVCDataExchange@@HAAH@Z 00431f9e f   uafxcw:dlgdata.obj
 0001:00031049       ?DDX_LBIndex@@YGXPAVCDataExchange@@HAAH@Z 00432049 f   uafxcw:dlgdata.obj
 0001:000310a0       ?DDX_CBIndex@@YGXPAVCDataExchange@@HAAH@Z 004320a0 f   uafxcw:dlgdata.obj
 0001:000310f7       ?DDX_Scroll@@YGXPAVCDataExchange@@HAAH@Z 004320f7 f   uafxcw:dlgdata.obj
 0001:00031147       ?DDX_Slider@@YGXPAVCDataExchange@@HAAH@Z 00432147 f   uafxcw:dlgdata.obj
 0001:000311a0       ?DDX_IPAddress@@YGXPAVCDataExchange@@HAAK@Z 004321a0 f   uafxcw:dlgdata.obj
 0001:000311ec       ?DDV_MinMaxSlider@@YGXPAVCDataExchange@@KKK@Z 004321ec f   uafxcw:dlgdata.obj
 0001:00031240       ?DDX_Control@@YGXPAVCDataExchange@@HAAVCWnd@@@Z 00432240 f   uafxcw:dlgdata.obj
 0001:000312cb       ?PrepareEditCtrl@CDataExchange@@QAEPAUHWND__@@H@Z 004322cb f   uafxcw:dlgdata.obj
 0001:000312e7       ?_Afx_DDX_TextWithFormat@@YAXPAVCDataExchange@@HPB_WIZZ 004322e7 f   uafxcw:dlgdata.obj
 0001:000313c1       ?DDX_Text@@YGXPAVCDataExchange@@HAAE@Z 004323c1 f   uafxcw:dlgdata.obj
 0001:00031434       ?DDX_Text@@YGXPAVCDataExchange@@HAAF@Z 00432434 f   uafxcw:dlgdata.obj
 0001:00031467       ?DDX_Text@@YGXPAVCDataExchange@@HAAH@Z 00432467 f   uafxcw:dlgdata.obj
 0001:00031498       ?DDX_Text@@YGXPAVCDataExchange@@HAAI@Z 00432498 f   uafxcw:dlgdata.obj
 0001:000314c9       ?DDX_Text@@YGXPAVCDataExchange@@HAAJ@Z 004324c9 f   uafxcw:dlgdata.obj
 0001:000314fa       ?DDX_Text@@YGXPAVCDataExchange@@HAAK@Z 004324fa f   uafxcw:dlgdata.obj
 0001:0003152b       ?DDX_Text@@YGXPAVCDataExchange@@HAA_J@Z 0043252b f   uafxcw:dlgdata.obj
 0001:00031575       ?DDX_Text@@YGXPAVCDataExchange@@HAA_K@Z 00432575 f   uafxcw:dlgdata.obj
 0001:000315bf       ?DDX_Text@@YGXPAVCDataExchange@@HPA_WH@Z 004325bf f   uafxcw:dlgdata.obj
 0001:000315ff       ?_AfxFailMinMaxWithFormat@@YGXPAVCDataExchange@@_J1PB_WI@Z 004325ff f   uafxcw:dlgdata.obj
 0001:00031719       ?DDV_MinMaxByte@@YGXPAVCDataExchange@@EEE@Z 00432719 f   uafxcw:dlgdata.obj
 0001:0003174f       ?DDV_MinMaxShort@@YGXPAVCDataExchange@@FFF@Z 0043274f f   uafxcw:dlgdata.obj
 0001:00031788       ?DDV_MinMaxInt@@YGXPAVCDataExchange@@HHH@Z 00432788 f   uafxcw:dlgdata.obj
 0001:000317bb       ?DDV_MinMaxLong@@YGXPAVCDataExchange@@JJJ@Z 004327bb f   uafxcw:dlgdata.obj
 0001:000317ee       ?DDV_MinMaxUInt@@YGXPAVCDataExchange@@III@Z 004327ee f   uafxcw:dlgdata.obj
 0001:00031820       ?DDV_MinMaxDWord@@YGXPAVCDataExchange@@KKK@Z 00432820 f   uafxcw:dlgdata.obj
 0001:00031852       ?DDV_MinMaxLongLong@@YGXPAVCDataExchange@@_J11@Z 00432852 f   uafxcw:dlgdata.obj
 0001:00031897       ?DDV_MinMaxULongLong@@YGXPAVCDataExchange@@_K11@Z 00432897 f   uafxcw:dlgdata.obj
 0001:000318dc       ?DDV_MaxChars@@YGXPAVCDataExchange@@ABV?$CStringT@_WV?$StrTraitMFC@_WV?$ChTraitsCRT@_W@ATL@@@@@ATL@@H@Z 004328dc f   uafxcw:dlgdata.obj
 0001:0003198c       ?AfxFailMaxChars@@YGXPAVCDataExchange@@H@Z 0043298c f   uafxcw:dlgdata.obj
 0001:000319fd       ?AfxFailRadio@@YGXPAVCDataExchange@@@Z 004329fd f   uafxcw:dlgdata.obj
 0001:00031a55       ?DDX_Text@@YGXPAVCDataExchange@@HAAV?$CStringT@_WV?$StrTraitMFC@_WV?$ChTraitsCRT@_W@ATL@@@@@ATL@@@Z 00432a55 f   uafxcw:dlgdata.obj
 0001:00031aa9       ?DDX_LBString@@YGXPAVCDataExchange@@HAAV?$CStringT@_WV?$StrTraitMFC@_WV?$ChTraitsCRT@_W@ATL@@@@@ATL@@@Z 00432aa9 f   uafxcw:dlgdata.obj
 0001:00031b3f       ?DDX_LBStringExact@@YGXPAVCDataExchange@@HAAV?$CStringT@_WV?$StrTraitMFC@_WV?$ChTraitsCRT@_W@ATL@@@@@ATL@@@Z 00432b3f f   uafxcw:dlgdata.obj
 0001:00031ba1       ?DDX_CBString@@YGXPAVCDataExchange@@HAAV?$CStringT@_WV?$StrTraitMFC@_WV?$ChTraitsCRT@_W@ATL@@@@@ATL@@@Z 00432ba1 f   uafxcw:dlgdata.obj
 0001:00031c35       ?DDX_CBStringExact@@YGXPAVCDataExchange@@HAAV?$CStringT@_WV?$StrTraitMFC@_WV?$ChTraitsCRT@_W@ATL@@@@@ATL@@@Z 00432c35 f   uafxcw:dlgdata.obj
 0001:00031ca5       ?Create@CStatic@@UAEHPB_WKABUtagRECT@@PAVCWnd@@I@Z 00432ca5 f   uafxcw:winctrl1.obj
 0001:00031cc9       ??1CStatic@@UAE@XZ         00432cc9 f   uafxcw:winctrl1.obj
 0001:00031cfa       ?DrawItem@CStatic@@UAEXPAUtagDRAWITEMSTRUCT@@@Z 00432cfa f   uafxcw:winctrl1.obj
 0001:00031cfd       ?OnChildNotify@CStatic@@MAEHIIJPAJ@Z 00432cfd f   uafxcw:winctrl1.obj
 0001:00031d20       ?Create@CButton@@UAEHPB_WKABUtagRECT@@PAVCWnd@@I@Z 00432d20 f   uafxcw:winctrl1.obj
 0001:00031d44       ??1CButton@@UAE@XZ         00432d44 f   uafxcw:winctrl1.obj
 0001:00031d75       ?GetCheckedRadioButton@CWnd@@QBEHHH@Z 00432d75 f   uafxcw:winctrl1.obj
 0001:00031da1       ?DrawItem@CButton@@UAEXPAUtagDRAWITEMSTRUCT@@@Z 00432da1 f   uafxcw:winctrl1.obj
 0001:00031da4       ?OnChildNotify@CButton@@MAEHIIJPAJ@Z 00432da4 f   uafxcw:winctrl1.obj
 0001:00031dc7       ?Create@CSplitButton@@UAEHPB_WKABUtagRECT@@PAVCWnd@@I@Z 00432dc7 f   uafxcw:winctrl1.obj
 0001:00031de8       ?Cleanup@CSplitButton@@IAEXXZ 00432de8 f   uafxcw:winctrl1.obj
 0001:00031e09       ?Create@CListBox@@UAEHKABUtagRECT@@PAVCWnd@@I@Z 00432e09 f   uafxcw:winctrl1.obj
 0001:00031e2c       ??1CListBox@@UAE@XZ        00432e2c f   uafxcw:winctrl1.obj
 0001:00031e5d       ?DrawItem@CListBox@@UAEXPAUtagDRAWITEMSTRUCT@@@Z 00432e5d f   uafxcw:winctrl1.obj
 0001:00031e60       ?MeasureItem@CListBox@@UAEXPAUtagMEASUREITEMSTRUCT@@@Z 00432e60 f   uafxcw:winctrl1.obj
 0001:00031e63       ?CompareItem@CListBox@@UAEHPAUtagCOMPAREITEMSTRUCT@@@Z 00432e63 f   uafxcw:winctrl1.obj
 0001:00031e68       ?DeleteItem@CListBox@@UAEXPAUtagDELETEITEMSTRUCT@@@Z 00432e68 f   uafxcw:winctrl1.obj
 0001:00031e6b       ?VKeyToItem@CListBox@@UAEHII@Z 00432e6b f   uafxcw:winctrl1.obj
 0001:00031e73       ?CharToItem@CListBox@@UAEHII@Z 00432e73 f   uafxcw:winctrl1.obj
 0001:00031e7b       ?OnChildNotify@CListBox@@MAEHIIJPAJ@Z 00432e7b f   uafxcw:winctrl1.obj
 0001:00031f09       ?ItemFromPoint@CListBox@@QBEIVCPoint@@AAH@Z 00432f09 f   uafxcw:winctrl1.obj
 0001:00031f45       ?Create@CComboBox@@UAEHKABUtagRECT@@PAVCWnd@@I@Z 00432f45 f   uafxcw:winctrl1.obj
 0001:00031f68       ??1CComboBox@@UAE@XZ       00432f68 f   uafxcw:winctrl1.obj
 0001:00031f99       ?DrawItem@CComboBox@@UAEXPAUtagDRAWITEMSTRUCT@@@Z 00432f99 f   uafxcw:winctrl1.obj
 0001:00031f9c       ?MeasureItem@CComboBox@@UAEXPAUtagMEASUREITEMSTRUCT@@@Z 00432f9c f   uafxcw:winctrl1.obj
 0001:00031f9f       ?CompareItem@CComboBox@@UAEHPAUtagCOMPAREITEMSTRUCT@@@Z 00432f9f f   uafxcw:winctrl1.obj
 0001:00031fa4       ?DeleteItem@CComboBox@@UAEXPAUtagDELETEITEMSTRUCT@@@Z 00432fa4 f   uafxcw:winctrl1.obj
 0001:00031fa7       ?OnChildNotify@CComboBox@@MAEHIIJPAJ@Z 00432fa7 f   uafxcw:winctrl1.obj
 0001:00032003       ?Create@CEdit@@QAEHKABUtagRECT@@PAVCWnd@@I@Z 00433003 f   uafxcw:winctrl1.obj
 0001:00032026       ??1CEdit@@UAE@XZ           00433026 f   uafxcw:winctrl1.obj
 0001:00032057       ?Create@CScrollBar@@UAEHKABUtagRECT@@PAVCWnd@@I@Z 00433057 f   uafxcw:winctrl1.obj
 0001:0003207a       ??1CScrollBar@@UAE@XZ      0043307a f   uafxcw:winctrl1.obj
 0001:000320ab       ?GetRuntimeClass@CStatic@@UBEPAUCRuntimeClass@@XZ 004330ab f   uafxcw:winctrl1.obj
 0001:000320b1       ?GetRuntimeClass@CButton@@UBEPAUCRuntimeClass@@XZ 004330b1 f   uafxcw:winctrl1.obj
 0001:000320b7       ?GetRuntimeClass@CSplitButton@@UBEPAUCRuntimeClass@@XZ 004330b7 f   uafxcw:winctrl1.obj
 0001:000320bd       ?GetRuntimeClass@CListBox@@UBEPAUCRuntimeClass@@XZ 004330bd f   uafxcw:winctrl1.obj
 0001:000320c3       ?GetRuntimeClass@CComboBox@@UBEPAUCRuntimeClass@@XZ 004330c3 f   uafxcw:winctrl1.obj
 0001:000320c9       ?GetRuntimeClass@CEdit@@UBEPAUCRuntimeClass@@XZ 004330c9 f   uafxcw:winctrl1.obj
 0001:000320cf       ?GetRuntimeClass@CScrollBar@@UBEPAUCRuntimeClass@@XZ 004330cf f   uafxcw:winctrl1.obj
 0001:000320d5       ??_ECStatic@@UAEPAXI@Z     004330d5 f i uafxcw:winctrl1.obj
 0001:000320d5       ??_GCStatic@@UAEPAXI@Z     004330d5 f i uafxcw:winctrl1.obj
 0001:000320f6       ??_ECButton@@UAEPAXI@Z     004330f6 f i uafxcw:winctrl1.obj
 0001:000320f6       ??_GCButton@@UAEPAXI@Z     004330f6 f i uafxcw:winctrl1.obj
 0001:00032117       ??_ECListBox@@UAEPAXI@Z    00433117 f i uafxcw:winctrl1.obj
 0001:00032117       ??_GCListBox@@UAEPAXI@Z    00433117 f i uafxcw:winctrl1.obj
 0001:00032138       ?GetText@CListBox@@QBEHHPA_W@Z 00433138 f i uafxcw:winctrl1.obj
 0001:00032155       ?GetTextLen@CListBox@@QBEHH@Z 00433155 f i uafxcw:winctrl1.obj
 0001:00032171       ?GetLBText@CComboBox@@QBEHHPA_W@Z 00433171 f i uafxcw:winctrl1.obj
 0001:0003218e       ?GetLBTextLen@CComboBox@@QBEHH@Z 0043318e f i uafxcw:winctrl1.obj
 0001:000321aa       ??_ECEdit@@UAEPAXI@Z       004331aa f i uafxcw:winctrl1.obj
 0001:000321aa       ??_GCEdit@@UAEPAXI@Z       004331aa f i uafxcw:winctrl1.obj
 0001:000321cb       ??_GCScrollBar@@UAEPAXI@Z  004331cb f i uafxcw:winctrl1.obj
 0001:000321cb       ??_ECScrollBar@@UAEPAXI@Z  004331cb f i uafxcw:winctrl1.obj
 0001:000321ec       ??1CSplitButton@@UAE@XZ    004331ec f   uafxcw:winctrl1.obj
 0001:0003221d       ?SetDropDownMenu@CSplitButton@@QAEXII@Z 0043321d f   uafxcw:winctrl1.obj
 0001:0003223b       ?SetDropDownMenu@CSplitButton@@QAEXPAVCMenu@@@Z 0043323b f   uafxcw:winctrl1.obj
 0001:00032253       ?OnDropDown@CSplitButton@@IAEXPAUtagNMHDR@@PAJ@Z 00433253 f   uafxcw:winctrl1.obj
 0001:00032306       ??_ECSplitButton@@UAEPAXI@Z 00433306 f i uafxcw:winctrl1.obj
 0001:00032306       ??_GCSplitButton@@UAEPAXI@Z 00433306 f i uafxcw:winctrl1.obj
 0001:00032327       ?GetThisMessageMap@CSplitButton@@KGPBUAFX_MSGMAP@@XZ 00433327 f   uafxcw:winctrl1.obj
 0001:0003232d       ?GetMessageMap@CSplitButton@@MBEPBUAFX_MSGMAP@@XZ 0043332d f   uafxcw:winctrl1.obj
 0001:00032333       ?GetText@CListBox@@QBEXHAAV?$CStringT@_WV?$StrTraitMFC@_WV?$ChTraitsCRT@_W@ATL@@@@@ATL@@@Z 00433333 f   uafxcw:winctrl1.obj
 0001:00032366       ?GetLBText@CComboBox@@QBEXHAAV?$CStringT@_WV?$StrTraitMFC@_WV?$ChTraitsCRT@_W@ATL@@@@@ATL@@@Z 00433366 f   uafxcw:winctrl1.obj
 0001:00032399       ?AfxLoadString@@YGHIPADI@Z 00433399 f   uafxcw:winstr.obj
 0001:000323f3       ?AfxLoadString@@YGHIPA_WI@Z 004333f3 f   uafxcw:winstr.obj
 0001:0003245b       ?AfxFindStringResourceHandle@@YGPAUHINSTANCE__@@I@Z 0043345b f   uafxcw:winstr.obj
 0001:00032466       ?AfxExtractSubString@@YGHAAV?$CStringT@_WV?$StrTraitMFC@_WV?$ChTraitsCRT@_W@ATL@@@@@ATL@@PB_WH_W@Z 00433466 f   uafxcw:winstr.obj
 0001:000324e3       ??1CIPAddressCtrl@@UAE@XZ  004334e3 f   uafxcw:winctrl6.obj
 0001:00032514       ?Create@CIPAddressCtrl@@UAEHKABUtagRECT@@PAVCWnd@@I@Z 00433514 f   uafxcw:winctrl6.obj
 0001:00032547       ?CreateEx@CIPAddressCtrl@@UAEHKKABUtagRECT@@PAVCWnd@@I@Z 00433547 f   uafxcw:winctrl6.obj
 0001:0003257f       ?GetAddress@CIPAddressCtrl@@QBEHAAE000@Z 0043357f f   uafxcw:winctrl6.obj
 0001:000325c5       ?Create@CComboBoxEx@@UAEHKABUtagRECT@@PAVCWnd@@I@Z 004335c5 f   uafxcw:winctrl6.obj
 0001:000325f8       ?CreateEx@CComboBoxEx@@UAEHKKABUtagRECT@@PAVCWnd@@I@Z 004335f8 f   uafxcw:winctrl6.obj
 0001:00032630       ?DeleteItem@CComboBoxEx@@QAEHH@Z 00433630 f   uafxcw:winctrl6.obj
 0001:0003264c       ?GetItem@CComboBoxEx@@QAEHPAUtagCOMBOBOXEXITEMW@@@Z 0043364c f   uafxcw:winctrl6.obj
 0001:00032668       ?InsertItem@CComboBoxEx@@QAEHPBUtagCOMBOBOXEXITEMW@@@Z 00433668 f   uafxcw:winctrl6.obj
 0001:00032684       ?SetItem@CComboBoxEx@@QAEHPBUtagCOMBOBOXEXITEMW@@@Z 00433684 f   uafxcw:winctrl6.obj
 0001:000326a0       ??1CComboBoxEx@@UAE@XZ     004336a0 f   uafxcw:winctrl6.obj
 0001:000326d1       ??1CReBarCtrl@@UAE@XZ      004336d1 f   uafxcw:winctrl6.obj
 0001:00032702       ?Create@CReBarCtrl@@QAEHKABUtagRECT@@PAVCWnd@@I@Z 00433702 f   uafxcw:winctrl6.obj
 0001:00032735       ?CreateEx@CReBarCtrl@@QAEHKKABUtagRECT@@PAVCWnd@@I@Z 00433735 f   uafxcw:winctrl6.obj
 0001:0003276a       ?GetColorScheme@CReBarCtrl@@QBEHPAUtagCOLORSCHEME@@@Z 0043376a f   uafxcw:winctrl6.obj
 0001:00032793       ?SetColumnOrderArray@CListCtrl@@QAEHHPAH@Z 00433793 f   uafxcw:winctrl6.obj
 0001:000327b0       ?GetCheck@CListCtrl@@QBEHH@Z 004337b0 f   uafxcw:winctrl6.obj
 0001:000327d3       ?SetCheck@CListCtrl@@QAEHHH@Z 004337d3 f   uafxcw:winctrl6.obj
 0001:0003280a       ?GetHeaderCtrl@CListCtrl@@QBEPAVCHeaderCtrl@@XZ 0043380a f   uafxcw:winctrl6.obj
 0001:00032828       ?SetOrderArray@CHeaderCtrl@@QAEHHPAH@Z 00433828 f   uafxcw:winctrl6.obj
 0001:00032845       ?GetOrderArray@CHeaderCtrl@@QBEHPAHH@Z 00433845 f   uafxcw:winctrl6.obj
 0001:0003286c       ?GetRange@CProgressCtrl@@QBEXAAH0@Z 0043386c f   uafxcw:winctrl6.obj
 0001:0003289b       ?Create@CPagerCtrl@@UAEHKABUtagRECT@@PAVCWnd@@I@Z 0043389b f   uafxcw:winctrl6.obj
 0001:000328d7       ?CreateEx@CPagerCtrl@@UAEHKKABUtagRECT@@PAVCWnd@@I@Z 004338d7 f   uafxcw:winctrl6.obj
 0001:0003290f       ?Create@CLinkCtrl@@UAEHKABUtagRECT@@PAVCWnd@@I@Z 0043390f f   uafxcw:winctrl6.obj
 0001:0003294b       ?Create@CLinkCtrl@@UAEHPB_WKABUtagRECT@@PAVCWnd@@I@Z 0043394b f   uafxcw:winctrl6.obj
 0001:00032988       ?CreateEx@CLinkCtrl@@UAEHKKABUtagRECT@@PAVCWnd@@I@Z 00433988 f   uafxcw:winctrl6.obj
 0001:000329c0       ?CreateEx@CLinkCtrl@@UAEHPB_WKKABUtagRECT@@PAVCWnd@@I@Z 004339c0 f   uafxcw:winctrl6.obj
 0001:000329fb       ?Create@CNetAddressCtrl@@UAEHKABUtagRECT@@PAVCWnd@@I@Z 004339fb f   uafxcw:winctrl6.obj
 0001:00032a32       ?CreateEx@CNetAddressCtrl@@UAEHKKABUtagRECT@@PAVCWnd@@I@Z 00433a32 f   uafxcw:winctrl6.obj
 0001:00032a6a       ?GetRuntimeClass@CIPAddressCtrl@@UBEPAUCRuntimeClass@@XZ 00433a6a f   uafxcw:winctrl6.obj
 0001:00032a70       ?GetRuntimeClass@CReBarCtrl@@UBEPAUCRuntimeClass@@XZ 00433a70 f   uafxcw:winctrl6.obj
 0001:00032a76       ?GetRuntimeClass@CPagerCtrl@@UBEPAUCRuntimeClass@@XZ 00433a76 f   uafxcw:winctrl6.obj
 0001:00032a7c       ?GetRuntimeClass@CLinkCtrl@@UBEPAUCRuntimeClass@@XZ 00433a7c f   uafxcw:winctrl6.obj
 0001:00032a82       ?GetRuntimeClass@CNetAddressCtrl@@UBEPAUCRuntimeClass@@XZ 00433a82 f   uafxcw:winctrl6.obj
 0001:00032a88       ?GetSafeHandle@CImageList@@QBEPAU_IMAGELIST@@XZ 00433a88 f i uafxcw:winctrl6.obj
 0001:00032a93       ?GetItemCount@CHeaderCtrl@@QBEHXZ 00433a93 f i uafxcw:winctrl6.obj
 0001:00032aa6       ?SetBkImage@CListCtrl@@QAEHPAUtagLVBKIMAGEW@@@Z 00433aa6 f i uafxcw:winctrl6.obj
 0001:00032ac2       ??_ECReBarCtrl@@UAEPAXI@Z  00433ac2 f i uafxcw:winctrl6.obj
 0001:00032ac2       ??_GCReBarCtrl@@UAEPAXI@Z  00433ac2 f i uafxcw:winctrl6.obj
 0001:00032ae3       ?GetBarInfo@CReBarCtrl@@QBEHPAUtagREBARINFO@@@Z 00433ae3 f i uafxcw:winctrl6.obj
 0001:00032aff       ?SetBarInfo@CReBarCtrl@@QAEHPAUtagREBARINFO@@@Z 00433aff f i uafxcw:winctrl6.obj
 0001:00032b1b       ??_GCComboBoxEx@@UAEPAXI@Z 00433b1b f i uafxcw:winctrl6.obj
 0001:00032b1b       ??_ECComboBoxEx@@UAEPAXI@Z 00433b1b f i uafxcw:winctrl6.obj
 0001:00032b3c       ?GetImageList@CReBarCtrl@@QBEPAVCImageList@@XZ 00433b3c f   uafxcw:winctrl6.obj
 0001:00032b6d       ?SetImageList@CReBarCtrl@@QAEHPAVCImageList@@@Z 00433b6d f   uafxcw:winctrl6.obj
 0001:00032ba2       ?SetColorScheme@CReBarCtrl@@QAEXPBUtagCOLORSCHEME@@@Z 00433ba2 f   uafxcw:winctrl6.obj
 0001:00032bc5       ?GetColumnOrderArray@CListCtrl@@QBEHPAHH@Z 00433bc5 f   uafxcw:winctrl6.obj
 0001:00032c05       ?SetBkImage@CListCtrl@@QAEHPAUHBITMAP__@@HHH@Z 00433c05 f   uafxcw:winctrl6.obj
 0001:00032c40       ?SetBkImage@CListCtrl@@QAEHPA_WHHH@Z 00433c40 f   uafxcw:winctrl6.obj
 0001:00032c7b       ?GetRuntimeClass@CStringArray@@UBEPAUCRuntimeClass@@XZ 00433c7b f   uafxcw:array_s.obj
 0001:00032c81       ??5@YGAAVCArchive@@AAV0@AAPAVCStringArray@@@Z 00433c81 f   uafxcw:array_s.obj
 0001:00032c9f       ??0AFX_CLASSINIT@@QAE@PAUCRuntimeClass@@@Z 00433c9f f i uafxcw:array_s.obj
 0001:00032cb6       ?GetAt@CStringArray@@QBEABV?$CStringT@_WV?$StrTraitMFC@_WV?$ChTraitsCRT@_W@ATL@@@@@ATL@@H@Z 00433cb6 f i uafxcw:array_s.obj
 0001:00032cd7       ??0CStringArray@@QAE@XZ    00433cd7 f   uafxcw:array_s.obj
 0001:00032cee       ?FreeExtra@CStringArray@@QAEXXZ 00433cee f   uafxcw:array_s.obj
 0001:00032d36       ?CreateObject@CStringArray@@SGPAVCObject@@XZ 00433d36 f   uafxcw:array_s.obj
 0001:00032d5a       ??_G?$CStringT@_WV?$StrTraitMFC@_WV?$ChTraitsCRT@_W@ATL@@@@@ATL@@QAEPAXI@Z 00433d5a f i uafxcw:array_s.obj
 0001:00032de5       ?SetSize@CStringArray@@QAEXHH@Z 00433de5 f   uafxcw:array_s.obj
 0001:00032f1b       ?InsertEmpty@CStringArray@@IAEXHH@Z 00433f1b f   uafxcw:array_s.obj
 0001:00032fcb       ?RemoveAt@CStringArray@@QAEXHH@Z 00433fcb f   uafxcw:array_s.obj
 0001:00033040       ??1CStringArray@@UAE@XZ    00434040 f   uafxcw:array_s.obj
 0001:0003313d       ??_ECStringArray@@UAEPAXI@Z 0043413d f i uafxcw:array_s.obj
 0001:0003313d       ??_GCStringArray@@UAEPAXI@Z 0043413d f i uafxcw:array_s.obj
 0001:0003315e       ?Append@CStringArray@@QAEHABV1@@Z 0043415e f   uafxcw:array_s.obj
 0001:000331a2       ?Copy@CStringArray@@QAEXABV1@@Z 004341a2 f   uafxcw:array_s.obj
 0001:000331d3       ?SetAtGrow@CStringArray@@QAEXHABV?$CStringT@_WV?$StrTraitMFC@_WV?$ChTraitsCRT@_W@ATL@@@@@ATL@@@Z 004341d3 f   uafxcw:array_s.obj
 0001:00033225       ?InsertAt@CStringArray@@QAEXHABV?$CStringT@_WV?$StrTraitMFC@_WV?$ChTraitsCRT@_W@ATL@@@@@ATL@@H@Z 00434225 f   uafxcw:array_s.obj
 0001:0003325f       ?SetAt@CStringArray@@QAEXHABV?$CStringT@_WV?$StrTraitMFC@_WV?$ChTraitsCRT@_W@ATL@@@@@ATL@@@Z 0043425f f i uafxcw:array_s.obj
 0001:00033288       ?SetAtGrow@CStringArray@@QAEXHPB_W@Z 00434288 f   uafxcw:array_s.obj
 0001:000332c1       ?InsertAt@CStringArray@@QAEXHPBV1@@Z 004342c1 f   uafxcw:array_s.obj
 0001:0003331f       ?Serialize@CStringArray@@UAEXAAVCArchive@@@Z 0043431f f   uafxcw:array_s.obj
 0001:0003338d       ?InsertAt@CStringArray@@QAEXHPB_WH@Z 0043438d f   uafxcw:array_s.obj
 0001:000333e7       ?Close@CFileFind@@QAEXXZ   004343e7 f   uafxcw:filefind.obj
 0001:00033429       ?CloseContext@CFileFind@@MAEXXZ 00434429 f   uafxcw:filefind.obj
 0001:00033433       ?MatchesMask@CFileFind@@UBEHK@Z 00434433 f   uafxcw:filefind.obj
 0001:00033452       ?GetLastAccessTime@CFileFind@@UBEHPAU_FILETIME@@@Z 00434452 f   uafxcw:filefind.obj
 0001:0003347b       ?GetLastWriteTime@CFileFind@@UBEHPAU_FILETIME@@@Z 0043447b f   uafxcw:filefind.obj
 0001:000334a4       ?GetCreationTime@CFileFind@@UBEHPAU_FILETIME@@@Z 004344a4 f   uafxcw:filefind.obj
 0001:000334cd       ?FindNextFileW@CFileFind@@UAEHXZ 004344cd f   uafxcw:filefind.obj
 0001:00033509       ?GetLength@CFileFind@@QBE_KXZ 00434509 f   uafxcw:filefind.obj
 0001:00033520       ?GetRuntimeClass@CFileFind@@UBEPAUCRuntimeClass@@XZ 00434520 f   uafxcw:filefind.obj
 0001:00033526       __wcsdec                   00434526 f i uafxcw:filefind.obj
 0001:0003353a       ?tsplitpath_s@Checked@ATL@@YAXPB_WPA_WI1I1I1I@Z 0043453a f i uafxcw:filefind.obj
 0001:0003356a       ?tmakepath_s@Checked@ATL@@YAXPA_WIPB_W111@Z 0043456a f i uafxcw:filefind.obj
 0001:00033591       ?IsValidFILETIME@CTime@ATL@@SGHABU_FILETIME@@@Z 00434591 f i uafxcw:filefind.obj
 0001:000335c2       ??0CTime@ATL@@QAE@_J@Z     004345c2 f i uafxcw:filefind.obj
 0001:000335d8       ??0CTime@ATL@@QAE@HHHHHHH@Z 004345d8 f i uafxcw:filefind.obj
 0001:0003366d       ??0CTime@ATL@@QAE@ABU_SYSTEMTIME@@H@Z 0043466d f i uafxcw:filefind.obj
 0001:000336ca       ??0CTime@ATL@@QAE@ABU_FILETIME@@H@Z 004346ca f i uafxcw:filefind.obj
 0001:0003372a       ?IsDirectory@CFileFind@@QBEHXZ 0043472a f i uafxcw:filefind.obj
 0001:00033732       ?GetLastAccessTime@CFileFind@@UBEHAAVCTime@ATL@@@Z 00434732 f   uafxcw:filefind.obj
 0001:00033786       ?GetLastWriteTime@CFileFind@@UBEHAAVCTime@ATL@@@Z 00434786 f   uafxcw:filefind.obj
 0001:000337da       ?GetCreationTime@CFileFind@@UBEHAAVCTime@ATL@@@Z 004347da f   uafxcw:filefind.obj
 0001:0003382e       ?IsDots@CFileFind@@UBEHXZ  0043482e f   uafxcw:filefind.obj
 0001:0003386d       ??0CFileFind@@QAE@XZ       0043486d f   uafxcw:filefind.obj
 0001:00033896       ??1CFileFind@@UAE@XZ       00434896 f   uafxcw:filefind.obj
 0001:000338c7       ?GetRoot@CFileFind@@UBE?AV?$CStringT@_WV?$StrTraitMFC@_WV?$ChTraitsCRT@_W@ATL@@@@@ATL@@XZ 004348c7 f   uafxcw:filefind.obj
 0001:000338e4       ??_ECFileFind@@UAEPAXI@Z   004348e4 f i uafxcw:filefind.obj
 0001:000338e4       ??_GCFileFind@@UAEPAXI@Z   004348e4 f i uafxcw:filefind.obj
 0001:00033905       ?FindFile@CFileFind@@UAEHPB_WK@Z 00434905 f   uafxcw:filefind.obj
 0001:00033a39       ?GetFileTitle@CFileFind@@UBE?AV?$CStringT@_WV?$StrTraitMFC@_WV?$ChTraitsCRT@_W@ATL@@@@@ATL@@XZ 00434a39 f   uafxcw:filefind.obj
 0001:00033aad       ??Y?$CSimpleStringT@_W$0A@@ATL@@QAEAAV01@_W@Z 00434aad f i uafxcw:filefind.obj
 0001:00033ac4       ??0?$CStringT@_WV?$StrTraitMFC@_WV?$ChTraitsCRT@_W@ATL@@@@@ATL@@QAE@PBD@Z 00434ac4 f i uafxcw:filefind.obj
 0001:00033b08       ??Y?$CStringT@_WV?$StrTraitMFC@_WV?$ChTraitsCRT@_W@ATL@@@@@ATL@@QAEAAV01@_W@Z 00434b08 f i uafxcw:filefind.obj
 0001:00033b1f       ?GetFileURL@CFileFind@@UBE?AV?$CStringT@_WV?$StrTraitMFC@_WV?$ChTraitsCRT@_W@ATL@@@@@ATL@@XZ 00434b1f f   uafxcw:filefind.obj
 0001:00033b76       ?GetFilePath@CFileFind@@UBE?AV?$CStringT@_WV?$StrTraitMFC@_WV?$ChTraitsCRT@_W@ATL@@@@@ATL@@XZ 00434b76 f   uafxcw:filefind.obj
 0001:00033c07       ?GetFileName@CFileFind@@UBE?AV?$CStringT@_WV?$StrTraitMFC@_WV?$ChTraitsCRT@_W@ATL@@@@@ATL@@XZ 00434c07 f   uafxcw:filefind.obj
 0001:00033c4a       ?Create@CPlex@@SGPAU1@AAPAU1@II@Z 00434c4a f   uafxcw:plex.obj
 0001:00033c7d       ?FreeDataChain@CPlex@@QAEXXZ 00434c7d f   uafxcw:plex.obj
 0001:00033c93       ?GetRuntimeClass@CObject@@UBEPAUCRuntimeClass@@XZ 00434c93 f   uafxcw:objcore.obj
 0001:00033c99       ?CreateObject@CRuntimeClass@@QAEPAVCObject@@XZ 00434c99 f   uafxcw:objcore.obj
 0001:00033ce3       ?IsSerializable@CObject@@QBEHXZ 00434ce3 f   uafxcw:objcore.obj
 0001:00033cf6       ?IsDerivedFrom@CRuntimeClass@@QBEHPBU1@@Z 00434cf6 f   uafxcw:objcore.obj
 0001:00033d21       ?AddHead@?$CTypedSimpleList@PAUCRuntimeClass@@@@QAEXPAUCRuntimeClass@@@Z 00434d21 f i uafxcw:objcore.obj
 0001:00033d2c       ??1stringdispid@CComTypeInfoHolder@ATL@@QAE@XZ 00434d2c f i uafxcw:objcore.obj
 0001:00033d35       ?IsKindOf@CObject@@QBEHPBUCRuntimeClass@@@Z 00434d35 f   uafxcw:objcore.obj
 0001:00033d53       ?AfxDynamicDownCast@@YAPAVCObject@@PAUCRuntimeClass@@PAV1@@Z 00434d53 f   uafxcw:objcore.obj
 0001:00033d76       ?AfxClassInit@@YGXPAUCRuntimeClass@@@Z 00434d76 f   uafxcw:objcore.obj
 0001:00033da1       ??_Estringdispid@CComTypeInfoHolder@ATL@@QAEPAXI@Z 00434da1 f i uafxcw:objcore.obj
 0001:00033df0       ?GetRuntimeClass@CArchiveException@@UBEPAUCRuntimeClass@@XZ 00434df0 f   uafxcw:arcex.obj
 0001:00033df6       ?GetErrorMessage@CArchiveException@@UBEHPA_WIPAI@Z 00434df6 f   uafxcw:arcex.obj
 0001:00033ea7       ??0CArchiveException@@QAE@HPB_W@Z 00434ea7 f i uafxcw:arcex.obj
 0001:00033eeb       ??1CArchiveException@@UAE@XZ 00434eeb f i uafxcw:arcex.obj
 0001:00033efc       ??_GCArchiveException@@UAEPAXI@Z 00434efc f i uafxcw:arcex.obj
 0001:00033efc       ??_ECArchiveException@@UAEPAXI@Z 00434efc f i uafxcw:arcex.obj
 0001:00033f29       ?AfxThrowArchiveException@@YGXHPB_W@Z 00434f29 f   uafxcw:arcex.obj
 0001:00033f6c       ?Abort@CArchive@@QAEXXZ    00434f6c f   uafxcw:arccore.obj
 0001:00033fd9       ?IsLoading@CArchive@@QBEHXZ 00434fd9 f i uafxcw:arccore.obj
 0001:00033fe0       ?Read@CArchive@@QAEIPAXI@Z 00434fe0 f   uafxcw:arccore.obj
 0001:00034111       ?Flush@CArchive@@QAEXXZ    00435111 f   uafxcw:arccore.obj
 0001:00034189       ?FillBuffer@CArchive@@QAEXI@Z 00435189 f   uafxcw:arccore.obj
 0001:00034278       ??B?$CTypedSimpleList@PAUCRuntimeClass@@@@QAEPAUCRuntimeClass@@XZ 00435278 f i uafxcw:arccore.obj
 0001:0003427b       ??6CArchive@@QAEAAV0@E@Z   0043527b f i uafxcw:arccore.obj
 0001:000342b6       ??6CArchive@@QAEAAV0@_K@Z  004352b6 f i uafxcw:arccore.obj
 0001:000342fa       ??6CArchive@@QAEAAV0@G@Z   004352fa f i uafxcw:arccore.obj
 0001:00034339       ??6CArchive@@QAEAAV0@K@Z   00435339 f i uafxcw:arccore.obj
 0001:00034377       ??5CArchive@@QAEAAV0@AAE@Z 00435377 f i uafxcw:arccore.obj
 0001:000343bb       ??5CArchive@@QAEAAV0@AA_K@Z 004353bb f i uafxcw:arccore.obj
 0001:00034408       ??5CArchive@@QAEAAV0@AAG@Z 00435408 f i uafxcw:arccore.obj
 0001:00034450       ??5CArchive@@QAEAAV0@AAK@Z 00435450 f i uafxcw:arccore.obj
 0001:00034497       ?AfxReadStringLength@@YGIAAVCArchive@@AAH@Z 00435497 f   uafxcw:arccore.obj
 0001:00034548       ?AfxWriteStringLength@@YGXAAVCArchive@@IH@Z 00435548 f   uafxcw:arccore.obj
 0001:000345cc       ?FromName@CRuntimeClass@@SGPAU1@PBD@Z 004355cc f   uafxcw:arccore.obj
 0001:0003461e       ?Load@CRuntimeClass@@SGPAU1@AAVCArchive@@PAI@Z 0043561e f   uafxcw:arccore.obj
 0001:00034695       ?Close@CArchive@@QAEXXZ    00435695 f   uafxcw:arccore.obj
 0001:000346a5       ?Write@CArchive@@QAEXPBXI@Z 004356a5 f   uafxcw:arccore.obj
 0001:0003476c       ?WriteCount@CArchive@@QAEXK@Z 0043576c f   uafxcw:arccore.obj
 0001:0003479d       ?ReadCount@CArchive@@QAEKXZ 0043579d f   uafxcw:arccore.obj
 0001:000347d1       ?WriteString@CArchive@@QAEXPB_W@Z 004357d1 f   uafxcw:arccore.obj
 0001:000347f4       ??5CArchive@@QAEAAV0@AA_W@Z 004357f4 f i uafxcw:arccore.obj
 0001:000347ff       ?CreateObject@CRuntimeClass@@SGPAVCObject@@PBD@Z 004357ff f   uafxcw:arccore.obj
 0001:00034826       ?Store@CRuntimeClass@@QBEXAAVCArchive@@@Z 00435826 f   uafxcw:arccore.obj
 0001:00034863       ??1CArchive@@QAE@XZ        00435863 f   uafxcw:arccore.obj
 0001:000348a1       ?ReadString@CArchive@@QAEPA_WPA_WI@Z 004358a1 f   uafxcw:arccore.obj
 0001:00034952       ??0CArchive@@QAE@PAVCFile@@IHPAX@Z 00435952 f   uafxcw:arccore.obj
 0001:00034a5b       ?ReadString@CArchive@@QAEHAAV?$CStringT@_WV?$StrTraitMFC@_WV?$ChTraitsCRT@_W@ATL@@@@@ATL@@@Z 00435a5b f   uafxcw:arccore.obj
 0001:00034aff       ?CreateObject@CRuntimeClass@@SGPAVCObject@@PB_W@Z 00435aff f   uafxcw:arccore.obj
 0001:00034b3f       ?FromName@CRuntimeClass@@SGPAU1@PB_W@Z 00435b3f f   uafxcw:arccore.obj
 0001:00034b81       ?GetOFN@CFileDialog@@QBEABUtagOFNW@@XZ 00435b81 f   uafxcw:dlgfile.obj
 0001:00034b85       ?GetOFN@CFileDialog@@QAEAAUtagOFNW@@XZ 00435b85 f   uafxcw:dlgfile.obj
 0001:00034b89       __wcsinc                   00435b89 f i uafxcw:dlgfile.obj
 0001:00034b96       ?GetInterfaceMap@CFileDialog@@MBEPBUAFX_INTERFACEMAP@@XZ 00435b96 f   uafxcw:dlgfile.obj
 0001:00034b9c       ?SetTemplate@CFileDialog@@QAEXPB_W0@Z 00435b9c f   uafxcw:dlgfile.obj
 0001:00034bcc       ?OnShareViolation@CFileDialog@@MAEIPB_W@Z 00435bcc f   uafxcw:dlgfile.obj
 0001:00034bd1       ?OnFileNameOK@CFileDialog@@MAEHXZ 00435bd1 f   uafxcw:dlgfile.obj
 0001:00034bd4       ?OnLBSelChangedNotify@CFileDialog@@MAEXIII@Z 00435bd4 f   uafxcw:dlgfile.obj
 0001:00034bd7       ?OnFileNameChange@CFileDialog@@MAEXXZ 00435bd7 f   uafxcw:dlgfile.obj
 0001:00034bd8       ?OnFolderChange@CFileDialog@@MAEXXZ 00435bd8 f   uafxcw:dlgfile.obj
 0001:00034bd9       ?OnTypeChange@CFileDialog@@MAEXXZ 00435bd9 f   uafxcw:dlgfile.obj
 0001:00034bda       ?GetRuntimeClass@CFileDialog@@UBEPAUCRuntimeClass@@XZ 00435bda f   uafxcw:dlgfile.obj
 0001:00034be0       ??$IID_PPV_ARGS_Helper@UIFileDialog@@@@YAPAPAXPAPAUIFileDialog@@@Z 00435be0 f i uafxcw:dlgfile.obj
 0001:00034bea       ??$IID_PPV_ARGS_Helper@UIFileDialogCustomize@@@@YAPAPAXPAPAUIFileDialogCustomize@@@Z 00435bea f i uafxcw:dlgfile.obj
 0001:00034bf4       ??$IID_PPV_ARGS_Helper@UIFileOpenDialog@@@@YAPAPAXPAPAUIFileOpenDialog@@@Z 00435bf4 f i uafxcw:dlgfile.obj
 0001:00034bfe       ??$IID_PPV_ARGS_Helper@UIShellItem@@@@YAPAPAXPAPAUIShellItem@@@Z 00435bfe f i uafxcw:dlgfile.obj
 0001:00034c08       ??$IID_PPV_ARGS_Helper@UIFileSaveDialog@@@@YAPAPAXPAPAUIFileSaveDialog@@@Z 00435c08 f i uafxcw:dlgfile.obj
 0001:00034c12       ??4GetOpenFileNameW_Type@CCommDlgWrapper@@QAEXP6GHPAUtagOFNW@@@Z@Z 00435c12 f i uafxcw:dlgfile.obj
 0001:00034c20       ??BGetOpenFileNameW_Type@CCommDlgWrapper@@QAEP6GHPAUtagOFNW@@@ZXZ 00435c20 f i uafxcw:dlgfile.obj
 0001:00034c23       ??7GetOpenFileNameW_Type@CCommDlgWrapper@@QBE_NXZ 00435c23 f i uafxcw:dlgfile.obj
 0001:00034c2b       ??4GetSaveFileNameW_Type@CCommDlgWrapper@@QAEXP6GHPAUtagOFNW@@@Z@Z 00435c2b f i uafxcw:dlgfile.obj
 0001:00034c39       ??BGetSaveFileNameW_Type@CCommDlgWrapper@@QAEP6GHPAUtagOFNW@@@ZXZ 00435c39 f i uafxcw:dlgfile.obj
 0001:00034c3c       ??7GetSaveFileNameW_Type@CCommDlgWrapper@@QBE_NXZ 00435c3c f i uafxcw:dlgfile.obj
 0001:00034c44       ?AfxCtxLoadLibraryW@@YAPAUHINSTANCE__@@PB_W@Z 00435c44 f i uafxcw:dlgfile.obj
 0001:00034cd2       ??0CInterfacePlaceHolder@@QAE@XZ 00435cd2 f i uafxcw:dlgfile.obj
 0001:00034cd8       ??1CCommonDialog@@UAE@XZ   00435cd8 f i uafxcw:dlgfile.obj
 0001:00034ce3       ??_GCCommonDialog@@UAEPAXI@Z 00435ce3 f i uafxcw:dlgfile.obj
 0001:00034ce3       ??_ECCommonDialog@@UAEPAXI@Z 00435ce3 f i uafxcw:dlgfile.obj
 0001:00034d0a       ??0CCommonDialog@@QAE@PAVCWnd@@@Z 00435d0a f i uafxcw:dlgfile.obj
 0001:00034d29       ??0IFileDialogEvents@@QAE@XZ 00435d29 f i uafxcw:dlgfile.obj
 0001:00034d2c       ??0IFileDialogControlEvents@@QAE@XZ 00435d2c f i uafxcw:dlgfile.obj
 0001:00034d2f       ?GetIFileOpenDialog@CFileDialog@@QAEPAUIFileOpenDialog@@XZ 00435d2f f   uafxcw:dlgfile.obj
 0001:00034d58       ?GetIFileSaveDialog@CFileDialog@@QAEPAUIFileSaveDialog@@XZ 00435d58 f   uafxcw:dlgfile.obj
 0001:00034d81       ?GetIFileDialogCustomize@CFileDialog@@QAEPAUIFileDialogCustomize@@XZ 00435d81 f   uafxcw:dlgfile.obj
 0001:00034daa       ?AddRef@XFileDialogEvents@CFileDialog@@UAGKXZ 00435daa f   uafxcw:dlgfile.obj
 0001:00034de9       ?Release@XFileDialogEvents@CFileDialog@@UAGKXZ 00435de9 f   uafxcw:dlgfile.obj
 0001:00034e28       ?QueryInterface@XFileDialogEvents@CFileDialog@@UAGJABU_GUID@@PAPAX@Z 00435e28 f   uafxcw:dlgfile.obj
 0001:00034e6d       ?OnFolderChange@XFileDialogEvents@CFileDialog@@UAGJPAUIFileDialog@@@Z 00435e6d f   uafxcw:dlgfile.obj
 0001:00034ead       ?OnFolderChanging@XFileDialogEvents@CFileDialog@@UAGJPAUIFileDialog@@PAUIShellItem@@@Z 00435ead f   uafxcw:dlgfile.obj
 0001:00034edb       ?OnHelp@XFileDialogEvents@CFileDialog@@UAGJPAUIFileDialog@@@Z 00435edb f   uafxcw:dlgfile.obj
 0001:00034f09       ?OnSelectionChange@XFileDialogEvents@CFileDialog@@UAGJPAUIFileDialog@@@Z 00435f09 f   uafxcw:dlgfile.obj
 0001:00034f49       ?OnTypeChange@XFileDialogEvents@CFileDialog@@UAGJPAUIFileDialog@@@Z 00435f49 f   uafxcw:dlgfile.obj
 0001:00034fa6       ?OnOverwrite@XFileDialogEvents@CFileDialog@@UAGJPAUIFileDialog@@PAUIShellItem@@PAW4tagFDE_OVERWRITE_RESPONSE@@@Z 00435fa6 f   uafxcw:dlgfile.obj
 0001:00034fd4       ?AddRef@XFileDialogControlEvents@CFileDialog@@UAGKXZ 00435fd4 f   uafxcw:dlgfile.obj
 0001:00035013       ?Release@XFileDialogControlEvents@CFileDialog@@UAGKXZ 00436013 f   uafxcw:dlgfile.obj
 0001:00035052       ?QueryInterface@XFileDialogControlEvents@CFileDialog@@UAGJABU_GUID@@PAPAX@Z 00436052 f   uafxcw:dlgfile.obj
 0001:000350a2       ?OnItemSelected@XFileDialogControlEvents@CFileDialog@@UAGJPAUIFileDialogCustomize@@KK@Z 004360a2 f   uafxcw:dlgfile.obj
 0001:000350d0       ?OnButtonClicked@XFileDialogControlEvents@CFileDialog@@UAGJPAUIFileDialogCustomize@@K@Z 004360d0 f   uafxcw:dlgfile.obj
 0001:000350fe       ?OnCheckButtonToggled@XFileDialogControlEvents@CFileDialog@@UAGJPAUIFileDialogCustomize@@KH@Z 004360fe f   uafxcw:dlgfile.obj
 0001:0003512c       ?OnControlActivating@XFileDialogControlEvents@CFileDialog@@UAGJPAUIFileDialogCustomize@@K@Z 0043612c f   uafxcw:dlgfile.obj
 0001:0003515a       ?SetControlText@CFileDialog@@QAEXHPB_W@Z 0043615a f   uafxcw:dlgfile.obj
 0001:000351a7       ?HideControl@CFileDialog@@QAEXH@Z 004361a7 f   uafxcw:dlgfile.obj
 0001:000351f2       ?OnInitDone@CFileDialog@@MAEXXZ 004361f2 f   uafxcw:dlgfile.obj
 0001:0003520b       ?OnNotify@CFileDialog@@MAEHIJPAJ@Z 0043620b f   uafxcw:dlgfile.obj
 0001:000352ec       ?GetProcAddress_GetOpenFileNameW@CCommDlgWrapper@@QAE?AUGetOpenFileNameW_Type@1@XZ 004362ec f i uafxcw:dlgfile.obj
 0001:0003531b       ?_GetOpenFileNameW@CCommDlgWrapper@@QAEHPAUtagOFNW@@@Z 0043631b f i uafxcw:dlgfile.obj
 0001:000353c6       ?GetProcAddress_GetSaveFileNameW@CCommDlgWrapper@@QAE?AUGetSaveFileNameW_Type@1@XZ 004363c6 f i uafxcw:dlgfile.obj
 0001:000353f5       ?_GetSaveFileNameW@CCommDlgWrapper@@QAEHPAUtagOFNW@@@Z 004363f5 f i uafxcw:dlgfile.obj
 0001:000354a0       ?AfxCtxGetOpenFileNameW@@YGHPAUtagOFNW@@@Z 004364a0 f i uafxcw:dlgfile.obj
 0001:000354bc       ?AfxCtxGetSaveFileNameW@@YGHPAUtagOFNW@@@Z 004364bc f i uafxcw:dlgfile.obj
 0001:000354d8       ??0XFileDialogEvents@CFileDialog@@QAE@XZ 004364d8 f i uafxcw:dlgfile.obj
 0001:000354e1       ??0XFileDialogControlEvents@CFileDialog@@QAE@XZ 004364e1 f i uafxcw:dlgfile.obj
 0001:000354ea       ??1CFileDialog@@UAE@XZ     004364ea f   uafxcw:dlgfile.obj
 0001:00035588       ??_GCFileDialog@@UAEPAXI@Z 00436588 f i uafxcw:dlgfile.obj
 0001:00035588       ??_ECFileDialog@@UAEPAXI@Z 00436588 f i uafxcw:dlgfile.obj
 0001:000355a9       ?SetControlText@CFileDialog@@QAEXHPBD@Z 004365a9 f   uafxcw:dlgfile.obj
 0001:00035630       ?SetDefExt@CFileDialog@@QAEXPBD@Z 00436630 f   uafxcw:dlgfile.obj
 0001:000356a2       ??0CFileDialog@@QAE@HPB_W0K0PAVCWnd@@KH@Z 004366a2 f   uafxcw:dlgfile.obj
 0001:00035919       ?GetFolderPath@CFileDialog@@QBE?AV?$CStringT@_WV?$StrTraitMFC@_WV?$ChTraitsCRT@_W@ATL@@@@@ATL@@XZ 00436919 f   uafxcw:dlgfile.obj
 0001:000359dd       ?ApplyOFNToShellDialog@CFileDialog@@QAEXXZ 004369dd f   uafxcw:dlgfile.obj
 0001:00035f22       ?OnShareViolation@XFileDialogEvents@CFileDialog@@UAGJPAUIFileDialog@@PAUIShellItem@@PAW4tagFDE_SHAREVIOLATION_RESPONSE@@@Z 00436f22 f   uafxcw:dlgfile.obj
 0001:00035fc7       ?DoModal@CFileDialog@@UAEHXZ 00436fc7 f   uafxcw:dlgfile.obj
 0001:000360f6       ?GetPathName@CFileDialog@@QBE?AV?$CStringT@_WV?$StrTraitMFC@_WV?$ChTraitsCRT@_W@ATL@@@@@ATL@@XZ 004370f6 f   uafxcw:dlgfile.obj
 0001:000362b3       ?GetFileName@CFileDialog@@QBE?AV?$CStringT@_WV?$StrTraitMFC@_WV?$ChTraitsCRT@_W@ATL@@@@@ATL@@XZ 004372b3 f   uafxcw:dlgfile.obj
 0001:000363a6       ?GetFileExt@CFileDialog@@QBE?AV?$CStringT@_WV?$StrTraitMFC@_WV?$ChTraitsCRT@_W@ATL@@@@@ATL@@XZ 004373a6 f   uafxcw:dlgfile.obj
 0001:000364ff       ?GetFileTitle@CFileDialog@@QBE?AV?$CStringT@_WV?$StrTraitMFC@_WV?$ChTraitsCRT@_W@ATL@@@@@ATL@@XZ 004374ff f   uafxcw:dlgfile.obj
 0001:00036548       ?GetNextPathName@CFileDialog@@QBE?AV?$CStringT@_WV?$StrTraitMFC@_WV?$ChTraitsCRT@_W@ATL@@@@@ATL@@AAPAU__POSITION@@@Z 00437548 f   uafxcw:dlgfile.obj
 0001:000367f9       ?UpdateOFNFromShellDialog@CFileDialog@@QAEXXZ 004377f9 f   uafxcw:dlgfile.obj
 0001:00036b7a       ?OnFileOk@XFileDialogEvents@CFileDialog@@UAGJPAUIFileDialog@@@Z 00437b7a f   uafxcw:dlgfile.obj
 0001:00036bc9       ??1?$CThreadLocal@V_AFX_THREAD_STATE@@@@QAE@XZ 00437bc9 f i uafxcw:afxstate.obj
 0001:00036bce       ??1?$CThreadLocal@VAFX_MODULE_THREAD_STATE@@@@QAE@XZ 00437bce f i uafxcw:afxstate.obj
 0001:00036bd3       ?_AfxInitContextAPI@@YGXXZ 00437bd3 f   uafxcw:afxstate.obj
 0001:00036c41       ?AfxCreateActCtxW@@YGPAXPBUtagACTCTXW@@@Z 00437c41 f   uafxcw:afxstate.obj
 0001:00036c59       ?AfxReleaseActCtx@@YGXPAX@Z 00437c59 f   uafxcw:afxstate.obj
 0001:00036c6e       ?AfxActivateActCtx@@YGHPAXPAK@Z 00437c6e f   uafxcw:afxstate.obj
 0001:00036c85       ?AfxDeactivateActCtx@@YGHKK@Z 00437c85 f   uafxcw:afxstate.obj
 0001:00036c9c       ?AfxActivateActCtxWrapper@@YG?AW4eActCtxResult@@PAXPAK@Z 00437c9c f   uafxcw:afxstate.obj
 0001:00036ccf       ?CreateActivationContext@AFX_MODULE_STATE@@QAEXXZ 00437ccf f   uafxcw:afxstate.obj
 0001:00036dcb       ??1?$CProcessLocal@V_AFX_BASE_MODULE_STATE@@@@QAE@XZ 00437dcb f i uafxcw:afxstate.obj
 0001:00036dd0       ?Unlock@CTypeLibCache@@QAEXXZ 00437dd0 f   uafxcw:afxstate.obj
 0001:00036e07       ?AfxSetPerUserRegistration@@YGXH@Z 00437e07 f   uafxcw:afxstate.obj
 0001:00036e18       ?AfxGetPerUserRegistration@@YGHXZ 00437e18 f   uafxcw:afxstate.obj
 0001:00036e1e       ??0CSimpleList@@QAE@H@Z    00437e1e f i uafxcw:afxstate.obj
 0001:00036e32       ?Construct@CSimpleList@@QAEXH@Z 00437e32 f i uafxcw:afxstate.obj
 0001:00036e41       ??0CTypeLibCache@@QAE@XZ   00437e41 f i uafxcw:afxstate.obj
 0001:00036e53       ?SetAt@CMapPtrToPtr@@QAEXPAX0@Z 00437e53 f i uafxcw:afxstate.obj
 0001:00036e69       ?GetStartPosition@CMapPtrToPtr@@QBEPAU__POSITION@@XZ 00437e69 f i uafxcw:afxstate.obj
 0001:00036e71       ?CommonConstruct@CDllIsolationWrapperBase@@QAEXXZ 00437e71 f i uafxcw:afxstate.obj
 0001:00036e7a       ??0InitCommonControls_Type@CComCtlWrapper@@QAE@XZ 00437e7a f i uafxcw:afxstate.obj
 0001:00036e80       ??0InitCommonControlsEx_Type@CComCtlWrapper@@QAE@XZ 00437e80 f i uafxcw:afxstate.obj
 0001:00036e86       ??0ImageList_Create_Type@CComCtlWrapper@@QAE@XZ 00437e86 f i uafxcw:afxstate.obj
 0001:00036e8c       ??0ImageList_Destroy_Type@CComCtlWrapper@@QAE@XZ 00437e8c f i uafxcw:afxstate.obj
 0001:00036e92       ??0ImageList_GetImageCount_Type@CComCtlWrapper@@QAE@XZ 00437e92 f i uafxcw:afxstate.obj
 0001:00036e98       ??0ImageList_SetImageCount_Type@CComCtlWrapper@@QAE@XZ 00437e98 f i uafxcw:afxstate.obj
 0001:00036e9e       ??0ImageList_Add_Type@CComCtlWrapper@@QAE@XZ 00437e9e f i uafxcw:afxstate.obj
 0001:00036ea4       ??0ImageList_ReplaceIcon_Type@CComCtlWrapper@@QAE@XZ 00437ea4 f i uafxcw:afxstate.obj
 0001:00036eaa       ??0ImageList_SetBkColor_Type@CComCtlWrapper@@QAE@XZ 00437eaa f i uafxcw:afxstate.obj
 0001:00036eb0       ??0ImageList_GetBkColor_Type@CComCtlWrapper@@QAE@XZ 00437eb0 f i uafxcw:afxstate.obj
 0001:00036eb6       ??0ImageList_SetOverlayImage_Type@CComCtlWrapper@@QAE@XZ 00437eb6 f i uafxcw:afxstate.obj
 0001:00036ebc       ??0ImageList_Draw_Type@CComCtlWrapper@@QAE@XZ 00437ebc f i uafxcw:afxstate.obj
 0001:00036ec2       ??0ImageList_Replace_Type@CComCtlWrapper@@QAE@XZ 00437ec2 f i uafxcw:afxstate.obj
 0001:00036ec8       ??0ImageList_AddMasked_Type@CComCtlWrapper@@QAE@XZ 00437ec8 f i uafxcw:afxstate.obj
 0001:00036ece       ??0ImageList_DrawEx_Type@CComCtlWrapper@@QAE@XZ 00437ece f i uafxcw:afxstate.obj
 0001:00036ed4       ??0ImageList_DrawIndirect_Type@CComCtlWrapper@@QAE@XZ 00437ed4 f i uafxcw:afxstate.obj
 0001:00036eda       ??0ImageList_Remove_Type@CComCtlWrapper@@QAE@XZ 00437eda f i uafxcw:afxstate.obj
 0001:00036ee0       ??0ImageList_GetIcon_Type@CComCtlWrapper@@QAE@XZ 00437ee0 f i uafxcw:afxstate.obj
 0001:00036ee6       ??0ImageList_LoadImageA_Type@CComCtlWrapper@@QAE@XZ 00437ee6 f i uafxcw:afxstate.obj
 0001:00036eec       ??0ImageList_LoadImageW_Type@CComCtlWrapper@@QAE@XZ 00437eec f i uafxcw:afxstate.obj
 0001:00036ef2       ??0ImageList_Copy_Type@CComCtlWrapper@@QAE@XZ 00437ef2 f i uafxcw:afxstate.obj
 0001:00036ef8       ??0ImageList_BeginDrag_Type@CComCtlWrapper@@QAE@XZ 00437ef8 f i uafxcw:afxstate.obj
 0001:00036efe       ??0ImageList_EndDrag_Type@CComCtlWrapper@@QAE@XZ 00437efe f i uafxcw:afxstate.obj
 0001:00036f04       ??0ImageList_DragEnter_Type@CComCtlWrapper@@QAE@XZ 00437f04 f i uafxcw:afxstate.obj
 0001:00036f0a       ??0ImageList_DragLeave_Type@CComCtlWrapper@@QAE@XZ 00437f0a f i uafxcw:afxstate.obj
 0001:00036f10       ??0ImageList_DragMove_Type@CComCtlWrapper@@QAE@XZ 00437f10 f i uafxcw:afxstate.obj
 0001:00036f16       ??0ImageList_SetDragCursorImage_Type@CComCtlWrapper@@QAE@XZ 00437f16 f i uafxcw:afxstate.obj
 0001:00036f1c       ??0ImageList_DragShowNolock_Type@CComCtlWrapper@@QAE@XZ 00437f1c f i uafxcw:afxstate.obj
 0001:00036f22       ??0ImageList_GetDragImage_Type@CComCtlWrapper@@QAE@XZ 00437f22 f i uafxcw:afxstate.obj
 0001:00036f28       ??0ImageList_Read_Type@CComCtlWrapper@@QAE@XZ 00437f28 f i uafxcw:afxstate.obj
 0001:00036f2e       ??0ImageList_Write_Type@CComCtlWrapper@@QAE@XZ 00437f2e f i uafxcw:afxstate.obj
 0001:00036f34       ??0ImageList_ReadEx_Type@CComCtlWrapper@@QAE@XZ 00437f34 f i uafxcw:afxstate.obj
 0001:00036f3a       ??0ImageList_WriteEx_Type@CComCtlWrapper@@QAE@XZ 00437f3a f i uafxcw:afxstate.obj
 0001:00036f40       ??0ImageList_GetIconSize_Type@CComCtlWrapper@@QAE@XZ 00437f40 f i uafxcw:afxstate.obj
 0001:00036f46       ??0ImageList_SetIconSize_Type@CComCtlWrapper@@QAE@XZ 00437f46 f i uafxcw:afxstate.obj
 0001:00036f4c       ??0ImageList_GetImageInfo_Type@CComCtlWrapper@@QAE@XZ 00437f4c f i uafxcw:afxstate.obj
 0001:00036f52       ??0ImageList_Merge_Type@CComCtlWrapper@@QAE@XZ 00437f52 f i uafxcw:afxstate.obj
 0001:00036f58       ??0ImageList_Duplicate_Type@CComCtlWrapper@@QAE@XZ 00437f58 f i uafxcw:afxstate.obj
 0001:00036f5e       ??0CreateToolbarEx_Type@CComCtlWrapper@@QAE@XZ 00437f5e f i uafxcw:afxstate.obj
 0001:00036f64       ??0CreateMappedBitmap_Type@CComCtlWrapper@@QAE@XZ 00437f64 f i uafxcw:afxstate.obj
 0001:00036f6a       ??0DrawStatusTextA_Type@CComCtlWrapper@@QAE@XZ 00437f6a f i uafxcw:afxstate.obj
 0001:00036f70       ??0DrawStatusTextW_Type@CComCtlWrapper@@QAE@XZ 00437f70 f i uafxcw:afxstate.obj
 0001:00036f76       ??0CreateStatusWindowA_Type@CComCtlWrapper@@QAE@XZ 00437f76 f i uafxcw:afxstate.obj
 0001:00036f7c       ??0CreateStatusWindowW_Type@CComCtlWrapper@@QAE@XZ 00437f7c f i uafxcw:afxstate.obj
 0001:00036f82       ??0MenuHelp_Type@CComCtlWrapper@@QAE@XZ 00437f82 f i uafxcw:afxstate.obj
 0001:00036f88       ??0ShowHideMenuCtl_Type@CComCtlWrapper@@QAE@XZ 00437f88 f i uafxcw:afxstate.obj
 0001:00036f8e       ??0GetEffectiveClientRect_Type@CComCtlWrapper@@QAE@XZ 00437f8e f i uafxcw:afxstate.obj
 0001:00036f94       ??0MakeDragList_Type@CComCtlWrapper@@QAE@XZ 00437f94 f i uafxcw:afxstate.obj
 0001:00036f9a       ??0DrawInsert_Type@CComCtlWrapper@@QAE@XZ 00437f9a f i uafxcw:afxstate.obj
 0001:00036fa0       ??0LBItemFromPt_Type@CComCtlWrapper@@QAE@XZ 00437fa0 f i uafxcw:afxstate.obj
 0001:00036fa6       ??0CreateUpDownControl_Type@CComCtlWrapper@@QAE@XZ 00437fa6 f i uafxcw:afxstate.obj
 0001:00036fac       ??0InitMUILanguage_Type@CComCtlWrapper@@QAE@XZ 00437fac f i uafxcw:afxstate.obj
 0001:00036fb2       ??0GetMUILanguage_Type@CComCtlWrapper@@QAE@XZ 00437fb2 f i uafxcw:afxstate.obj
 0001:00036fb8       ??0DSA_Create_Type@CComCtlWrapper@@QAE@XZ 00437fb8 f i uafxcw:afxstate.obj
 0001:00036fbe       ??0DSA_Destroy_Type@CComCtlWrapper@@QAE@XZ 00437fbe f i uafxcw:afxstate.obj
 0001:00036fc4       ??0DSA_DestroyCallback_Type@CComCtlWrapper@@QAE@XZ 00437fc4 f i uafxcw:afxstate.obj
 0001:00036fca       ??0DSA_GetItemPtr_Type@CComCtlWrapper@@QAE@XZ 00437fca f i uafxcw:afxstate.obj
 0001:00036fd0       ??0DSA_InsertItem_Type@CComCtlWrapper@@QAE@XZ 00437fd0 f i uafxcw:afxstate.obj
 0001:00036fd6       ??0DPA_Create_Type@CComCtlWrapper@@QAE@XZ 00437fd6 f i uafxcw:afxstate.obj
 0001:00036fdc       ??0DPA_Destroy_Type@CComCtlWrapper@@QAE@XZ 00437fdc f i uafxcw:afxstate.obj
 0001:00036fe2       ??0DPA_DeletePtr_Type@CComCtlWrapper@@QAE@XZ 00437fe2 f i uafxcw:afxstate.obj
 0001:00036fe8       ??0DPA_DeleteAllPtrs_Type@CComCtlWrapper@@QAE@XZ 00437fe8 f i uafxcw:afxstate.obj
 0001:00036fee       ??0DPA_EnumCallback_Type@CComCtlWrapper@@QAE@XZ 00437fee f i uafxcw:afxstate.obj
 0001:00036ff4       ??0DPA_DestroyCallback_Type@CComCtlWrapper@@QAE@XZ 00437ff4 f i uafxcw:afxstate.obj
 0001:00036ffa       ??0DPA_SetPtr_Type@CComCtlWrapper@@QAE@XZ 00437ffa f i uafxcw:afxstate.obj
 0001:00037000       ??0DPA_InsertPtr_Type@CComCtlWrapper@@QAE@XZ 00438000 f i uafxcw:afxstate.obj
 0001:00037006       ??0DPA_GetPtr_Type@CComCtlWrapper@@QAE@XZ 00438006 f i uafxcw:afxstate.obj
 0001:0003700c       ??0DPA_Sort_Type@CComCtlWrapper@@QAE@XZ 0043800c f i uafxcw:afxstate.obj
 0001:00037012       ??0DPA_Search_Type@CComCtlWrapper@@QAE@XZ 00438012 f i uafxcw:afxstate.obj
 0001:00037018       ??0Str_SetPtrW_Type@CComCtlWrapper@@QAE@XZ 00438018 f i uafxcw:afxstate.obj
 0001:0003701e       ??0_TrackMouseEvent_Type@CComCtlWrapper@@QAE@XZ 0043801e f i uafxcw:afxstate.obj
 0001:00037024       ??0FlatSB_EnableScrollBar_Type@CComCtlWrapper@@QAE@XZ 00438024 f i uafxcw:afxstate.obj
 0001:0003702a       ??0FlatSB_ShowScrollBar_Type@CComCtlWrapper@@QAE@XZ 0043802a f i uafxcw:afxstate.obj
 0001:00037030       ??0FlatSB_GetScrollRange_Type@CComCtlWrapper@@QAE@XZ 00438030 f i uafxcw:afxstate.obj
 0001:00037036       ??0FlatSB_GetScrollInfo_Type@CComCtlWrapper@@QAE@XZ 00438036 f i uafxcw:afxstate.obj
 0001:0003703c       ??0FlatSB_GetScrollPos_Type@CComCtlWrapper@@QAE@XZ 0043803c f i uafxcw:afxstate.obj
 0001:00037042       ??0FlatSB_GetScrollProp_Type@CComCtlWrapper@@QAE@XZ 00438042 f i uafxcw:afxstate.obj
 0001:00037048       ??0FlatSB_GetScrollPropPtr_Type@CComCtlWrapper@@QAE@XZ 00438048 f i uafxcw:afxstate.obj
 0001:0003704e       ??0FlatSB_SetScrollPos_Type@CComCtlWrapper@@QAE@XZ 0043804e f i uafxcw:afxstate.obj
 0001:00037054       ??0FlatSB_SetScrollInfo_Type@CComCtlWrapper@@QAE@XZ 00438054 f i uafxcw:afxstate.obj
 0001:0003705a       ??0FlatSB_SetScrollRange_Type@CComCtlWrapper@@QAE@XZ 0043805a f i uafxcw:afxstate.obj
 0001:00037060       ??0FlatSB_SetScrollProp_Type@CComCtlWrapper@@QAE@XZ 00438060 f i uafxcw:afxstate.obj
 0001:00037066       ??0InitializeFlatSB_Type@CComCtlWrapper@@QAE@XZ 00438066 f i uafxcw:afxstate.obj
 0001:0003706c       ??0UninitializeFlatSB_Type@CComCtlWrapper@@QAE@XZ 0043806c f i uafxcw:afxstate.obj
 0001:00037072       ??0SetWindowSubclass_Type@CComCtlWrapper@@QAE@XZ 00438072 f i uafxcw:afxstate.obj
 0001:00037078       ??0GetWindowSubclass_Type@CComCtlWrapper@@QAE@XZ 00438078 f i uafxcw:afxstate.obj
 0001:0003707e       ??0RemoveWindowSubclass_Type@CComCtlWrapper@@QAE@XZ 0043807e f i uafxcw:afxstate.obj
 0001:00037084       ??0DefSubclassProc_Type@CComCtlWrapper@@QAE@XZ 00438084 f i uafxcw:afxstate.obj
 0001:0003708a       ??0DrawShadowText_Type@CComCtlWrapper@@QAE@XZ 0043808a f i uafxcw:afxstate.obj
 0001:00037090       ??0CreatePropertySheetPageA_Type@CComCtlWrapper@@QAE@XZ 00438090 f i uafxcw:afxstate.obj
 0001:00037096       ??0CreatePropertySheetPageW_Type@CComCtlWrapper@@QAE@XZ 00438096 f i uafxcw:afxstate.obj
 0001:0003709c       ??0DestroyPropertySheetPage_Type@CComCtlWrapper@@QAE@XZ 0043809c f i uafxcw:afxstate.obj
 0001:000370a2       ??0PropertySheetA_Type@CComCtlWrapper@@QAE@XZ 004380a2 f i uafxcw:afxstate.obj
 0001:000370a8       ??0PropertySheetW_Type@CComCtlWrapper@@QAE@XZ 004380a8 f i uafxcw:afxstate.obj
 0001:000370ae       ??0GetOpenFileNameA_Type@CCommDlgWrapper@@QAE@XZ 004380ae f i uafxcw:afxstate.obj
 0001:000370b4       ??0GetOpenFileNameW_Type@CCommDlgWrapper@@QAE@XZ 004380b4 f i uafxcw:afxstate.obj
 0001:000370ba       ??0GetSaveFileNameA_Type@CCommDlgWrapper@@QAE@XZ 004380ba f i uafxcw:afxstate.obj
 0001:000370c0       ??0GetSaveFileNameW_Type@CCommDlgWrapper@@QAE@XZ 004380c0 f i uafxcw:afxstate.obj
 0001:000370c6       ??0GetFileTitleA_Type@CCommDlgWrapper@@QAE@XZ 004380c6 f i uafxcw:afxstate.obj
 0001:000370cc       ??0GetFileTitleW_Type@CCommDlgWrapper@@QAE@XZ 004380cc f i uafxcw:afxstate.obj
 0001:000370d2       ??0ChooseColorA_Type@CCommDlgWrapper@@QAE@XZ 004380d2 f i uafxcw:afxstate.obj
 0001:000370d8       ??0ChooseColorW_Type@CCommDlgWrapper@@QAE@XZ 004380d8 f i uafxcw:afxstate.obj
 0001:000370de       ??0FindTextA_Type@CCommDlgWrapper@@QAE@XZ 004380de f i uafxcw:afxstate.obj
 0001:000370e4       ??0FindTextW_Type@CCommDlgWrapper@@QAE@XZ 004380e4 f i uafxcw:afxstate.obj
 0001:000370ea       ??0ReplaceTextA_Type@CCommDlgWrapper@@QAE@XZ 004380ea f i uafxcw:afxstate.obj
 0001:000370f0       ??0ReplaceTextW_Type@CCommDlgWrapper@@QAE@XZ 004380f0 f i uafxcw:afxstate.obj
 0001:000370f6       ??0ChooseFontA_Type@CCommDlgWrapper@@QAE@XZ 004380f6 f i uafxcw:afxstate.obj
 0001:000370fc       ??0ChooseFontW_Type@CCommDlgWrapper@@QAE@XZ 004380fc f i uafxcw:afxstate.obj
 0001:00037102       ??0PrintDlgA_Type@CCommDlgWrapper@@QAE@XZ 00438102 f i uafxcw:afxstate.obj
 0001:00037108       ??0PrintDlgW_Type@CCommDlgWrapper@@QAE@XZ 00438108 f i uafxcw:afxstate.obj
 0001:0003710e       ??0CommDlgExtendedError_Type@CCommDlgWrapper@@QAE@XZ 0043810e f i uafxcw:afxstate.obj
 0001:00037114       ??0PageSetupDlgA_Type@CCommDlgWrapper@@QAE@XZ 00438114 f i uafxcw:afxstate.obj
 0001:0003711a       ??0PageSetupDlgW_Type@CCommDlgWrapper@@QAE@XZ 0043811a f i uafxcw:afxstate.obj
 0001:00037120       ??0PrintDlgExA_Type@CCommDlgWrapper@@QAE@XZ 00438120 f i uafxcw:afxstate.obj
 0001:00037126       ??0PrintDlgExW_Type@CCommDlgWrapper@@QAE@XZ 00438126 f i uafxcw:afxstate.obj
 0001:0003712c       ??0InitNetworkAddressControl_Type@CShellWrapper@@QAE@XZ 0043812c f i uafxcw:afxstate.obj
 0001:00037132       ??0_AFX_THREAD_STATE@@QAE@XZ 00438132 f   uafxcw:afxstate.obj
 0001:0003714b       ??1_AFX_THREAD_STATE@@UAE@XZ 0043814b f   uafxcw:afxstate.obj
 0001:00037182       ?RemoveAll@CTypeLibCacheMap@@UAEXPAX@Z 00438182 f   uafxcw:afxstate.obj
 0001:000371f2       ??1AFX_MODULE_THREAD_STATE@@UAE@XZ 004381f2 f   uafxcw:afxstate.obj
 0001:000372a0       ??0?$CTypedSimpleList@PAVCFrameWnd@@@@QAE@H@Z 004382a0 f i uafxcw:afxstate.obj
 0001:000372b4       ??0?$CTypedSimpleList@PAUCRuntimeClass@@@@QAE@H@Z 004382b4 f i uafxcw:afxstate.obj
 0001:000372c8       ??0?$CTypedSimpleList@PAVCOleObjectFactory@@@@QAE@H@Z 004382c8 f i uafxcw:afxstate.obj
 0001:000372dc       ??0?$CTypedSimpleList@PAVCOleControlLock@@@@QAE@H@Z 004382dc f i uafxcw:afxstate.obj
 0001:000372f0       ??_E_AFX_THREAD_STATE@@UAEPAXI@Z 004382f0 f i uafxcw:afxstate.obj
 0001:000372f0       ??_G_AFX_THREAD_STATE@@UAEPAXI@Z 004382f0 f i uafxcw:afxstate.obj
 0001:00037310       ??0AFX_MODULE_THREAD_STATE@@QAE@XZ 00438310 f   uafxcw:afxstate.obj
 0001:0003733a       ??_GAFX_MODULE_THREAD_STATE@@UAEPAXI@Z 0043833a f i uafxcw:afxstate.obj
 0001:0003733a       ??_EAFX_MODULE_THREAD_STATE@@UAEPAXI@Z 0043833a f i uafxcw:afxstate.obj
 0001:0003735a       ??B?$CThreadLocal@V_AFX_THREAD_STATE@@@@QAEPAV_AFX_THREAD_STATE@@XZ 0043835a f i uafxcw:afxstate.obj
 0001:0003735f       ?AfxGetThreadState@@YGPAV_AFX_THREAD_STATE@@XZ 0043835f f   uafxcw:afxstate.obj
 0001:00037378       ??1AFX_MODULE_STATE@@UAE@XZ 00438378 f   uafxcw:afxstate.obj
 0001:0003741b       ??0CDllIsolationWrapperBase@@QAE@ABV?$CStringT@_WV?$StrTraitMFC@_WV?$ChTraitsCRT@_W@ATL@@@@@ATL@@@Z 0043841b f i uafxcw:afxstate.obj
 0001:00037443       ??1CDllIsolationWrapperBase@@UAE@XZ 00438443 f i uafxcw:afxstate.obj
 0001:00037469       ??_GCDllIsolationWrapperBase@@UAEPAXI@Z 00438469 f i uafxcw:afxstate.obj
 0001:00037469       ??_ECDllIsolationWrapperBase@@UAEPAXI@Z 00438469 f i uafxcw:afxstate.obj
 0001:00037489       ?Preallocate@?$CSimpleStringT@_W$0A@@ATL@@QAEXH@Z 00438489 f i uafxcw:afxstate.obj
 0001:00037494       ??_GAFX_MODULE_STATE@@UAEPAXI@Z 00438494 f i uafxcw:afxstate.obj
 0001:00037494       ??_EAFX_MODULE_STATE@@UAEPAXI@Z 00438494 f i uafxcw:afxstate.obj
 0001:000374b4       ??0CComCtlWrapper@@QAE@XZ  004384b4 f i uafxcw:afxstate.obj
 0001:000376d8       ??1CComCtlWrapper@@UAE@XZ  004386d8 f i uafxcw:afxstate.obj
 0001:000376dd       ??_GCComCtlWrapper@@UAEPAXI@Z 004386dd f i uafxcw:afxstate.obj
 0001:000376dd       ??_ECComCtlWrapper@@UAEPAXI@Z 004386dd f i uafxcw:afxstate.obj
 0001:000376fd       ??0CCommDlgWrapper@@QAE@XZ 004386fd f i uafxcw:afxstate.obj
 0001:00037780       ??1CCommDlgWrapper@@UAE@XZ 00438780 f i uafxcw:afxstate.obj
 0001:00037785       ??_ECCommDlgWrapper@@UAEPAXI@Z 00438785 f i uafxcw:afxstate.obj
 0001:00037785       ??_GCCommDlgWrapper@@UAEPAXI@Z 00438785 f i uafxcw:afxstate.obj
 0001:000377a5       ??0CShellWrapper@@QAE@XZ   004387a5 f i uafxcw:afxstate.obj
 0001:000377ec       ??1CShellWrapper@@UAE@XZ   004387ec f i uafxcw:afxstate.obj
 0001:000377f1       ??_ECShellWrapper@@UAEPAXI@Z 004387f1 f i uafxcw:afxstate.obj
 0001:000377f1       ??_GCShellWrapper@@UAEPAXI@Z 004387f1 f i uafxcw:afxstate.obj
 0001:00037811       ??0AFX_MODULE_STATE@@QAE@H@Z 00438811 f   uafxcw:afxstate.obj
 0001:0003794c       ??0_AFX_BASE_MODULE_STATE@@QAE@XZ 0043894c f i uafxcw:afxstate.obj
 0001:00037962       ??1_AFX_BASE_MODULE_STATE@@UAE@XZ 00438962 f i uafxcw:afxstate.obj
 0001:00037967       ??_G_AFX_BASE_MODULE_STATE@@UAEPAXI@Z 00438967 f i uafxcw:afxstate.obj
 0001:00037967       ??_E_AFX_BASE_MODULE_STATE@@UAEPAXI@Z 00438967 f i uafxcw:afxstate.obj
 0001:00037987       ?CreateObject@?$CProcessLocal@V_AFX_BASE_MODULE_STATE@@@@SGPAVCNoTrackObject@@XZ 00438987 f i uafxcw:afxstate.obj
 0001:000379b6       ?GetData@?$CProcessLocal@V_AFX_BASE_MODULE_STATE@@@@QAEPAV_AFX_BASE_MODULE_STATE@@XZ 004389b6 f i uafxcw:afxstate.obj
 0001:000379ca       ?AfxGetAppModuleState@@YGPAVAFX_MODULE_STATE@@XZ 004389ca f   uafxcw:afxstate.obj
 0001:000379e3       ?AfxGetModuleState@@YGPAVAFX_MODULE_STATE@@XZ 004389e3 f   uafxcw:afxstate.obj
 0001:00037a16       ?AfxGetInstanceHandleHelper@@YGPAUHINSTANCE__@@XZ 00438a16 f   uafxcw:afxstate.obj
 0001:00037a1f       ?AfxIsModuleDll@@YGHXZ     00438a1f f   uafxcw:afxstate.obj
 0001:00037a29       ?AfxInitCurrentStateApp@@YGHXZ 00438a29 f   uafxcw:afxstate.obj
 0001:00037a58       ?AfxGetModuleThreadState@@YGPAVAFX_MODULE_THREAD_STATE@@XZ 00438a58 f   uafxcw:afxstate.obj
 0001:00037a71       ?AfxGetAmbientActCtx@@YGHXZ 00438a71 f i uafxcw:afxstate.obj
 0001:00037a7a       ??0AFX_MAINTAIN_STATE2@@QAE@PAVAFX_MODULE_STATE@@@Z 00438a7a f   uafxcw:afxstate.obj
 0001:00037ab2       ?DrawItem@CMenu@@UAEXPAUtagDRAWITEMSTRUCT@@@Z 00438ab2 f   uafxcw:winmenu.obj
 0001:00037ab5       ?MeasureItem@CMenu@@UAEXPAUtagMEASUREITEMSTRUCT@@@Z 00438ab5 f   uafxcw:winmenu.obj
 0001:00037ab8       ?GetRuntimeClass@CMenu@@UBEPAUCRuntimeClass@@XZ 00438ab8 f   uafxcw:winmenu.obj
 0001:00037abe       ?Destruct@?$ConstructDestruct@VCMenu@@@@SGXPAVCObject@@@Z 00438abe f i uafxcw:winmenu.obj
 0001:00037ad1       ?GetObjectW@CGdiObject@@QBEHHPAX@Z 00438ad1 f i uafxcw:winmenu.obj
 0001:00037ae9       ?GetMenuItemInfoW@CMenu@@QAEHIPAUtagMENUITEMINFOW@@H@Z 00438ae9 f i uafxcw:winmenu.obj
 0001:00037b04       ?CreateObject@CMenu@@SGPAVCObject@@XZ 00438b04 f   uafxcw:winmenu.obj
 0001:00037b1e       ?Construct@?$ConstructDestruct@VCMenu@@@@SGXPAVCObject@@@Z 00438b1e f i uafxcw:winmenu.obj
 0001:00037b38       ?afxMapHMENU@@YGPAVCHandleMap@@H@Z 00438b38 f   uafxcw:winmenu.obj
 0001:00037bac       ?FromHandle@CMenu@@SGPAV1@PAUHMENU__@@@Z 00438bac f   uafxcw:winmenu.obj
 0001:00037bc0       ?FromHandlePermanent@CMenu@@SGPAV1@PAUHMENU__@@@Z 00438bc0 f   uafxcw:winmenu.obj
 0001:00037be1       ?Attach@CMenu@@QAEHPAUHMENU__@@@Z 00438be1 f   uafxcw:winmenu.obj
 0001:00037c0d       ?Detach@CMenu@@QAEPAUHMENU__@@XZ 00438c0d f   uafxcw:winmenu.obj
 0001:00037c39       ?DestroyMenu@CMenu@@QAEHXZ 00438c39 f   uafxcw:winmenu.obj
 0001:00037c4f       ?ExtTextOutW@CDC@@QAEHHHIPBUtagRECT@@ABV?$CStringT@_WV?$StrTraitMFC@_WV?$ChTraitsCRT@_W@ATL@@@@@ATL@@PAH@Z 00438c4f f i uafxcw:winmenu.obj
 0001:00037c7a       ?GetTextExtent@CDC@@QBE?AVCSize@@ABV?$CStringT@_WV?$StrTraitMFC@_WV?$ChTraitsCRT@_W@ATL@@@@@ATL@@@Z 00438c7a f i uafxcw:winmenu.obj
 0001:00037ca9       ?GetMenuStringW@CMenu@@QBEHIAAV?$CStringT@_WV?$StrTraitMFC@_WV?$ChTraitsCRT@_W@ATL@@@@@ATL@@I@Z 00438ca9 f   uafxcw:winmenu.obj
 0001:00037d04       ?MeasureItem@CChevronOwnerDrawMenu@@UAEXPAUtagMEASUREITEMSTRUCT@@@Z 00438d04 f   uafxcw:winmenu.obj
 0001:00037e47       ??0CChevronOwnerDrawMenu@@QAE@XZ 00438e47 f   uafxcw:winmenu.obj
 0001:00037ebf       ??_GCChevronOwnerDrawMenu@@UAEPAXI@Z 00438ebf f i uafxcw:winmenu.obj
 0001:00037ebf       ??_ECChevronOwnerDrawMenu@@UAEPAXI@Z 00438ebf f i uafxcw:winmenu.obj
 0001:00037ee0       ?DrawItem@CChevronOwnerDrawMenu@@UAEXPAUtagDRAWITEMSTRUCT@@@Z 00438ee0 f   uafxcw:winmenu.obj
 0001:0003834d       ?OnOK@CCommonDialog@@MAEXXZ 0043934d f   uafxcw:dlgcomm.obj
 0001:00038367       ?OnCancel@CCommonDialog@@MAEXXZ 00439367 f   uafxcw:dlgcomm.obj
 0001:0003836c       ?OnHelpInfo@CCommonDialog@@IAEHPAUtagHELPINFO@@@Z 0043936c f   uafxcw:dlgcomm.obj
 0001:0003837a       ?OnPaint@CCommonDialog@@IAEXXZ 0043937a f   uafxcw:dlgcomm.obj
 0001:0003837f       ?GetRuntimeClass@CCommonDialog@@UBEPAUCRuntimeClass@@XZ 0043937f f   uafxcw:dlgcomm.obj
 0001:00038385       ?GetThisMessageMap@CCommonDialog@@KGPBUAFX_MSGMAP@@XZ 00439385 f   uafxcw:dlgcomm.obj
 0001:0003838b       ?GetMessageMap@CCommonDialog@@MBEPBUAFX_MSGMAP@@XZ 0043938b f   uafxcw:dlgcomm.obj
 0001:00038391       ?_AfxCommDlgProc@@YGIPAUHWND__@@IIJ@Z 00439391 f   uafxcw:dlgcomm.obj
 0001:00038539       ?GetRuntimeClass@CPtrArray@@UBEPAUCRuntimeClass@@XZ 00439539 f   uafxcw:array_p.obj
 0001:0003853f       ?SetAt@CPtrArray@@QAEXHPAX@Z 0043953f f i uafxcw:array_p.obj
 0001:00038563       ??0CPtrArray@@QAE@XZ       00439563 f   uafxcw:array_p.obj
 0001:0003857a       ??1CPtrArray@@UAE@XZ       0043957a f   uafxcw:array_p.obj
 0001:0003858a       ?SetSize@CPtrArray@@QAEXHH@Z 0043958a f   uafxcw:array_p.obj
 0001:000386b0       ?Append@CPtrArray@@QAEHABV1@@Z 004396b0 f   uafxcw:array_p.obj
 0001:000386f9       ?Copy@CPtrArray@@QAEXABV1@@Z 004396f9 f   uafxcw:array_p.obj
 0001:0003872f       ?FreeExtra@CPtrArray@@QAEXXZ 0043972f f   uafxcw:array_p.obj
 0001:00038777       ?SetAtGrow@CPtrArray@@QAEXHPAX@Z 00439777 f   uafxcw:array_p.obj
 0001:000387ab       ?InsertAt@CPtrArray@@QAEXHPAXH@Z 004397ab f   uafxcw:array_p.obj
 0001:00038851       ?RemoveAt@CPtrArray@@QAEXHH@Z 00439851 f   uafxcw:array_p.obj
 0001:000388a9       ?InsertAt@CPtrArray@@QAEXHPAV1@@Z 004398a9 f   uafxcw:array_p.obj
 0001:00038909       ??_GCPtrArray@@UAEPAXI@Z   00439909 f i uafxcw:array_p.obj
 0001:00038909       ??_ECPtrArray@@UAEPAXI@Z   00439909 f i uafxcw:array_p.obj
 0001:0003892a       ??1?$CProcessLocal@U_AFX_PROPPAGEFONTINFO@@@@QAE@XZ 0043992a f i uafxcw:ccdata.obj
 0001:00038947       ??0_AFX_PROPPAGEFONTINFO@@QAE@XZ 00439947 f i uafxcw:ccdata.obj
 0001:0003895a       ??1_AFX_PROPPAGEFONTINFO@@UAE@XZ 0043995a f i uafxcw:ccdata.obj
 0001:0003896a       ??_G_AFX_PROPPAGEFONTINFO@@UAEPAXI@Z 0043996a f i uafxcw:ccdata.obj
 0001:0003896a       ??_E_AFX_PROPPAGEFONTINFO@@UAEPAXI@Z 0043996a f i uafxcw:ccdata.obj
 0001:00038a1f       ?CreateObject@?$CProcessLocal@U_AFX_PROPPAGEFONTINFO@@@@SGPAVCNoTrackObject@@XZ 00439a1f f i uafxcw:ccdata.obj
 0001:00038a3e       ?GetData@?$CProcessLocal@U_AFX_PROPPAGEFONTINFO@@@@QAEPAU_AFX_PROPPAGEFONTINFO@@XZ 00439a3e f i uafxcw:ccdata.obj
 0001:00038a52       ?AfxGetPropSheetFont@@YGHAAV?$CStringT@_WV?$StrTraitMFC@_WV?$ChTraitsCRT@_W@ATL@@@@@ATL@@AAGH@Z 00439a52 f   uafxcw:ccdata.obj
 0001:00038b9d       ?AfxIsValidAtom@@YAHG@Z    00439b9d f   uafxcw:validadd.obj
 0001:00038c20       ?AfxIsValidAtom@@YAHPB_W@Z 00439c20 f   uafxcw:validadd.obj
 0001:00038c46       ?AtlIsValidString@ATL@@YAHPBDI@Z 00439c46 f i uafxcw:validadd.obj
 0001:00038c55       ?AtlIsValidAddress@ATL@@YAHPBXIH@Z 00439c55 f i uafxcw:validadd.obj
 0001:00038c64       ?AfxIsValidString@@YGHPB_WH@Z 00439c64 f   uafxcw:validadd.obj
 0001:00038c75       ?AfxIsValidString@@YGHPBDH@Z 00439c75 f   uafxcw:validadd.obj
 0001:00038c86       ?AfxIsValidAddress@@YGHPBXIH@Z 00439c86 f   uafxcw:validadd.obj
 0001:00038c97       ?_AfxQueryInterface@@YGPAUIUnknown@@PAU1@ABU_GUID@@@Z 00439c97 f   uafxcw:oleunk.obj
 0001:00038cbd       ?_AfxRelease@@YGKPAPAUIUnknown@@@Z 00439cbd f   uafxcw:oleunk.obj
 0001:00038cde       ?_AfxReleaseManagedRefs@@YGXPAUIUnknown@@@Z 00439cde f   uafxcw:oleunk.obj
 0001:00038d36       ?GetInterface@CCmdTarget@@QAEPAUIUnknown@@PBX@Z 00439d36 f   uafxcw:oleunk.obj
 0001:00038de9       ?QueryAggregates@CCmdTarget@@QAEPAUIUnknown@@PBX@Z 00439de9 f   uafxcw:oleunk.obj
 0001:00038e4b       _==                        00439e4b f i uafxcw:oleunk.obj
 0001:00038e56       ?ExternalDisconnect@CCmdTarget@@QAEXXZ 00439e56 f   uafxcw:oleunk.obj
 0001:00038e84       ?GetControllingUnknown@CCmdTarget@@QAEPAUIUnknown@@XZ 00439e84 f   uafxcw:oleunk.obj
 0001:00038e96       ?InternalAddRef@CCmdTarget@@QAEKXZ 00439e96 f i uafxcw:oleunk.obj
 0001:00038ea1       ??0CInnerUnknown@@QAE@XZ   00439ea1 f i uafxcw:oleunk.obj
 0001:00038eaa       ?ExternalAddRef@CCmdTarget@@QAEKXZ 00439eaa f   uafxcw:oleunk.obj
 0001:00038ec5       ?InternalRelease@CCmdTarget@@QAEKXZ 00439ec5 f   uafxcw:oleunk.obj
 0001:00038f1b       ?ExternalRelease@CCmdTarget@@QAEKXZ 00439f1b f   uafxcw:oleunk.obj
 0001:00038f30       ?InternalQueryInterface@CCmdTarget@@QAEKPBXPAPAX@Z 00439f30 f   uafxcw:oleunk.obj
 0001:00038f73       ?ExternalQueryInterface@CCmdTarget@@QAEKPBXPAPAX@Z 00439f73 f   uafxcw:oleunk.obj
 0001:00038f96       ?AddRef@CInnerUnknown@@UAGKXZ 00439f96 f   uafxcw:oleunk.obj
 0001:00038fac       ?Release@CInnerUnknown@@UAGKXZ 00439fac f   uafxcw:oleunk.obj
 0001:00038fe5       ?QueryInterface@CInnerUnknown@@UAGJABU_GUID@@PAPAX@Z 00439fe5 f   uafxcw:oleunk.obj
 0001:0003902b       ?EnableAggregation@CCmdTarget@@QAEXXZ 0043a02b f   uafxcw:oleunk.obj
 0001:00039033       ?UpdateSysColors@AUX_DATA@@QAEXXZ 0043a033 f   uafxcw:auxdata.obj
 0001:00039079       ?UpdateSysMetrics@AUX_DATA@@QAEXXZ 0043a079 f   uafxcw:auxdata.obj
 0001:000390d5       ??0AUX_DATA@@QAE@XZ        0043a0d5 f   uafxcw:auxdata.obj
 0001:0003911e       ??1AUX_DATA@@QAE@XZ        0043a11e f   uafxcw:auxdata.obj
 0001:000391e3       ?_AfxRegDeleteKeySucceeded@@YAHJ@Z 0043a1e3 f i uafxcw:ctlreg.obj
 0001:00039203       ?itot_s@Checked@ATL@@YAXHPA_WIH@Z 0043a203 f i uafxcw:ctlreg.obj
 0001:00039224       ?ltot_s@Checked@ATL@@YAXJPA_WIH@Z 0043a224 f i uafxcw:ctlreg.obj
 0001:00039245       ??0CRegKey@ATL@@QAE@XZ     0043a245 f i uafxcw:ctlreg.obj
 0001:0003924f       ??BCRegKey@ATL@@QBEPAUHKEY__@@XZ 0043a24f f i uafxcw:ctlreg.obj
 0001:00039252       ?Create@CRegKey@ATL@@QAEJPAUHKEY__@@PB_WPA_WKKPAU_SECURITY_ATTRIBUTES@@PAK@Z 0043a252 f i uafxcw:ctlreg.obj
 0001:000392ae       ?_AfxRecursiveRegDeleteKey@@YGJPAUHKEY__@@PA_W@Z 0043a2ae f   uafxcw:ctlreg.obj
 0001:000392ec       ?_AfxUnregisterInterfaces@@YAXPAUITypeLib@@@Z 0043a2ec f   uafxcw:ctlreg.obj
 0001:00039402       ?AfxOleRegisterTypeLib@@YGHPAUHINSTANCE__@@ABU_GUID@@PB_W2@Z 0043a402 f   uafxcw:ctlreg.obj
 0001:00039570       ?AfxOleRegisterControlClass@@YGHPAUHINSTANCE__@@ABU_GUID@@PB_WIIHK1GG@Z 0043a570 f   uafxcw:ctlreg.obj
 0001:000398f0       ?AfxRegCreateKey@@YGJPAUHKEY__@@PB_WPAPAU1@@Z 0043a8f0 f   uafxcw:ctlreg.obj
 0001:00039978       ?AfxRegOpenKey@@YGJPAUHKEY__@@PB_WPAPAU1@@Z 0043a978 f   uafxcw:ctlreg.obj
 0001:00039a00       ?AfxRegOpenKeyEx@@YGJPAUHKEY__@@PB_WKKPAPAU1@@Z 0043aa00 f   uafxcw:ctlreg.obj
 0001:00039a8e       ?AfxRegQueryValue@@YGJPAUHKEY__@@PB_WPA_WPAJ@Z 0043aa8e f   uafxcw:ctlreg.obj
 0001:00039b19       ?AfxRegSetValue@@YGJPAUHKEY__@@PB_WK1K@Z 0043ab19 f   uafxcw:ctlreg.obj
 0001:00039ba7       ?AfxRegDeleteKey@@YGJPAUHKEY__@@PB_W@Z 0043aba7 f   uafxcw:ctlreg.obj
 0001:00039c2c       ?AfxOleUnregisterTypeLib@@YGHABU_GUID@@GGK@Z 0043ac2c f   uafxcw:ctlreg.obj
 0001:00039f6f       ?AfxOleUnregisterClass@@YGHABU_GUID@@PB_W@Z 0043af6f f   uafxcw:ctlreg.obj
 0001:0003a12e       ?AfxOleRegisterPropertyPageClass@@YGHPAUHINSTANCE__@@ABU_GUID@@IH@Z 0043b12e f   uafxcw:ctlreg.obj
 0001:0003a2ae       ?AfxOleRegisterPropertyPageClass@@YGHPAUHINSTANCE__@@ABU_GUID@@I@Z 0043b2ae f   uafxcw:ctlreg.obj
 0001:0003a2c7       ??2CNoTrackObject@@SGPAXI@Z 0043b2c7 f   uafxcw:afxtls.obj
 0001:0003a2e4       ??3CNoTrackObject@@SGXPAX@Z 0043b2e4 f   uafxcw:afxtls.obj
 0001:0003a2fa       ?GetThreadValue@CThreadSlotData@@QAEPAXH@Z 0043b2fa f i uafxcw:afxtls.obj
 0001:0003a34c       ?AssignInstance@CThreadSlotData@@QAEXPAUHINSTANCE__@@@Z 0043b34c f   uafxcw:afxtls.obj
 0001:0003a391       ?GetDataNA@CThreadLocalObject@@QAEPAVCNoTrackObject@@XZ 0043b391 f   uafxcw:afxtls.obj
 0001:0003a3ab       ?GetData@CProcessLocalObject@@QAEPAVCNoTrackObject@@P6GPAV2@XZ@Z 0043b3ab f   uafxcw:afxtls.obj
 0001:0003a3fb       ??1CProcessLocalObject@@QAE@XZ 0043b3fb f   uafxcw:afxtls.obj
 0001:0003a424       ?AfxInitLocalData@@YGXPAUHINSTANCE__@@@Z 0043b424 f   uafxcw:afxtls.obj
 0001:0003a43d       ?AfxTlsAddRef@@YGXXZ       0043b43d f   uafxcw:afxtls.obj
 0001:0003a444       ?GetNextPtr@CSimpleList@@QBEPAPAXPAX@Z 0043b444 f i uafxcw:afxtls.obj
 0001:0003a45e       ??2CThreadSlotData@@SGPAXIPAX@Z 0043b45e f i uafxcw:afxtls.obj
 0001:0003a46a       ?AddHead@CSimpleList@@QAEXPAX@Z 0043b46a f   uafxcw:afxtls.obj
 0001:0003a488       ?Remove@CSimpleList@@QAEHPAX@Z 0043b488 f   uafxcw:afxtls.obj
 0001:0003a4f9       ?AllocSlot@CThreadSlotData@@QAEHXZ 0043b4f9 f   uafxcw:afxtls.obj
 0001:0003a611       ??0CThreadData@@QAE@XZ     0043b611 f i uafxcw:afxtls.obj
 0001:0003a61a       ??1CThreadData@@UAE@XZ     0043b61a f i uafxcw:afxtls.obj
 0001:0003a61b       ??0?$CTypedSimpleList@PAUCThreadData@@@@QAE@H@Z 0043b61b f i uafxcw:afxtls.obj
 0001:0003a62f       ?AddHead@?$CTypedSimpleList@PAUCThreadData@@@@QAEXPAUCThreadData@@@Z 0043b62f f i uafxcw:afxtls.obj
 0001:0003a63a       ?Remove@?$CTypedSimpleList@PAUCThreadData@@@@QAEHPAUCThreadData@@@Z 0043b63a f i uafxcw:afxtls.obj
 0001:0003a645       ??B?$CTypedSimpleList@PAUCThreadData@@@@QAEPAUCThreadData@@XZ 0043b645 f i uafxcw:afxtls.obj
 0001:0003a648       ??0CThreadSlotData@@QAE@XZ 0043b648 f   uafxcw:afxtls.obj
 0001:0003a687       ?FreeSlot@CThreadSlotData@@QAEXH@Z 0043b687 f   uafxcw:afxtls.obj
 0001:0003a6ef       ?SetValue@CThreadSlotData@@QAEXHPAX@Z 0043b6ef f   uafxcw:afxtls.obj
 0001:0003a824       ??_GCThreadData@@UAEPAXI@Z 0043b824 f i uafxcw:afxtls.obj
 0001:0003a824       ??_ECThreadData@@UAEPAXI@Z 0043b824 f i uafxcw:afxtls.obj
 0001:0003a83f       ?DeleteValues@CThreadSlotData@@QAEXPAUCThreadData@@PAUHINSTANCE__@@@Z 0043b83f f   uafxcw:afxtls.obj
 0001:0003a8d6       ?DeleteValues@CThreadSlotData@@QAEXPAUHINSTANCE__@@H@Z 0043b8d6 f   uafxcw:afxtls.obj
 0001:0003a932       ?GetData@CThreadLocalObject@@QAEPAVCNoTrackObject@@P6GPAV2@XZ@Z 0043b932 f   uafxcw:afxtls.obj
 0001:0003a9bc       ??1CThreadLocalObject@@QAE@XZ 0043b9bc f   uafxcw:afxtls.obj
 0001:0003a9dc       ?AfxTermLocalData@@YGXPAUHINSTANCE__@@H@Z 0043b9dc f   uafxcw:afxtls.obj
 0001:0003a9f5       ??1CThreadSlotData@@QAE@XZ 0043b9f5 f   uafxcw:afxtls.obj
 0001:0003aa4e       ??_GCThreadSlotData@@QAEPAXI@Z 0043ba4e f i uafxcw:afxtls.obj
 0001:0003aa6f       ?AfxTlsRelease@@YGXXZ      0043ba6f f   uafxcw:afxtls.obj
 0001:0003aa99       ?HashKey@CMapPtrToPtr@@QBEIPAX@Z 0043ba99 f i uafxcw:map_pp.obj
 0001:0003aaa8       ?InitHashTable@CMapPtrToPtr@@QAEXIH@Z 0043baa8 f   uafxcw:map_pp.obj
 0001:0003ab06       ?RemoveAll@CMapPtrToPtr@@QAEXXZ 0043bb06 f   uafxcw:map_pp.obj
 0001:0003ab33       ?FreeAssoc@CMapPtrToPtr@@IAEXPAUCAssoc@1@@Z 0043bb33 f   uafxcw:map_pp.obj
 0001:0003ab51       ?GetAssocAt@CMapPtrToPtr@@IBEPAUCAssoc@1@PAXAAI1@Z 0043bb51 f   uafxcw:map_pp.obj
 0001:0003ab8c       ?GetValueAt@CMapPtrToPtr@@QBEPAXPAX@Z 0043bb8c f   uafxcw:map_pp.obj
 0001:0003abd1       ?Lookup@CMapPtrToPtr@@QBEHPAXAAPAX@Z 0043bbd1 f   uafxcw:map_pp.obj
 0001:0003abfa       ?RemoveKey@CMapPtrToPtr@@QAEHPAX@Z 0043bbfa f   uafxcw:map_pp.obj
 0001:0003ac42       ?GetNextAssoc@CMapPtrToPtr@@QBEXAAPAU__POSITION@@AAPAX1@Z 0043bc42 f   uafxcw:map_pp.obj
 0001:0003acbf       ?GetRuntimeClass@CMapPtrToPtr@@UBEPAUCRuntimeClass@@XZ 0043bcbf f   uafxcw:map_pp.obj
 0001:0003acc5       ??0CMapPtrToPtr@@QAE@H@Z   0043bcc5 f   uafxcw:map_pp.obj
 0001:0003acf8       ??1CMapPtrToPtr@@UAE@XZ    0043bcf8 f   uafxcw:map_pp.obj
 0001:0003ad03       ?NewAssoc@CMapPtrToPtr@@IAEPAUCAssoc@1@XZ 0043bd03 f   uafxcw:map_pp.obj
 0001:0003ad53       ??ACMapPtrToPtr@@QAEAAPAXPAX@Z 0043bd53 f   uafxcw:map_pp.obj
 0001:0003adaa       ??_GCMapPtrToPtr@@UAEPAXI@Z 0043bdaa f i uafxcw:map_pp.obj
 0001:0003adaa       ??_ECMapPtrToPtr@@UAEPAXI@Z 0043bdaa f i uafxcw:map_pp.obj
 0001:0003add1       ?AfxLockTempMaps@@YGXXZ    0043bdd1 f   uafxcw:winhand.obj
 0001:0003adda       ??0CHandleMap@@QAE@PAUCRuntimeClass@@P6GXPAVCObject@@@Z2IH@Z 0043bdda f   uafxcw:winhand.obj
 0001:0003ae63       ?GetDataNA@?$CThreadLocal@V_AFX_THREAD_STATE@@@@QAEPAV_AFX_THREAD_STATE@@XZ 0043be63 f i uafxcw:winhand.obj
 0001:0003ae68       ?LookupTemporary@CHandleMap@@QAEPAVCObject@@PAX@Z 0043be68 f i uafxcw:winhand.obj
 0001:0003ae76       ?FromHandle@CHandleMap@@QAEPAVCObject@@PAX@Z 0043be76 f   uafxcw:winhand.obj
 0001:0003af29       ?DeleteTemp@CHandleMap@@QAEXXZ 0043bf29 f   uafxcw:winhand.obj
 0001:0003af8e       ?DeleteTempMap@CWnd@@SGXXZ 0043bf8e f   uafxcw:winhand.obj
 0001:0003af9b       ?DeleteTempMap@CImageList@@SGXXZ 0043bf9b f   uafxcw:winhand.obj
 0001:0003afa8       ?DeleteTempMap@CDC@@SGXXZ  0043bfa8 f   uafxcw:winhand.obj
 0001:0003afb5       ?DeleteTempMap@CGdiObject@@SGXXZ 0043bfb5 f   uafxcw:winhand.obj
 0001:0003afc2       ?DeleteTempMap@CMenu@@SGXXZ 0043bfc2 f   uafxcw:winhand.obj
 0001:0003afcf       ??1CHandleMap@@UAE@XZ      0043bfcf f i uafxcw:winhand.obj
 0001:0003b01c       ??_ECHandleMap@@UAEPAXI@Z  0043c01c f i uafxcw:winhand.obj
 0001:0003b01c       ??_GCHandleMap@@UAEPAXI@Z  0043c01c f i uafxcw:winhand.obj
 0001:0003b03d       ?AfxUnlockTempMaps@@YGHH@Z 0043c03d f   uafxcw:winhand.obj
 0001:0003b138       ?AfxSetWindowText@@YGXPAUHWND__@@PB_W@Z 0043c138 f   uafxcw:winutil.obj
 0001:0003b1d1       ?AfxDeleteObject@@YGXPAPAX@Z 0043c1d1 f   uafxcw:winutil.obj
 0001:0003b1f8       ?AfxGlobalFree@@YGXPAX@Z   0043c1f8 f   uafxcw:winutil.obj
 0001:0003b230       ?AfxCriticalNewHandler@@YAHI@Z 0043c230 f   uafxcw:winutil.obj
 0001:0003b283       ?AfxCustomLogFont@@YGHIPAUtagLOGFONTW@@@Z 0043c283 f   uafxcw:winutil.obj
 0001:0003b326       ?_AfxIsComboBoxControl@@YGHPAUHWND__@@I@Z 0043c326 f   uafxcw:winutil.obj
 0001:0003b386       ?_AfxCompareClassName@@YGHPAUHWND__@@PB_W@Z 0043c386 f   uafxcw:winutil.obj
 0001:0003b3cc       ?_AfxChildWindowFromPoint@@YGPAUHWND__@@PAU1@UtagPOINT@@@Z 0043c3cc f   uafxcw:winutil.obj
 0001:0003b442       ?AfxCancelModes@@YGXPAUHWND__@@@Z 0043c442 f   uafxcw:winutil.obj
 0001:0003b4be       ?RemoveAll@CPtrList@@QAEXXZ 0043c4be f   uafxcw:list_p.obj
 0001:0003b4e0       ?FreeNode@CPtrList@@IAEXPAUCNode@1@@Z 0043c4e0 f   uafxcw:list_p.obj
 0001:0003b507       ?RemoveHead@CPtrList@@QAEPAXXZ 0043c507 f   uafxcw:list_p.obj
 0001:0003b538       ?RemoveTail@CPtrList@@QAEPAXXZ 0043c538 f   uafxcw:list_p.obj
 0001:0003b55c       ?RemoveAt@CPtrList@@QAEXPAU__POSITION@@@Z 0043c55c f   uafxcw:list_p.obj
 0001:0003b5a1       ?FindIndex@CPtrList@@QBEPAU__POSITION@@H@Z 0043c5a1 f   uafxcw:list_p.obj
 0001:0003b5c4       ?Find@CPtrList@@QBEPAU__POSITION@@PAXPAU2@@Z 0043c5c4 f   uafxcw:list_p.obj
 0001:0003b5e7       ?GetRuntimeClass@CPtrList@@UBEPAUCRuntimeClass@@XZ 0043c5e7 f   uafxcw:list_p.obj
 0001:0003b5ed       ??0CPtrList@@QAE@H@Z       0043c5ed f   uafxcw:list_p.obj
 0001:0003b615       ??1CPtrList@@UAE@XZ        0043c615 f   uafxcw:list_p.obj
 0001:0003b620       ?NewNode@CPtrList@@IAEPAUCNode@1@PAU21@0@Z 0043c620 f   uafxcw:list_p.obj
 0001:0003b67d       ?AddHead@CPtrList@@QAEPAU__POSITION@@PAX@Z 0043c67d f   uafxcw:list_p.obj
 0001:0003b6ac       ?AddTail@CPtrList@@QAEPAU__POSITION@@PAX@Z 0043c6ac f   uafxcw:list_p.obj
 0001:0003b6da       ?AddHead@CPtrList@@QAEXPAV1@@Z 0043c6da f   uafxcw:list_p.obj
 0001:0003b719       ?AddTail@CPtrList@@QAEXPAV1@@Z 0043c719 f   uafxcw:list_p.obj
 0001:0003b758       ?InsertBefore@CPtrList@@QAEPAU__POSITION@@PAU2@PAX@Z 0043c758 f   uafxcw:list_p.obj
 0001:0003b798       ?InsertAfter@CPtrList@@QAEPAU__POSITION@@PAU2@PAX@Z 0043c798 f   uafxcw:list_p.obj
 0001:0003b7d6       ??_GCPtrList@@UAEPAXI@Z    0043c7d6 f i uafxcw:list_p.obj
 0001:0003b7d6       ??_ECPtrList@@UAEPAXI@Z    0043c7d6 f i uafxcw:list_p.obj
 0001:0003b7fd       ?AfxCriticalInit@@YGHXZ    0043c7fd f   uafxcw:afxcrit.obj
 0001:0003b821       ?AfxCriticalTerm@@YGXXZ    0043c821 f   uafxcw:afxcrit.obj
 0001:0003b866       ?AfxLockGlobals@@YGXH@Z    0043c866 f   uafxcw:afxcrit.obj
 0001:0003b8d8       ?AfxUnlockGlobals@@YGXH@Z  0043c8d8 f   uafxcw:afxcrit.obj
 0001:0003b8fd       ?AfxOleCanExitApp@@YGHXZ   0043c8fd f   uafxcw:olelock.obj
 0001:0003b90d       ?AfxOleLockApp@@YGXXZ      0043c90d f   uafxcw:olelock.obj
 0001:0003b91d       ?AfxOleSetUserCtrl@@YGXH@Z 0043c91d f   uafxcw:olelock.obj
 0001:0003b931       ?AfxOleGetUserCtrl@@YGHXZ  0043c931 f   uafxcw:olelock.obj
 0001:0003b93a       ?AfxOleOnReleaseAllObjects@@YGXXZ 0043c93a f   uafxcw:olelock.obj
 0001:0003b986       ?AfxOleUnlockApp@@YGXXZ    0043c986 f   uafxcw:olelock.obj
 0001:0003b99f       ?AfxCheckError@@YGXJ@Z     0043c99f f   uafxcw:olevar.obj
 0001:0003b9c4       ?_AfxCompareSafeArrays@@YGHPAUtagSAFEARRAY@@0@Z 0043c9c4 f   uafxcw:olevar.obj
 0001:0003bc52       ?_AfxCreateOneDimArray@@YGXAAUtagVARIANT@@K@Z 0043cc52 f   uafxcw:olevar.obj
 0001:0003bd04       ??0COleVariant@@QAE@FG@Z   0043cd04 f   uafxcw:olevar.obj
 0001:0003bd3a       ??0COleVariant@@QAE@JG@Z   0043cd3a f   uafxcw:olevar.obj
 0001:0003bda6       ?ChangeType@COleVariant@@QAEXGPAUtagVARIANT@@@Z 0043cda6 f   uafxcw:olevar.obj
 0001:0003bdd5       ?Detach@COleVariant@@QAE?AUtagVARIANT@@XZ 0043cdd5 f   uafxcw:olevar.obj
 0001:0003bdf2       ??8COleVariant@@QBEHABUtagVARIANT@@@Z 0043cdf2 f   uafxcw:olevar.obj
 0001:0003bf3e       ??4COleVariant@@QAEABV0@ABUtagVARIANT@@@Z 0043cf3e f   uafxcw:olevar.obj
 0001:0003bf62       ??4COleVariant@@QAEABV0@PBUtagVARIANT@@@Z 0043cf62 f   uafxcw:olevar.obj
 0001:0003bf86       ??4COleVariant@@QAEABV0@ABV0@@Z 0043cf86 f   uafxcw:olevar.obj
 0001:0003bfaa       ?AfxVariantInit@@YGXPAUtagVARIANT@@@Z 0043cfaa f   uafxcw:olevar.obj
 0001:0003bfc2       ??$CopyElements@VCOleVariant@@@@YGXPAVCOleVariant@@PBV0@H@Z 0043cfc2 f   uafxcw:olevar.obj
 0001:0003bffe       ??4COleCurrency@@QAEABV0@ABV0@@Z 0043cffe f   uafxcw:olevar.obj
 0001:0003c01c       ?T2OLE_EX@@YAPA_WPA_WI@Z   0043d01c f i uafxcw:olevar.obj
 0001:0003c026       ??MCOleCurrency@@QBEHABV0@@Z 0043d026 f   uafxcw:olevar.obj
 0001:0003c049       ??OCOleCurrency@@QBEHABV0@@Z 0043d049 f   uafxcw:olevar.obj
 0001:0003c06c       ??NCOleCurrency@@QBEHABV0@@Z 0043d06c f   uafxcw:olevar.obj
 0001:0003c08f       ??PCOleCurrency@@QBEHABV0@@Z 0043d08f f   uafxcw:olevar.obj
 0001:0003c0b2       ?Detach@COleSafeArray@@QAE?AUtagVARIANT@@XZ 0043d0b2 f   uafxcw:olevar.obj
 0001:0003c0cf       ??4COleSafeArray@@QAEAAV0@ABV0@@Z 0043d0cf f   uafxcw:olevar.obj
 0001:0003c0fe       ??4COleSafeArray@@QAEAAV0@ABUtagVARIANT@@@Z 0043d0fe f   uafxcw:olevar.obj
 0001:0003c12d       ??4COleSafeArray@@QAEAAV0@PBUtagVARIANT@@@Z 0043d12d f   uafxcw:olevar.obj
 0001:0003c15c       ??4COleSafeArray@@QAEAAV0@ABVCOleVariant@@@Z 0043d15c f   uafxcw:olevar.obj
 0001:0003c18b       ??8COleSafeArray@@QBEHABUtagSAFEARRAY@@@Z 0043d18b f   uafxcw:olevar.obj
 0001:0003c19f       ??8COleSafeArray@@QBEHPBUtagSAFEARRAY@@@Z 0043d19f f   uafxcw:olevar.obj
 0001:0003c1b3       ??8COleSafeArray@@QBEHABV0@@Z 0043d1b3 f   uafxcw:olevar.obj
 0001:0003c1d6       ??8COleSafeArray@@QBEHABUtagVARIANT@@@Z 0043d1d6 f   uafxcw:olevar.obj
 0001:0003c1f9       ??8COleSafeArray@@QBEHPBUtagVARIANT@@@Z 0043d1f9 f   uafxcw:olevar.obj
 0001:0003c21c       ??8COleSafeArray@@QBEHABVCOleVariant@@@Z 0043d21c f   uafxcw:olevar.obj
 0001:0003c23f       ?AccessData@COleSafeArray@@QAEXPAPAX@Z 0043d23f f   uafxcw:olevar.obj
 0001:0003c25a       ?UnaccessData@COleSafeArray@@QAEXXZ 0043d25a f   uafxcw:olevar.obj
 0001:0003c26a       ?AllocData@COleSafeArray@@QAEXXZ 0043d26a f   uafxcw:olevar.obj
 0001:0003c27a       ?AllocDescriptor@COleSafeArray@@QAEXK@Z 0043d27a f   uafxcw:olevar.obj
 0001:0003c296       ?Copy@COleSafeArray@@QAEXPAPAUtagSAFEARRAY@@@Z 0043d296 f   uafxcw:olevar.obj
 0001:0003c2b1       ?GetLBound@COleSafeArray@@QAEXKPAJ@Z 0043d2b1 f   uafxcw:olevar.obj
 0001:0003c2cf       ?GetUBound@COleSafeArray@@QAEXKPAJ@Z 0043d2cf f   uafxcw:olevar.obj
 0001:0003c2ed       ?GetElement@COleSafeArray@@QAEXPAJPAX@Z 0043d2ed f   uafxcw:olevar.obj
 0001:0003c30b       ?PtrOfIndex@COleSafeArray@@QAEXPAJPAPAX@Z 0043d30b f   uafxcw:olevar.obj
 0001:0003c329       ?PutElement@COleSafeArray@@QAEXPAJPAX@Z 0043d329 f   uafxcw:olevar.obj
 0001:0003c347       ?Redim@COleSafeArray@@QAEXPAUtagSAFEARRAYBOUND@@@Z 0043d347 f   uafxcw:olevar.obj
 0001:0003c362       ?Lock@COleSafeArray@@QAEXXZ 0043d362 f   uafxcw:olevar.obj
 0001:0003c372       ?Unlock@COleSafeArray@@QAEXXZ 0043d372 f   uafxcw:olevar.obj
 0001:0003c382       ?Destroy@COleSafeArray@@QAEXXZ 0043d382 f   uafxcw:olevar.obj
 0001:0003c3aa       ?DestroyData@COleSafeArray@@QAEXXZ 0043d3aa f   uafxcw:olevar.obj
 0001:0003c3ba       ?DestroyDescriptor@COleSafeArray@@QAEXXZ 0043d3ba f   uafxcw:olevar.obj
 0001:0003c3ca       ?AfxSafeArrayInit@@YGXPAVCOleSafeArray@@@Z 0043d3ca f   uafxcw:olevar.obj
 0001:0003c3e8       ?AtlConvertSystemTimeToVariantTime@ATL@@YAHABU_SYSTEMTIME@@PAN@Z 0043d3e8 f i uafxcw:olevar.obj
 0001:0003c481       ??$HashKey@K@@YGIK@Z       0043d481 f i uafxcw:olevar.obj
 0001:0003c490       ??0CComBSTR@ATL@@QAE@XZ    0043d490 f i uafxcw:olevar.obj
 0001:0003c496       ??BCComBSTR@ATL@@QBEPA_WXZ 0043d496 f i uafxcw:olevar.obj
 0001:0003c499       ??ICComBSTR@ATL@@QAEPAPA_WXZ 0043d499 f i uafxcw:olevar.obj
 0001:0003c49c       ?Attach@CComBSTR@ATL@@QAEXPA_W@Z 0043d49c f i uafxcw:olevar.obj
 0001:0003c4bd       ?Detach@CComBSTR@ATL@@QAEPA_WXZ 0043d4bd f i uafxcw:olevar.obj
 0001:0003c4c3       ?Empty@CComBSTR@ATL@@QAEXXZ 0043d4c3 f i uafxcw:olevar.obj
 0001:0003c4d5       ??0CFixedStringMgr@ATL@@QAE@PAUCStringData@1@HPAUIAtlStringMgr@1@@Z 0043d4d5 f i uafxcw:olevar.obj
 0001:0003c514       ??1CFixedStringMgr@ATL@@UAE@XZ 0043d514 f i uafxcw:olevar.obj
 0001:0003c51b       ?Allocate@CFixedStringMgr@ATL@@UAEPAUCStringData@2@HH@Z 0043d51b f i uafxcw:olevar.obj
 0001:0003c578       ?Free@CFixedStringMgr@ATL@@UAEXPAUCStringData@2@@Z 0043d578 f i uafxcw:olevar.obj
 0001:0003c5b2       ?Reallocate@CFixedStringMgr@ATL@@UAEPAUCStringData@2@PAU32@HH@Z 0043d5b2 f i uafxcw:olevar.obj
 0001:0003c651       ?GetNilString@CFixedStringMgr@ATL@@UAEPAUCStringData@2@XZ 0043d651 f i uafxcw:olevar.obj
 0001:0003c655       ?Clone@CFixedStringMgr@ATL@@UAEPAUIAtlStringMgr@2@XZ 0043d655 f i uafxcw:olevar.obj
 0001:0003c659       ??_ECFixedStringMgr@ATL@@UAEPAXI@Z 0043d659 f i uafxcw:olevar.obj
 0001:0003c659       ??_GCFixedStringMgr@ATL@@UAEPAXI@Z 0043d659 f i uafxcw:olevar.obj
 0001:0003c67b       ?GetSize@CByteArray@@QBEHXZ 0043d67b f i uafxcw:olevar.obj
 0001:0003c67f       ?GetData@CByteArray@@QBEPBEXZ 0043d67f f i uafxcw:olevar.obj
 0001:0003c683       ?GetData@CByteArray@@QAEPAEXZ 0043d683 f i uafxcw:olevar.obj
 0001:0003c687       ??0COleDateTime@ATL@@QAE@XZ 0043d687 f i uafxcw:olevar.obj
 0001:0003c692       ?GetStatus@COleDateTime@ATL@@QBE?AW4DateTimeStatus@12@XZ 0043d692 f i uafxcw:olevar.obj
 0001:0003c696       ?GetAsSystemTime@COleDateTime@ATL@@QBE_NAAU_SYSTEMTIME@@@Z 0043d696 f i uafxcw:olevar.obj
 0001:0003c6c0       ?ConvertSystemTimeToVariantTime@COleDateTime@ATL@@IAEHABU_SYSTEMTIME@@@Z 0043d6c0 f i uafxcw:olevar.obj
 0001:0003c6d4       ??BCOleDateTime@ATL@@QBENXZ 0043d6d4 f i uafxcw:olevar.obj
 0001:0003c6d7       ?SetDateTime@COleDateTime@ATL@@QAEHHHHHHH@Z 0043d6d7 f i uafxcw:olevar.obj
 0001:0003c739       ??0COleVariant@@QAE@XZ     0043d739 f i uafxcw:olevar.obj
 0001:0003c748       ??1COleVariant@@QAE@XZ     0043d748 f i uafxcw:olevar.obj
 0001:0003c752       ?Clear@COleVariant@@QAEXXZ 0043d752 f i uafxcw:olevar.obj
 0001:0003c75c       ??BCOleVariant@@QAEPAUtagVARIANT@@XZ 0043d75c f i uafxcw:olevar.obj
 0001:0003c75f       ??0COleCurrency@@QAE@ABV0@@Z 0043d75f f i uafxcw:olevar.obj
 0001:0003c77d       ?GetStatus@COleCurrency@@QBE?AW4CurrencyStatus@1@XZ 0043d77d f i uafxcw:olevar.obj
 0001:0003c781       ?SetStatus@COleCurrency@@QAEXW4CurrencyStatus@1@@Z 0043d781 f i uafxcw:olevar.obj
 0001:0003c790       ?Clear@COleSafeArray@@QAEXXZ 0043d790 f i uafxcw:olevar.obj
 0001:0003c79a       ?GetDim@COleSafeArray@@QAEKXZ 0043d79a f i uafxcw:olevar.obj
 0001:0003c7a4       ?GetElemSize@COleSafeArray@@QAEKXZ 0043d7a4 f i uafxcw:olevar.obj
 0001:0003c7ae       ?_AfxCopyBinaryData@@YGXPAUtagSAFEARRAY@@PBXK@Z 0043d7ae f   uafxcw:olevar.obj
 0001:0003c7ee       ??0COleVariant@@QAE@ABUtagVARIANT@@@Z 0043d7ee f   uafxcw:olevar.obj
 0001:0003c813       ??0COleVariant@@QAE@PBUtagVARIANT@@@Z 0043d813 f   uafxcw:olevar.obj
 0001:0003c838       ??0COleVariant@@QAE@ABV0@@Z 0043d838 f   uafxcw:olevar.obj
 0001:0003c85d       ?Attach@COleVariant@@QAEXAAUtagVARIANT@@@Z 0043d85d f   uafxcw:olevar.obj
 0001:0003c889       ?GetByteArrayFromVariantArray@COleVariant@@QAEXAAVCByteArray@@@Z 0043d889 f   uafxcw:olevar.obj
 0001:0003c925       ??4COleVariant@@QAEABV0@E@Z 0043d925 f   uafxcw:olevar.obj
 0001:0003c94d       ??4COleVariant@@QAEABV0@F@Z 0043d94d f   uafxcw:olevar.obj
 0001:0003c990       ??4COleVariant@@QAEABV0@J@Z 0043d990 f   uafxcw:olevar.obj
 0001:0003c9da       ??4COleVariant@@QAEABV0@_J@Z 0043d9da f   uafxcw:olevar.obj
 0001:0003ca08       ??4COleVariant@@QAEABV0@_K@Z 0043da08 f   uafxcw:olevar.obj
 0001:0003ca36       ??4COleVariant@@QAEABV0@ABVCOleCurrency@@@Z 0043da36 f   uafxcw:olevar.obj
 0001:0003ca66       ??4COleVariant@@QAEABV0@M@Z 0043da66 f   uafxcw:olevar.obj
 0001:0003ca8e       ??4COleVariant@@QAEABV0@N@Z 0043da8e f   uafxcw:olevar.obj
 0001:0003cab6       ??4COleVariant@@QAEABV0@ABVCOleDateTime@ATL@@@Z 0043dab6 f   uafxcw:olevar.obj
 0001:0003cae0       ??4COleVariant@@QAEABV0@ABVCByteArray@@@Z 0043dae0 f   uafxcw:olevar.obj
 0001:0003cb19       ??4COleVariant@@QAEABV0@ABVCLongBinary@@@Z 0043db19 f   uafxcw:olevar.obj
 0001:0003cb61       ??$HashKey@ABUtagVARIANT@@@@YGIABUtagVARIANT@@@Z 0043db61 f   uafxcw:olevar.obj
 0001:0003cbe5       ??4COleCurrency@@QAEABV0@TtagCY@@@Z 0043dbe5 f   uafxcw:olevar.obj
 0001:0003cbff       ??4COleCurrency@@QAEABV0@ABUtagVARIANT@@@Z 0043dbff f   uafxcw:olevar.obj
 0001:0003cc91       ??0COleSafeArray@@QAE@ABUtagSAFEARRAY@@G@Z 0043dc91 f   uafxcw:olevar.obj
 0001:0003ccdc       ??0COleSafeArray@@QAE@PBUtagSAFEARRAY@@G@Z 0043dcdc f   uafxcw:olevar.obj
 0001:0003cd27       ??0COleSafeArray@@QAE@ABV0@@Z 0043dd27 f   uafxcw:olevar.obj
 0001:0003cd5e       ??0COleSafeArray@@QAE@ABUtagVARIANT@@@Z 0043dd5e f   uafxcw:olevar.obj
 0001:0003cd95       ??0COleSafeArray@@QAE@ABVCOleVariant@@@Z 0043dd95 f   uafxcw:olevar.obj
 0001:0003cdcc       ??0COleSafeArray@@QAE@PBUtagVARIANT@@@Z 0043ddcc f   uafxcw:olevar.obj
 0001:0003ce03       ?Attach@COleSafeArray@@QAEXAAUtagVARIANT@@@Z 0043de03 f   uafxcw:olevar.obj
 0001:0003ce3e       ?GetByteArray@COleSafeArray@@QAEXAAVCByteArray@@@Z 0043de3e f   uafxcw:olevar.obj
 0001:0003ceda       ?GetOneDimSize@COleSafeArray@@QAEKXZ 0043deda f   uafxcw:olevar.obj
 0001:0003cf1b       ?ResizeOneDim@COleSafeArray@@QAEXK@Z 0043df1b f   uafxcw:olevar.obj
 0001:0003cf52       ?Create@COleSafeArray@@QAEXGKPAUtagSAFEARRAYBOUND@@@Z 0043df52 f   uafxcw:olevar.obj
 0001:0003cfc0       ??6CArchive@@QAEAAV0@_J@Z  0043dfc0 f i uafxcw:olevar.obj
 0001:0003d004       ??6CArchive@@QAEAAV0@J@Z   0043e004 f i uafxcw:olevar.obj
 0001:0003d042       ??6CArchive@@QAEAAV0@M@Z   0043e042 f i uafxcw:olevar.obj
 0001:0003d080       ??6CArchive@@QAEAAV0@N@Z   0043e080 f i uafxcw:olevar.obj
 0001:0003d0be       ??5CArchive@@QAEAAV0@AA_J@Z 0043e0be f i uafxcw:olevar.obj
 0001:0003d10b       ??5CArchive@@QAEAAV0@AAM@Z 0043e10b f i uafxcw:olevar.obj
 0001:0003d152       ??5CArchive@@QAEAAV0@AAN@Z 0043e152 f i uafxcw:olevar.obj
 0001:0003d199       ??5CArchive@@QAEAAV0@AAJ@Z 0043e199 f i uafxcw:olevar.obj
 0001:0003d1e0       ?ParseDateTime@COleDateTime@ATL@@QAE_NPB_WKK@Z 0043e1e0 f i uafxcw:olevar.obj
 0001:0003d251       ??0COleCurrency@@QAE@XZ    0043e251 f i uafxcw:olevar.obj
 0001:0003d25e       ??0COleCurrency@@QAE@TtagCY@@@Z 0043e25e f i uafxcw:olevar.obj
 0001:0003d278       ??6@YGAAVCArchive@@AAV0@VCComBSTR@ATL@@@Z 0043e278 f   uafxcw:olevar.obj
 0001:0003d2cc       ??5@YGAAVCArchive@@AAV0@AAVCComBSTR@ATL@@@Z 0043e2cc f   uafxcw:olevar.obj
 0001:0003d32e       ??HCOleCurrency@@QBE?AV0@ABV0@@Z 0043e32e f   uafxcw:olevar.obj
 0001:0003d394       ??GCOleCurrency@@QBE?AV0@ABV0@@Z 0043e394 f   uafxcw:olevar.obj
 0001:0003d3fa       ??GCOleCurrency@@QBE?AV0@XZ 0043e3fa f   uafxcw:olevar.obj
 0001:0003d441       ??DCOleCurrency@@QBE?AV0@J@Z 0043e441 f   uafxcw:olevar.obj
 0001:0003d560       ??KCOleCurrency@@QBE?AV0@J@Z 0043e560 f   uafxcw:olevar.obj
 0001:0003d5dd       ?SetCurrency@COleCurrency@@QAEXJJ@Z 0043e5dd f   uafxcw:olevar.obj
 0001:0003d67f       ??6@YGAAVCArchive@@AAV0@VCOleCurrency@@@Z 0043e67f f   uafxcw:olevar.obj
 0001:0003d6a9       ??5@YGAAVCArchive@@AAV0@AAVCOleCurrency@@@Z 0043e6a9 f   uafxcw:olevar.obj
 0001:0003d6d8       ??6@YGAAVCArchive@@AAV0@VCOleDateTime@ATL@@@Z 0043e6d8 f   uafxcw:olevar.obj
 0001:0003d6fc       ??5@YGAAVCArchive@@AAV0@AAVCOleDateTime@ATL@@@Z 0043e6fc f   uafxcw:olevar.obj
 0001:0003d71f       ??6@YGAAVCArchive@@AAV0@VCOleDateTimeSpan@ATL@@@Z 0043e71f f   uafxcw:olevar.obj
 0001:0003d743       ??5@YGAAVCArchive@@AAV0@AAVCOleDateTimeSpan@ATL@@@Z 0043e743 f   uafxcw:olevar.obj
 0001:0003d766       ?CreateOneDim@COleSafeArray@@QAEXGKPBXJ@Z 0043e766 f   uafxcw:olevar.obj
 0001:0003d7d8       ?Create@COleSafeArray@@QAEXGKPAK@Z 0043e7d8 f   uafxcw:olevar.obj
 0001:0003d85f       ??6CArchive@@QAEAAV0@F@Z   0043e85f f i uafxcw:olevar.obj
 0001:0003d86a       ??6CArchive@@QAEAAV0@D@Z   0043e86a f i uafxcw:olevar.obj
 0001:0003d875       ??5CArchive@@QAEAAV0@AAF@Z 0043e875 f i uafxcw:olevar.obj
 0001:0003d880       ??5CArchive@@QAEAAV0@AAD@Z 0043e880 f i uafxcw:olevar.obj
 0001:0003d88b       ??4COleVariant@@QAEABV0@ABV?$CStringT@_WV?$StrTraitMFC@_WV?$ChTraitsCRT@_W@ATL@@@@@ATL@@@Z 0043e88b f   uafxcw:olevar.obj
 0001:0003d8b2       ??6@YGAAVCArchive@@AAV0@VCOleVariant@@@Z 0043e8b2 f   uafxcw:olevar.obj
 0001:0003dab2       ??5@YGAAVCArchive@@AAV0@AAVCOleVariant@@@Z 0043eab2 f   uafxcw:olevar.obj
 0001:0003dd1a       ??$SerializeElements@VCOleVariant@@@@YGXAAVCArchive@@PAVCOleVariant@@H@Z 0043ed1a f   uafxcw:olevar.obj
 0001:0003dd77       ??0COleCurrency@@QAE@JJ@Z  0043ed77 f   uafxcw:olevar.obj
 0001:0003dd95       ??1?$CFixedStringT@V?$CStringT@_WV?$StrTraitMFC@_WV?$ChTraitsCRT@_W@ATL@@@@@ATL@@$0BAA@@ATL@@UAE@XZ 0043ed95 f i uafxcw:olevar.obj
 0001:0003ddbe       ??1?$CFixedStringT@V?$CStringT@_WV?$StrTraitMFC@_WV?$ChTraitsCRT@_W@ATL@@@@@ATL@@$0EA@@ATL@@UAE@XZ 0043edbe f i uafxcw:olevar.obj
 0001:0003dde7       ??_E?$CFixedStringT@V?$CStringT@_WV?$StrTraitMFC@_WV?$ChTraitsCRT@_W@ATL@@@@@ATL@@$0BAA@@ATL@@UAEPAXI@Z 0043ede7 f i uafxcw:olevar.obj
 0001:0003dde7       ??_G?$CFixedStringT@V?$CStringT@_WV?$StrTraitMFC@_WV?$ChTraitsCRT@_W@ATL@@@@@ATL@@$0BAA@@ATL@@UAEPAXI@Z 0043ede7 f i uafxcw:olevar.obj
 0001:0003de08       ??_G?$CFixedStringT@V?$CStringT@_WV?$StrTraitMFC@_WV?$ChTraitsCRT@_W@ATL@@@@@ATL@@$0EA@@ATL@@UAEPAXI@Z 0043ee08 f i uafxcw:olevar.obj
 0001:0003de08       ??_E?$CFixedStringT@V?$CStringT@_WV?$StrTraitMFC@_WV?$ChTraitsCRT@_W@ATL@@@@@ATL@@$0EA@@ATL@@UAEPAXI@Z 0043ee08 f i uafxcw:olevar.obj
 0001:0003de29       ?ParseCurrency@COleCurrency@@QAEHPB_WKK@Z 0043ee29 f   uafxcw:olevar.obj
 0001:0003dea8       ?Format@COleCurrency@@QBE?AV?$CStringT@_WV?$StrTraitMFC@_WV?$ChTraitsCRT@_W@ATL@@@@@ATL@@KK@Z 0043eea8 f   uafxcw:olevar.obj
 0001:0003df51       ?DDX_Text@@YGXPAVCDataExchange@@HAAVCOleCurrency@@@Z 0043ef51 f   uafxcw:olevar.obj
 0001:0003e01c       ?DDX_Text@@YGXPAVCDataExchange@@HAAUtagDEC@@@Z 0043f01c f   uafxcw:olevar.obj
 0001:0003e117       ??0?$CFixedStringT@V?$CStringT@_WV?$StrTraitMFC@_WV?$ChTraitsCRT@_W@ATL@@@@@ATL@@$0BAA@@ATL@@QAE@PB_W@Z 0043f117 f i uafxcw:olevar.obj
 0001:0003e15e       ??0?$CFixedStringT@V?$CStringT@_WV?$StrTraitMFC@_WV?$ChTraitsCRT@_W@ATL@@@@@ATL@@$0EA@@ATL@@QAE@PB_W@Z 0043f15e f i uafxcw:olevar.obj
 0001:0003e1a2       ?Format@COleDateTime@ATL@@QBE?AV?$CStringT@_WV?$StrTraitMFC@_WV?$ChTraitsCRT@_W@ATL@@@@@2@KK@Z 0043f1a2 f i uafxcw:olevar.obj
 0001:0003e2ae       ??0COleVariant@@QAE@PB_WG@Z 0043f2ae f   uafxcw:olevar.obj
 0001:0003e301       ?SetString@COleVariant@@QAEXPB_WG@Z 0043f301 f   uafxcw:olevar.obj
 0001:0003e359       ??4COleVariant@@QAEABV0@QB_W@Z 0043f359 f   uafxcw:olevar.obj
 0001:0003e3b5       ?DDX_Text@@YGXPAVCDataExchange@@HAAVCOleDateTime@ATL@@@Z 0043f3b5 f   uafxcw:olevar.obj
 0001:0003e490       ?DDX_Text@@YGXPAVCDataExchange@@HAAU_FILETIME@@@Z 0043f490 f   uafxcw:olevar.obj
 0001:0003e5bf       ?DDX_Text@@YGXPAVCDataExchange@@HAAU_GUID@@@Z 0043f5bf f   uafxcw:olevar.obj
 0001:0003e6dd       ?tcscat_s@Checked@ATL@@YAXPA_WIPB_W@Z 0043f6dd f i uafxcw:filelist.obj
 0001:0003e6fb       ?DeleteMenu@CMenu@@QAEHII@Z 0043f6fb f i uafxcw:filelist.obj
 0001:0003e713       ?InsertMenuW@CMenu@@QAEHIIIPB_W@Z 0043f713 f i uafxcw:filelist.obj
 0001:0003e731       ?_AfxAbbreviateName@@YGXPA_WHH@Z 0043f731 f   uafxcw:filelist.obj
 0001:0003e828       ??_E?$CStringT@_WV?$StrTraitMFC@_WV?$ChTraitsCRT@_W@ATL@@@@@ATL@@QAEPAXI@Z 0043f828 f i uafxcw:filelist.obj
 0001:0003e879       ??1CRecentFileList@@UAE@XZ 0043f879 f   uafxcw:filelist.obj
 0001:0003e8b4       ?WriteList@CRecentFileList@@UAEXXZ 0043f8b4 f   uafxcw:filelist.obj
 0001:0003e949       ??_GCRecentFileList@@UAEPAXI@Z 0043f949 f i uafxcw:filelist.obj
 0001:0003e949       ??_ECRecentFileList@@UAEPAXI@Z 0043f949 f i uafxcw:filelist.obj
 0001:0003e96a       ?GetDisplayName@CRecentFileList@@UBEHAAV?$CStringT@_WV?$StrTraitMFC@_WV?$ChTraitsCRT@_W@ATL@@@@@ATL@@HPB_WHH@Z 0043f96a f   uafxcw:filelist.obj
 0001:0003eb04       ??HATL@@YA?AV?$CStringT@_WV?$StrTraitMFC@_WV?$ChTraitsCRT@_W@ATL@@@@@0@ABV10@0@Z 0043fb04 f i uafxcw:filelist.obj
 0001:0003eb57       ?Remove@CRecentFileList@@UAEXH@Z 0043fb57 f   uafxcw:filelist.obj
 0001:0003eba1       ?ReadList@CRecentFileList@@UAEXXZ 0043fba1 f   uafxcw:filelist.obj
 0001:0003ec48       ??0CRecentFileList@@QAE@IPB_W0HH@Z 0043fc48 f   uafxcw:filelist.obj
 0001:0003ed01       ?Add@CRecentFileList@@UAEXPB_W@Z 0043fd01 f   uafxcw:filelist.obj
 0001:0003eda7       ?UpdateMenu@CRecentFileList@@UAEXPAVCCmdUI@@@Z 0043fda7 f   uafxcw:filelist.obj
 0001:0003f043       ?_AfxSetRegKey@@YGHPB_W00@Z 00440043 f   uafxcw:docmgr.obj
 0001:0003f0c7       ??0CNewTypeDlg@@QAE@PAVCPtrList@@@Z 004400c7 f i uafxcw:docmgr.obj
 0001:0003f0f2       ??1CNewTypeDlg@@UAE@XZ     004400f2 f i uafxcw:docmgr.obj
 0001:0003f0fd       ?GetRuntimeClass@CDocManager@@UBEPAUCRuntimeClass@@XZ 004400fd f   uafxcw:docmgr.obj
 0001:0003f103       ??_9CNewTypeDlg@@$BBFI@AE  00440103 f i uafxcw:docmgr.obj
 0001:0003f10b       ?StringFindChar@?$ChTraitsCRT@_W@ATL@@SAPB_WPB_W_W@Z 0044010b f i uafxcw:docmgr.obj
 0001:0003f116       ?GetCount@CPtrList@@QBEHXZ 00440116 f i uafxcw:docmgr.obj
 0001:0003f11a       ?GetCount@CListBox@@QBEHXZ 0044011a f i uafxcw:docmgr.obj
 0001:0003f12d       ?GetItemDataPtr@CListBox@@QBEPAXH@Z 0044012d f i uafxcw:docmgr.obj
 0001:0003f149       ?SetItemDataPtr@CListBox@@QAEHHPAX@Z 00440149 f i uafxcw:docmgr.obj
 0001:0003f154       ?AddString@CListBox@@QAEHPB_W@Z 00440154 f i uafxcw:docmgr.obj
 0001:0003f170       ?ResetContent@CListBox@@QAEXXZ 00440170 f i uafxcw:docmgr.obj
 0001:0003f183       ?_AfxDeleteRegKey@@YGHPB_W@Z 00440183 f   uafxcw:docmgr.obj
 0001:0003f235       ??0CDocManager@@QAE@XZ     00440235 f   uafxcw:docmgr.obj
 0001:0003f24e       ??_GCNewTypeDlg@@UAEPAXI@Z 0044024e f i uafxcw:docmgr.obj
 0001:0003f24e       ??_ECNewTypeDlg@@UAEPAXI@Z 0044024e f i uafxcw:docmgr.obj
 0001:0003f275       ?GetThisMessageMap@CNewTypeDlg@@KGPBUAFX_MSGMAP@@XZ 00440275 f   uafxcw:docmgr.obj
 0001:0003f27b       ?OnOK@CNewTypeDlg@@MAEXXZ  0044027b f   uafxcw:docmgr.obj
 0001:0003f2b9       ?AddDocTemplate@CDocManager@@UAEXPAVCDocTemplate@@@Z 004402b9 f   uafxcw:docmgr.obj
 0001:0003f32d       ?GetFirstDocTemplatePosition@CDocManager@@UBEPAU__POSITION@@XZ 0044032d f   uafxcw:docmgr.obj
 0001:0003f331       ?GetNextDocTemplate@CDocManager@@UBEPAVCDocTemplate@@AAPAU__POSITION@@@Z 00440331 f   uafxcw:docmgr.obj
 0001:0003f33f       ?SaveAllModified@CDocManager@@UAEHXZ 0044033f f   uafxcw:docmgr.obj
 0001:0003f379       ?CloseAllDocuments@CDocManager@@UAEXH@Z 00440379 f   uafxcw:docmgr.obj
 0001:0003f3ad       ?GetDocumentCount@CDocManager@@IAEHXZ 004403ad f   uafxcw:docmgr.obj
 0001:0003f400       ?OnFileNew@CDocManager@@UAEXXZ 00440400 f   uafxcw:docmgr.obj
 0001:0003f487       ?OpenDocumentFile@CDocManager@@UAEPAVCDocument@@PB_W@Z 00440487 f   uafxcw:docmgr.obj
 0001:0003f664       ?GetOpenDocumentCount@CDocManager@@UAEHXZ 00440664 f   uafxcw:docmgr.obj
 0001:0003f6bb       ??1CDocManager@@UAE@XZ     004406bb f   uafxcw:docmgr.obj
 0001:0003f725       ??_ECDocManager@@UAEPAXI@Z 00440725 f i uafxcw:docmgr.obj
 0001:0003f725       ??_GCDocManager@@UAEPAXI@Z 00440725 f i uafxcw:docmgr.obj
 0001:0003f746       ?GetMessageMap@CNewTypeDlg@@MBEPBUAFX_MSGMAP@@XZ 00440746 f   uafxcw:docmgr.obj
 0001:0003f74c       ?Find@?$CStringT@_WV?$StrTraitMFC@_WV?$ChTraitsCRT@_W@ATL@@@@@ATL@@QBEH_WH@Z 0044074c f i uafxcw:docmgr.obj
 0001:0003f782       ??8ATL@@YA_NABV?$CStringT@_WV?$StrTraitMFC@_WV?$ChTraitsCRT@_W@ATL@@@@@0@0@Z 00440782 f i uafxcw:docmgr.obj
 0001:0003f79b       ??9ATL@@YA_NABV?$CStringT@_WV?$StrTraitMFC@_WV?$ChTraitsCRT@_W@ATL@@@@@0@PB_W@Z 0044079b f i uafxcw:docmgr.obj
 0001:0003f7b3       ?SetAt@?$CSimpleStringT@_W$0A@@ATL@@QAEXH_W@Z 004407b3 f i uafxcw:docmgr.obj
 0001:0003f7f4       ?OnInitDialog@CNewTypeDlg@@MAEHXZ 004407f4 f   uafxcw:docmgr.obj
 0001:0003f8e3       ?OnFileOpen@CDocManager@@UAEXXZ 004408e3 f   uafxcw:docmgr.obj
 0001:0003f940       ?Mid@?$CStringT@_WV?$StrTraitMFC@_WV?$ChTraitsCRT@_W@ATL@@@@@ATL@@QBE?AV12@H@Z 00440940 f i uafxcw:docmgr.obj
 0001:0003f965       ?UnregisterShellFileTypes@CDocManager@@QAEXXZ 00440965 f   uafxcw:docmgr.obj
 0001:0003fbdb       ?RegisterShellFileTypes@CDocManager@@UAEXH@Z 00440bdb f   uafxcw:docmgr.obj
 0001:000400e3       ?OnDDECommand@CDocManager@@UAEHPA_W@Z 004410e3 f   uafxcw:docmgr.obj
 0001:000406ea       ?_AfxAppendFilterSuffix@@YGXAAV?$CStringT@_WV?$StrTraitMFC@_WV?$ChTraitsCRT@_W@ATL@@@@@ATL@@AAUtagOFNW@@PAVCDocTemplate@@PAV12@@Z 004416ea f   uafxcw:docmgr.obj
 0001:00040856       ?DoPromptFileName@CDocManager@@UAEHAAV?$CStringT@_WV?$StrTraitMFC@_WV?$ChTraitsCRT@_W@ATL@@@@@ATL@@IKHPAVCDocTemplate@@@Z 00441856 f   uafxcw:docmgr.obj
 0001:00040ac2       ?IsDirSep@@YAH_W@Z         00441ac2 f i uafxcw:filecore.obj
 0001:00040ade       ?GetBufferPtr@CFile@@UAEIIIPAPAX0@Z 00441ade f   uafxcw:filecore.obj
 0001:00040ae3       ?Rename@CFile@@SGXPB_W0@Z  00441ae3 f   uafxcw:filecore.obj
 0001:00040b0b       ?Remove@CFile@@SGXPB_W@Z   00441b0b f   uafxcw:filecore.obj
 0001:00040b30       ?AfxComparePath@@YGHPB_W0@Z 00441b30 f   uafxcw:filecore.obj
 0001:00040c1f       ?GetRuntimeClass@CFile@@UBEPAUCRuntimeClass@@XZ 00441c1f f   uafxcw:filecore.obj
 0001:00040c25       ?GetFileTitle@@YGFPB_WPA_WG@Z 00441c25 f i uafxcw:filecore.obj
 0001:00040c31       ?StringCchLengthW@@YGJPB_WIPAI@Z 00441c31 f i uafxcw:filecore.obj
 0001:00040c68       ?Read@CFile@@UAEIPAXI@Z    00441c68 f   uafxcw:filecore.obj
 0001:00040caa       ?Write@CFile@@UAEXPBXI@Z   00441caa f   uafxcw:filecore.obj
 0001:00040cf7       ?Seek@CFile@@UAE_K_JI@Z    00441cf7 f   uafxcw:filecore.obj
 0001:00040d4a       ?GetPosition@CFile@@UBE_KXZ 00441d4a f   uafxcw:filecore.obj
 0001:00040d96       ?Flush@CFile@@UAEXXZ       00441d96 f   uafxcw:filecore.obj
 0001:00040dbf       ?LockRange@CFile@@UAEX_K0@Z 00441dbf f   uafxcw:filecore.obj
 0001:00040df4       ?UnlockRange@CFile@@UAEX_K0@Z 00441df4 f   uafxcw:filecore.obj
 0001:00040e29       ?SetLength@CFile@@UAEX_K@Z 00441e29 f   uafxcw:filecore.obj
 0001:00040e5f       ?GetLength@CFile@@UBE_KXZ  00441e5f f   uafxcw:filecore.obj
 0001:00040ea0       ?AfxGetFileTitle@@YGIPB_WPA_WI@Z 00441ea0 f   uafxcw:filecore.obj
 0001:00040f0e       ?Close@CFile@@UAEXXZ       00441f0e f   uafxcw:filecore.obj
 0001:00040f53       ?Abort@CFile@@UAEXXZ       00441f53 f   uafxcw:filecore.obj
 0001:00040f74       ??0CFile@@QAE@XZ           00441f74 f   uafxcw:filecore.obj
 0001:00040f93       ??0CFile@@QAE@PAX@Z        00441f93 f   uafxcw:filecore.obj
 0001:00040fba       ?Duplicate@CFile@@UBEPAV1@XZ 00441fba f   uafxcw:filecore.obj
 0001:00041030       ?AfxGetInProcServer@@YGHPB_WAAV?$CStringT@_WV?$StrTraitMFC@_WV?$ChTraitsCRT@_W@ATL@@@@@ATL@@@Z 00442030 f   uafxcw:filecore.obj
 0001:000410e5       ?AfxGetRoot@@YGXPB_WAAV?$CStringT@_WV?$StrTraitMFC@_WV?$ChTraitsCRT@_W@ATL@@@@@ATL@@@Z 004420e5 f   uafxcw:filecore.obj
 0001:0004112b       ??1CFile@@UAE@XZ           0044212b f   uafxcw:filecore.obj
 0001:00041226       ??_ECFile@@UAEPAXI@Z       00442226 f i uafxcw:filecore.obj
 0001:00041226       ??_GCFile@@UAEPAXI@Z       00442226 f i uafxcw:filecore.obj
 0001:00041247       ?_AfxFillExceptionInfo@@YGXPAVCFileException@@PB_W@Z 00442247 f   uafxcw:filecore.obj
 0001:00041276       ?_AfxFullPath2@@YGHPA_WPB_WPAVCFileException@@@Z 00442276 f   uafxcw:filecore.obj
 0001:00041437       ?AfxFullPath@@YGHPA_WPB_W@Z 00442437 f   uafxcw:filecore.obj
 0001:0004144d       ?AfxGetModuleShortFileName@@YGXPAUHINSTANCE__@@AAV?$CStringT@_WV?$StrTraitMFC@_WV?$ChTraitsCRT@_W@ATL@@@@@ATL@@@Z 0044244d f   uafxcw:filecore.obj
 0001:000414c0       ?Open@CFile@@UAEHPB_WIPAVCFileException@@@Z 004424c0 f   uafxcw:filecore.obj
 0001:000416aa       ?AfxStringFromCLSID@@YG?AV?$CStringT@_WV?$StrTraitMFC@_WV?$ChTraitsCRT@_W@ATL@@@@@ATL@@ABU_GUID@@@Z 004426aa f   uafxcw:filecore.obj
 0001:00041739       ??0CFile@@QAE@PB_WI@Z      00442739 f   uafxcw:filecore.obj
 0001:000417b0       ?GetClassObject@AFX_COM@@QAEJABU_GUID@@0PAPAX@Z 004427b0 f   uafxcw:filecore.obj
 0001:0004185f       ?CreateInstance@AFX_COM@@QAEJABU_GUID@@PAUIUnknown@@0PAPAX@Z 0044285f f   uafxcw:filecore.obj
 0001:000418bd       ?AfxResolveShortcut@@YGHPAVCWnd@@PB_WPA_WH@Z 004428bd f   uafxcw:filecore.obj
 0001:00041a2d       ?SetServerInfo@CDocTemplate@@QAEXIIPAUCRuntimeClass@@0@Z 00442a2d f   uafxcw:doctempl.obj
 0001:00041a5c       ?SetContainerInfo@CDocTemplate@@QAEXI@Z 00442a5c f   uafxcw:doctempl.obj
 0001:00041a79       ?AddDocument@CDocTemplate@@UAEXPAVCDocument@@@Z 00442a79 f   uafxcw:doctempl.obj
 0001:00041a88       ?RemoveDocument@CDocTemplate@@UAEXPAVCDocument@@@Z 00442a88 f   uafxcw:doctempl.obj
 0001:00041a98       ?CreateNewDocument@CDocTemplate@@UAEPAVCDocument@@XZ 00442a98 f   uafxcw:doctempl.obj
 0001:00041ac1       ?InitialUpdateFrame@CDocTemplate@@UAEXPAVCFrameWnd@@PAVCDocument@@H@Z 00442ac1 f   uafxcw:doctempl.obj
 0001:00041ad8       ?SaveAllModified@CDocTemplate@@UAEHXZ 00442ad8 f   uafxcw:doctempl.obj
 0001:00041b16       ?CloseAllDocuments@CDocTemplate@@UAEXH@Z 00442b16 f   uafxcw:doctempl.obj
 0001:00041b48       ?OnIdle@CDocTemplate@@UAEXXZ 00442b48 f   uafxcw:doctempl.obj
 0001:00041b7b       ?OnCmdMsg@CDocTemplate@@UAEHIHPAXPAUAFX_CMDHANDLERINFO@@@Z 00442b7b f   uafxcw:doctempl.obj
 0001:00041bc8       ?GetRuntimeClass@CDocTemplate@@UBEPAUCRuntimeClass@@XZ 00442bc8 f   uafxcw:doctempl.obj
 0001:00041bce       ?GetPathName@CDocument@@QBEABV?$CStringT@_WV?$StrTraitMFC@_WV?$ChTraitsCRT@_W@ATL@@@@@ATL@@XZ 00442bce f i uafxcw:doctempl.obj
 0001:00041bd2       ??0CCreateContext@@QAE@XZ  00442bd2 f i uafxcw:doctempl.obj
 0001:00041be8       ?GetDocString@CDocTemplate@@UBEHAAV?$CStringT@_WV?$StrTraitMFC@_WV?$ChTraitsCRT@_W@ATL@@@@@ATL@@W4DocStringIndex@1@@Z 00442be8 f   uafxcw:doctempl.obj
 0001:00041c02       ?CreateNewFrame@CDocTemplate@@UAEPAVCFrameWnd@@PAVCDocument@@PAV2@@Z 00442c02 f   uafxcw:doctempl.obj
 0001:00041c65       ?CreateOleFrame@CDocTemplate@@QAEPAVCFrameWnd@@PAVCWnd@@PAVCDocument@@H@Z 00442c65 f   uafxcw:doctempl.obj
 0001:00041cd3       ??1CDocTemplate@@UAE@XZ    00442cd3 f   uafxcw:doctempl.obj
 0001:00041d3b       ?MatchDocType@CDocTemplate@@UAE?AW4Confidence@1@PB_WAAPAVCDocument@@@Z 00442d3b f   uafxcw:doctempl.obj
 0001:00041de0       ?LoadTemplate@CDocTemplate@@UAEXXZ 00442de0 f   uafxcw:doctempl.obj
 0001:00041e9c       ??0CDocTemplate@@IAE@IPAUCRuntimeClass@@00@Z 00442e9c f   uafxcw:doctempl.obj
 0001:00041f90       ?GetEventSinkEntry@CCmdTarget@@IAGPBUAFX_EVENTSINKMAP_ENTRY@@IPAUAFX_EVENT@@@Z 00442f90 f   uafxcw:occevent.obj
 0001:00042007       ?OnEvent@CCmdTarget@@QAEHIPAUAFX_EVENT@@PAUAFX_CMDHANDLERINFO@@@Z 00443007 f   uafxcw:occevent.obj
 0001:00042210       ?ultot_s@Checked@ATL@@YAXKPA_WIH@Z 00443210 f i uafxcw:occcont.obj
 0001:00042231       ?GetInterfaceMap@COleControlContainer@@MBEPBUAFX_INTERFACEMAP@@XZ 00443231 f   uafxcw:occcont.obj
 0001:00042237       ?GetDispatchMap@COleControlContainer@@MBEPBUAFX_DISPMAP@@XZ 00443237 f   uafxcw:occcont.obj
 0001:0004223d       ??0COleControlSiteOrWnd@@QAE@XZ 0044323d f   uafxcw:occcont.obj
 0001:0004224a       ??0COleControlSiteOrWnd@@QAE@PAVCOleControlSite@@@Z 0044324a f   uafxcw:occcont.obj
 0001:00042262       ??0COleControlSiteOrWnd@@QAE@PAUHWND__@@H@Z 00443262 f   uafxcw:occcont.obj
 0001:0004227c       ??1COleControlSiteOrWnd@@QAE@XZ 0044327c f   uafxcw:occcont.obj
 0001:0004228b       ??1?$_CTypedPtrList@VCPtrList@@PAUCOleControlSiteOrWnd@@@@UAE@XZ 0044328b f i uafxcw:occcont.obj
 0001:00042290       ??_GCOleControlSiteOrWnd@@QAEPAXI@Z 00443290 f i uafxcw:occcont.obj
 0001:000422b1       ?OnUIActivate@COleControlContainer@@UAEXPAVCOleControlSite@@@Z 004432b1 f   uafxcw:occcont.obj
 0001:000422da       ??0CSize@@QAE@HH@Z         004432da f i uafxcw:occcont.obj
 0001:000422f0       ?OnUIDeactivate@COleControlContainer@@UAEXPAVCOleControlSite@@@Z 004432f0 f   uafxcw:occcont.obj
 0001:0004230e       ?CheckRadioButton@COleControlContainer@@UAEXHHH@Z 0044330e f   uafxcw:occcont.obj
 0001:00042339       ?GetDlgItem@COleControlContainer@@UBEPAVCWnd@@H@Z 00443339 f   uafxcw:occcont.obj
 0001:00042356       ?GetDlgItemInt@COleControlContainer@@UBEIHPAHH@Z 00443356 f   uafxcw:occcont.obj
 0001:00042418       ?GetDlgItemTextW@COleControlContainer@@UBEHHPA_WH@Z 00443418 f   uafxcw:occcont.obj
 0001:0004243a       ?SetDlgItemInt@COleControlContainer@@UAEXHIH@Z 0044343a f   uafxcw:occcont.obj
 0001:00042495       ?SetDlgItemTextW@COleControlContainer@@UAEXHPB_W@Z 00443495 f   uafxcw:occcont.obj
 0001:000424b4       ?HandleSetFocus@COleControlContainer@@UAEHXZ 004434b4 f   uafxcw:occcont.obj
 0001:000424bd       ?AfxGetDlgItemStartFromHWND@@YAPAUHWND__@@HPAU1@@Z 004434bd f   uafxcw:occcont.obj
 0001:000424e8       ?QueryInterface@XOleIPFrame@COleControlContainer@@UAGJABU_GUID@@PAPAX@Z 004434e8 f   uafxcw:occcont.obj
 0001:00042502       ?Release@XOleIPFrame@COleControlContainer@@UAGKXZ 00443502 f   uafxcw:occcont.obj
 0001:00042516       ?GetWindow@XOleIPFrame@COleControlContainer@@UAGJPAPAUHWND__@@@Z 00443516 f   uafxcw:occcont.obj
 0001:0004252f       ?ContextSensitiveHelp@XOleIPFrame@COleControlContainer@@UAGJH@Z 0044352f f   uafxcw:occcont.obj
 0001:00042537       ?Size@CRect@@QBE?AVCSize@@XZ 00443537 f i uafxcw:occcont.obj
 0001:00042553       ?GetBorder@XOleIPFrame@COleControlContainer@@UAGJPAUtagRECT@@@Z 00443553 f   uafxcw:occcont.obj
 0001:0004255b       ?RequestBorderSpace@XOleIPFrame@COleControlContainer@@UAGJPBUtagRECT@@@Z 0044355b f   uafxcw:occcont.obj
 0001:00042563       ?SetBorderSpace@XOleIPFrame@COleControlContainer@@UAGJPBUtagRECT@@@Z 00443563 f   uafxcw:occcont.obj
 0001:0004256b       ?SetActiveObject@XOleIPFrame@COleControlContainer@@UAGJPAUIOleInPlaceActiveObject@@PB_W@Z 0044356b f   uafxcw:occcont.obj
 0001:000425a6       ?InsertMenus@XOleIPFrame@COleControlContainer@@UAGJPAUHMENU__@@PAUtagOleMenuGroupWidths@@@Z 004435a6 f   uafxcw:occcont.obj
 0001:000425ae       ?SetMenu@XOleIPFrame@COleControlContainer@@UAGJPAUHMENU__@@PAXPAUHWND__@@@Z 004435ae f   uafxcw:occcont.obj
 0001:000425b6       ?RemoveMenus@XOleIPFrame@COleControlContainer@@UAGJPAUHMENU__@@@Z 004435b6 f   uafxcw:occcont.obj
 0001:000425be       ?SetStatusText@XOleIPFrame@COleControlContainer@@UAGJPB_W@Z 004435be f   uafxcw:occcont.obj
 0001:000425c6       ?EnableModeless@XOleIPFrame@COleControlContainer@@UAGJH@Z 004435c6 f   uafxcw:occcont.obj
 0001:000425cb       ?TranslateAcceleratorW@XOleIPFrame@COleControlContainer@@UAGJPAUtagMSG@@G@Z 004435cb f   uafxcw:occcont.obj
 0001:000425d3       ??0CEnumUnknown@@QAE@PBXI@Z 004435d3 f i uafxcw:occcont.obj
 0001:000425f7       ?GetInterfaceMap@CEnumUnknown@@MBEPBUAFX_INTERFACEMAP@@XZ 004435f7 f   uafxcw:occcont.obj
 0001:000425fd       ??1CEnumUnknown@@UAE@XZ    004435fd f   uafxcw:occcont.obj
 0001:00042646       ?OnNext@CEnumUnknown@@MAEHPAX@Z 00443646 f   uafxcw:occcont.obj
 0001:00042669       ?QueryInterface@XOleContainer@COleControlContainer@@UAGJABU_GUID@@PAPAX@Z 00443669 f   uafxcw:occcont.obj
 0001:00042683       ?Release@XOleContainer@COleControlContainer@@UAGKXZ 00443683 f   uafxcw:occcont.obj
 0001:00042697       ?ParseDisplayName@XOleContainer@COleControlContainer@@UAGJPAUIBindCtx@@PA_WPAKPAPAUIMoniker@@@Z 00443697 f   uafxcw:occcont.obj
 0001:0004269f       ?OffsetRect@CRect@@QAEXHH@Z 0044369f f i uafxcw:occcont.obj
 0001:000426b5       ?LockContainer@XOleContainer@COleControlContainer@@UAGJH@Z 004436b5 f   uafxcw:occcont.obj
 0001:000426bd       ??0CControlCreationInfo@@QAE@XZ 004436bd f   uafxcw:occcont.obj
 0001:000426ca       ?IsManaged@CControlCreationInfo@@QBEHXZ 004436ca f   uafxcw:occcont.obj
 0001:000426d3       ?AddTail@?$CTypedPtrList@VCPtrList@@PAUCOleControlSiteOrWnd@@@@QAEPAU__POSITION@@PAUCOleControlSiteOrWnd@@@Z 004436d3 f i uafxcw:occcont.obj
 0001:000426de       ?TransferAddTail@?$CTypedPtrList@VCPtrList@@PAUCOleControlSiteOrWnd@@@@QAEPAU__POSITION@@PAUCOleControlSiteOrWnd@@@Z 004436de f i uafxcw:occcont.obj
 0001:00042716       ?RemoveHead@?$_CTypedPtrList@VCPtrList@@PAUCOleControlSiteOrWnd@@@@QAEPAUCOleControlSiteOrWnd@@XZ 00443716 f i uafxcw:occcont.obj
 0001:0004271b       ?TransferInsertBefore@?$_CTypedPtrList@VCPtrList@@PAUCOleControlSiteOrWnd@@@@QAEPAU__POSITION@@PAU2@PAUCOleControlSiteOrWnd@@@Z 0044371b f i uafxcw:occcont.obj
 0001:00042756       ??0?$CComPtrBase@UIUnknown@@@ATL@@IAE@H@Z 00443756 f i uafxcw:occcont.obj
 0001:0004275e       ??0?$_CTypedPtrList@VCPtrList@@PAUCOleControlSiteOrWnd@@@@QAE@H@Z 0044375e f i uafxcw:occcont.obj
 0001:0004277b       ??_E?$_CTypedPtrList@VCPtrList@@PAUCOleControlSiteOrWnd@@@@UAEPAXI@Z 0044377b f i uafxcw:occcont.obj
 0001:0004277b       ??_G?$_CTypedPtrList@VCPtrList@@PAUCOleControlSiteOrWnd@@@@UAEPAXI@Z 0044377b f i uafxcw:occcont.obj
 0001:0004279c       ?CreateStockObject@CGdiObject@@QAEHH@Z 0044379c f i uafxcw:occcont.obj
 0001:000427be       ?GetLogFont@CFont@@QAEHPAUtagLOGFONTW@@@Z 004437be f i uafxcw:occcont.obj
 0001:000427d5       ??BCDC@@QBEPAUHDC__@@XZ    004437d5 f i uafxcw:occcont.obj
 0001:000427e0       ?GetBkColor@CDC@@QBEKXZ    004437e0 f i uafxcw:occcont.obj
 0001:000427ea       ?GetTextColor@CDC@@QBEKXZ  004437ea f i uafxcw:occcont.obj
 0001:000427f4       ??1?$CComPtrBase@UIUnknown@@@ATL@@QAE@XZ 004437f4 f i uafxcw:occcont.obj
 0001:00042801       ??B?$CComPtrBase@UIUnknown@@@ATL@@QBEPAUIUnknown@@XZ 00443801 f i uafxcw:occcont.obj
 0001:00042804       ??I?$CComPtrBase@UIUnknown@@@ATL@@QAEPAPAUIUnknown@@XZ 00443804 f i uafxcw:occcont.obj
 0001:00042807       ??1?$CComPtr@UIUnknown@@@ATL@@QAE@XZ 00443807 f i uafxcw:occcont.obj
 0001:00042814       ?InitControlContainer@CWnd@@IAEHH@Z 00443814 f   uafxcw:occcont.obj
 0001:000428e3       ??1?$CTypedPtrList@VCPtrList@@PAUCOleControlSiteOrWnd@@@@UAE@XZ 004438e3 f i uafxcw:occcont.obj
 0001:000428e8       ??0IParseDisplayName@@QAE@XZ 004438e8 f i uafxcw:occcont.obj
 0001:000428eb       ?CreateControlCommon@COleControlContainer@@QAEHPAVCWnd@@ABU_GUID@@ABVCControlCreationInfo@@PB_WKPBUtagPOINT@@PBUtagSIZE@@IPAVCFile@@HPA_WPAPAVCOleControlSite@@@Z 004438eb f   uafxcw:occcont.obj
 0001:00042a26       ?CreateControl@COleControlContainer@@QAEHPAVCWnd@@ABU_GUID@@PB_WKPBUtagPOINT@@PBUtagSIZE@@IPAVCFile@@HPA_WPAPAVCOleControlSite@@@Z 00443a26 f   uafxcw:occcont.obj
 0001:00042aac       ?CheckDlgButton@COleControlContainer@@UAEXHI@Z 00443aac f   uafxcw:occcont.obj
 0001:00042aee       ?GetDlgItem@COleControlContainer@@UBEXHPAPAUHWND__@@@Z 00443aee f   uafxcw:occcont.obj
 0001:00042b2d       ?SendDlgItemMessageW@COleControlContainer@@UAEJHIIJ@Z 00443b2d f   uafxcw:occcont.obj
 0001:00042b52       ?IsDlgButtonChecked@COleControlContainer@@UBEIH@Z 00443b52 f   uafxcw:occcont.obj
 0001:00042bc4       ?AddRef@XOleIPFrame@COleControlContainer@@UAGKXZ 00443bc4 f   uafxcw:occcont.obj
 0001:00042bda       ??_GCEnumUnknown@@UAEPAXI@Z 00443bda f i uafxcw:occcont.obj
 0001:00042bda       ??_ECEnumUnknown@@UAEPAXI@Z 00443bda f i uafxcw:occcont.obj
 0001:00042bfb       ?AddRef@XOleContainer@COleControlContainer@@UAGKXZ 00443bfb f   uafxcw:occcont.obj
 0001:00042c11       ??0?$CComPtr@UIUnknown@@@ATL@@QAE@H@Z 00443c11 f i uafxcw:occcont.obj
 0001:00042c19       ??0?$CTypedPtrList@VCPtrList@@PAUCOleControlSiteOrWnd@@@@QAE@H@Z 00443c19 f i uafxcw:occcont.obj
 0001:00042c36       ??_G?$CTypedPtrList@VCPtrList@@PAUCOleControlSiteOrWnd@@@@UAEPAXI@Z 00443c36 f i uafxcw:occcont.obj
 0001:00042c36       ??_E?$CTypedPtrList@VCPtrList@@PAUCOleControlSiteOrWnd@@@@UAEPAXI@Z 00443c36 f i uafxcw:occcont.obj
 0001:00042c57       ?CreateControl@CWnd@@QAEHABU_GUID@@PB_WKPBUtagPOINT@@PBUtagSIZE@@PAV1@IPAVCFile@@HPA_W@Z 00443c57 f   uafxcw:occcont.obj
 0001:00042ca4       ??0IOleContainer@@QAE@XZ   00443ca4 f i uafxcw:occcont.obj
 0001:00042ca7       ??0IOleInPlaceUIWindow@@QAE@XZ 00443ca7 f i uafxcw:occcont.obj
 0001:00042caa       ??1COleControlContainer@@UAE@XZ 00443caa f   uafxcw:occcont.obj
 0001:00042dac       ?BroadcastAmbientPropertyChange@COleControlContainer@@UAEXJ@Z 00443dac f   uafxcw:occcont.obj
 0001:00042e17       ?CreateControl@COleControlContainer@@QAEHPAVCWnd@@ABU_GUID@@PB_WKABUtagRECT@@IPAVCFile@@HPA_WPAPAVCOleControlSite@@@Z 00443e17 f   uafxcw:occcont.obj
 0001:00042e78       ?CreateControl@COleControlContainer@@QAEHPAVCWnd@@ABVCControlCreationInfo@@KPBUtagPOINT@@PBUtagSIZE@@I@Z 00443e78 f   uafxcw:occcont.obj
 0001:00042ea4       ?FindItem@COleControlContainer@@UBEPAVCOleControlSite@@I@Z 00443ea4 f   uafxcw:occcont.obj
 0001:00042ef8       ?FreezeAllEvents@COleControlContainer@@QAEXH@Z 00443ef8 f   uafxcw:occcont.obj
 0001:00042f35       ?ScrollChildren@COleControlContainer@@UAEXHH@Z 00443f35 f   uafxcw:occcont.obj
 0001:00042f8b       ?HandleWindowlessMessage@COleControlContainer@@UAEHIIJPAJ@Z 00443f8b f   uafxcw:occcont.obj
 0001:00043096       ?OnPaint@COleControlContainer@@UAEHPAVCDC@@@Z 00444096 f   uafxcw:occcont.obj
 0001:0004312f       ?FillListSitesOrWnds@COleControlContainer@@UAEHPAU_AFX_OCC_DIALOG_INFO@@@Z 0044412f f   uafxcw:occcont.obj
 0001:0004329a       ?EnumObjects@XOleContainer@COleControlContainer@@UAGJKPAPAUIEnumUnknown@@@Z 0044429a f   uafxcw:occcont.obj
 0001:00043396       ?CreateControl@CWnd@@QAEHABU_GUID@@PB_WKABUtagRECT@@PAV1@IPAVCFile@@HPA_W@Z 00444396 f   uafxcw:occcont.obj
 0001:000433f4       ?CreateControl@CWnd@@QAEHABVCControlCreationInfo@@KPBUtagPOINT@@PBUtagSIZE@@PAV1@I@Z 004443f4 f   uafxcw:occcont.obj
 0001:00043433       ??_ECOleControlContainer@@UAEPAXI@Z 00444433 f i uafxcw:occcont.obj
 0001:00043433       ??_GCOleControlContainer@@UAEPAXI@Z 00444433 f i uafxcw:occcont.obj
 0001:00043454       ??0XOleContainer@COleControlContainer@@QAE@XZ 00444454 f i uafxcw:occcont.obj
 0001:0004345d       ??0IOleInPlaceFrame@@QAE@XZ 0044445d f i uafxcw:occcont.obj
 0001:00043460       ?CreateControl@CWnd@@QAEHPB_W0KABUtagRECT@@PAV1@IPAVCFile@@HPA_W@Z 00444460 f   uafxcw:occcont.obj
 0001:000434d1       ??0XOleIPFrame@COleControlContainer@@QAE@XZ 004444d1 f i uafxcw:occcont.obj
 0001:000434da       ??0COleControlContainer@@QAE@PAVCWnd@@@Z 004444da f   uafxcw:occcont.obj
 0001:00043548       ?CreateOleFont@COleControlContainer@@QAEXPAVCFont@@@Z 00444548 f   uafxcw:occcont.obj
 0001:0004369c       ?GetAmbientProp@COleControlContainer@@UAEHPAVCOleControlSite@@JPAUtagVARIANT@@@Z 0044469c f   uafxcw:occcont.obj
 0001:00043868       ??0CAccessorBase@ATL@@QAE@XZ 00444868 f i uafxcw:occsite.obj
 0001:00043875       ?Close@CAccessorBase@ATL@@QAEXXZ 00444875 f i uafxcw:occsite.obj
 0001:00043876       ?GetNumAccessors@CAccessorBase@ATL@@QBEKXZ 00444876 f i uafxcw:occsite.obj
 0001:0004387a       ?GetHAccessor@CAccessorBase@ATL@@QBEKK@Z 0044487a f i uafxcw:occsite.obj
 0001:00043894       ?IsAutoAccessor@CAccessorBase@ATL@@QBE_NK@Z 00444894 f i uafxcw:occsite.obj
 0001:000438b3       ?GetBuffer@CAccessorBase@ATL@@QBEPAEXZ 004448b3 f i uafxcw:occsite.obj
 0001:000438b7       ?AllocateAccessorMemory@CAccessorBase@ATL@@QAEJH@Z 004448b7 f i uafxcw:occsite.obj
 0001:00043918       ?BindEntries@CAccessorBase@ATL@@SAJPAUtagDBBINDING@@KPAKKPAUIAccessor@@@Z 00444918 f i uafxcw:occsite.obj
 0001:00043979       ?FreeRecordMemory@CAccessorBase@ATL@@QAEXPAUIRowset@@@Z 00444979 f i uafxcw:occsite.obj
 0001:0004397c       ??0CDynamicAccessor@ATL@@QAE@W4DBBLOBHANDLINGENUM@1@K@Z 0044497c f i uafxcw:occsite.obj
 0001:000439a9       ?Close@CDynamicAccessor@ATL@@QAEXXZ 004449a9 f i uafxcw:occsite.obj
 0001:000439e7       ?GetColumnCount@CDynamicAccessor@ATL@@QBEKXZ 004449e7 f i uafxcw:occsite.obj
 0001:000439eb       ?_GetDataPtr@CDynamicAccessor@ATL@@QBEPAXK@Z 004449eb f i uafxcw:occsite.obj
 0001:00043a04       ?BindEx@CDynamicAccessor@ATL@@SAXPAUtagDBBINDING@@KGKEEKKKKPAUtagDBOBJECT@@K_N@Z 00444a04 f i uafxcw:occsite.obj
 0001:00043a92       ?AtlComPtrAssign@ATL@@YGPAUIUnknown@@PAPAU2@PAU2@@Z 00444a92 f i uafxcw:occsite.obj
 0001:00043ac7       ?TranslateColumnNo@CDynamicAccessor@ATL@@QBE_NAAK@Z 00444ac7 f i uafxcw:occsite.obj
 0001:00043b1e       ?GetAlignment@CDynamicAccessor@ATL@@SAIG@Z 00444b1e f i uafxcw:occsite.obj
 0001:00043bda       ??0CManualAccessor@ATL@@QAE@XZ 00444bda f i uafxcw:occsite.obj
 0001:00043bf6       ??1CManualAccessor@ATL@@QAE@XZ 00444bf6 f i uafxcw:occsite.obj
 0001:00043c0f       ?CreateAccessor@CManualAccessor@ATL@@QAEJHPAXK@Z 00444c0f f i uafxcw:occsite.obj
 0001:00043c98       ??1CDataBoundProperty@@QAE@XZ 00444c98 f i uafxcw:occsite.obj
 0001:00043c99       ?GetInterfaceMap@COleControlSite@@MBEPBUAFX_INTERFACEMAP@@XZ 00444c99 f   uafxcw:occsite.obj
 0001:00043c9f       ?CreateControl@COleControlSite@@UAEJPAVCWnd@@ABU_GUID@@PB_WKPBUtagPOINT@@PBUtagSIZE@@IPAVCFile@@HPA_W@Z 00444c9f f   uafxcw:occsite.obj
 0001:00043d1b       ?CreateControl@COleControlSite@@QAEJPAVCWnd@@ABVCControlCreationInfo@@KPBUtagPOINT@@PBUtagSIZE@@I@Z 00444d1b f   uafxcw:occsite.obj
 0001:00043d49       ?_AfxCoCreateInstanceLic@@YGJABU_GUID@@PAUIUnknown@@K0PAPAXPA_W@Z 00444d49 f   uafxcw:occsite.obj
 0001:00043de0       ?CreateOrLoad@COleControlSite@@MAEJABVCControlCreationInfo@@@Z 00444de0 f   uafxcw:occsite.obj
 0001:00043de8       ?IsDefaultButton@COleControlSite@@QAEHXZ 00444de8 f   uafxcw:occsite.obj
 0001:00043dfc       ?GetDefBtnCode@COleControlSite@@QAEKXZ 00444dfc f   uafxcw:occsite.obj
 0001:00043e1b       ?SetDefaultButton@COleControlSite@@QAEXH@Z 00444e1b f   uafxcw:occsite.obj
 0001:00043e82       ?ConnectSink@COleControlSite@@IAEKABU_GUID@@PAUIUnknown@@@Z 00444e82 f   uafxcw:occsite.obj
 0001:00043eee       ??0CRect@@QAE@PBUtagRECT@@@Z 00444eee f i uafxcw:occsite.obj
 0001:00043f07       ??0CRect@@QAE@UtagPOINT@@UtagSIZE@@@Z 00444f07 f i uafxcw:occsite.obj
 0001:00043f2d       ?DisconnectSink@COleControlSite@@IAEXABU_GUID@@K@Z 00444f2d f   uafxcw:occsite.obj
 0001:00043f8f       ?GetEventIID@COleControlSite@@QAEHPAU_GUID@@@Z 00444f8f f   uafxcw:occsite.obj
 0001:00044106       ?IsRectEmpty@CRect@@QBEHXZ 00445106 f i uafxcw:occsite.obj
 0001:00044110       ?GetControlInfo@COleControlSite@@IAEXXZ 00445110 f   uafxcw:occsite.obj
 0001:00044169       ?SetRect@CRect@@QAEXHHHH@Z 00445169 f i uafxcw:occsite.obj
 0001:00044185       ?IsMatchingMnemonic@COleControlSite@@QAEHPAUtagMSG@@@Z 00445185 f   uafxcw:occsite.obj
 0001:0004423b       ?SendMnemonic@COleControlSite@@QAEXPAUtagMSG@@@Z 0044523b f   uafxcw:occsite.obj
 0001:00044297       ?FreezeEvents@COleControlSite@@QAEXH@Z 00445297 f   uafxcw:occsite.obj
 0001:000442de       ?AttachWindow@COleControlSite@@QAEXXZ 004452de f   uafxcw:occsite.obj
 0001:00044326       ?DetachWindow@COleControlSite@@QAEXXZ 00445326 f   uafxcw:occsite.obj
 0001:00044376       ?OnEvent@COleControlSite@@IAEHPAUAFX_EVENT@@@Z 00445376 f   uafxcw:occsite.obj
 0001:000443c8       ??9CRect@@QBEHABUtagRECT@@@Z 004453c8 f i uafxcw:occsite.obj
 0001:000443e0       ?InvokeHelperV@COleControlSite@@UAEXJGGPAXPBEPAD@Z 004453e0 f   uafxcw:occsite.obj
 0001:0004443c       ?SetPropertyV@COleControlSite@@UAEXJGPAD@Z 0044543c f   uafxcw:occsite.obj
 0001:00044496       ?InvokeHelper@COleControlSite@@UAAXJGGPAXPBEZZ 00445496 f   uafxcw:occsite.obj
 0001:000444b8       ?GetProperty@COleControlSite@@UBEXJGPAX@Z 004454b8 f   uafxcw:occsite.obj
 0001:000444d7       ?SetProperty@COleControlSite@@UAAXJGZZ 004454d7 f   uafxcw:occsite.obj
 0001:000444f0       ?SafeSetProperty@COleControlSite@@UAAHJGZZ 004454f0 f   uafxcw:occsite.obj
 0001:00044538       ?GetStyle@COleControlSite@@UBEKXZ 00445538 f   uafxcw:occsite.obj
 0001:000445ed       ?GetExStyle@COleControlSite@@UBEKXZ 004455ed f   uafxcw:occsite.obj
 0001:00044648       ?ModifyStyle@COleControlSite@@UAEHKKI@Z 00445648 f   uafxcw:occsite.obj
 0001:000446e5       ?ModifyStyleEx@COleControlSite@@UAEHKKI@Z 004456e5 f   uafxcw:occsite.obj
 0001:00044741       ?SetWindowTextW@COleControlSite@@UAEXPB_W@Z 00445741 f   uafxcw:occsite.obj
 0001:00044783       ?GetWindowTextW@COleControlSite@@UBEXAAV?$CStringT@_WV?$StrTraitMFC@_WV?$ChTraitsCRT@_W@ATL@@@@@ATL@@@Z 00445783 f   uafxcw:occsite.obj
 0001:000447e6       ?GetDlgCtrlID@COleControlSite@@UBEHXZ 004457e6 f   uafxcw:occsite.obj
 0001:000447ea       ?SetDlgCtrlID@COleControlSite@@UAEHH@Z 004457ea f   uafxcw:occsite.obj
 0001:000447fc       ?ShowWindow@COleControlSite@@UAEHH@Z 004457fc f   uafxcw:occsite.obj
 0001:00044840       ?IsWindowEnabled@COleControlSite@@UBEHXZ 00445840 f   uafxcw:occsite.obj
 0001:00044894       ?EnableWindow@COleControlSite@@UAEHH@Z 00445894 f   uafxcw:occsite.obj
 0001:0004492d       ??_GCDataBoundProperty@@QAEPAXI@Z 0044592d f i uafxcw:occsite.obj
 0001:00044949       ?Release@XOleClientSite@COleControlSite@@UAGKXZ 00445949 f   uafxcw:occsite.obj
 0001:00044960       ?QueryInterface@XOleClientSite@COleControlSite@@UAGJABU_GUID@@PAPAX@Z 00445960 f   uafxcw:occsite.obj
 0001:0004497d       ?SaveObject@XOleClientSite@COleControlSite@@UAGJXZ 0044597d f   uafxcw:occsite.obj
 0001:00044985       ?GetMoniker@XOleClientSite@COleControlSite@@UAGJKKPAPAUIMoniker@@@Z 00445985 f   uafxcw:occsite.obj
 0001:0004498d       ?GetContainer@XOleClientSite@COleControlSite@@UAGJPAPAUIOleContainer@@@Z 0044598d f   uafxcw:occsite.obj
 0001:000449ac       ?OnShowWindow@XOleClientSite@COleControlSite@@UAGJH@Z 004459ac f   uafxcw:occsite.obj
 0001:000449b1       ?RequestNewObjectLayout@XOleClientSite@COleControlSite@@UAGJXZ 004459b1 f   uafxcw:occsite.obj
 0001:000449b9       ?Release@XOleIPSite@COleControlSite@@UAGKXZ 004459b9 f   uafxcw:occsite.obj
 0001:000449d0       ?QueryInterface@XOleIPSite@COleControlSite@@UAGJABU_GUID@@PAPAX@Z 004459d0 f   uafxcw:occsite.obj
 0001:000449ed       ?ContextSensitiveHelp@XOleIPSite@COleControlSite@@UAGJH@Z 004459ed f   uafxcw:occsite.obj
 0001:000449f5       ?CanInPlaceActivate@XOleIPSite@COleControlSite@@UAGJXZ 004459f5 f   uafxcw:occsite.obj
 0001:000449fa       ?OnInPlaceActivate@XOleIPSite@COleControlSite@@UAGJXZ 004459fa f   uafxcw:occsite.obj
 0001:000449ff       ?OnUIActivate@XOleIPSite@COleControlSite@@UAGJXZ 004459ff f   uafxcw:occsite.obj
 0001:00044a26       ?Scroll@XOleIPSite@COleControlSite@@UAGJUtagSIZE@@@Z 00445a26 f   uafxcw:occsite.obj
 0001:00044a2c       ?OnUIDeactivate@XOleIPSite@COleControlSite@@UAGJH@Z 00445a2c f   uafxcw:occsite.obj
 0001:00044a4b       ?DiscardUndoState@XOleIPSite@COleControlSite@@UAGJXZ 00445a4b f   uafxcw:occsite.obj
 0001:00044a50       ?DeactivateAndUndo@XOleIPSite@COleControlSite@@UAGJXZ 00445a50 f   uafxcw:occsite.obj
 0001:00044a72       ?OnInPlaceDeactivateEx@XOleIPSite@COleControlSite@@UAGJH@Z 00445a72 f   uafxcw:occsite.obj
 0001:00044a84       ?Release@XOleControlSite@COleControlSite@@UAGKXZ 00445a84 f   uafxcw:occsite.obj
 0001:00044a9b       ?QueryInterface@XOleControlSite@COleControlSite@@UAGJABU_GUID@@PAPAX@Z 00445a9b f   uafxcw:occsite.obj
 0001:00044ab8       ?OnControlInfoChanged@XOleControlSite@COleControlSite@@UAGJXZ 00445ab8 f   uafxcw:occsite.obj
 0001:00044ad1       ?LockInPlaceActive@XOleControlSite@COleControlSite@@UAGJH@Z 00445ad1 f   uafxcw:occsite.obj
 0001:00044ad9       ?GetExtendedControl@XOleControlSite@COleControlSite@@UAGJPAPAUIDispatch@@@Z 00445ad9 f   uafxcw:occsite.obj
 0001:00044ae1       ?TranslateAcceleratorW@XOleControlSite@COleControlSite@@UAGJPAUtagMSG@@K@Z 00445ae1 f   uafxcw:occsite.obj
 0001:00044ae9       ?OnFocus@XOleControlSite@COleControlSite@@UAGJH@Z 00445ae9 f   uafxcw:occsite.obj
 0001:00044aee       ?ShowPropertyFrame@XOleControlSite@COleControlSite@@UAGJXZ 00445aee f   uafxcw:occsite.obj
 0001:00044af6       ?Release@XAmbientProps@COleControlSite@@UAGKXZ 00445af6 f   uafxcw:occsite.obj
 0001:00044b0d       ?QueryInterface@XAmbientProps@COleControlSite@@UAGJABU_GUID@@PAPAX@Z 00445b0d f   uafxcw:occsite.obj
 0001:00044b2a       ?GetTypeInfoCount@XAmbientProps@COleControlSite@@UAGJPAI@Z 00445b2a f   uafxcw:occsite.obj
 0001:00044b32       ?GetTypeInfo@XAmbientProps@COleControlSite@@UAGJIKPAPAUITypeInfo@@@Z 00445b32 f   uafxcw:occsite.obj
 0001:00044b3a       ?GetIDsOfNames@XAmbientProps@COleControlSite@@UAGJABU_GUID@@PAPA_WIKPAJ@Z 00445b3a f   uafxcw:occsite.obj
 0001:00044b42       ?QueryInterface@XPropertyNotifySink@COleControlSite@@UAGJABU_GUID@@PAPAX@Z 00445b42 f   uafxcw:occsite.obj
 0001:00044b88       ?AddRef@XPropertyNotifySink@COleControlSite@@UAGKXZ 00445b88 f   uafxcw:occsite.obj
 0001:00044b8e       ?Release@XPropertyNotifySink@COleControlSite@@UAGKXZ 00445b8e f   uafxcw:occsite.obj
 0001:00044b93       ?AddRef@XEventSink@COleControlSite@@UAGKXZ 00445b93 f   uafxcw:occsite.obj
 0001:00044b99       ?Release@XEventSink@COleControlSite@@UAGKXZ 00445b99 f   uafxcw:occsite.obj
 0001:00044b9e       ?QueryInterface@XEventSink@COleControlSite@@UAGJABU_GUID@@PAPAX@Z 00445b9e f   uafxcw:occsite.obj
 0001:00044bfb       ?GetTypeInfoCount@XEventSink@COleControlSite@@UAGJPAI@Z 00445bfb f   uafxcw:occsite.obj
 0001:00044c03       ?GetTypeInfo@XEventSink@COleControlSite@@UAGJIKPAPAUITypeInfo@@@Z 00445c03 f   uafxcw:occsite.obj
 0001:00044c0b       ?GetIDsOfNames@XEventSink@COleControlSite@@UAGJABU_GUID@@PAPA_WIKPAJ@Z 00445c0b f   uafxcw:occsite.obj
 0001:00044c13       ??0CDataSourceControl@@QAE@PAVCOleControlSite@@@Z 00445c13 f   uafxcw:occsite.obj
 0001:00044c66       ?GetCursor@CDataSourceControl@@UAEPAUIUnknown@@XZ 00445c66 f   uafxcw:occsite.obj
 0001:00044cd1       ?CopyColumnID@CDataSourceControl@@QAEHPAUtagDBCOLUMNID@@PBU2@@Z 00445cd1 f   uafxcw:occsite.obj
 0001:00044d4d       ?BindProp@CDataSourceControl@@UAEXPAVCDataBoundProperty@@H@Z 00445d4d f   uafxcw:occsite.obj
 0001:00044d95       ??0CDataBoundProperty@@QAE@PAV0@JG@Z 00445d95 f   uafxcw:occsite.obj
 0001:00044dbe       ?SetClientSite@CDataBoundProperty@@QAEXPAVCOleControlSite@@@Z 00445dbe f   uafxcw:occsite.obj
 0001:00044dcc       ?GetNext@CDataBoundProperty@@QAEPAV1@XZ 00445dcc f   uafxcw:occsite.obj
 0001:00044dd0       ?GetCursor@CDataBoundProperty@@QAEPAUIUnknown@@XZ 00445dd0 f   uafxcw:occsite.obj
 0001:00044e09       ?GetCursor@COleControlSite@@IAEJJPAPAUIUnknown@@PAPAX@Z 00445e09 f   uafxcw:occsite.obj
 0001:00044e41       ?AddRef@XNotifyDBEvents@COleControlSite@@UAGKXZ 00445e41 f   uafxcw:occsite.obj
 0001:00044e47       ?Release@XNotifyDBEvents@COleControlSite@@UAGKXZ 00445e47 f   uafxcw:occsite.obj
 0001:00044e4c       ?QueryInterface@XNotifyDBEvents@COleControlSite@@UAGJABU_GUID@@PAPAX@Z 00445e4c f   uafxcw:occsite.obj
 0001:00044e92       ?AddRef@XRowsetNotify@COleControlSite@@UAGKXZ 00445e92 f   uafxcw:occsite.obj
 0001:00044e98       ?Release@XRowsetNotify@COleControlSite@@UAGKXZ 00445e98 f   uafxcw:occsite.obj
 0001:00044e9d       ?QueryInterface@XRowsetNotify@COleControlSite@@UAGJABU_GUID@@PAPAX@Z 00445e9d f   uafxcw:occsite.obj
 0001:00044ee3       ??1?$CComPtrBase@UIAccessor@@@ATL@@QAE@XZ 00445ee3 f i uafxcw:occsite.obj
 0001:00044ef0       ??B?$CComPtrBase@UIAccessor@@@ATL@@QBEPAUIAccessor@@XZ 00445ef0 f i uafxcw:occsite.obj
 0001:00044ef3       ??I?$CComPtrBase@UIAccessor@@@ATL@@QAEPAPAUIAccessor@@XZ 00445ef3 f i uafxcw:occsite.obj
 0001:00044ef6       ??C?$CComPtrBase@UIAccessor@@@ATL@@QBEPAV?$_NoAddRefReleaseOnCComPtr@UIAccessor@@@1@XZ 00445ef6 f i uafxcw:occsite.obj
 0001:00044ef9       ??1?$CComPtrBase@UIChapteredRowset@@@ATL@@QAE@XZ 00445ef9 f i uafxcw:occsite.obj
 0001:00044f06       ??C?$CComPtrBase@UIChapteredRowset@@@ATL@@QBEPAV?$_NoAddRefReleaseOnCComPtr@UIChapteredRowset@@@1@XZ 00445f06 f i uafxcw:occsite.obj
 0001:00044f09       ??B?$CComPtrBase@UIRowset@@@ATL@@QBEPAUIRowset@@XZ 00445f09 f i uafxcw:occsite.obj
 0001:00044f0c       ??C?$CComPtrBase@UIRowset@@@ATL@@QBEPAV?$_NoAddRefReleaseOnCComPtr@UIRowset@@@1@XZ 00445f0c f i uafxcw:occsite.obj
 0001:00044f0f       ??1?$CComPtrBase@UIColumnsInfo@@@ATL@@QAE@XZ 00445f0f f i uafxcw:occsite.obj
 0001:00044f1c       ??I?$CComPtrBase@UIColumnsInfo@@@ATL@@QAEPAPAUIColumnsInfo@@XZ 00445f1c f i uafxcw:occsite.obj
 0001:00044f1f       ??C?$CComPtrBase@UIColumnsInfo@@@ATL@@QBEPAV?$_NoAddRefReleaseOnCComPtr@UIColumnsInfo@@@1@XZ 00445f1f f i uafxcw:occsite.obj
 0001:00044f22       ??1?$CComPtrBase@UIRowsetInfo@@@ATL@@QAE@XZ 00445f22 f i uafxcw:occsite.obj
 0001:00044f2f       ??I?$CComPtrBase@UIRowsetInfo@@@ATL@@QAEPAPAUIRowsetInfo@@XZ 00445f2f f i uafxcw:occsite.obj
 0001:00044f32       ??C?$CComPtrBase@UIRowsetInfo@@@ATL@@QBEPAV?$_NoAddRefReleaseOnCComPtr@UIRowsetInfo@@@1@XZ 00445f32 f i uafxcw:occsite.obj
 0001:00044f35       ??B?$CHeapPtrBase@UtagDBPROPSET@@VCComAllocator@ATL@@@ATL@@QBEPAUtagDBPROPSET@@XZ 00445f35 f i uafxcw:occsite.obj
 0001:00044f38       ??I?$CHeapPtrBase@UtagDBPROPSET@@VCComAllocator@ATL@@@ATL@@QAEPAPAUtagDBPROPSET@@XZ 00445f38 f i uafxcw:occsite.obj
 0001:00044f3b       ??0?$CAutoVectorPtr@UtagDBBINDING@@@ATL@@QAE@PAUtagDBBINDING@@@Z 00445f3b f i uafxcw:occsite.obj
 0001:00044f4b       ?ReleaseRows@?$CRowset@VCAccessorBase@ATL@@@ATL@@QAEJXZ 00445f4b f i uafxcw:occsite.obj
 0001:00044f6d       ?SetAccessor@?$CRowset@VCAccessorBase@ATL@@@ATL@@QAEXPAVCAccessorBase@2@@Z 00445f6d f i uafxcw:occsite.obj
 0001:00044f7c       ??0?$CComPtrBase@UIAccessor@@@ATL@@IAE@XZ 00445f7c f i uafxcw:occsite.obj
 0001:00044f82       ??8?$CComPtrBase@UIChapteredRowset@@@ATL@@QBE_NPAUIChapteredRowset@@@Z 00445f82 f i uafxcw:occsite.obj
 0001:00044f95       ??1?$CComPtrBase@UIRowset@@@ATL@@QAE@XZ 00445f95 f i uafxcw:occsite.obj
 0001:00044fa2       ??1?$CComPtrBase@UIRowsetChange@@@ATL@@QAE@XZ 00445fa2 f i uafxcw:occsite.obj
 0001:00044faf       ??I?$CComPtrBase@UIRowsetChange@@@ATL@@QAEPAPAUIRowsetChange@@XZ 00445faf f i uafxcw:occsite.obj
 0001:00044fb2       ??0?$CComPtrBase@UIColumnsInfo@@@ATL@@IAE@XZ 00445fb2 f i uafxcw:occsite.obj
 0001:00044fb8       ??0?$CComPtrBase@UIRowsetInfo@@@ATL@@IAE@XZ 00445fb8 f i uafxcw:occsite.obj
 0001:00044fbe       ?Free@?$CHeapPtrBase@UtagDBPROPSET@@VCComAllocator@ATL@@@ATL@@QAEXXZ 00445fbe f i uafxcw:occsite.obj
 0001:00044fd0       ?Free@?$CAutoVectorPtr@UtagDBBINDING@@@ATL@@QAEXXZ 00445fd0 f i uafxcw:occsite.obj
 0001:00044fe2       ?GetData@?$CRowset@VCAccessorBase@ATL@@@ATL@@QAEJH@Z 00445fe2 f i uafxcw:occsite.obj
 0001:0004500e       ??0?$CComPtrBase@UIChapteredRowset@@@ATL@@IAE@XZ 0044600e f i uafxcw:occsite.obj
 0001:00045014       ??0?$CComPtrBase@UIRowset@@@ATL@@IAE@XZ 00446014 f i uafxcw:occsite.obj
 0001:0004501a       ??8?$CComPtrBase@UIRowset@@@ATL@@QBE_NPAUIRowset@@@Z 0044601a f i uafxcw:occsite.obj
 0001:0004502d       ?Release@?$CComPtrBase@UIRowset@@@ATL@@QAEXXZ 0044602d f i uafxcw:occsite.obj
 0001:0004503d       ??0?$CComPtrBase@UIRowsetChange@@@ATL@@IAE@XZ 0044603d f i uafxcw:occsite.obj
 0001:00045043       ??C?$CComPtrBase@UIRowsetChange@@@ATL@@QBEPAV?$_NoAddRefReleaseOnCComPtr@UIRowsetChange@@@1@XZ 00446043 f i uafxcw:occsite.obj
 0001:00045046       ?Release@?$CComPtrBase@UIRowsetChange@@@ATL@@QAEXXZ 00446046 f i uafxcw:occsite.obj
 0001:00045056       ??0?$CHeapPtrBase@UtagDBPROPSET@@VCComAllocator@ATL@@@ATL@@IAE@XZ 00446056 f i uafxcw:occsite.obj
 0001:0004505c       ??8?$CComPtrBase@UIRowsetChange@@@ATL@@QBE_NPAUIRowsetChange@@@Z 0044605c f i uafxcw:occsite.obj
 0001:0004506f       ??$QueryInterface@UIColumnsInfo@@@IUnknown@@QAGJPAPAUIColumnsInfo@@@Z 0044606f f i uafxcw:occsite.obj
 0001:00045088       ??$QueryInterface@UIRowsetInfo@@@IUnknown@@QAGJPAPAUIRowsetInfo@@@Z 00446088 f i uafxcw:occsite.obj
 0001:000450a1       ??$QueryInterface@UIAccessor@@@IUnknown@@QAGJPAPAUIAccessor@@@Z 004460a1 f i uafxcw:occsite.obj
 0001:000450ba       ??$AtlAlignUp@K@ATL@@YGKKK@Z 004460ba f i uafxcw:occsite.obj
 0001:000450d2       ??$QueryInterface@UIRowsetChange@@@IUnknown@@QAGJPAPAUIRowsetChange@@@Z 004460d2 f i uafxcw:occsite.obj
 0001:000450eb       ??$_GetValue@UtagDB_NUMERIC@@@CDynamicAccessor@ATL@@QBEXKPAUtagDB_NUMERIC@@@Z 004460eb f i uafxcw:occsite.obj
 0001:00045112       ??$_GetValue@UtagDBDATE@@@CDynamicAccessor@ATL@@QBEXKPAUtagDBDATE@@@Z 00446112 f i uafxcw:occsite.obj
 0001:00045135       ??$_GetValue@UtagDBTIME@@@CDynamicAccessor@ATL@@QBEXKPAUtagDBTIME@@@Z 00446135 f i uafxcw:occsite.obj
 0001:00045158       ??$_GetValue@UtagDBTIMESTAMP@@@CDynamicAccessor@ATL@@QBEXKPAUtagDBTIMESTAMP@@@Z 00446158 f i uafxcw:occsite.obj
 0001:0004517c       ??$_SetValue@F@CDynamicAccessor@ATL@@QAEXKABF@Z 0044617c f i uafxcw:occsite.obj
 0001:0004519f       ??$_SetValue@J@CDynamicAccessor@ATL@@QAEXKABJ@Z 0044619f f i uafxcw:occsite.obj
 0001:000451c0       ??$_SetValue@M@CDynamicAccessor@ATL@@QAEXKABM@Z 004461c0 f i uafxcw:occsite.obj
 0001:000451e1       ??$_SetValue@N@CDynamicAccessor@ATL@@QAEXKABN@Z 004461e1 f i uafxcw:occsite.obj
 0001:00045202       ??$_GetValue@PA_W@CDynamicAccessor@ATL@@QBEXKPAPA_W@Z 00446202 f i uafxcw:occsite.obj
 0001:00045223       ??$_SetValue@PA_W@CDynamicAccessor@ATL@@QAEXKABQA_W@Z 00446223 f i uafxcw:occsite.obj
 0001:00045244       ??$_SetValue@UtagDEC@@@CDynamicAccessor@ATL@@QAEXKABUtagDEC@@@Z 00446244 f i uafxcw:occsite.obj
 0001:00045268       ??$_SetValue@E@CDynamicAccessor@ATL@@QAEXKABE@Z 00446268 f i uafxcw:occsite.obj
 0001:00045289       ??$_SetValue@C@CDynamicAccessor@ATL@@QAEXKABC@Z 00446289 f i uafxcw:occsite.obj
 0001:000452aa       ??$_SetValue@G@CDynamicAccessor@ATL@@QAEXKABG@Z 004462aa f i uafxcw:occsite.obj
 0001:000452cd       ??$_SetValue@K@CDynamicAccessor@ATL@@QAEXKABK@Z 004462cd f i uafxcw:occsite.obj
 0001:000452ee       ?FromHandle@CRgn@@SGPAV1@PAUHRGN__@@@Z 004462ee f i uafxcw:occsite.obj
 0001:000452f9       ?GetRgnBox@CRgn@@QBEHPAUtagRECT@@@Z 004462f9 f i uafxcw:occsite.obj
 0001:0004530e       ?InvalidateRect@CWnd@@QAEXPBUtagRECT@@H@Z 0044630e f i uafxcw:occsite.obj
 0001:00045326       ?InvalidateRgn@CWnd@@QAEXPAVCRgn@@H@Z 00446326 f i uafxcw:occsite.obj
 0001:00045346       ?SetCapture@CWnd@@QAEPAV1@XZ 00446346 f i uafxcw:occsite.obj
 0001:00045356       ?GetFocus@CWnd@@SGPAV1@XZ  00446356 f i uafxcw:occsite.obj
 0001:00045363       ??0COleDateTime@ATL@@QAE@N@Z 00446363 f i uafxcw:occsite.obj
 0001:00045377       ?SetDate@COleDateTime@ATL@@QAEHHHH@Z 00446377 f i uafxcw:occsite.obj
 0001:00045393       ?SetTime@COleDateTime@ATL@@QAEHHHH@Z 00446393 f i uafxcw:occsite.obj
 0001:000453b3       ??1COleDispatchDriver@@QAE@XZ 004463b3 f i uafxcw:occsite.obj
 0001:000453b8       ??0COleVariant@@QAE@E@Z    004463b8 f i uafxcw:occsite.obj
 0001:000453cf       ??0COleVariant@@QAE@ABVCOleCurrency@@@Z 004463cf f i uafxcw:occsite.obj
 0001:000453ee       ??0COleVariant@@QAE@M@Z    004463ee f i uafxcw:occsite.obj
 0001:00045405       ??0COleVariant@@QAE@N@Z    00446405 f i uafxcw:occsite.obj
 0001:0004541c       ??0COleVariant@@QAE@ABVCOleDateTime@ATL@@@Z 0044641c f i uafxcw:occsite.obj
 0001:00045435       ??0AFX_EVENT@@QAE@H@Z      00446435 f i uafxcw:occsite.obj
 0001:0004545d       ??0AFX_EVENT@@QAE@HJPAUtagDISPPARAMS@@PAUtagEXCEPINFO@@PAI@Z 0044645d f i uafxcw:occsite.obj
 0001:00045490       ?Bind@CAccessorBase@ATL@@SAXPAUtagDBBINDING@@KGKEEKKKKPAUtagDBOBJECT@@@Z 00446490 f i uafxcw:occsite.obj
 0001:0004551d       ??1?$CComPtr@UIAccessor@@@ATL@@QAE@XZ 0044651d f i uafxcw:occsite.obj
 0001:0004552a       ??1?$CComPtr@UIChapteredRowset@@@ATL@@QAE@XZ 0044652a f i uafxcw:occsite.obj
 0001:00045537       ??1CDynamicAccessor@ATL@@QAE@XZ 00446537 f i uafxcw:occsite.obj
 0001:0004553c       ?GetColumnType@CDynamicAccessor@ATL@@QBE_NKPAG@Z 0044653c f i uafxcw:occsite.obj
 0001:00045574       ?GetValue@CDynamicAccessor@ATL@@QBEPAXK@Z 00446574 f i uafxcw:occsite.obj
 0001:000455a2       ?GetColumnName@CDynamicAccessor@ATL@@QBEPA_WK@Z 004465a2 f i uafxcw:occsite.obj
 0001:000455cc       ?AlignAndIncrementOffset@CDynamicAccessor@ATL@@SAKAAKKI@Z 004465cc f i uafxcw:occsite.obj
 0001:000455eb       ?IncrementAndAlignOffset@CDynamicAccessor@ATL@@SAXAAKKI@Z 004465eb f i uafxcw:occsite.obj
 0001:00045608       ??1?$CComPtr@UIColumnsInfo@@@ATL@@QAE@XZ 00446608 f i uafxcw:occsite.obj
 0001:00045615       ??1?$CComPtr@UIRowsetInfo@@@ATL@@QAE@XZ 00446615 f i uafxcw:occsite.obj
 0001:00045622       ?AddBindEntry@CManualAccessor@ATL@@QAEXKGKPAX00@Z 00446622 f i uafxcw:occsite.obj
 0001:00045678       ??0IOleClientSite@@QAE@XZ  00446678 f i uafxcw:occsite.obj
 0001:0004567b       ??0IOleControlSite@@QAE@XZ 0044667b f i uafxcw:occsite.obj
 0001:0004567e       ??0IPropertyNotifySink@@QAE@XZ 0044667e f i uafxcw:occsite.obj
 0001:00045681       ??0IBoundObjectSite@@QAE@XZ 00446681 f i uafxcw:occsite.obj
 0001:00045684       ??0INotifyDBEvents@@QAE@XZ 00446684 f i uafxcw:occsite.obj
 0001:0004568d       ??0IRowsetNotify@@QAE@XZ   0044668d f i uafxcw:occsite.obj
 0001:00045690       ?SetExtent@COleControlSite@@IAEHXZ 00446690 f   uafxcw:occsite.obj
 0001:0004573d       ?CreateControl@COleControlSite@@UAEJPAVCWnd@@ABU_GUID@@PB_WKABUtagRECT@@IPAVCFile@@HPA_W@Z 0044673d f   uafxcw:occsite.obj
 0001:0004579b       ?CreateControlCommon@COleControlSite@@MAEJPAVCWnd@@ABU_GUID@@ABVCControlCreationInfo@@PB_WKPBUtagPOINT@@PBUtagSIZE@@IPAVCFile@@HPA_W@Z 0044679b f   uafxcw:occsite.obj
 0001:00045a5f       ?DestroyControl@COleControlSite@@UAEHXZ 00446a5f f   uafxcw:occsite.obj
 0001:00045add       ?QuickActivate@COleControlSite@@UAEHXZ 00446add f   uafxcw:occsite.obj
 0001:00045c94       ?CreateOrLoad@COleControlSite@@MAEJABU_GUID@@PAVCFile@@HPA_W@Z 00446c94 f   uafxcw:occsite.obj
 0001:00045fa6       ?DoVerb@COleControlSite@@UAEJJPAUtagMSG@@@Z 00446fa6 f   uafxcw:occsite.obj
 0001:00045feb       ?MoveWindow@COleControlSite@@UAEXHHHH@Z 00446feb f   uafxcw:occsite.obj
 0001:00046077       ?SetWindowPos@COleControlSite@@UAEHPBVCWnd@@HHHHI@Z 00447077 f   uafxcw:occsite.obj
 0001:0004611c       ?SetFocus@COleControlSite@@UAEPAVCWnd@@XZ 0044711c f   uafxcw:occsite.obj
 0001:00046173       ?SetFocus@COleControlSite@@UAEPAVCWnd@@PAUtagMSG@@@Z 00447173 f   uafxcw:occsite.obj
 0001:000461d1       ?BindProperty@COleControlSite@@UAEXJPAVCWnd@@@Z 004471d1 f   uafxcw:occsite.obj
 0001:000462b5       ?AddRef@XOleClientSite@COleControlSite@@UAGKXZ 004472b5 f   uafxcw:occsite.obj
 0001:000462cd       ?ShowObject@XOleClientSite@COleControlSite@@UAGJXZ 004472cd f   uafxcw:occsite.obj
 0001:0004630a       ?AddRef@XOleIPSite@COleControlSite@@UAGKXZ 0044730a f   uafxcw:occsite.obj
 0001:00046322       ?GetWindow@XOleIPSite@COleControlSite@@UAGJPAPAUHWND__@@@Z 00447322 f   uafxcw:occsite.obj
 0001:00046351       ?GetWindowContext@XOleIPSite@COleControlSite@@UAGJPAPAUIOleInPlaceFrame@@PAPAUIOleInPlaceUIWindow@@PAUtagRECT@@2PAUtagOIFI@@@Z 00447351 f   uafxcw:occsite.obj
 0001:000463f7       ?OnInPlaceDeactivate@XOleIPSite@COleControlSite@@UAGJXZ 004473f7 f   uafxcw:occsite.obj
 0001:00046454       ?OnPosRectChange@XOleIPSite@COleControlSite@@UAGJPBUtagRECT@@@Z 00447454 f   uafxcw:occsite.obj
 0001:000464ba       ?OnInPlaceActivateEx@XOleIPSite@COleControlSite@@UAGJPAHK@Z 004474ba f   uafxcw:occsite.obj
 0001:0004651a       ?RequestUIActivate@XOleIPSite@COleControlSite@@UAGJXZ 0044751a f   uafxcw:occsite.obj
 0001:00046548       ?AdjustRect@XOleIPSite@COleControlSite@@UAGJPAUtagRECT@@@Z 00447548 f   uafxcw:occsite.obj
 0001:00046579       ?CanWindowlessActivate@XOleIPSite@COleControlSite@@UAGJXZ 00447579 f   uafxcw:occsite.obj
 0001:000465a7       ?GetCapture@XOleIPSite@COleControlSite@@UAGJXZ 004475a7 f   uafxcw:occsite.obj
 0001:000465fa       ?GetFocus@XOleIPSite@COleControlSite@@UAGJXZ 004475fa f   uafxcw:occsite.obj
 0001:0004662b       ?InvalidateRect@XOleIPSite@COleControlSite@@UAGJPBUtagRECT@@H@Z 0044762b f   uafxcw:occsite.obj
 0001:000466bb       ?OnDefWindowMessage@XOleIPSite@COleControlSite@@UAGJIIJPAJ@Z 004476bb f   uafxcw:occsite.obj
 0001:000466ec       ?ReleaseDC@XOleIPSite@COleControlSite@@UAGJPAUHDC__@@@Z 004476ec f   uafxcw:occsite.obj
 0001:00046730       ?ScrollRect@XOleIPSite@COleControlSite@@UAGJHHPBUtagRECT@@0@Z 00447730 f   uafxcw:occsite.obj
 0001:00046761       ?SetCapture@XOleIPSite@COleControlSite@@UAGJH@Z 00447761 f   uafxcw:occsite.obj
 0001:000467c4       ?SetFocus@XOleIPSite@COleControlSite@@UAGJH@Z 004477c4 f   uafxcw:occsite.obj
 0001:00046817       ?AddRef@XOleControlSite@COleControlSite@@UAGKXZ 00447817 f   uafxcw:occsite.obj
 0001:0004682f       ?TransformCoords@XOleControlSite@COleControlSite@@UAGJPAU_POINTL@@PAUtagPOINTF@@K@Z 0044782f f   uafxcw:occsite.obj
 0001:00046935       ?AddRef@XAmbientProps@COleControlSite@@UAGKXZ 00447935 f   uafxcw:occsite.obj
 0001:0004694d       ?Invoke@XAmbientProps@COleControlSite@@UAGJJABU_GUID@@KGPAUtagDISPPARAMS@@PAUtagVARIANT@@PAUtagEXCEPINFO@@PAI@Z 0044794d f   uafxcw:occsite.obj
 0001:000469b9       ?OnChanged@XPropertyNotifySink@COleControlSite@@UAGJJ@Z 004479b9 f   uafxcw:occsite.obj
 0001:00046b21       ?OnRequestEdit@XPropertyNotifySink@COleControlSite@@UAGJJ@Z 00447b21 f   uafxcw:occsite.obj
 0001:00046bad       ?Invoke@XEventSink@COleControlSite@@UAGJJABU_GUID@@KGPAUtagDISPPARAMS@@PAUtagVARIANT@@PAUtagEXCEPINFO@@PAI@Z 00447bad f   uafxcw:occsite.obj
 0001:00046c17       ??_GCDynamicAccessor@ATL@@QAEPAXI@Z 00447c17 f i uafxcw:occsite.obj
 0001:00046c38       ?Notify@CDataBoundProperty@@QAEXXZ 00447c38 f   uafxcw:occsite.obj
 0001:00046cc8       ?AddRef@XBoundObjectSite@COleControlSite@@UAGKXZ 00447cc8 f   uafxcw:occsite.obj
 0001:00046d07       ?Release@XBoundObjectSite@COleControlSite@@UAGKXZ 00447d07 f   uafxcw:occsite.obj
 0001:00046d46       ?QueryInterface@XBoundObjectSite@COleControlSite@@UAGJABU_GUID@@PAPAX@Z 00447d46 f   uafxcw:occsite.obj
 0001:00046d8b       ?GetCursor@XBoundObjectSite@COleControlSite@@UAGJJPAPAUICursor@@PAPAX@Z 00447d8b f   uafxcw:occsite.obj
 0001:00046dd3       ?FireEvent@XNotifyDBEvents@COleControlSite@@QAEJKKQAUtagDBNOTIFYREASON@@W4DSCSTATE@@@Z 00447dd3 f   uafxcw:occsite.obj
 0001:00046e9e       ??0?$CComPtr@UIAccessor@@@ATL@@QAE@XZ 00447e9e f i uafxcw:occsite.obj
 0001:00046ea4       ??9?$CComPtrBase@UIChapteredRowset@@@ATL@@QBE_NPAUIChapteredRowset@@@Z 00447ea4 f i uafxcw:occsite.obj
 0001:00046eb7       ??0?$CComPtr@UIColumnsInfo@@@ATL@@QAE@XZ 00447eb7 f i uafxcw:occsite.obj
 0001:00046ebd       ??0?$CComPtr@UIRowsetInfo@@@ATL@@QAE@XZ 00447ebd f i uafxcw:occsite.obj
 0001:00046ec3       ??1?$CHeapPtrBase@UtagDBPROPSET@@VCComAllocator@ATL@@@ATL@@QAE@XZ 00447ec3 f i uafxcw:occsite.obj
 0001:00046ed5       ??1?$CAutoVectorPtr@UtagDBBINDING@@@ATL@@QAE@XZ 00447ed5 f i uafxcw:occsite.obj
 0001:00046ee7       ?GetData@?$CRowset@VCAccessorBase@ATL@@@ATL@@QAEJXZ 00447ee7 f i uafxcw:occsite.obj
 0001:00046f2a       ??1?$CComPtr@UIRowset@@@ATL@@QAE@XZ 00447f2a f i uafxcw:occsite.obj
 0001:00046f37       ??1?$CComPtr@UIRowsetChange@@@ATL@@QAE@XZ 00447f37 f i uafxcw:occsite.obj
 0001:00046f44       ??0?$CComPtr@UIChapteredRowset@@@ATL@@QAE@XZ 00447f44 f i uafxcw:occsite.obj
 0001:00046f4a       ??0?$CComPtr@UIRowset@@@ATL@@QAE@XZ 00447f4a f i uafxcw:occsite.obj
 0001:00046f50       ??9?$CComPtrBase@UIRowset@@@ATL@@QBE_NPAUIRowset@@@Z 00447f50 f i uafxcw:occsite.obj
 0001:00046f63       ??0?$CComPtr@UIRowsetChange@@@ATL@@QAE@XZ 00447f63 f i uafxcw:occsite.obj
 0001:00046f69       ??0?$CHeapPtr@UtagDBPROPSET@@VCComAllocator@ATL@@@ATL@@QAE@XZ 00447f69 f i uafxcw:occsite.obj
 0001:00046f6f       ??1?$CDynamicStringAccessorT@_W$0IC@@ATL@@QAE@XZ 00447f6f f i uafxcw:occsite.obj
 0001:00046f74       ??9?$CComPtrBase@UIRowsetChange@@@ATL@@QBE_NPAUIRowsetChange@@@Z 00447f74 f i uafxcw:occsite.obj
 0001:00046f87       ?MoveNext@?$CRowset@VCAccessorBase@ATL@@@ATL@@QAEJJ_N@Z 00447f87 f i uafxcw:occsite.obj
 0001:00046fe3       ??$GetValue@UtagDB_NUMERIC@@@CDynamicAccessor@ATL@@QBE_NKPAUtagDB_NUMERIC@@@Z 00447fe3 f i uafxcw:occsite.obj
 0001:00047016       ??$GetValue@UtagDBDATE@@@CDynamicAccessor@ATL@@QBE_NKPAUtagDBDATE@@@Z 00448016 f i uafxcw:occsite.obj
 0001:00047049       ??$GetValue@UtagDBTIME@@@CDynamicAccessor@ATL@@QBE_NKPAUtagDBTIME@@@Z 00448049 f i uafxcw:occsite.obj
 0001:0004707c       ??$GetValue@UtagDBTIMESTAMP@@@CDynamicAccessor@ATL@@QBE_NKPAUtagDBTIMESTAMP@@@Z 0044807c f i uafxcw:occsite.obj
 0001:000470af       ??$SetValue@F@CDynamicAccessor@ATL@@QAE_NKABF@Z 004480af f i uafxcw:occsite.obj
 0001:000470dc       ??$SetValue@J@CDynamicAccessor@ATL@@QAE_NKABJ@Z 004480dc f i uafxcw:occsite.obj
 0001:00047109       ??$SetValue@M@CDynamicAccessor@ATL@@QAE_NKABM@Z 00448109 f i uafxcw:occsite.obj
 0001:00047136       ??$SetValue@N@CDynamicAccessor@ATL@@QAE_NKABN@Z 00448136 f i uafxcw:occsite.obj
 0001:00047163       ??$GetValue@PA_W@CDynamicAccessor@ATL@@QBE_NKPAPA_W@Z 00448163 f i uafxcw:occsite.obj
 0001:00047196       ??$SetValue@PA_W@CDynamicAccessor@ATL@@QAE_NKABQA_W@Z 00448196 f i uafxcw:occsite.obj
 0001:000471c3       ??$SetValue@UtagDEC@@@CDynamicAccessor@ATL@@QAE_NKABUtagDEC@@@Z 004481c3 f i uafxcw:occsite.obj
 0001:000471f0       ??$SetValue@E@CDynamicAccessor@ATL@@QAE_NKABE@Z 004481f0 f i uafxcw:occsite.obj
 0001:0004721d       ??$SetValue@C@CDynamicAccessor@ATL@@QAE_NKABC@Z 0044821d f i uafxcw:occsite.obj
 0001:0004724a       ??$SetValue@G@CDynamicAccessor@ATL@@QAE_NKABG@Z 0044824a f i uafxcw:occsite.obj
 0001:00047277       ??$SetValue@K@CDynamicAccessor@ATL@@QAE_NKABK@Z 00448277 f i uafxcw:occsite.obj
 0001:000472a4       ??0COleDateTime@ATL@@QAE@HHHHHH@Z 004482a4 f i uafxcw:occsite.obj
 0001:000472ca       ?ReleaseAccessors@CAccessorBase@ATL@@QAEJPAUIUnknown@@@Z 004482ca f i uafxcw:occsite.obj
 0001:00047358       ??1?$CComQIPtr@UIChapteredRowset@@$1?_GUID_0c733a93_2a1c_11ce_ade5_00aa0044773d@@3U__s_GUID@@B@ATL@@QAE@XZ 00448358 f i uafxcw:occsite.obj
 0001:00047365       ?GetStatus@CDynamicAccessor@ATL@@QBE_NKPAK@Z 00448365 f i uafxcw:occsite.obj
 0001:000473be       ??1?$CHeapPtr@UtagDBPROPSET@@VCComAllocator@ATL@@@ATL@@QAE@XZ 004483be f i uafxcw:occsite.obj
 0001:000473d0       ?BindColumns@CManualAccessor@ATL@@QAEJPAUIUnknown@@@Z 004483d0 f i uafxcw:occsite.obj
 0001:00047455       ??0XOleClientSite@COleControlSite@@QAE@XZ 00448455 f i uafxcw:occsite.obj
 0001:0004745e       ??0XOleControlSite@COleControlSite@@QAE@XZ 0044845e f i uafxcw:occsite.obj
 0001:00047467       ??0XAmbientProps@COleControlSite@@QAE@XZ 00448467 f i uafxcw:occsite.obj
 0001:00047470       ??0XPropertyNotifySink@COleControlSite@@QAE@XZ 00448470 f i uafxcw:occsite.obj
 0001:00047479       ??0XEventSink@COleControlSite@@QAE@XZ 00448479 f i uafxcw:occsite.obj
 0001:00047482       ??0XBoundObjectSite@COleControlSite@@QAE@XZ 00448482 f i uafxcw:occsite.obj
 0001:0004748b       ??0XNotifyDBEvents@COleControlSite@@QAE@XZ 0044848b f i uafxcw:occsite.obj
 0001:00047494       ??0XRowsetNotify@COleControlSite@@QAE@XZ 00448494 f i uafxcw:occsite.obj
 0001:0004749d       ??0IOleInPlaceSite@@QAE@XZ 0044849d f i uafxcw:occsite.obj
 0001:000474a0       ?GetBoundClientRow@CDataSourceControl@@QAEJXZ 004484a0 f   uafxcw:occsite.obj
 0001:000474ff       ?SetDSCSite@CDataBoundProperty@@QAEXPAVCOleControlSite@@@Z 004484ff f   uafxcw:occsite.obj
 0001:00047518       ?RemoveSource@CDataBoundProperty@@QAEXXZ 00448518 f   uafxcw:occsite.obj
 0001:00047521       ?OKToDo@XNotifyDBEvents@COleControlSite@@UAGJKKQAUtagDBNOTIFYREASON@@@Z 00448521 f   uafxcw:occsite.obj
 0001:000475c9       ?Cancelled@XNotifyDBEvents@COleControlSite@@UAGJKKQAUtagDBNOTIFYREASON@@@Z 004485c9 f   uafxcw:occsite.obj
 0001:00047623       ?SyncBefore@XNotifyDBEvents@COleControlSite@@UAGJKKQAUtagDBNOTIFYREASON@@@Z 00448623 f   uafxcw:occsite.obj
 0001:000476a7       ?AboutToDo@XNotifyDBEvents@COleControlSite@@UAGJKKQAUtagDBNOTIFYREASON@@@Z 004486a7 f   uafxcw:occsite.obj
 0001:00047701       ?FailedToDo@XNotifyDBEvents@COleControlSite@@UAGJKKQAUtagDBNOTIFYREASON@@@Z 00448701 f   uafxcw:occsite.obj
 0001:0004775b       ?SyncAfter@XNotifyDBEvents@COleControlSite@@UAGJKKQAUtagDBNOTIFYREASON@@@Z 0044875b f   uafxcw:occsite.obj
 0001:000477fd       ?DidEvent@XNotifyDBEvents@COleControlSite@@UAGJKKQAUtagDBNOTIFYREASON@@@Z 004487fd f   uafxcw:occsite.obj
 0001:00047883       ?OnFieldChange@XRowsetNotify@COleControlSite@@UAGJPAUIRowset@@KKQAKKKH@Z 00448883 f   uafxcw:occsite.obj
 0001:00047944       ?OnRowChange@XRowsetNotify@COleControlSite@@UAGJPAUIRowset@@KQBKKKH@Z 00448944 f   uafxcw:occsite.obj
 0001:00047aac       ??0?$CComQIPtr@UIChapteredRowset@@$1?_GUID_0c733a93_2a1c_11ce_ade5_00aa0044773d@@3U__s_GUID@@B@ATL@@QAE@PAUIUnknown@@@Z 00448aac f i uafxcw:occsite.obj
 0001:00047ad0       ??0?$CComHeapPtr@UtagDBPROPSET@@@ATL@@QAE@XZ 00448ad0 f i uafxcw:occsite.obj
 0001:00047ad6       ?SetupOptionalRowsetInterfaces@?$CRowset@VCAccessorBase@ATL@@@ATL@@QAEXXZ 00448ad6 f i uafxcw:occsite.obj
 0001:00047ae7       ??4?$CComPtr@UIRowset@@@ATL@@QAEPAUIRowset@@PAU2@@Z 00448ae7 f i uafxcw:occsite.obj
 0001:00047b00       ?MoveNext@?$CRowset@VCAccessorBase@ATL@@@ATL@@QAEJXZ 00448b00 f i uafxcw:occsite.obj
 0001:00047b0a       ?SetData@?$CRowset@VCAccessorBase@ATL@@@ATL@@QBEJH@Z 00448b0a f i uafxcw:occsite.obj
 0001:00047b42       ??1CXMLAccessor@ATL@@QAE@XZ 00448b42 f i uafxcw:occsite.obj
 0001:00047b47       ?FreeType@CAccessorBase@ATL@@SAXGPAEPAUIRowset@@@Z 00448b47 f i uafxcw:occsite.obj
 0001:00047bf9       ?FreeRecordMemory@CDynamicAccessor@ATL@@QAEXPAUIRowset@@@Z 00448bf9 f i uafxcw:occsite.obj
 0001:00047ce1       ??1?$CComHeapPtr@UtagDBPROPSET@@@ATL@@QAE@XZ 00448ce1 f i uafxcw:occsite.obj
 0001:00047cf3       ??0IOleInPlaceSiteEx@@QAE@XZ 00448cf3 f i uafxcw:occsite.obj
 0001:00047cf6       ?BindColumns@CDataSourceControl@@UAEXXZ 00448cf6 f   uafxcw:occsite.obj
 0001:00047ec2       ??0?$CRowset@VCAccessorBase@ATL@@@ATL@@QAE@PAUIRowset@@@Z 00448ec2 f i uafxcw:occsite.obj
 0001:00047ee9       ?MoveFirst@?$CRowset@VCAccessorBase@ATL@@@ATL@@QAEJXZ 00448ee9 f i uafxcw:occsite.obj
 0001:00047f0e       ?SetData@?$CRowset@VCAccessorBase@ATL@@@ATL@@QBEJXZ 00448f0e f i uafxcw:occsite.obj
 0001:00047f38       ??_GCXMLAccessor@ATL@@QAEPAXI@Z 00448f38 f i uafxcw:occsite.obj
 0001:00047f59       ?ReleaseAccessors@CDynamicAccessor@ATL@@QAEJPAUIUnknown@@@Z 00448f59 f i uafxcw:occsite.obj
 0001:00047f78       ?GetRowsetProperties@CDynamicAccessor@ATL@@QAEJPAUIUnknown@@PAKPAHK@Z 00448f78 f i uafxcw:occsite.obj
 0001:00048065       ?BindColumns@CDynamicAccessor@ATL@@QAEJPAUIUnknown@@@Z 00449065 f i uafxcw:occsite.obj
 0001:000486a2       ??0IOleInPlaceSiteWindowless@@QAE@XZ 004496a2 f i uafxcw:occsite.obj
 0001:000486a5       ?GetMetaData@CDataSourceControl@@QAEJXZ 004496a5 f   uafxcw:occsite.obj
 0001:00048a0a       ?UpdateCursor@CDataSourceControl@@UAEJXZ 00449a0a f   uafxcw:occsite.obj
 0001:0004904c       ?OnRowsetChange@XRowsetNotify@COleControlSite@@UAGJPAUIRowset@@KKH@Z 0044a04c f   uafxcw:occsite.obj
 0001:000490ef       ?Close@?$CRowset@VCAccessorBase@ATL@@@ATL@@QAEXXZ 0044a0ef f i uafxcw:occsite.obj
 0001:00049147       ??0XOleIPSite@COleControlSite@@QAE@XZ 0044a147 f i uafxcw:occsite.obj
 0001:00049150       ?Initialize@CDataSourceControl@@QAEJXZ 0044a150 f   uafxcw:occsite.obj
 0001:00049307       ??1?$CRowset@VCAccessorBase@ATL@@@ATL@@QAE@XZ 0044a307 f i uafxcw:occsite.obj
 0001:0004932c       ??0COleControlSite@@QAE@PAVCOleControlContainer@@@Z 0044a32c f   uafxcw:occsite.obj
 0001:0004943d       ?EnableDSC@COleControlSite@@UAEXXZ 0044a43d f   uafxcw:occsite.obj
 0001:0004948a       ?GetDC@XOleIPSite@COleControlSite@@UAGJPBUtagRECT@@KPAPAUHDC__@@@Z 0044a48a f   uafxcw:occsite.obj
 0001:00049588       ?InvalidateRgn@XOleIPSite@COleControlSite@@UAGJPAUHRGN__@@H@Z 0044a588 f   uafxcw:occsite.obj
 0001:00049649       ??_G?$CRowset@VCAccessorBase@ATL@@@ATL@@QAEPAXI@Z 0044a649 f i uafxcw:occsite.obj
 0001:0004966a       ?BindDefaultProperty@COleControlSite@@UAEXJGPB_WPAVCWnd@@@Z 0044a66a f   uafxcw:occsite.obj
 0001:0004970e       ??1CDataSourceControl@@QAE@XZ 0044a70e f   uafxcw:occsite.obj
 0001:000498fb       ??_GCDataSourceControl@@QAEPAXI@Z 0044a8fb f i uafxcw:occsite.obj
 0001:0004991c       ?BindProp@CDataSourceControl@@UAEXPAVCOleControlSite@@H@Z 0044a91c f   uafxcw:occsite.obj
 0001:00049a5a       ?ToVariant@CDataSourceControl@@QAE?AVCOleVariant@@H@Z 0044aa5a f   uafxcw:occsite.obj
 0001:00049f99       ?UpdateControls@CDataSourceControl@@UAEJXZ 0044af99 f   uafxcw:occsite.obj
 0001:0004a12b       ??1COleControlSite@@UAE@XZ 0044b12b f   uafxcw:occsite.obj
 0001:0004a310       ??_ECOleControlSite@@UAEPAXI@Z 0044b310 f i uafxcw:occsite.obj
 0001:0004a310       ??_GCOleControlSite@@UAEPAXI@Z 0044b310 f i uafxcw:occsite.obj
 0001:0004a387       ?_AfxGetDlgCode@@YGKPAVCWnd@@PAUtagMSG@@@Z 0044b387 f   uafxcw:occdlg.obj
 0001:0004a3b9       ?IsMatchingMnemonic@COccManager@@SAHPAVCWnd@@PAUtagMSG@@@Z 0044b3b9 f   uafxcw:occdlg.obj
 0001:0004a3e6       ?IsMatchingMnemonic@COccManager@@SAHPAUCOleControlSiteOrWnd@@PAUtagMSG@@@Z 0044b3e6 f   uafxcw:occdlg.obj
 0001:0004a40a       ?IsLabelControl@COccManager@@SAHPAVCWnd@@@Z 0044b40a f   uafxcw:occdlg.obj
 0001:0004a441       ?IsLabelControl@COccManager@@SAHPAUCOleControlSiteOrWnd@@@Z 0044b441 f   uafxcw:occdlg.obj
 0001:0004a497       ?GetDefBtnCode@COccManager@@SAKPAVCWnd@@@Z 0044b497 f   uafxcw:occdlg.obj
 0001:0004a4bf       ?GetNextDlgGroupItem@CWnd@@QBEPAV1@PAV1@H@Z 0044b4bf f i uafxcw:occdlg.obj
 0001:0004a4e5       ?GetTopWindow@CWnd@@QBEPAV1@XZ 0044b4e5 f i uafxcw:occdlg.obj
 0001:0004a4f5       ?IsChild@CWnd@@QBEHPBV1@@Z 0044b4f5 f i uafxcw:occdlg.obj
 0001:0004a512       ?_AfxDlgSetFocus@@YGXPAVCWnd@@@Z 0044b512 f   uafxcw:occdlg.obj
 0001:0004a545       ?_AfxGetChildControl@@YGPAVCWnd@@PAV1@0@Z 0044b545 f   uafxcw:occdlg.obj
 0001:0004a59e       ?_AfxNextControl@@YGPAVCWnd@@PAV1@0I@Z 0044b59e f   uafxcw:occdlg.obj
 0001:0004a663       ?UIActivateControl@COccManager@@KAXPAVCWnd@@@Z 0044b663 f   uafxcw:occdlg.obj
 0001:0004a6d6       ?UIDeactivateIfNecessary@COccManager@@KAXPAVCWnd@@0@Z 0044b6d6 f   uafxcw:occdlg.obj
 0001:0004a755       ?_AfxFindDlgItem@@YGPAVCWnd@@PAV1@K@Z 0044b755 f   uafxcw:occdlg.obj
 0001:0004a7af       ?SetDefaultButton@COccManager@@SAXPAVCWnd@@H@Z 0044b7af f   uafxcw:occdlg.obj
 0001:0004a7fe       ?_AfxRemoveDefaultButton@@YGXPAVCWnd@@0@Z 0044b7fe f   uafxcw:occdlg.obj
 0001:0004a862       ?_AfxOriginalDefButton@@YGHPAVCWnd@@@Z 0044b862 f   uafxcw:occdlg.obj
 0001:0004a897       ?_AfxCheckDefPushButton@@YGXPAVCWnd@@00@Z 0044b897 f   uafxcw:occdlg.obj
 0001:0004a979       ?_AfxFindSiteOrWnd@@YGPAUCOleControlSiteOrWnd@@PAVCWnd@@0@Z 0044b979 f   uafxcw:occdlg.obj
 0001:0004a9cd       ?_AfxFindNextMnem@@YGPAUCOleControlSiteOrWnd@@PAVCWnd@@PAU1@PAUtagMSG@@@Z 0044b9cd f   uafxcw:occdlg.obj
 0001:0004ab20       ?_AfxGetNextMnem@@YGPAUCOleControlSiteOrWnd@@PAVCWnd@@0PAUtagMSG@@@Z 0044bb20 f   uafxcw:occdlg.obj
 0001:0004ac18       ?IsDialogMessageW@COccManager@@UAEHPAVCWnd@@PAUtagMSG@@@Z 0044bc18 f   uafxcw:occdlg.obj
 0001:0004b087       ??0CMemFile@@QAE@I@Z       0044c087 f   uafxcw:filemem.obj
 0001:0004b0bc       ??0CMemFile@@QAE@PAEII@Z   0044c0bc f   uafxcw:filemem.obj
 0001:0004b118       ?Attach@CMemFile@@QAEXPAEII@Z 0044c118 f   uafxcw:filemem.obj
 0001:0004b155       ?Detach@CMemFile@@QAEPAEXZ 0044c155 f   uafxcw:filemem.obj
 0001:0004b167       ?Alloc@CMemFile@@MAEPAEK@Z 0044c167 f   uafxcw:filemem.obj
 0001:0004b179       ?Realloc@CMemFile@@MAEPAEPAEK@Z 0044c179 f   uafxcw:filemem.obj
 0001:0004b18f       ?Free@CMemFile@@MAEXPAE@Z  0044c18f f   uafxcw:filemem.obj
 0001:0004b1a1       ?GetPosition@CMemFile@@UBE_KXZ 0044c1a1 f   uafxcw:filemem.obj
 0001:0004b1a7       ?GrowFile@CMemFile@@MAEXK@Z 0044c1a7 f   uafxcw:filemem.obj
 0001:0004b1f0       ?GetLength@CMemFile@@UBE_KXZ 0044c1f0 f   uafxcw:filemem.obj
 0001:0004b1f6       ?SetLength@CMemFile@@UAEX_K@Z 0044c1f6 f   uafxcw:filemem.obj
 0001:0004b246       ?Read@CMemFile@@UAEIPAXI@Z 0044c246 f   uafxcw:filemem.obj
 0001:0004b29a       ?Write@CMemFile@@UAEXPBXI@Z 0044c29a f   uafxcw:filemem.obj
 0001:0004b2fc       ?Seek@CMemFile@@UAE_K_JI@Z 0044c2fc f   uafxcw:filemem.obj
 0001:0004b376       ?Flush@CMemFile@@UAEXXZ    0044c376 f   uafxcw:filemem.obj
 0001:0004b377       ?Close@CMemFile@@UAEXXZ    0044c377 f   uafxcw:filemem.obj
 0001:0004b3a3       ?Abort@CMemFile@@UAEXXZ    0044c3a3 f   uafxcw:filemem.obj
 0001:0004b3a8       ?LockRange@CMemFile@@UAEX_K0@Z 0044c3a8 f   uafxcw:filemem.obj
 0001:0004b3ae       ?UnlockRange@CMemFile@@UAEX_K0@Z 0044c3ae f   uafxcw:filemem.obj
 0001:0004b3b4       ?Duplicate@CMemFile@@UBEPAVCFile@@XZ 0044c3b4 f   uafxcw:filemem.obj
 0001:0004b3b9       ?GetBufferPtr@CMemFile@@UAEIIIPAPAX0@Z 0044c3b9 f   uafxcw:filemem.obj
 0001:0004b48c       ?GetRuntimeClass@CMemFile@@UBEPAUCRuntimeClass@@XZ 0044c48c f   uafxcw:filemem.obj
 0001:0004b492       ??1CMemFile@@UAE@XZ        0044c492 f   uafxcw:filemem.obj
 0001:0004b4d5       ?Memcpy@CMemFile@@MAEPAEPAEPBEK@Z 0044c4d5 f   uafxcw:filemem.obj
 0001:0004b4f5       ??_GCMemFile@@UAEPAXI@Z    0044c4f5 f i uafxcw:filemem.obj
 0001:0004b4f5       ??_ECMemFile@@UAEPAXI@Z    0044c4f5 f i uafxcw:filemem.obj
 0001:0004b516       ??4CTime@ATL@@QAEAAV01@_J@Z 0044c516 f i uafxcw:filest.obj
 0001:0004b52c       ?GetLocalTm@CTime@ATL@@QBEPAUtm@@PAU3@@Z 0044c52c f i uafxcw:filest.obj
 0001:0004b56e       ?GetTime@CTime@ATL@@QBE_JXZ 0044c56e f i uafxcw:filest.obj
 0001:0004b574       ?GetYear@CTime@ATL@@QBEHXZ 0044c574 f i uafxcw:filest.obj
 0001:0004b597       ?GetMonth@CTime@ATL@@QBEHXZ 0044c597 f i uafxcw:filest.obj
 0001:0004b5b6       ?GetDay@CTime@ATL@@QBEHXZ  0044c5b6 f i uafxcw:filest.obj
 0001:0004b5d4       ?GetHour@CTime@ATL@@QBEHXZ 0044c5d4 f i uafxcw:filest.obj
 0001:0004b5f3       ?GetMinute@CTime@ATL@@QBEHXZ 0044c5f3 f i uafxcw:filest.obj
 0001:0004b612       ?GetSecond@CTime@ATL@@QBEHXZ 0044c612 f i uafxcw:filest.obj
 0001:0004b630       ?GetStatus@CFile@@SGHPB_WAAUCFileStatus@@@Z 0044c630 f   uafxcw:filest.obj
 0001:0004b769       ?AfxTimeToFileTime@@YAXABVCTime@ATL@@PAU_FILETIME@@@Z 0044c769 f   uafxcw:filest.obj
 0001:0004b807       ?SetStatus@CFile@@SGXPB_WABUCFileStatus@@@Z 0044c807 f   uafxcw:filest.obj
 0001:0004b94d       ?GetStatus@CMemFile@@QBEHAAUCFileStatus@@@Z 0044c94d f   uafxcw:filest.obj
 0001:0004b981       ?GetStatus@CFile@@QBEHAAUCFileStatus@@@Z 0044c981 f   uafxcw:filest.obj
 0001:0004bae1       ?GetFileName@CFile@@UBE?AV?$CStringT@_WV?$StrTraitMFC@_WV?$ChTraitsCRT@_W@ATL@@@@@ATL@@XZ 0044cae1 f   uafxcw:filest.obj
 0001:0004bb76       ?GetFileTitle@CFile@@UBE?AV?$CStringT@_WV?$StrTraitMFC@_WV?$ChTraitsCRT@_W@ATL@@@@@ATL@@XZ 0044cb76 f   uafxcw:filest.obj
 0001:0004bc0b       ?GetFilePath@CFile@@UBE?AV?$CStringT@_WV?$StrTraitMFC@_WV?$ChTraitsCRT@_W@ATL@@@@@ATL@@XZ 0044cc0b f   uafxcw:filest.obj
 0001:0004bc7b       ?ErrnoToException@CFileException@@SGHH@Z 0044cc7b f   uafxcw:filex.obj
 0001:0004bcd5       ?OsErrorToException@CFileException@@SGHJ@Z 0044ccd5 f   uafxcw:filex.obj
 0001:0004bf6d       ?GetRuntimeClass@CFileException@@UBEPAUCRuntimeClass@@XZ 0044cf6d f   uafxcw:filex.obj
 0001:0004bf73       ?GetErrorMessage@CFileException@@UBEHPA_WIPAI@Z 0044cf73 f   uafxcw:filex.obj
 0001:0004c021       ?AfxThrowFileException@@YGXHJPB_W@Z 0044d021 f   uafxcw:filex.obj
 0001:0004c067       ?ThrowOsError@CFileException@@SGXJPB_W@Z 0044d067 f   uafxcw:filex.obj
 0001:0004c08a       ?ThrowErrno@CFileException@@SGXHPB_W@Z 0044d08a f   uafxcw:filex.obj
 0001:0004c0b1       ?AfxFormatStrings@@YGXAAV?$CStringT@_WV?$StrTraitMFC@_WV?$ChTraitsCRT@_W@ATL@@@@@ATL@@PB_WPBQB_WH@Z 0044d0b1 f   uafxcw:apphelp.obj
 0001:0004c1f4       ?AfxFormatStrings@@YGXAAV?$CStringT@_WV?$StrTraitMFC@_WV?$ChTraitsCRT@_W@ATL@@@@@ATL@@IPBQB_WH@Z 0044d1f4 f   uafxcw:apphelp.obj
 0001:0004c245       ?AfxFormatString1@@YGXAAV?$CStringT@_WV?$StrTraitMFC@_WV?$ChTraitsCRT@_W@ATL@@@@@ATL@@IPB_W@Z 0044d245 f   uafxcw:apphelp.obj
 0001:0004c25f       ?AfxFormatString2@@YGXAAV?$CStringT@_WV?$StrTraitMFC@_WV?$ChTraitsCRT@_W@ATL@@@@@ATL@@IPB_W1@Z 0044d25f f   uafxcw:apphelp.obj
 0001:0004c287       ?GetRuntimeClass@CObArray@@UBEPAUCRuntimeClass@@XZ 0044d287 f   uafxcw:array_o.obj
 0001:0004c28d       ??5@YGAAVCArchive@@AAV0@AAPAVCObArray@@@Z 0044d28d f   uafxcw:array_o.obj
 0001:0004c2ab       ?GetSize@CObArray@@QBEHXZ  0044d2ab f i uafxcw:array_o.obj
 0001:0004c2af       ?GetAt@CObArray@@QBEPAVCObject@@H@Z 0044d2af f i uafxcw:array_o.obj
 0001:0004c2d0       ?SetAt@CObArray@@QAEXHPAVCObject@@@Z 0044d2d0 f i uafxcw:array_o.obj
 0001:0004c2f4       ??6@YGAAVCArchive@@AAV0@PBVCObject@@@Z 0044d2f4 f i uafxcw:array_o.obj
 0001:0004c30b       ??5@YGAAVCArchive@@AAV0@AAPAVCObject@@@Z 0044d30b f i uafxcw:array_o.obj
 0001:0004c326       ??0CObArray@@QAE@XZ        0044d326 f   uafxcw:array_o.obj
 0001:0004c33d       ??1CObArray@@UAE@XZ        0044d33d f   uafxcw:array_o.obj
 0001:0004c34d       ?SetSize@CObArray@@QAEXHH@Z 0044d34d f   uafxcw:array_o.obj
 0001:0004c473       ?Append@CObArray@@QAEHABV1@@Z 0044d473 f   uafxcw:array_o.obj
 0001:0004c4bc       ?Copy@CObArray@@QAEXABV1@@Z 0044d4bc f   uafxcw:array_o.obj
 0001:0004c4f2       ?FreeExtra@CObArray@@QAEXXZ 0044d4f2 f   uafxcw:array_o.obj
 0001:0004c53a       ?SetAtGrow@CObArray@@QAEXHPAVCObject@@@Z 0044d53a f   uafxcw:array_o.obj
 0001:0004c56e       ?InsertAt@CObArray@@QAEXHPAVCObject@@H@Z 0044d56e f   uafxcw:array_o.obj
 0001:0004c614       ?RemoveAt@CObArray@@QAEXHH@Z 0044d614 f   uafxcw:array_o.obj
 0001:0004c66c       ?InsertAt@CObArray@@QAEXHPAV1@@Z 0044d66c f   uafxcw:array_o.obj
 0001:0004c6cc       ?Serialize@CObArray@@UAEXAAVCArchive@@@Z 0044d6cc f   uafxcw:array_o.obj
 0001:0004c737       ?CreateObject@CObArray@@SGPAVCObject@@XZ 0044d737 f   uafxcw:array_o.obj
 0001:0004c74d       ??_GCObArray@@UAEPAXI@Z    0044d74d f i uafxcw:array_o.obj
 0001:0004c74d       ??_ECObArray@@UAEPAXI@Z    0044d74d f i uafxcw:array_o.obj
 0001:0004c76e       ?IsDockBar@CDockBar@@UBEHXZ 0044d76e f   uafxcw:bardock.obj
 0001:0004c772       ?OnNcPaint@CDockBar@@IAEXXZ 0044d772 f   uafxcw:bardock.obj
 0001:0004c777       ?DoPaint@CDockBar@@UAEXPAVCDC@@@Z 0044d777 f   uafxcw:bardock.obj
 0001:0004c77a       ?OnPaint@CDockBar@@IAEXXZ  0044d77a f   uafxcw:bardock.obj
 0001:0004c7d1       ?OnWindowPosChanging@CDockBar@@IAEXPAUtagWINDOWPOS@@@Z 0044d7d1 f   uafxcw:bardock.obj
 0001:0004c7f9       ?OnUpdateCmdUI@CDockBar@@MAEXPAVCFrameWnd@@H@Z 0044d7f9 f   uafxcw:bardock.obj
 0001:0004c7fc       ?EnableDocking@CControlBar@@QAEXK@Z 0044d7fc f   uafxcw:bardock.obj
 0001:0004c85e       ?RecalcLayout@CMiniDockFrameWnd@@UAEXH@Z 0044d85e f   uafxcw:bardock.obj
 0001:0004c8bc       ?GetRuntimeClass@CDockBar@@UBEPAUCRuntimeClass@@XZ 0044d8bc f   uafxcw:bardock.obj
 0001:0004c8c2       ?GetRuntimeClass@CMiniDockFrameWnd@@UBEPAUCRuntimeClass@@XZ 0044d8c2 f   uafxcw:bardock.obj
 0001:0004c8c8       ??8CRect@@QBEHABUtagRECT@@@Z 0044d8c8 f i uafxcw:bardock.obj
 0001:0004c8db       ?ElementAt@CPtrArray@@QAEAAPAXH@Z 0044d8db f i uafxcw:bardock.obj
 0001:0004c8fc       ??ACPtrArray@@QAEAAPAXH@Z  0044d8fc f i uafxcw:bardock.obj
 0001:0004c907       ?AppendMenuW@CMenu@@QAEHIIPB_W@Z 0044d907 f i uafxcw:bardock.obj
 0001:0004c922       ?GetSystemMenu@CWnd@@QBEPAVCMenu@@H@Z 0044d922 f i uafxcw:bardock.obj
 0001:0004c93d       ?OnNcLButtonDblClk@CWnd@@IAEXIVCPoint@@@Z 0044d93d f i uafxcw:bardock.obj
 0001:0004c945       ?OnNcLButtonDown@CWnd@@IAEXIVCPoint@@@Z 0044d945 f i uafxcw:bardock.obj
 0001:0004c94d       ?GetBarStyle@CControlBar@@QAEKXZ 0044d94d f i uafxcw:bardock.obj
 0001:0004c954       ??0CDockBar@@QAE@H@Z       0044d954 f   uafxcw:bardock.obj
 0001:0004c9c7       ?Create@CDockBar@@UAEHPAVCWnd@@KI@Z 0044d9c7 f   uafxcw:bardock.obj
 0001:0004ca1e       ?OnSizeParent@CDockBar@@IAEJIJ@Z 0044da1e f   uafxcw:bardock.obj
 0001:0004ca86       ?OnNcCalcSize@CDockBar@@IAEXHPAUtagNCCALCSIZE_PARAMS@@@Z 0044da86 f   uafxcw:bardock.obj
 0001:0004cad5       ?OnEraseBkgnd@CDockBar@@IAEHPAVCDC@@@Z 0044dad5 f   uafxcw:bardock.obj
 0001:0004cb52       ?FindBar@CDockBar@@QAEHPAVCControlBar@@H@Z 0044db52 f   uafxcw:bardock.obj
 0001:0004cb93       ?GetDockedControlBar@CDockBar@@IBEPAVCControlBar@@H@Z 0044db93 f   uafxcw:bardock.obj
 0001:0004cbb7       ?Insert@CDockBar@@IAEHPAVCControlBar@@VCRect@@VCPoint@@@Z 0044dbb7 f   uafxcw:bardock.obj
 0001:0004cd07       ?OnMouseActivate@CMiniDockFrameWnd@@QAEHPAVCWnd@@II@Z 0044dd07 f   uafxcw:bardock.obj
 0001:0004cd25       ?OnNcLButtonDown@CMiniDockFrameWnd@@QAEXIVCPoint@@@Z 0044dd25 f   uafxcw:bardock.obj
 0001:0004cde3       ?OnNcLButtonDblClk@CMiniDockFrameWnd@@QAEXIVCPoint@@@Z 0044dde3 f   uafxcw:bardock.obj
 0001:0004ce49       ?GetThisMessageMap@CDockBar@@KGPBUAFX_MSGMAP@@XZ 0044de49 f   uafxcw:bardock.obj
 0001:0004ce4f       ??1CDockBar@@UAE@XZ        0044de4f f   uafxcw:bardock.obj
 0001:0004ceb8       ?GetDockedCount@CDockBar@@QBEHXZ 0044deb8 f   uafxcw:bardock.obj
 0001:0004cee7       ?GetDockedVisibleCount@CDockBar@@UBEHXZ 0044dee7 f   uafxcw:bardock.obj
 0001:0004cf24       ?RemovePlaceHolder@CDockBar@@QAEXPAVCControlBar@@@Z 0044df24 f   uafxcw:bardock.obj
 0001:0004cf8d       ?RemoveControlBar@CDockBar@@QAEHPAVCControlBar@@HH@Z 0044df8d f   uafxcw:bardock.obj
 0001:0004d0c3       ?CalcFixedLayout@CDockBar@@UAE?AVCSize@@HH@Z 0044e0c3 f   uafxcw:bardock.obj
 0001:0004d5af       ?ShowAll@CDockBar@@QAEXH@Z 0044e5af f   uafxcw:bardock.obj
 0001:0004d5f5       ??0CMiniDockFrameWnd@@QAE@XZ 0044e5f5 f   uafxcw:bardock.obj
 0001:0004d631       ??1CMiniDockFrameWnd@@UAE@XZ 0044e631 f i uafxcw:bardock.obj
 0001:0004d662       ?OnClose@CMiniDockFrameWnd@@QAEXXZ 0044e662 f   uafxcw:bardock.obj
 0001:0004d670       ?CreateObject@CMiniDockFrameWnd@@SGPAVCObject@@XZ 0044e670 f   uafxcw:bardock.obj
 0001:0004d6a0       ?GetMessageMap@CDockBar@@MBEPBUAFX_MSGMAP@@XZ 0044e6a0 f   uafxcw:bardock.obj
 0001:0004d6a6       ??_GCDockBar@@UAEPAXI@Z    0044e6a6 f i uafxcw:bardock.obj
 0001:0004d6a6       ??_ECDockBar@@UAEPAXI@Z    0044e6a6 f i uafxcw:bardock.obj
 0001:0004d6c7       ?DockControlBar@CDockBar@@QAEXPAVCControlBar@@PBUtagRECT@@@Z 0044e6c7 f   uafxcw:bardock.obj
 0001:0004d99b       ?ReDockControlBar@CDockBar@@QAEXPAVCControlBar@@PBUtagRECT@@@Z 0044e99b f   uafxcw:bardock.obj
 0001:0004dc0a       ?GetThisMessageMap@CMiniDockFrameWnd@@KGPBUAFX_MSGMAP@@XZ 0044ec0a f   uafxcw:bardock.obj
 0001:0004dc10       ??_ECMiniDockFrameWnd@@UAEPAXI@Z 0044ec10 f i uafxcw:bardock.obj
 0001:0004dc10       ??_GCMiniDockFrameWnd@@UAEPAXI@Z 0044ec10 f i uafxcw:bardock.obj
 0001:0004dc31       ?GetMessageMap@CMiniDockFrameWnd@@MBEPBUAFX_MSGMAP@@XZ 0044ec31 f   uafxcw:bardock.obj
 0001:0004dc37       ?Create@CMiniDockFrameWnd@@UAEHPAVCWnd@@K@Z 0044ec37 f   uafxcw:bardock.obj
 0001:0004dd7e       ?_AfxGetDropDownWidth@@YGHXZ 0044ed7e f   uafxcw:bartool.obj
 0001:0004de18       ??1CToolBar@@UAE@XZ        0044ee18 f   uafxcw:bartool.obj
 0001:0004de65       ?items@CToolBarData@@QAEPAGXZ 0044ee65 f i uafxcw:bartool.obj
 0001:0004de69       ?AddReplaceBitmap@CToolBar@@QAEHPAUHBITMAP__@@@Z 0044ee69 f   uafxcw:bartool.obj
 0001:0004df05       ?SetButtons@CToolBar@@QAEHPBIH@Z 0044ef05 f   uafxcw:bartool.obj
 0001:0004e046       ?_GetButton@CToolBar@@IBEXHPAU_TBBUTTON@@@Z 0044f046 f   uafxcw:bartool.obj
 0001:0004e069       ?CommandToIndex@CToolBar@@QBEHI@Z 0044f069 f   uafxcw:bartool.obj
 0001:0004e084       ?GetItemID@CToolBar@@QBEIH@Z 0044f084 f   uafxcw:bartool.obj
 0001:0004e0b3       ?Layout@CToolBar@@IAEXXZ   0044f0b3 f   uafxcw:bartool.obj
 0001:0004e0fc       ?GetButtonStyle@CToolBar@@QBEIH@Z 0044f0fc f   uafxcw:bartool.obj
 0001:0004e135       ?WrapToolBar@CToolBar@@IAEHPAU_TBBUTTON@@HH@Z 0044f135 f   uafxcw:bartool.obj
 0001:0004e203       ??_H@YGXPAXIHP6EPAX0@Z@Z   0044f203 f i uafxcw:bartool.obj
 0001:0004e223       ?GetButtonInfo@CToolBar@@QBEXHAAI0AAH@Z 0044f223 f   uafxcw:bartool.obj
 0001:0004e277       ?OnEraseBkgnd@CToolBar@@IAEHPAVCDC@@@Z 0044f277 f   uafxcw:bartool.obj
 0001:0004e27f       ?OnNcHitTest@CToolBar@@IAEJVCPoint@@@Z 0044f27f f   uafxcw:bartool.obj
 0001:0004e285       ?OnBarStyleChange@CToolBar@@UAEXKK@Z 0044f285 f   uafxcw:bartool.obj
 0001:0004e2bf       ?OnNcPaint@CToolBar@@IAEXXZ 0044f2bf f   uafxcw:bartool.obj
 0001:0004e2c4       ?OnPaint@CToolBar@@IAEXXZ  0044f2c4 f   uafxcw:bartool.obj
 0001:0004e2df       ?SetText@CToolCmdUI@@UAEXPB_W@Z 0044f2df f   uafxcw:bartool.obj
 0001:0004e2e2       ??0CToolCmdUI@@QAE@XZ      0044f2e2 f i uafxcw:bartool.obj
 0001:0004e2f6       ?GetRuntimeClass@CToolBar@@UBEPAUCRuntimeClass@@XZ 0044f2f6 f   uafxcw:bartool.obj
 0001:0004e2fc       ??8CSize@@QBEHUtagSIZE@@@Z 0044f2fc f i uafxcw:bartool.obj
 0001:0004e31b       ??0CPoint@@QAE@UtagSIZE@@@Z 0044f31b f i uafxcw:bartool.obj
 0001:0004e331       ??HCPoint@@QBE?AV0@UtagPOINT@@@Z 0044f331 f i uafxcw:bartool.obj
 0001:0004e34d       ??GCPoint@@QBE?AVCSize@@UtagPOINT@@@Z 0044f34d f i uafxcw:bartool.obj
 0001:0004e369       ?SetAt@CMapStringToPtr@@QAEXPB_WPAX@Z 0044f369 f i uafxcw:bartool.obj
 0001:0004e37f       ?GetStartPosition@CMapStringToPtr@@QBEPAU__POSITION@@XZ 0044f37f f i uafxcw:bartool.obj
 0001:0004e387       ??BCWnd@@QBEPAUHWND__@@XZ  0044f387 f i uafxcw:bartool.obj
 0001:0004e392       ?SetOwner@CWnd@@QAEXPAV1@@Z 0044f392 f i uafxcw:bartool.obj
 0001:0004e3ac       ?EnableActiveAccessibility@CWnd@@QAEXXZ 0044f3ac f i uafxcw:bartool.obj
 0001:0004e3b1       ?OnNcCreate@CWnd@@IAEHPAUtagCREATESTRUCTW@@@Z 0044f3b1 f i uafxcw:bartool.obj
 0001:0004e3b9       ?SetBorders@CControlBar@@QAEXPBUtagRECT@@@Z 0044f3b9 f i uafxcw:bartool.obj
 0001:0004e3d5       ?GetExtendedStyle@CToolBarCtrl@@QBEKXZ 0044f3d5 f i uafxcw:bartool.obj
 0001:0004e3e8       ?SetExtendedStyle@CToolBarCtrl@@QAEKK@Z 0044f3e8 f i uafxcw:bartool.obj
 0001:0004e404       ?AfxLoadSysColorBitmap@@YGPAUHBITMAP__@@PAUHINSTANCE__@@PAUHRSRC__@@H@Z 0044f404 f   uafxcw:bartool.obj
 0001:0004e598       ??0CToolBar@@QAE@XZ        0044f598 f   uafxcw:bartool.obj
 0001:0004e605       ??_ECToolBar@@UAEPAXI@Z    0044f605 f i uafxcw:bartool.obj
 0001:0004e605       ??_GCToolBar@@UAEPAXI@Z    0044f605 f i uafxcw:bartool.obj
 0001:0004e626       ?Create@CToolBar@@UAEHPAVCWnd@@KI@Z 0044f626 f   uafxcw:bartool.obj
 0001:0004e66d       ?OnNcCreate@CToolBar@@IAEHPAUtagCREATESTRUCTW@@@Z 0044f66d f   uafxcw:bartool.obj
 0001:0004e6ae       ?SetOwner@CToolBar@@QAEXPAVCWnd@@@Z 0044f6ae f   uafxcw:bartool.obj
 0001:0004e6e9       ?SetSizes@CToolBar@@QAEXUtagSIZE@@0@Z 0044f6e9 f   uafxcw:bartool.obj
 0001:0004e79d       ?SetHeight@CToolBar@@QAEXH@Z 0044f79d f   uafxcw:bartool.obj
 0001:0004e80c       ?LoadBitmapW@CToolBar@@QAEHPB_W@Z 0044f80c f   uafxcw:bartool.obj
 0001:0004e85f       ?SetBitmap@CToolBar@@QAEHPAUHBITMAP__@@@Z 0044f85f f   uafxcw:bartool.obj
 0001:0004e878       ?_SetButton@CToolBar@@IAEXHPAU_TBBUTTON@@@Z 0044f878 f   uafxcw:bartool.obj
 0001:0004e9dd       ?GetItemRect@CToolBar@@UBEXHPAUtagRECT@@@Z 0044f9dd f   uafxcw:bartool.obj
 0001:0004ea1a       ?SetButtonStyle@CToolBar@@QAEXHI@Z 0044fa1a f   uafxcw:bartool.obj
 0001:0004ea7d       ?CalcSize@CToolBar@@IAE?AVCSize@@PAU_TBBUTTON@@H@Z 0044fa7d f   uafxcw:bartool.obj
 0001:0004ebaf       ?SizeToolBar@CToolBar@@IAEXPAU_TBBUTTON@@HHH@Z 0044fbaf f   uafxcw:bartool.obj
 0001:0004ed3b       ??0_AFX_CONTROLPOS@@QAE@XZ 0044fd3b f i uafxcw:bartool.obj
 0001:0004ed3e       ?SetButtonInfo@CToolBar@@QAEXHIIH@Z 0044fd3e f   uafxcw:bartool.obj
 0001:0004edcb       ?OnToolHitTest@CToolBar@@UBEHVCPoint@@PAUtagTOOLINFOW@@@Z 0044fdcb f   uafxcw:bartool.obj
 0001:0004eeb0       ?OnNcCalcSize@CToolBar@@IAEXHPAUtagNCCALCSIZE_PARAMS@@@Z 0044feb0 f   uafxcw:bartool.obj
 0001:0004ef16       ?OnWindowPosChanging@CToolBar@@IAEXPAUtagWINDOWPOS@@@Z 0044ff16 f   uafxcw:bartool.obj
 0001:0004ef5d       ?OnSetSizeHelper@CToolBar@@IAEJAAVCSize@@J@Z 0044ff5d f   uafxcw:bartool.obj
 0001:0004f018       ?OnPreserveZeroBorderHelper@CToolBar@@IAEJIJ@Z 00450018 f   uafxcw:bartool.obj
 0001:0004f0bd       ?OnPreserveSizingPolicyHelper@CToolBar@@IAEJIJ@Z 004500bd f   uafxcw:bartool.obj
 0001:0004f153       ?OnSysColorChange@CToolBar@@IAEXXZ 00450153 f   uafxcw:bartool.obj
 0001:0004f187       ?Enable@CToolCmdUI@@UAEXH@Z 00450187 f   uafxcw:bartool.obj
 0001:0004f1ca       ?SetCheck@CToolCmdUI@@UAEXH@Z 004501ca f   uafxcw:bartool.obj
 0001:0004f211       ?OnUpdateCmdUI@CToolBar@@UAEXPAVCFrameWnd@@H@Z 00450211 f   uafxcw:bartool.obj
 0001:0004f2d2       ?_AfxGetComCtlVersion@@YGKXZ 004502d2 f   uafxcw:bartool.obj
 0001:0004f346       ?CreateEx@CToolBar@@UAEHPAVCWnd@@KKVCRect@@I@Z 00450346 f   uafxcw:bartool.obj
 0001:0004f3ec       ?LoadToolBar@CToolBar@@QAEHPB_W@Z 004503ec f   uafxcw:bartool.obj
 0001:0004f4c4       ?CalcLayout@CToolBar@@IAE?AVCSize@@KH@Z 004504c4 f   uafxcw:bartool.obj
 0001:0004f81e       ?CalcFixedLayout@CToolBar@@UAE?AVCSize@@HH@Z 0045081e f   uafxcw:bartool.obj
 0001:0004f849       ?CalcDynamicLayout@CToolBar@@UAE?AVCSize@@HK@Z 00450849 f   uafxcw:bartool.obj
 0001:0004f88d       ?OnSetButtonSize@CToolBar@@IAEJIJ@Z 0045088d f   uafxcw:bartool.obj
 0001:0004f8a5       ?OnSetBitmapSize@CToolBar@@IAEJIJ@Z 004508a5 f   uafxcw:bartool.obj
 0001:0004f8bd       ?SetButtonText@CToolBar@@QAEHHPB_W@Z 004508bd f   uafxcw:bartool.obj
 0001:0004f9b4       ?GetThisMessageMap@CToolBar@@KGPBUAFX_MSGMAP@@XZ 004509b4 f   uafxcw:bartool.obj
 0001:0004f9ba       ?GetMessageMap@CToolBar@@MBEPBUAFX_MSGMAP@@XZ 004509ba f   uafxcw:bartool.obj
 0001:0004f9c0       ?get_accName@CToolBar@@UAEJUtagVARIANT@@PAPA_W@Z 004509c0 f   uafxcw:bartool.obj
 0001:0004fab0       ?GetButtonText@CToolBar@@QBEXHAAV?$CStringT@_WV?$StrTraitMFC@_WV?$ChTraitsCRT@_W@ATL@@@@@ATL@@@Z 00450ab0 f   uafxcw:bartool.obj
 0001:0004fb4b       ?GetButtonText@CToolBar@@QBE?AV?$CStringT@_WV?$StrTraitMFC@_WV?$ChTraitsCRT@_W@ATL@@@@@ATL@@H@Z 00450b4b f   uafxcw:bartool.obj
 0001:0004fb88       ??0CReBar@@QAE@XZ          00450b88 f   uafxcw:barcool.obj
 0001:0004fbd4       ??1CReBar@@UAE@XZ          00450bd4 f i uafxcw:barcool.obj
 0001:0004fbd9       ?OnShowBand@CReBar@@IAEJIJ@Z 00450bd9 f   uafxcw:barcool.obj
 0001:0004fc74       ?CalcDynamicLayout@CReBar@@UAE?AVCSize@@HK@Z 00450c74 f   uafxcw:barcool.obj
 0001:0004fc9a       ?OnUpdateCmdUI@CReBar@@UAEXPAVCFrameWnd@@H@Z 00450c9a f   uafxcw:barcool.obj
 0001:0004fca5       ?OnEraseBkgnd@CReBar@@IAEHPAVCDC@@@Z 00450ca5 f   uafxcw:barcool.obj
 0001:0004fcad       ?OnNcPaint@CReBar@@IAEXXZ  00450cad f   uafxcw:barcool.obj
 0001:0004fcb2       ?OnPaint@CReBar@@IAEXXZ    00450cb2 f   uafxcw:barcool.obj
 0001:0004fcb7       ?OnToolHitTest@CReBar@@UBEHVCPoint@@PAUtagTOOLINFOW@@@Z 00450cb7 f   uafxcw:barcool.obj
 0001:0004fcf5       ?GetRuntimeClass@CReBar@@UBEPAUCRuntimeClass@@XZ 00450cf5 f   uafxcw:barcool.obj
 0001:0004fcfb       ??_5CRect@@QAEXABUtagRECT@@@Z 00450cfb f i uafxcw:barcool.obj
 0001:0004fd0f       ??BCBitmap@@QBEPAUHBITMAP__@@XZ 00450d0f f i uafxcw:barcool.obj
 0001:0004fd1a       ?MaximizeBand@CReBarCtrl@@QAEXI@Z 00450d1a f i uafxcw:barcool.obj
 0001:0004fd36       ??_GCReBar@@UAEPAXI@Z      00450d36 f i uafxcw:barcool.obj
 0001:0004fd36       ??_ECReBar@@UAEPAXI@Z      00450d36 f i uafxcw:barcool.obj
 0001:0004fd57       ?OnRecalcParent@CReBar@@IAEXXZ 00450d57 f   uafxcw:barcool.obj
 0001:0004fd72       ?OnHeightChange@CReBar@@IAEXPAUtagNMHDR@@PAJ@Z 00450d72 f   uafxcw:barcool.obj
 0001:0004fdb7       ?_AddBar@CReBar@@IAEHPAVCWnd@@PAUtagREBARBANDINFOW@@@Z 00450db7 f   uafxcw:barcool.obj
 0001:0004feac       ?AddBar@CReBar@@QAEHPAVCWnd@@PB_WPAVCBitmap@@K@Z 00450eac f   uafxcw:barcool.obj
 0001:0004ff01       ?AddBar@CReBar@@QAEHPAVCWnd@@KKPB_WK@Z 00450f01 f   uafxcw:barcool.obj
 0001:0004ff43       ?CalcFixedLayout@CReBar@@UAE?AVCSize@@HH@Z 00450f43 f   uafxcw:barcool.obj
 0001:000500c7       ?Create@CReBar@@UAEHPAVCWnd@@KKI@Z 004510c7 f   uafxcw:barcool.obj
 0001:00050142       ?OnNcCreate@CReBar@@IAEHPAUtagCREATESTRUCTW@@@Z 00451142 f   uafxcw:barcool.obj
 0001:00050170       ?OnNcCalcSize@CReBar@@IAEXHPAUtagNCCALCSIZE_PARAMS@@@Z 00451170 f   uafxcw:barcool.obj
 0001:000501c1       ?GetThisMessageMap@CReBar@@KGPBUAFX_MSGMAP@@XZ 004511c1 f   uafxcw:barcool.obj
 0001:000501c7       ?WindowProc@CReBar@@MAEJIIJ@Z 004511c7 f   uafxcw:barcool.obj
 0001:000501f7       ?GetMessageMap@CReBar@@MBEPBUAFX_MSGMAP@@XZ 004511f7 f   uafxcw:barcool.obj
 0001:000501fd       ?AddRef@CArchiveStream@@UAGKXZ 004511fd f   uafxcw:arcstrm.obj
 0001:00050203       ?Release@CArchiveStream@@UAGKXZ 00451203 f   uafxcw:arcstrm.obj
 0001:00050208       ?Read@CArchiveStream@@UAGJPAXKPAK@Z 00451208 f   uafxcw:arcstrm.obj
 0001:00050255       ?Write@CArchiveStream@@UAGJPBXKPAK@Z 00451255 f   uafxcw:arcstrm.obj
 0001:000502a3       ?SetSize@CArchiveStream@@UAGJT_ULARGE_INTEGER@@@Z 004512a3 f   uafxcw:arcstrm.obj
 0001:000502ab       ?CopyTo@CArchiveStream@@UAGJPAUIStream@@T_ULARGE_INTEGER@@PAT3@2@Z 004512ab f   uafxcw:arcstrm.obj
 0001:000502b3       ?Commit@CArchiveStream@@UAGJK@Z 004512b3 f   uafxcw:arcstrm.obj
 0001:000502bb       ?Revert@CArchiveStream@@UAGJXZ 004512bb f   uafxcw:arcstrm.obj
 0001:000502c3       ?LockRegion@CArchiveStream@@UAGJT_ULARGE_INTEGER@@0K@Z 004512c3 f   uafxcw:arcstrm.obj
 0001:000502cb       ?UnlockRegion@CArchiveStream@@UAGJT_ULARGE_INTEGER@@0K@Z 004512cb f   uafxcw:arcstrm.obj
 0001:000502d3       ?Stat@CArchiveStream@@UAGJPAUtagSTATSTG@@K@Z 004512d3 f   uafxcw:arcstrm.obj
 0001:000502db       ?Clone@CArchiveStream@@UAGJPAPAUIStream@@@Z 004512db f   uafxcw:arcstrm.obj
 0001:000502e3       ?GetFile@CArchive@@QBEPAVCFile@@XZ 004512e3 f i uafxcw:arcstrm.obj
 0001:000502e7       ??0ISequentialStream@@QAE@XZ 004512e7 f i uafxcw:arcstrm.obj
 0001:000502ea       ?QueryInterface@CArchiveStream@@UAGJABU_GUID@@PAPAX@Z 004512ea f   uafxcw:arcstrm.obj
 0001:00050335       ?Seek@CArchiveStream@@UAGJT_LARGE_INTEGER@@KPAT_ULARGE_INTEGER@@@Z 00451335 f   uafxcw:arcstrm.obj
 0001:0005039d       ??0IStream@@QAE@XZ         0045139d f i uafxcw:arcstrm.obj
 0001:000503a0       ??0CArchiveStream@@QAE@PAVCArchive@@@Z 004513a0 f   uafxcw:arcstrm.obj
 0001:000503b7       ?GetObjectSchema@CArchive@@QAEIXZ 004513b7 f   uafxcw:arcobj.obj
 0001:000503bf       ?GetUpperBound@?$CArray@W4LoadArrayObjType@CArchive@@ABW412@@@QBEHXZ 004513bf f i uafxcw:arcobj.obj
 0001:000503c4       ?GetAt@?$CArray@W4LoadArrayObjType@CArchive@@ABW412@@@QAEAAW4LoadArrayObjType@CArchive@@H@Z 004513c4 f i uafxcw:arcobj.obj
 0001:000503e5       ?GetUpperBound@CPtrArray@@QBEHXZ 004513e5 f i uafxcw:arcobj.obj
 0001:000503ea       ?CheckCount@CArchive@@QAEXXZ 004513ea f   uafxcw:arcobj.obj
 0001:000503fe       ??0?$CArray@W4LoadArrayObjType@CArchive@@ABW412@@@QAE@XZ 004513fe f i uafxcw:arcobj.obj
 0001:00050415       ?SetSize@?$CArray@W4LoadArrayObjType@CArchive@@ABW412@@@QAEXHH@Z 00451415 f i uafxcw:arcobj.obj
 0001:00050550       ?InsertAt@?$CArray@W4LoadArrayObjType@CArchive@@ABW412@@@QAEXHABW4LoadArrayObjType@CArchive@@H@Z 00451550 f i uafxcw:arcobj.obj
 0001:000505f0       ??1?$CArray@W4LoadArrayObjType@CArchive@@ABW412@@@UAE@XZ 004515f0 f i uafxcw:arcobj.obj
 0001:00050605       ??_E?$CArray@W4LoadArrayObjType@CArchive@@ABW412@@@UAEPAXI@Z 00451605 f i uafxcw:arcobj.obj
 0001:00050605       ??_G?$CArray@W4LoadArrayObjType@CArchive@@ABW412@@@UAEPAXI@Z 00451605 f i uafxcw:arcobj.obj
 0001:00050626       ??$SerializeElements@W4LoadArrayObjType@CArchive@@@@YGXAAVCArchive@@PAW4LoadArrayObjType@0@H@Z 00451626 f i uafxcw:arcobj.obj
 0001:000506ae       ?EnsureSchemaMapExists@CArchive@@QAEXPAPAV?$CArray@W4LoadArrayObjType@CArchive@@ABW412@@@@Z 004516ae f   uafxcw:arcobj.obj
 0001:00050782       ?MapObject@CArchive@@QAEXPBVCObject@@@Z 00451782 f   uafxcw:arcobj.obj
 0001:000508c1       ?WriteClass@CArchive@@QAEXPBUCRuntimeClass@@@Z 004518c1 f   uafxcw:arcobj.obj
 0001:00050970       ?ReadClass@CArchive@@QAEPAUCRuntimeClass@@PBU2@PAIPAK@Z 00451970 f   uafxcw:arcobj.obj
 0001:00050b64       ?SerializeClass@CArchive@@QAEXPBUCRuntimeClass@@@Z 00451b64 f   uafxcw:arcobj.obj
 0001:00050b88       ?Serialize@?$CArray@W4LoadArrayObjType@CArchive@@ABW412@@@UAEXAAVCArchive@@@Z 00451b88 f i uafxcw:arcobj.obj
 0001:00050bca       ?WriteObject@CArchive@@QAEXPBVCObject@@@Z 00451bca f   uafxcw:arcobj.obj
 0001:00050c66       ?ReadObject@CArchive@@QAEPAVCObject@@PBUCRuntimeClass@@@Z 00451c66 f   uafxcw:arcobj.obj
 0001:00050dc0       ?AfxUnregisterWndClasses@@YGXXZ 00451dc0 f   uafxcw:appterm.obj
 0001:00050e5f       ?AfxWinTerm@@YGXXZ         00451e5f f   uafxcw:appterm.obj
 0001:00050ed5       ?GetArray@_AFX_OLESYMBOLTABLE@@QAEPAPB_WXZ 00451ed5 f i uafxcw:olereg.obj
 0001:00050ed8       ??0_AFX_OLESYMBOLTABLE@@QAE@H@Z 00451ed8 f   uafxcw:olereg.obj
 0001:00050f18       ??1_AFX_OLESYMBOLTABLE@@QAE@XZ 00451f18 f   uafxcw:olereg.obj
 0001:00050f41       ?SetAt@_AFX_OLESYMBOLTABLE@@QAEXHPB_W@Z 00451f41 f   uafxcw:olereg.obj
 0001:00050f76       ?GetAt@_AFX_OLESYMBOLTABLE@@QBEPB_WH@Z 00451f76 f   uafxcw:olereg.obj
 0001:00050f94       ?AfxOleInprocRegisterHelper@@YGHPAUHKEY__@@0H@Z 00451f94 f   uafxcw:olereg.obj
 0001:00051091       ?AfxOleUnregisterHelper@@YGHPBQB_W0HPAUHKEY__@@@Z 00452091 f   uafxcw:olereg.obj
 0001:00051149       ?AfxOleRegisterHelper@@YGHPBQB_W0HHPAUHKEY__@@@Z 00452149 f   uafxcw:olereg.obj
 0001:00051307       ?_AfxOleMakeSymbolTable@@YGHAAV_AFX_OLESYMBOLTABLE@@ABU_GUID@@PB_W22H22@Z 00452307 f   uafxcw:olereg.obj
 0001:0005151a       ?AfxOleRegisterServerClass@@YGHABU_GUID@@PB_W11W4OLE_APPTYPE@@PAPB_W3H11@Z 0045251a f   uafxcw:olereg.obj
 0001:000515cd       ?AfxOleUnregisterServerClass@@YGHABU_GUID@@PB_W11W4OLE_APPTYPE@@PAPB_W3@Z 004525cd f   uafxcw:olereg.obj
 0001:00051676       ?AfxOleRegisterServerClass@@YGHABU_GUID@@PB_W11W4OLE_APPTYPE@@PAPB_W3H1@Z 00452676 f   uafxcw:olereg.obj
 0001:000516a1       ??0CFixedAllocNoSync@@QAE@II@Z 004526a1 f   uafxcw:fixalloc.obj
 0001:000516cf       ?FreeAll@CFixedAllocNoSync@@QAEXXZ 004526cf f   uafxcw:fixalloc.obj
 0001:000516e6       ?Free@CFixedAllocNoSync@@QAEXPAX@Z 004526e6 f   uafxcw:fixalloc.obj
 0001:000516fe       ?FreeAll@CFixedAlloc@@QAEXXZ 004526fe f   uafxcw:fixalloc.obj
 0001:00051744       ?Free@CFixedAlloc@@QAEXPAX@Z 00452744 f   uafxcw:fixalloc.obj
 0001:00051795       ??1CFixedAllocNoSync@@QAE@XZ 00452795 f   uafxcw:fixalloc.obj
 0001:0005179a       ?Alloc@CFixedAllocNoSync@@QAEPAXXZ 0045279a f   uafxcw:fixalloc.obj
 0001:000517dc       ??0CFixedAlloc@@QAE@II@Z   004527dc f   uafxcw:fixalloc.obj
 0001:00051800       ??1CFixedAlloc@@QAE@XZ     00452800 f   uafxcw:fixalloc.obj
 0001:00051817       ?Alloc@CFixedAlloc@@QAEPAXXZ 00452817 f   uafxcw:fixalloc.obj
 0001:00051865       ?GetRuntimeClass@CByteArray@@UBEPAUCRuntimeClass@@XZ 00452865 f   uafxcw:array_b.obj
 0001:0005186b       ??5@YGAAVCArchive@@AAV0@AAPAVCByteArray@@@Z 0045286b f   uafxcw:array_b.obj
 0001:00051889       ?GetAt@CByteArray@@QBEEH@Z 00452889 f i uafxcw:array_b.obj
 0001:000518aa       ?SetAt@CByteArray@@QAEXHE@Z 004528aa f i uafxcw:array_b.obj
 0001:000518ce       ??0CByteArray@@QAE@XZ      004528ce f   uafxcw:array_b.obj
 0001:000518e5       ??1CByteArray@@UAE@XZ      004528e5 f   uafxcw:array_b.obj
 0001:000518f5       ?SetSize@CByteArray@@QAEXHH@Z 004528f5 f   uafxcw:array_b.obj
 0001:00051a07       ?Append@CByteArray@@QAEHABV1@@Z 00452a07 f   uafxcw:array_b.obj
 0001:00051a4c       ?Copy@CByteArray@@QAEXABV1@@Z 00452a4c f   uafxcw:array_b.obj
 0001:00051a7f       ?FreeExtra@CByteArray@@QAEXXZ 00452a7f f   uafxcw:array_b.obj
 0001:00051ac1       ?SetAtGrow@CByteArray@@QAEXHE@Z 00452ac1 f   uafxcw:array_b.obj
 0001:00051af5       ?InsertAt@CByteArray@@QAEXHEH@Z 00452af5 f   uafxcw:array_b.obj
 0001:00051b78       ?RemoveAt@CByteArray@@QAEXHH@Z 00452b78 f   uafxcw:array_b.obj
 0001:00051bcb       ?InsertAt@CByteArray@@QAEXHPAV1@@Z 00452bcb f   uafxcw:array_b.obj
 0001:00051c30       ?Serialize@CByteArray@@UAEXAAVCArchive@@@Z 00452c30 f   uafxcw:array_b.obj
 0001:00051cb0       ?CreateObject@CByteArray@@SGPAVCObject@@XZ 00452cb0 f   uafxcw:array_b.obj
 0001:00051cc6       ??_ECByteArray@@UAEPAXI@Z  00452cc6 f i uafxcw:array_b.obj
 0001:00051cc6       ??_GCByteArray@@UAEPAXI@Z  00452cc6 f i uafxcw:array_b.obj
 0001:00051ce7       ?AfxGetFileName@@YGIPB_WPA_WI@Z 00452ce7 f   uafxcw:appinit.obj
 0001:00051d27       ?SetCurrentHandles@CWinApp@@QAEXXZ 00452d27 f   uafxcw:appinit.obj
 0001:00051ebc       ?AfxWinInit@@YGHPAUHINSTANCE__@@0PA_WH@Z 00452ebc f   uafxcw:appinit.obj
 0001:00051f43       ?GetEntryCount@CCmdTarget@@KGIPBUAFX_DISPMAP@@@Z 00452f43 f   uafxcw:oledisp1.obj
 0001:00051f75       _!=                        00452f75 f i uafxcw:oledisp1.obj
 0001:00051f8e       ??4IUnknown@@QAEAAU0@ABU0@@Z 00452f8e f i uafxcw:oledisp1.obj
 0001:00051f93       ?GetIDispatch@CCmdTarget@@QAEPAUIDispatch@@H@Z 00452f93 f   uafxcw:oledisp1.obj
 0001:00051fb7       ?IsResultExpected@CCmdTarget@@QAEHXZ 00452fb7 f   uafxcw:oledisp1.obj
 0001:00051fc2       ?Disconnect@COleDispatchImpl@@UAEXXZ 00452fc2 f   uafxcw:oledisp1.obj
 0001:00051fca       ?GetStackSize@CCmdTarget@@KGIPBEG@Z 00452fca f   uafxcw:oledisp1.obj
 0001:0005202b       ?AddRef@COleDispatchImpl@@UAGKXZ 0045302b f   uafxcw:oledisp1.obj
 0001:0005203f       ?Release@COleDispatchImpl@@UAGKXZ 0045303f f   uafxcw:oledisp1.obj
 0001:00052053       ?QueryInterface@COleDispatchImpl@@UAGJABU_GUID@@PAPAX@Z 00453053 f   uafxcw:oledisp1.obj
 0001:0005206d       ?GetTypeInfoCount@COleDispatchImpl@@UAGJPAI@Z 0045306d f   uafxcw:oledisp1.obj
 0001:00052088       ?GetTypeInfo@COleDispatchImpl@@UAGJIKPAPAUITypeInfo@@@Z 00453088 f   uafxcw:oledisp1.obj
 0001:000520e0       ?GetRuntimeClass@COleDispatchException@@UBEPAUCRuntimeClass@@XZ 004530e0 f   uafxcw:oledisp1.obj
 0001:000520e6       ??0CVariantBoolPair@@QAE@XZ 004530e6 f i uafxcw:oledisp1.obj
 0001:000520f0       ??0CVariantBoolPair@@QAE@PAHPAFH@Z 004530f0 f i uafxcw:oledisp1.obj
 0001:0005211b       ??1CVariantBoolPair@@QAE@XZ 0045311b f i uafxcw:oledisp1.obj
 0001:0005212a       ?Detach@CVariantBoolPair@@QBEPAHXZ 0045312a f i uafxcw:oledisp1.obj
 0001:00052136       ??$AtlAdd@K@ATL@@YAJPAKKK@Z 00453136 f i uafxcw:oledisp1.obj
 0001:0005215c       ?GetCount@?$CArray@VCVariantBoolPair@@ABV1@@@QBEHXZ 0045315c f i uafxcw:oledisp1.obj
 0001:00052160       ??_GCVariantBoolPair@@QAEPAXI@Z 00453160 f i uafxcw:oledisp1.obj
 0001:0005218a       ?SetSize@?$CArray@VCVariantBoolPair@@ABV1@@@QAEXHH@Z 0045318a f i uafxcw:oledisp1.obj
 0001:00052390       ?ElementAt@?$CArray@VCVariantBoolPair@@ABV1@@@QAEAAVCVariantBoolPair@@H@Z 00453390 f i uafxcw:oledisp1.obj
 0001:000523b1       ?SetStandardProp@CCmdTarget@@IAEJPBUAFX_DISPMAP_ENTRY@@PAUtagDISPPARAMS@@PAI@Z 004533b1 f   uafxcw:oledisp1.obj
 0001:00052535       ?MemberIDFromName@CCmdTarget@@KGJPBUAFX_DISPMAP@@PB_W@Z 00453535 f   uafxcw:oledisp1.obj
 0001:000525a7       ?GetDispEntry@CCmdTarget@@IAGPBUAFX_DISPMAP_ENTRY@@J@Z 004535a7 f   uafxcw:oledisp1.obj
 0001:00052676       ??4IDispatch@@QAEAAU0@ABU0@@Z 00453676 f i uafxcw:oledisp1.obj
 0001:0005267b       ?_AtlVerifyStackAvailable@_ATL_SAFE_ALLOCA_IMPL@ATL@@YA_NK@Z 0045367b f i uafxcw:oledisp1.obj
 0001:000526f0       ?GetErrorMessage@COleDispatchException@@UBEHPA_WIPAI@Z 004536f0 f   uafxcw:oledisp1.obj
 0001:00052719       ??0?$CArray@VCVariantBoolPair@@ABV1@@@QAE@XZ 00453719 f i uafxcw:oledisp1.obj
 0001:00052730       ??$SerializeElements@VCVariantBoolPair@@@@YGXAAVCArchive@@PAVCVariantBoolPair@@H@Z 00453730 f i uafxcw:oledisp1.obj
 0001:000527b8       ??4CVariantBoolPair@@QAEAAV0@ABV0@@Z 004537b8 f i uafxcw:oledisp1.obj
 0001:000527e3       ??A?$CArray@VCVariantBoolPair@@ABV1@@@QAEAAVCVariantBoolPair@@H@Z 004537e3 f i uafxcw:oledisp1.obj
 0001:000527ee       ??1?$CArray@VCVariantBoolPair@@ABV1@@@UAE@XZ 004537ee f i uafxcw:oledisp1.obj
 0001:0005282b       ?Serialize@?$CArray@VCVariantBoolPair@@ABV1@@@UAEXAAVCArchive@@@Z 0045382b f i uafxcw:oledisp1.obj
 0001:0005286d       ??_G?$CArray@VCVariantBoolPair@@ABV1@@@UAEPAXI@Z 0045386d f i uafxcw:oledisp1.obj
 0001:0005286d       ??_E?$CArray@VCVariantBoolPair@@ABV1@@@UAEPAXI@Z 0045386d f i uafxcw:oledisp1.obj
 0001:0005288e       ?SetAtGrow@?$CArray@VCVariantBoolPair@@ABV1@@@QAEXHABVCVariantBoolPair@@@Z 0045388e f i uafxcw:oledisp1.obj
 0001:000528c9       ??0COleDispatchImpl@@QAE@XZ 004538c9 f i uafxcw:oledisp1.obj
 0001:000528d2       ??4COleDispatchImpl@@QAEAAV0@ABV0@@Z 004538d2 f i uafxcw:oledisp1.obj
 0001:000528d7       ?FromIDispatch@CCmdTarget@@SGPAV1@PAUIDispatch@@@Z 004538d7 f   uafxcw:oledisp1.obj
 0001:000528f2       ??0CVariantBoolConverter@@QAE@XZ 004538f2 f i uafxcw:oledisp1.obj
 0001:00052900       ??1CVariantBoolConverter@@QAE@XZ 00453900 f i uafxcw:oledisp1.obj
 0001:00052905       ?CopyBOOLsIntoVarBools@CVariantBoolConverter@@QAEXXZ 00453905 f i uafxcw:oledisp1.obj
 0001:0005295e       ?Add@?$CArray@VCVariantBoolPair@@ABV1@@@QAEHABVCVariantBoolPair@@@Z 0045395e f i uafxcw:oledisp1.obj
 0001:00052977       ?GetStandardProp@CCmdTarget@@IAEXPBUAFX_DISPMAP_ENTRY@@PAUtagVARIANT@@PAI@Z 00453977 f   uafxcw:oledisp1.obj
 0001:00052a63       ?EnableAutomation@CCmdTarget@@QAEXXZ 00453a63 f   uafxcw:oledisp1.obj
 0001:00052a6b       ??1COleDispatchException@@UAE@XZ 00453a6b f   uafxcw:oledisp1.obj
 0001:00052a98       ??_ECOleDispatchException@@UAEPAXI@Z 00453a98 f i uafxcw:oledisp1.obj
 0001:00052a98       ??_GCOleDispatchException@@UAEPAXI@Z 00453a98 f i uafxcw:oledisp1.obj
 0001:00052ab9       ?AddPair@CVariantBoolConverter@@QAEXABVCVariantBoolPair@@@Z 00453ab9 f i uafxcw:oledisp1.obj
 0001:00052ac4       ?PushStackArgs@CCmdTarget@@IAEJPAEPBEPAXGPAUtagDISPPARAMS@@PAIPAUtagVARIANT@@PAVCVariantBoolConverter@@@Z 00453ac4 f   uafxcw:oledisp1.obj
 0001:00052d34       ?CallMemberFunc@CCmdTarget@@IAEJPBUAFX_DISPMAP_ENTRY@@GPAUtagVARIANT@@PAUtagDISPPARAMS@@PAI@Z 00453d34 f   uafxcw:oledisp1.obj
 0001:0005308c       ??0COleDispatchException@@QAE@PB_WIG@Z 0045408c f   uafxcw:oledisp1.obj
 0001:00053110       ?AfxThrowOleDispatchException@@YGXGPB_WI@Z 00454110 f   uafxcw:oledisp1.obj
 0001:00053156       ?AfxThrowOleDispatchException@@YGXGII@Z 00454156 f   uafxcw:oledisp1.obj
 0001:000531c9       ?GetNotSupported@CCmdTarget@@QAEXXZ 004541c9 f   uafxcw:oledisp1.obj
 0001:000531d8       ?SetNotSupported@CCmdTarget@@QAEXXZ 004541d8 f   uafxcw:oledisp1.obj
 0001:000531e7       ?GetIDsOfNames@COleDispatchImpl@@UAGJABU_GUID@@PAPA_WIKPAJ@Z 004541e7 f   uafxcw:oledisp1.obj
 0001:000532b2       ?Process@COleDispatchException@@SGXPAUtagEXCEPINFO@@PBVCException@@@Z 004542b2 f   uafxcw:oledisp1.obj
 0001:00053440       ?Invoke@COleDispatchImpl@@UAGJJABU_GUID@@KGPAUtagDISPPARAMS@@PAUtagVARIANT@@PAUtagEXCEPINFO@@PAI@Z 00454440 f   uafxcw:oledisp1.obj
 0001:000538da       ??1CEnumArray@@UAE@XZ      004548da f   uafxcw:oleenum.obj
 0001:00053921       ?OnSkip@CEnumArray@@MAEHXZ 00454921 f   uafxcw:oleenum.obj
 0001:00053939       ?OnReset@CEnumArray@@MAEXXZ 00454939 f   uafxcw:oleenum.obj
 0001:0005393e       ?AddRef@XEnumVOID@CEnumArray@@UAGKXZ 0045493e f   uafxcw:oleenum.obj
 0001:00053952       ?Release@XEnumVOID@CEnumArray@@UAGKXZ 00454952 f   uafxcw:oleenum.obj
 0001:00053966       ?QueryInterface@XEnumVOID@CEnumArray@@UAGJABU_GUID@@PAPAX@Z 00454966 f   uafxcw:oleenum.obj
 0001:00053980       ??_GCEnumArray@@UAEPAXI@Z  00454980 f i uafxcw:oleenum.obj
 0001:00053980       ??_ECEnumArray@@UAEPAXI@Z  00454980 f i uafxcw:oleenum.obj
 0001:000539a1       ??0IEnumVOID@@QAE@XZ       004549a1 f i uafxcw:oleenum.obj
 0001:000539a4       ?OnNext@CEnumArray@@MAEHPAX@Z 004549a4 f   uafxcw:oleenum.obj
 0001:000539dc       ?Next@XEnumVOID@CEnumArray@@UAGJKPAXPAK@Z 004549dc f   uafxcw:oleenum.obj
 0001:00053a7b       ?Skip@XEnumVOID@CEnumArray@@UAGJK@Z 00454a7b f   uafxcw:oleenum.obj
 0001:00053af2       ?Reset@XEnumVOID@CEnumArray@@UAGJXZ 00454af2 f   uafxcw:oleenum.obj
 0001:00053b29       ?Clone@XEnumVOID@CEnumArray@@UAGJPAPAUIEnumVOID@@@Z 00454b29 f   uafxcw:oleenum.obj
 0001:00053bb6       ??0XEnumVOID@CEnumArray@@QAE@XZ 00454bb6 f i uafxcw:oleenum.obj
 0001:00053bbf       ??0CEnumArray@@QAE@IPBXIH@Z 00454bbf f   uafxcw:oleenum.obj
 0001:00053c00       ?OnClone@CEnumArray@@MAEPAV1@XZ 00454c00 f   uafxcw:oleenum.obj
 0001:00053c3f       ??0COleDispatchDriver@@QAE@XZ 00454c3f f   uafxcw:oledisp2.obj
 0001:00053c4c       ??0COleDispatchDriver@@QAE@PAUIDispatch@@H@Z 00454c4c f   uafxcw:oledisp2.obj
 0001:00053c62       ??0COleDispatchDriver@@QAE@ABV0@@Z 00454c62 f   uafxcw:oledisp2.obj
 0001:00053c89       ??4COleDispatchDriver@@QAEABV0@ABV0@@Z 00454c89 f   uafxcw:oledisp2.obj
 0001:00053cc8       ?CreateDispatch@COleDispatchDriver@@QAEHABU_GUID@@PAVCOleException@@@Z 00454cc8 f   uafxcw:oledisp2.obj
 0001:00053d69       ?ReleaseDispatch@COleDispatchDriver@@QAEXXZ 00454d69 f   uafxcw:oledisp2.obj
 0001:00053d85       ?DetachDispatch@COleDispatchDriver@@QAEPAUIDispatch@@XZ 00454d85 f   uafxcw:oledisp2.obj
 0001:00053d8b       ??0COleDispParams@@QAE@XZ  00454d8b f i uafxcw:oledisp2.obj
 0001:00053d9b       ??1COleDispParams@@QAE@XZ  00454d9b f i uafxcw:oledisp2.obj
 0001:00053db2       ?AttachDispatch@COleDispatchDriver@@QAEXPAUIDispatch@@H@Z 00454db2 f   uafxcw:oledisp2.obj
 0001:00053dcf       ?CopyVarBoolsIntoBOOLs@CVariantBoolConverter@@QAEXXZ 00454dcf f i uafxcw:oledisp2.obj
 0001:00053e29       ?InvokeHelperV@COleDispatchDriver@@QAEXJGGPAXPBEPAD@Z 00454e29 f   uafxcw:oledisp2.obj
 0001:000543a5       ?InvokeHelper@COleDispatchDriver@@QAAXJGGPAXPBEZZ 004553a5 f   uafxcw:oledisp2.obj
 0001:000543c7       ?GetProperty@COleDispatchDriver@@QBEXJGPAX@Z 004553c7 f   uafxcw:oledisp2.obj
 0001:000543e6       ?SetProperty@COleDispatchDriver@@QAAXJGZZ 004553e6 f   uafxcw:oledisp2.obj
 0001:0005442f       ?AfxGetClassIDFromString@@YGJPB_WPAU_GUID@@@Z 0045542f f   uafxcw:oledisp2.obj
 0001:0005446f       ?CreateDispatch@COleDispatchDriver@@QAEHPB_WPAVCOleException@@@Z 0045546f f   uafxcw:oledisp2.obj
 0001:000544c0       ??0OLE_DATA@@QAE@XZ        004554c0 f   uafxcw:oleinit.obj
 0001:00054548       ?AfxOleTerm@@YGXH@Z        00455548 f   uafxcw:oleinit.obj
 0001:000545a4       ?AfxOleTermOrFreeLib@@YGXHH@Z 004555a4 f   uafxcw:oleinit.obj
 0001:000545f7       ?AfxOleGetMessageFilter@@YGPAVCOleMessageFilter@@XZ 004555f7 f i uafxcw:oleinit.obj
 0001:00054600       ?AfxOleInit@@YGHXZ         00455600 f   uafxcw:oleinit.obj
 0001:00054694       ?_AfxParseOption@@YGHPA_WPB_W@Z 00455694 f   uafxcw:oleinit.obj
 0001:00054701       ?RunEmbedded@CWinApp@@QAEHXZ 00455701 f   uafxcw:oleinit.obj
 0001:00054720       ?RunAutomated@CWinApp@@QAEHXZ 00455720 f   uafxcw:oleinit.obj
 0001:0005473f       ?PreCreateWindow@CMiniFrameWnd@@MAEHAAUtagCREATESTRUCTW@@@Z 0045573f f   uafxcw:winmini.obj
 0001:0005477f       ?OnNcActivate@CMiniFrameWnd@@QAEHH@Z 0045577f f   uafxcw:winmini.obj
 0001:000547ae       ?OnSysCommand@CMiniFrameWnd@@QAEXIJ@Z 004557ae f   uafxcw:winmini.obj
 0001:00054817       ?CalcBorders@CMiniFrameWnd@@SGXPAUtagRECT@@KK@Z 00455817 f   uafxcw:winmini.obj
 0001:00054833       ?OnQueryCenterWnd@CMiniFrameWnd@@QAEJIJ@Z 00455833 f   uafxcw:winmini.obj
 0001:0005485b       ?GetRuntimeClass@CMiniFrameWnd@@UBEPAUCRuntimeClass@@XZ 0045585b f   uafxcw:winmini.obj
 0001:00054861       ?OnGetMinMaxInfo@CWnd@@IAEXPAUtagMINMAXINFO@@@Z 00455861 f i uafxcw:winmini.obj
 0001:00054869       ?OnNcHitTest@CWnd@@IAEJVCPoint@@@Z 00455869 f i uafxcw:winmini.obj
 0001:00054871       ?OnNcCreate@CMiniFrameWnd@@QAEHPAUtagCREATESTRUCTW@@@Z 00455871 f   uafxcw:winmini.obj
 0001:0005491b       ?OnGetMinMaxInfo@CMiniFrameWnd@@QAEXPAUtagMINMAXINFO@@@Z 0045591b f   uafxcw:winmini.obj
 0001:00054965       ?OnNcHitTest@CMiniFrameWnd@@QAEJVCPoint@@@Z 00455965 f   uafxcw:winmini.obj
 0001:00054a62       ?OnFloatStatus@CMiniFrameWnd@@QAEJIJ@Z 00455a62 f   uafxcw:winmini.obj
 0001:00054b14       ?GetThisMessageMap@CMiniFrameWnd@@KGPBUAFX_MSGMAP@@XZ 00455b14 f   uafxcw:winmini.obj
 0001:00054b1a       ?GetMessageMap@CMiniFrameWnd@@MBEPBUAFX_MSGMAP@@XZ 00455b1a f   uafxcw:winmini.obj
 0001:00054b20       ??0CMiniFrameWnd@@QAE@XZ   00455b20 f   uafxcw:winmini.obj
 0001:00054b46       ??1CMiniFrameWnd@@UAE@XZ   00455b46 f   uafxcw:winmini.obj
 0001:00054b88       ?CreateObject@CMiniFrameWnd@@SGPAVCObject@@XZ 00455b88 f   uafxcw:winmini.obj
 0001:00054bb8       ??_ECMiniFrameWnd@@UAEPAXI@Z 00455bb8 f i uafxcw:winmini.obj
 0001:00054bb8       ??_GCMiniFrameWnd@@UAEPAXI@Z 00455bb8 f i uafxcw:winmini.obj
 0001:00054bd9       ?CreateEx@CMiniFrameWnd@@UAEHKPB_W0KABUtagRECT@@PAVCWnd@@I@Z 00455bd9 f   uafxcw:winmini.obj
 0001:00054c4e       ?Create@CMiniFrameWnd@@UAEHPB_W0KABUtagRECT@@PAVCWnd@@I@Z 00455c4e f   uafxcw:winmini.obj
 0001:00054c70       ??0CControlBar@@IAE@XZ     00455c70 f   uafxcw:barcore.obj
 0001:00054cd6       ?SetInPlaceOwner@CControlBar@@QAEXPAVCWnd@@@Z 00455cd6 f   uafxcw:barcore.obj
 0001:00054ce5       ?SetBorders@CControlBar@@QAEXHHHH@Z 00455ce5 f   uafxcw:barcore.obj
 0001:00054d06       ?PreCreateWindow@CControlBar@@UAEHAAUtagCREATESTRUCTW@@@Z 00455d06 f   uafxcw:barcore.obj
 0001:00054d83       ?SetBarStyle@CControlBar@@QAEXK@Z 00455d83 f   uafxcw:barcore.obj
 0001:00054dba       ?OnBarStyleChange@CControlBar@@UAEXKK@Z 00455dba f   uafxcw:barcore.obj
 0001:00054dbd       ?AllocElements@CControlBar@@QAEHHH@Z 00455dbd f   uafxcw:barcore.obj
 0001:00054e17       ?PostNcDestroy@CControlBar@@UAEXXZ 00455e17 f   uafxcw:barcore.obj
 0001:00054e25       ?CalcDynamicLayout@CControlBar@@UAE?AVCSize@@HK@Z 00455e25 f   uafxcw:barcore.obj
 0001:00054e4b       ?IsDockBar@CControlBar@@UBEHXZ 00455e4b f   uafxcw:barcore.obj
 0001:00054e4e       ?OnThemeChanged@CControlBar@@QAEJXZ 00455e4e f   uafxcw:barcore.obj
 0001:00054e96       ?OnDestroy@CControlBar@@QAEXXZ 00455e96 f   uafxcw:barcore.obj
 0001:00054f00       ?DestroyWindow@CControlBar@@UAEHXZ 00455f00 f   uafxcw:barcore.obj
 0001:00054f2b       ?OnPaint@CControlBar@@QAEXXZ 00455f2b f   uafxcw:barcore.obj
 0001:00054f74       ?RecalcDelayShow@CControlBar@@UAEKPAUAFX_SIZEPARENTPARAMS@@@Z 00455f74 f   uafxcw:barcore.obj
 0001:00055000       ?DelayShow@CControlBar@@UAEXH@Z 00456000 f   uafxcw:barcore.obj
 0001:0005503d       ?IsVisible@CControlBar@@UBEHXZ 0045603d f   uafxcw:barcore.obj
 0001:0005505e       ?DrawGripper@CControlBar@@UAEXPAVCDC@@ABVCRect@@@Z 0045605e f   uafxcw:barcore.obj
 0001:000550ac       ?DrawNCGripper@CControlBar@@UAEXPAVCDC@@ABVCRect@@@Z 004560ac f   uafxcw:barcore.obj
 0001:000550fa       ?CalcInsideRect@CControlBar@@UBEXAAVCRect@@H@Z 004560fa f   uafxcw:barcore.obj
 0001:000551b6       ?ClientToScreen@CWnd@@QBEXPAUtagPOINT@@@Z 004561b6 f i uafxcw:barcore.obj
 0001:000551cb       ?KillTimer@CWnd@@QAEHI@Z   004561cb f i uafxcw:barcore.obj
 0001:000551e0       ?GetCapture@CWnd@@SGPAV1@XZ 004561e0 f i uafxcw:barcore.obj
 0001:000551ed       ?OnCancelMode@CWnd@@IAEXXZ 004561ed f i uafxcw:barcore.obj
 0001:000551f2       ?OnShowWindow@CWnd@@IAEXHI@Z 004561f2 f i uafxcw:barcore.obj
 0001:000551fa       ?OnLButtonDblClk@CWnd@@IAEXIVCPoint@@@Z 004561fa f i uafxcw:barcore.obj
 0001:00055202       ?OnLButtonDown@CWnd@@IAEXIVCPoint@@@Z 00456202 f i uafxcw:barcore.obj
 0001:0005520a       ?AddControlBar@CFrameWnd@@QAEXPAVCControlBar@@@Z 0045620a f i uafxcw:barcore.obj
 0001:0005521b       ??1CControlBar@@UAE@XZ     0045621b f   uafxcw:barcore.obj
 0001:00055290       ?CalcFixedLayout@CControlBar@@UAE?AVCSize@@HH@Z 00456290 f   uafxcw:barcore.obj
 0001:000552ca       ?ResetTimer@CControlBar@@QAEXII@Z 004562ca f   uafxcw:barcore.obj
 0001:00055304       ?OnTimer@CControlBar@@QAEXI@Z 00456304 f   uafxcw:barcore.obj
 0001:00055470       ?OnHelpHitTest@CControlBar@@QAEJIJ@Z 00456470 f   uafxcw:barcore.obj
 0001:000554ba       ?OnWindowPosChanging@CControlBar@@QAEXPAUtagWINDOWPOS@@@Z 004564ba f   uafxcw:barcore.obj
 0001:000555c9       ?OnCreate@CControlBar@@QAEHPAUtagCREATESTRUCTW@@@Z 004565c9 f   uafxcw:barcore.obj
 0001:00055665       ?OnMouseActivate@CControlBar@@QAEHPAVCWnd@@II@Z 00456665 f   uafxcw:barcore.obj
 0001:00055688       ?EraseNonClient@CControlBar@@QAEXXZ 00456688 f   uafxcw:barcore.obj
 0001:00055750       ?OnCtlColor@CControlBar@@QAEPAUHBRUSH__@@PAVCDC@@PAVCWnd@@I@Z 00456750 f   uafxcw:barcore.obj
 0001:000557aa       ?OnLButtonDown@CControlBar@@QAEXIVCPoint@@@Z 004567aa f   uafxcw:barcore.obj
 0001:000557f8       ?OnLButtonDblClk@CControlBar@@QAEXIVCPoint@@@Z 004567f8 f   uafxcw:barcore.obj
 0001:00055834       ?OnSizeParent@CControlBar@@QAEJIJ@Z 00456834 f   uafxcw:barcore.obj
 0001:00055978       ?DoPaint@CControlBar@@UAEXPAVCDC@@@Z 00456978 f   uafxcw:barcore.obj
 0001:000559b7       ?DrawBorders@CControlBar@@UAEXPAVCDC@@AAVCRect@@@Z 004569b7 f   uafxcw:barcore.obj
 0001:00055be7       ?DrawNonThemedGripper@CControlBar@@UAEHPAVCDC@@ABVCRect@@@Z 00456be7 f   uafxcw:barcore.obj
 0001:00055c5a       ?DrawThemedGripper@CControlBar@@UAEHPAVCDC@@ABVCRect@@H@Z 00456c5a f   uafxcw:barcore.obj
 0001:00055e00       ?SetStatusText@CControlBar@@UAEHH@Z 00456e00 f   uafxcw:barcore.obj
 0001:00055e9f       ?PreTranslateMessage@CControlBar@@UAEHPAUtagMSG@@@Z 00456e9f f   uafxcw:barcore.obj
 0001:000560a1       ?WindowProc@CControlBar@@UAEJIIJ@Z 004570a1 f   uafxcw:barcore.obj
 0001:0005618e       ?OnIdleUpdateCmdUI@CControlBar@@QAEJIJ@Z 0045718e f   uafxcw:barcore.obj
 0001:00056244       ?OnInitialUpdate@CControlBar@@QAEXXZ 00457244 f   uafxcw:barcore.obj
 0001:0005624e       ?GetThisMessageMap@CControlBar@@KGPBUAFX_MSGMAP@@XZ 0045724e f   uafxcw:barcore.obj
 0001:00056254       ?GetMessageMap@CControlBar@@MBEPBUAFX_MSGMAP@@XZ 00457254 f   uafxcw:barcore.obj
 0001:0005625a       ?CanDock@CDockContext@@QAEKXZ 0045725a f   uafxcw:dockcont.obj
 0001:00056382       ?GetDockBar@CDockContext@@QAEPAVCDockBar@@K@Z 00457382 f   uafxcw:dockcont.obj
 0001:000563cf       ??GCSize@@QBE?AV0@UtagSIZE@@@Z 004573cf f i uafxcw:dockcont.obj
 0001:000563eb       ?GetDCEx@CWnd@@QAEPAVCDC@@PAVCRgn@@K@Z 004573eb f i uafxcw:dockcont.obj
 0001:00056411       ?LockWindowUpdate@CWnd@@QAEHXZ 00457411 f i uafxcw:dockcont.obj
 0001:0005641b       ?UnlockWindowUpdate@CWnd@@QAEXXZ 0045741b f i uafxcw:dockcont.obj
 0001:00056424       ?_AfxAdjustRectangle@@YGXAAVCRect@@VCPoint@@@Z 00457424 f   uafxcw:dockcont.obj
 0001:00056468       ??0CDockContext@@QAE@PAVCControlBar@@@Z 00457468 f   uafxcw:dockcont.obj
 0001:000564e1       ?ToggleDocking@CDockContext@@UAEXXZ 004574e1 f   uafxcw:dockcont.obj
 0001:000565cb       ?InitLoop@CDockContext@@QAEXXZ 004575cb f   uafxcw:dockcont.obj
 0001:00056680       ?DrawFocusRect@CDockContext@@QAEXH@Z 00457680 f   uafxcw:dockcont.obj
 0001:00056790       ?UpdateState@CDockContext@@QAEXPAHH@Z 00457790 f   uafxcw:dockcont.obj
 0001:000567ea       ?Move@CDockContext@@QAEXVCPoint@@@Z 004577ea f   uafxcw:dockcont.obj
 0001:0005685f       ?OnKey@CDockContext@@QAEXHH@Z 0045785f f   uafxcw:dockcont.obj
 0001:00056895       ?Stretch@CDockContext@@QAEXVCPoint@@@Z 00457895 f   uafxcw:dockcont.obj
 0001:00056a0b       ?CancelLoop@CDockContext@@QAEXXZ 00457a0b f   uafxcw:dockcont.obj
 0001:00056a4e       ?EndDrag@CDockContext@@QAEXXZ 00457a4e f   uafxcw:dockcont.obj
 0001:00056b54       ?EndResize@CDockContext@@QAEXXZ 00457b54 f   uafxcw:dockcont.obj
 0001:00056b9b       ?Track@CDockContext@@QAEHXZ 00457b9b f   uafxcw:dockcont.obj
 0001:00056cb8       ?StartDrag@CDockContext@@UAEXVCPoint@@@Z 00457cb8 f   uafxcw:dockcont.obj
 0001:00057002       ?StartResize@CDockContext@@UAEXHVCPoint@@@Z 00458002 f   uafxcw:dockcont.obj
 0001:0005713f       ??1CDockContext@@UAE@XZ    0045813f f   uafxcw:dockcont.obj
 0001:00057218       ??_GCDockContext@@UAEPAXI@Z 00458218 f i uafxcw:dockcont.obj
 0001:00057218       ??_ECDockContext@@UAEPAXI@Z 00458218 f i uafxcw:dockcont.obj
 0001:00057239       ?IsAppThemedFail@CThemeHelper@@CAHXZ 00458239 f   uafxcw:ThemeHelper.obj
 0001:0005723c       ?OpenThemeDataFail@CThemeHelper@@CAPAXPAUHWND__@@PB_W@Z 0045823c f   uafxcw:ThemeHelper.obj
 0001:0005723f       ?CloseThemeDataFail@CThemeHelper@@CAJPAX@Z 0045823f f   uafxcw:ThemeHelper.obj
 0001:00057245       ?DrawThemeBackgroundFail@CThemeHelper@@CAJPAXPAUHDC__@@HHPBUtagRECT@@2@Z 00458245 f   uafxcw:ThemeHelper.obj
 0001:0005724b       ?GetThemePartSizeFail@CThemeHelper@@CAJPAXPAUHDC__@@HHPAUtagRECT@@W4THEMESIZE@@PAUtagSIZE@@@Z 0045824b f   uafxcw:ThemeHelper.obj
 0001:00057251       ?IsThemeBackgroundPartiallyTransparentFail@CThemeHelper@@CAHPAXHH@Z 00458251 f   uafxcw:ThemeHelper.obj
 0001:00057254       ?DrawThemeParentBackgroundFail@CThemeHelper@@CAJPAUHWND__@@PAUHDC__@@PAUtagRECT@@@Z 00458254 f   uafxcw:ThemeHelper.obj
 0001:0005725a       ?IsThemePartDefinedFail@CThemeHelper@@CAHPAXHH@Z 0045825a f   uafxcw:ThemeHelper.obj
 0001:0005725d       ?GetProc@CThemeHelper@@CAPAXPBDPAX@Z 0045825d f   uafxcw:ThemeHelper.obj
 0001:000572b1       ?IsAppThemed@CThemeHelper@@SAHXZ 004582b1 f   uafxcw:ThemeHelper.obj
 0001:000572f7       ?OpenThemeData@CThemeHelper@@SAPAXPAUHWND__@@PB_W@Z 004582f7 f   uafxcw:ThemeHelper.obj
 0001:00057343       ?CloseThemeData@CThemeHelper@@SAJPAX@Z 00458343 f   uafxcw:ThemeHelper.obj
 0001:0005738c       ?DrawThemeBackground@CThemeHelper@@SAJPAXPAUHDC__@@HHPBUtagRECT@@2@Z 0045838c f   uafxcw:ThemeHelper.obj
 0001:000573e4       ?GetThemePartSize@CThemeHelper@@SAJPAXPAUHDC__@@HHPAUtagRECT@@W4THEMESIZE@@PAUtagSIZE@@@Z 004583e4 f   uafxcw:ThemeHelper.obj
 0001:0005743f       ?IsThemeBackgroundPartiallyTransparent@CThemeHelper@@SAHPAXHH@Z 0045843f f   uafxcw:ThemeHelper.obj
 0001:0005748e       ?DrawThemeParentBackground@CThemeHelper@@SAJPAUHWND__@@PAUHDC__@@PAUtagRECT@@@Z 0045848e f   uafxcw:ThemeHelper.obj
 0001:000574dd       ?IsThemePartDefined@CThemeHelper@@SAHPAXHH@Z 004584dd f   uafxcw:ThemeHelper.obj
 0001:0005752c       ?HashKey@CMapStringToPtr@@QBEIPB_W@Z 0045852c f i uafxcw:map_sp.obj
 0001:00057555       ?InitHashTable@CMapStringToPtr@@QAEXIH@Z 00458555 f   uafxcw:map_sp.obj
 0001:000575b3       ?GetRuntimeClass@CMapStringToPtr@@UBEPAUCRuntimeClass@@XZ 004585b3 f   uafxcw:map_sp.obj
 0001:000575b9       ??0CMapStringToPtr@@QAE@H@Z 004585b9 f   uafxcw:map_sp.obj
 0001:000575ec       ?NewAssoc@CMapStringToPtr@@IAEPAUCAssoc@1@XZ 004585ec f   uafxcw:map_sp.obj
 0001:00057648       ?GetAssocAt@CMapStringToPtr@@IBEPAUCAssoc@1@PB_WAAI1@Z 00458648 f   uafxcw:map_sp.obj
 0001:0005769f       ?Lookup@CMapStringToPtr@@QBEHPB_WAAPAX@Z 0045869f f   uafxcw:map_sp.obj
 0001:000576c8       ?LookupKey@CMapStringToPtr@@QBEHPB_WAAPB_W@Z 004586c8 f   uafxcw:map_sp.obj
 0001:00057702       ?RemoveAll@CMapStringToPtr@@QAEXXZ 00458702 f   uafxcw:map_sp.obj
 0001:00057760       ??1CMapStringToPtr@@UAE@XZ 00458760 f   uafxcw:map_sp.obj
 0001:0005776b       ?FreeAssoc@CMapStringToPtr@@IAEXPAUCAssoc@1@@Z 0045876b f   uafxcw:map_sp.obj
 0001:000577a4       ?RemoveKey@CMapStringToPtr@@QAEHPB_W@Z 004587a4 f   uafxcw:map_sp.obj
 0001:0005780f       ??_ECMapStringToPtr@@UAEPAXI@Z 0045880f f i uafxcw:map_sp.obj
 0001:0005780f       ??_GCMapStringToPtr@@UAEPAXI@Z 0045880f f i uafxcw:map_sp.obj
 0001:00057836       ?GetNextAssoc@CMapStringToPtr@@QBEXAAPAU__POSITION@@AAV?$CStringT@_WV?$StrTraitMFC@_WV?$ChTraitsCRT@_W@ATL@@@@@ATL@@AAPAX@Z 00458836 f   uafxcw:map_sp.obj
 0001:000578b4       ??ACMapStringToPtr@@QAEAAPAXPB_W@Z 004588b4 f   uafxcw:map_sp.obj
 0001:0005791d       ??0CTypeLibCacheMap@@QAE@XZ 0045891d f i uafxcw:oletyplb.obj
 0001:00057933       ??1CTypeLibCacheMap@@UAE@XZ 00458933 f i uafxcw:oletyplb.obj
 0001:00057938       ?Lock@CTypeLibCache@@QAEXXZ 00458938 f   uafxcw:oletyplb.obj
 0001:0005794c       ?Lookup@CTypeLibCache@@QAEHKPAPAUITypeLib@@@Z 0045894c f   uafxcw:oletyplb.obj
 0001:00057980       ?Cache@CTypeLibCache@@QAEXKPAUITypeLib@@@Z 00458980 f   uafxcw:oletyplb.obj
 0001:000579c6       ?CacheTypeInfo@CTypeLibCache@@QAEXKABU_GUID@@PAUITypeInfo@@@Z 004589c6 f   uafxcw:oletyplb.obj
 0001:000579ff       ?EnableTypeLib@CCmdTarget@@QAEXXZ 004589ff f   uafxcw:oletyplb.obj
 0001:00057a26       ?AfxGetTypeLibCache@@YGPAVCTypeLibCache@@PBU_GUID@@@Z 00458a26 f   uafxcw:oletyplb.obj
 0001:00057ad7       ??_ECTypeLibCacheMap@@UAEPAXI@Z 00458ad7 f i uafxcw:oletyplb.obj
 0001:00057ad7       ??_GCTypeLibCacheMap@@UAEPAXI@Z 00458ad7 f i uafxcw:oletyplb.obj
 0001:00057af8       ?LookupTypeInfo@CTypeLibCache@@QAEHKABU_GUID@@PAPAUITypeInfo@@@Z 00458af8 f   uafxcw:oletyplb.obj
 0001:00057b48       ?GetTypeInfoOfGuid@CCmdTarget@@QAEJKABU_GUID@@PAPAUITypeInfo@@@Z 00458b48 f   uafxcw:oletyplb.obj
 0001:00057cb7       ?AfxBSTR2CString@@YGXPAV?$CStringT@_WV?$StrTraitMFC@_WV?$ChTraitsCRT@_W@ATL@@@@@ATL@@PA_W@Z 00458cb7 f   uafxcw:olecnvrt.obj
 0001:00057cf6       __AfxDispatchCall@12       00458cf6 f   uafxcw:olecall.obj
 0001:00057d07       ??0COleControlLock@@QAE@ABU_GUID@@@Z 00458d07 f   uafxcw:occlock.obj
 0001:00057d7a       ??1COleControlLock@@UAE@XZ 00458d7a f   uafxcw:occlock.obj
 0001:00057da3       ?AddHead@?$CTypedSimpleList@PAVCOleControlLock@@@@QAEXPAVCOleControlLock@@@Z 00458da3 f i uafxcw:occlock.obj
 0001:00057dae       ?Remove@?$CTypedSimpleList@PAVCOleControlLock@@@@QAEHPAVCOleControlLock@@@Z 00458dae f i uafxcw:occlock.obj
 0001:00057db9       ??B?$CTypedSimpleList@PAVCOleControlLock@@@@QAEPAVCOleControlLock@@XZ 00458db9 f i uafxcw:occlock.obj
 0001:00057dbc       ??_GCOleControlLock@@UAEPAXI@Z 00458dbc f i uafxcw:occlock.obj
 0001:00057dbc       ??_ECOleControlLock@@UAEPAXI@Z 00458dbc f i uafxcw:occlock.obj
 0001:00057ddd       ?AfxOleLockControl@@YGHABU_GUID@@@Z 00458ddd f   uafxcw:occlock.obj
 0001:00057e65       ?AfxOleLockControl@@YGHPB_W@Z 00458e65 f   uafxcw:occlock.obj
 0001:00057ea3       ?AfxOleUnlockControl@@YGHABU_GUID@@@Z 00458ea3 f   uafxcw:occlock.obj
 0001:00057f0a       ?AfxOleUnlockAllControls@@YGXXZ 00458f0a f   uafxcw:occlock.obj
 0001:00057f45       ?AfxOleUnlockControl@@YGHPB_W@Z 00458f45 f   uafxcw:occlock.obj
 0001:00057f83       ?GetInterfaceMap@COleObjectFactory@@MBEPBUAFX_INTERFACEMAP@@XZ 00458f83 f   uafxcw:olefact.obj
 0001:00057f89       ?Unregister@COleObjectFactory@@QAEHXZ 00458f89 f   uafxcw:olefact.obj
 0001:00057f8d       ?Register@COleObjectFactory@@UAEHXZ 00458f8d f   uafxcw:olefact.obj
 0001:00057fca       ?Revoke@COleObjectFactory@@QAEXXZ 00458fca f   uafxcw:olefact.obj
 0001:00057fed       ?UpdateRegistry@COleObjectFactory@@QAEXPB_W@Z 00458fed f   uafxcw:olefact.obj
 0001:00058018       ?OnCreateObject@COleObjectFactory@@MAEPAVCCmdTarget@@XZ 00459018 f   uafxcw:olefact.obj
 0001:0005802a       ?IsLicenseValid@COleObjectFactory@@QAEHXZ 0045902a f   uafxcw:olefact.obj
 0001:00058047       ?VerifyUserLicense@COleObjectFactory@@MAEHXZ 00459047 f   uafxcw:olefact.obj
 0001:0005804b       ?GetLicenseKey@COleObjectFactory@@MAEHKPAPA_W@Z 0045904b f   uafxcw:olefact.obj
 0001:00058050       ?VerifyLicenseKey@COleObjectFactory@@MAEHPA_W@Z 00459050 f   uafxcw:olefact.obj
 0001:000580b9       ?Release@XClassFactory@COleObjectFactory@@UAGKXZ 004590b9 f   uafxcw:olefact.obj
 0001:000580cd       ?QueryInterface@XClassFactory@COleObjectFactory@@UAGJABU_GUID@@PAPAX@Z 004590cd f   uafxcw:olefact.obj
 0001:000580e7       ?CreateInstance@XClassFactory@COleObjectFactory@@UAGJPAUIUnknown@@ABU_GUID@@PAPAX@Z 004590e7 f   uafxcw:olefact.obj
 0001:00058106       ?GetRuntimeClass@COleObjectFactory@@UBEPAUCRuntimeClass@@XZ 00459106 f   uafxcw:olefact.obj
 0001:0005810c       ?AddHead@?$CTypedSimpleList@PAVCOleObjectFactory@@@@QAEXPAVCOleObjectFactory@@@Z 0045910c f i uafxcw:olefact.obj
 0001:00058117       ?Remove@?$CTypedSimpleList@PAVCOleObjectFactory@@@@QAEHPAVCOleObjectFactory@@@Z 00459117 f i uafxcw:olefact.obj
 0001:00058122       ??0IClassFactory@@QAE@XZ   00459122 f i uafxcw:olefact.obj
 0001:00058125       ?CommonConstruct@COleObjectFactory@@IAEXABU_GUID@@PAUCRuntimeClass@@HHPB_W@Z 00459125 f   uafxcw:olefact.obj
 0001:0005818e       ?AddRef@XClassFactory@COleObjectFactory@@UAGKXZ 0045918e f   uafxcw:olefact.obj
 0001:000581a4       ?LockServer@XClassFactory@COleObjectFactory@@UAGJH@Z 004591a4 f   uafxcw:olefact.obj
 0001:00058211       ?GetLicInfo@XClassFactory@COleObjectFactory@@UAGJPAUtagLICINFO@@@Z 00459211 f   uafxcw:olefact.obj
 0001:0005826d       ?RequestLicKey@XClassFactory@COleObjectFactory@@UAGJKPAPA_W@Z 0045926d f   uafxcw:olefact.obj
 0001:000582ea       ?CreateInstanceLic@XClassFactory@COleObjectFactory@@UAGJPAUIUnknown@@0ABU_GUID@@PA_WPAPAX@Z 004592ea f   uafxcw:olefact.obj
 0001:0005846f       ??B?$CTypedSimpleList@PAVCOleObjectFactory@@@@QAEPAVCOleObjectFactory@@XZ 0045946f f i uafxcw:olefact.obj
 0001:00058472       ??0IClassFactory2@@QAE@XZ  00459472 f i uafxcw:olefact.obj
 0001:00058475       ?UnregisterAll@COleObjectFactory@@SGHXZ 00459475 f   uafxcw:olefact.obj
 0001:000584a4       ?RegisterAll@COleObjectFactory@@SGHXZ 004594a4 f   uafxcw:olefact.obj
 0001:000584fc       ?RevokeAll@COleObjectFactory@@SGXXZ 004594fc f   uafxcw:olefact.obj
 0001:00058528       ?UpdateRegistryAll@COleObjectFactory@@SGHH@Z 00459528 f   uafxcw:olefact.obj
 0001:0005856a       ??0XClassFactory@COleObjectFactory@@QAE@XZ 0045956a f i uafxcw:olefact.obj
 0001:00058573       ??0COleObjectFactory@@QAE@ABU_GUID@@PAUCRuntimeClass@@HHPB_W@Z 00459573 f   uafxcw:olefact.obj
 0001:000585ba       ?IsRegistered@COleObjectFactory@@UBEHXZ 004595ba f i uafxcw:olefact.obj
 0001:000585c3       ??0COleObjectFactory@@QAE@ABU_GUID@@PAUCRuntimeClass@@HPB_W@Z 004595c3 f   uafxcw:olefact.obj
 0001:00058609       ??1COleObjectFactory@@UAE@XZ 00459609 f   uafxcw:olefact.obj
 0001:00058716       ??_GCOleObjectFactory@@UAEPAXI@Z 00459716 f i uafxcw:olefact.obj
 0001:00058716       ??_ECOleObjectFactory@@UAEPAXI@Z 00459716 f i uafxcw:olefact.obj
 0001:00058737       ?UpdateRegistry@COleObjectFactory@@MAEHH@Z 00459737 f   uafxcw:olefact.obj
 0001:000588d5       ?Empty@COleDataSource@@QAEXXZ 004598d5 f   uafxcw:oledobj2.obj
 0001:00058926       ?Lookup@COleDataSource@@IBEPAUAFX_DATACACHE_ENTRY@@PAUtagFORMATETC@@W4tagDATADIR@@@Z 00459926 f   uafxcw:oledobj2.obj
 0001:000589e6       ?OnRenderGlobalData@COleDataSource@@UAEHPAUtagFORMATETC@@PAPAX@Z 004599e6 f   uafxcw:oledobj2.obj
 0001:000589eb       ?OnRenderFileData@COleDataSource@@UAEHPAUtagFORMATETC@@PAVCFile@@@Z 004599eb f   uafxcw:oledobj2.obj
 0001:000589f0       ?OnRenderData@COleDataSource@@UAEHPAUtagFORMATETC@@PAUtagSTGMEDIUM@@@Z 004599f0 f   uafxcw:oledobj2.obj
 0001:00058b2b       ?OnSetData@COleDataSource@@UAEHPAUtagFORMATETC@@PAUtagSTGMEDIUM@@H@Z 00459b2b f   uafxcw:oledobj2.obj
 0001:00058b30       ?GetInterfaceMap@CEnumFormatEtc@@MBEPBUAFX_INTERFACEMAP@@XZ 00459b30 f   uafxcw:oledobj2.obj
 0001:00058b36       ??0CEnumFormatEtc@@QAE@XZ  00459b36 f   uafxcw:oledobj2.obj
 0001:00058b56       ??1CEnumFormatEtc@@UAE@XZ  00459b56 f   uafxcw:oledobj2.obj
 0001:00058b90       ?OnNext@CEnumFormatEtc@@MAEHPAX@Z 00459b90 f   uafxcw:oledobj2.obj
 0001:00058bc4       ?GetInterfaceMap@COleDataSource@@MBEPBUAFX_INTERFACEMAP@@XZ 00459bc4 f   uafxcw:oledobj2.obj
 0001:00058bca       ?AddRef@XDataObject@COleDataSource@@UAGKXZ 00459bca f   uafxcw:oledobj2.obj
 0001:00058bde       ?Release@XDataObject@COleDataSource@@UAGKXZ 00459bde f   uafxcw:oledobj2.obj
 0001:00058bf2       ?QueryInterface@XDataObject@COleDataSource@@UAGJABU_GUID@@PAPAX@Z 00459bf2 f   uafxcw:oledobj2.obj
 0001:00058c0c       ?QueryGetData@XDataObject@COleDataSource@@UAGJPAUtagFORMATETC@@@Z 00459c0c f   uafxcw:oledobj2.obj
 0001:00058c33       ?GetCanonicalFormatEtc@XDataObject@COleDataSource@@UAGJPAUtagFORMATETC@@0@Z 00459c33 f   uafxcw:oledobj2.obj
 0001:00058c3b       ?DAdvise@XDataObject@COleDataSource@@UAGJPAUtagFORMATETC@@KPAUIAdviseSink@@PAK@Z 00459c3b f   uafxcw:oledobj2.obj
 0001:00058c4f       ?DUnadvise@XDataObject@COleDataSource@@UAGJK@Z 00459c4f f   uafxcw:oledobj2.obj
 0001:00058c57       ?EnumDAdvise@XDataObject@COleDataSource@@UAGJPAPAUIEnumSTATDATA@@@Z 00459c57 f   uafxcw:oledobj2.obj
 0001:00058c6b       ?CreateObject@?$CProcessLocal@V_AFX_OLE_STATE@@@@SGPAVCNoTrackObject@@XZ 00459c6b f i uafxcw:oledobj2.obj
 0001:00058c97       ??0IDataObject@@QAE@XZ     00459c97 f i uafxcw:oledobj2.obj
 0001:00058c9a       ?GetCacheEntry@COleDataSource@@IAEPAUAFX_DATACACHE_ENTRY@@PAUtagFORMATETC@@W4tagDATADIR@@@Z 00459c9a f   uafxcw:oledobj2.obj
 0001:00058d4f       ?CacheGlobalData@COleDataSource@@QAEXGPAXPAUtagFORMATETC@@@Z 00459d4f f   uafxcw:oledobj2.obj
 0001:00058d8c       ?CacheData@COleDataSource@@QAEXGPAUtagSTGMEDIUM@@PAUtagFORMATETC@@@Z 00459d8c f   uafxcw:oledobj2.obj
 0001:00058dce       ?DelayRenderFileData@COleDataSource@@QAEXGPAUtagFORMATETC@@@Z 00459dce f   uafxcw:oledobj2.obj
 0001:00058e09       ?DelayRenderData@COleDataSource@@QAEXGPAUtagFORMATETC@@@Z 00459e09 f   uafxcw:oledobj2.obj
 0001:00058e5a       ?DelaySetData@COleDataSource@@QAEXGPAUtagFORMATETC@@@Z 00459e5a f   uafxcw:oledobj2.obj
 0001:00058e8e       ??_ECEnumFormatEtc@@UAEPAXI@Z 00459e8e f i uafxcw:oledobj2.obj
 0001:00058e8e       ??_GCEnumFormatEtc@@UAEPAXI@Z 00459e8e f i uafxcw:oledobj2.obj
 0001:00058eaf       ?AddFormat@CEnumFormatEtc@@QAEXPBUtagFORMATETC@@@Z 00459eaf f   uafxcw:oledobj2.obj
 0001:00058f37       ?GetData@XDataObject@COleDataSource@@UAGJPAUtagFORMATETC@@PAUtagSTGMEDIUM@@@Z 00459f37 f   uafxcw:oledobj2.obj
 0001:0005902f       ?GetDataHere@XDataObject@COleDataSource@@UAGJPAUtagFORMATETC@@PAUtagSTGMEDIUM@@@Z 0045a02f f   uafxcw:oledobj2.obj
 0001:00059117       ?SetData@XDataObject@COleDataSource@@UAGJPAUtagFORMATETC@@PAUtagSTGMEDIUM@@H@Z 0045a117 f   uafxcw:oledobj2.obj
 0001:000591c4       ?EnumFormatEtc@XDataObject@COleDataSource@@UAGJKPAPAUIEnumFORMATETC@@@Z 0045a1c4 f   uafxcw:oledobj2.obj
 0001:0005925a       ?GetData@?$CProcessLocal@V_AFX_OLE_STATE@@@@QAEPAV_AFX_OLE_STATE@@XZ 0045a25a f i uafxcw:oledobj2.obj
 0001:0005926e       ??0XDataObject@COleDataSource@@QAE@XZ 0045a26e f i uafxcw:oledobj2.obj
 0001:00059277       ??B?$CProcessLocal@V_AFX_OLE_STATE@@@@QAEPAV_AFX_OLE_STATE@@XZ 0045a277 f i uafxcw:oledobj2.obj
 0001:0005927c       ??C?$CProcessLocal@V_AFX_OLE_STATE@@@@QAEPAV_AFX_OLE_STATE@@XZ 0045a27c f i uafxcw:oledobj2.obj
 0001:00059281       ??0COleDataSource@@QAE@XZ  0045a281 f   uafxcw:oledobj2.obj
 0001:000592ae       ??1COleDataSource@@UAE@XZ  0045a2ae f   uafxcw:oledobj2.obj
 0001:00059309       ?SetClipboard@COleDataSource@@QAEXXZ 0045a309 f   uafxcw:oledobj2.obj
 0001:0005934c       ?GetClipboardOwner@COleDataSource@@SGPAV1@XZ 0045a34c f   uafxcw:oledobj2.obj
 0001:00059394       ??_ECOleDataSource@@UAEPAXI@Z 0045a394 f i uafxcw:oledobj2.obj
 0001:00059394       ??_GCOleDataSource@@UAEPAXI@Z 0045a394 f i uafxcw:oledobj2.obj
 0001:000593b5       ?FlushClipboard@COleDataSource@@SGXXZ 0045a3b5 f   uafxcw:oledobj2.obj
 0001:000593c5       ?BeginBusyState@COleMessageFilter@@UAEXXZ 0045a3c5 f   uafxcw:olemsgf.obj
 0001:000593c9       ?EndBusyState@COleMessageFilter@@UAEXXZ 0045a3c9 f   uafxcw:olemsgf.obj
 0001:000593d5       ?Register@COleMessageFilter@@QAEHXZ 0045a3d5 f   uafxcw:olemsgf.obj
 0001:000593f4       ?Revoke@COleMessageFilter@@QAEXXZ 0045a3f4 f   uafxcw:olemsgf.obj
 0001:0005940f       ?OnMessagePending@COleMessageFilter@@UAEHPBUtagMSG@@@Z 0045a40f f   uafxcw:olemsgf.obj
 0001:00059457       ?IsSignificantMessage@COleMessageFilter@@UAEHPAUtagMSG@@@Z 0045a457 f   uafxcw:olemsgf.obj
 0001:000594af       ?GetInterfaceMap@COleMessageFilter@@MBEPBUAFX_INTERFACEMAP@@XZ 0045a4af f   uafxcw:olemsgf.obj
 0001:000594b5       ?AddRef@XMessageFilter@COleMessageFilter@@UAGKXZ 0045a4b5 f   uafxcw:olemsgf.obj
 0001:000594c9       ?Release@XMessageFilter@COleMessageFilter@@UAGKXZ 0045a4c9 f   uafxcw:olemsgf.obj
 0001:000594dd       ?QueryInterface@XMessageFilter@COleMessageFilter@@UAGJABU_GUID@@PAPAX@Z 0045a4dd f   uafxcw:olemsgf.obj
 0001:000594f7       ?HandleInComingCall@XMessageFilter@COleMessageFilter@@UAGKKPAUHTASK__@@KPAUtagINTERFACEINFO@@@Z 0045a4f7 f   uafxcw:olemsgf.obj
 0001:00059557       ?GetSelectionType@COleBusyDialog@@QBEIXZ 0045a557 f i uafxcw:olemsgf.obj
 0001:0005955e       ??0IMessageFilter@@QAE@XZ  0045a55e f i uafxcw:olemsgf.obj
 0001:00059561       ??1COleMessageFilter@@UAE@XZ 0045a561 f   uafxcw:olemsgf.obj
 0001:00059579       ?OnBusyDialog@COleMessageFilter@@UAEHPAUHTASK__@@@Z 0045a579 f   uafxcw:olemsgf.obj
 0001:000595e4       ?OnNotRespondingDialog@COleMessageFilter@@UAEHPAUHTASK__@@@Z 0045a5e4 f   uafxcw:olemsgf.obj
 0001:00059650       ?RetryRejectedCall@XMessageFilter@COleMessageFilter@@UAGKPAUHTASK__@@KK@Z 0045a650 f   uafxcw:olemsgf.obj
 0001:000596d1       ?MessagePending@XMessageFilter@COleMessageFilter@@UAGKPAUHTASK__@@KK@Z 0045a6d1 f   uafxcw:olemsgf.obj
 0001:000597a8       ??_GCOleMessageFilter@@UAEPAXI@Z 0045a7a8 f i uafxcw:olemsgf.obj
 0001:000597a8       ??_ECOleMessageFilter@@UAEPAXI@Z 0045a7a8 f i uafxcw:olemsgf.obj
 0001:000597c9       ??0XMessageFilter@COleMessageFilter@@QAE@XZ 0045a7c9 f i uafxcw:olemsgf.obj
 0001:000597d2       ??0COleMessageFilter@@QAE@XZ 0045a7d2 f   uafxcw:olemsgf.obj
 0001:00059816       ??0CToolTipCtrl@@QAE@XZ    0045a816 f   uafxcw:tooltip.obj
 0001:00059848       ?CreateEx@CToolTipCtrl@@UAEHPAVCWnd@@KK@Z 0045a848 f   uafxcw:tooltip.obj
 0001:00059880       ??1CToolTipCtrl@@UAE@XZ    0045a880 f   uafxcw:tooltip.obj
 0001:000598c0       ?DestroyToolTipCtrl@CToolTipCtrl@@UAEHXZ 0045a8c0 f   uafxcw:tooltip.obj
 0001:000598d8       ?GetRuntimeClass@CToolTipCtrl@@UBEPAUCRuntimeClass@@XZ 0045a8d8 f   uafxcw:tooltip.obj
 0001:000598de       ??_ECToolTipCtrl@@UAEPAXI@Z 0045a8de f i uafxcw:tooltip.obj
 0001:000598de       ??_GCToolTipCtrl@@UAEPAXI@Z 0045a8de f i uafxcw:tooltip.obj
 0001:000598ff       ?Create@CToolTipCtrl@@UAEHPAVCWnd@@K@Z 0045a8ff f   uafxcw:tooltip.obj
 0001:00059958       ?OnAddTool@CToolTipCtrl@@IAEJIJ@Z 0045a958 f   uafxcw:tooltip.obj
 0001:000599d7       ?OnDisableModal@CToolTipCtrl@@IAEJIJ@Z 0045a9d7 f   uafxcw:tooltip.obj
 0001:000599ee       ?OnEnable@CToolTipCtrl@@IAEXH@Z 0045a9ee f   uafxcw:tooltip.obj
 0001:00059a0a       ?OnWindowFromPoint@CToolTipCtrl@@IAEJIJ@Z 0045aa0a f   uafxcw:tooltip.obj
 0001:00059a7f       ?HitTest@CToolTipCtrl@@QBEHPAVCWnd@@VCPoint@@PAUtagTOOLINFOW@@@Z 0045aa7f f   uafxcw:tooltip.obj
 0001:00059afc       ?FillInToolInfo@CToolTipCtrl@@QBEXAAUtagTOOLINFOW@@PAVCWnd@@I@Z 0045aafc f   uafxcw:tooltip.obj
 0001:00059b52       ?_AfxRelayToolTipMessage@@YGXPAVCToolTipCtrl@@PAUtagMSG@@@Z 0045ab52 f   uafxcw:tooltip.obj
 0001:00059bd2       ?GetThisMessageMap@CToolTipCtrl@@KGPBUAFX_MSGMAP@@XZ 0045abd2 f   uafxcw:tooltip.obj
 0001:00059bd8       ?AddTool@CToolTipCtrl@@QAEHPAVCWnd@@PB_WPBUtagRECT@@I@Z 0045abd8 f   uafxcw:tooltip.obj
 0001:00059c30       ?AddTool@CToolTipCtrl@@QAEHPAVCWnd@@IPBUtagRECT@@I@Z 0045ac30 f   uafxcw:tooltip.obj
 0001:00059c94       ?DelTool@CToolTipCtrl@@QAEXPAVCWnd@@I@Z 0045ac94 f   uafxcw:tooltip.obj
 0001:00059cc7       ?GetToolInfo@CToolTipCtrl@@QBEHAAVCToolInfo@@PAVCWnd@@I@Z 0045acc7 f   uafxcw:tooltip.obj
 0001:00059cfc       ?SetToolRect@CToolTipCtrl@@QAEXPAVCWnd@@IPBUtagRECT@@@Z 0045acfc f   uafxcw:tooltip.obj
 0001:00059d48       ?UpdateTipText@CToolTipCtrl@@QAEXPB_WPAVCWnd@@I@Z 0045ad48 f   uafxcw:tooltip.obj
 0001:00059db0       ?FilterToolTipMessage@CWnd@@QAEXPAUtagMSG@@@Z 0045adb0 f   uafxcw:tooltip.obj
 0001:0005a1cb       ?GetMessageMap@CToolTipCtrl@@MBEPBUAFX_MSGMAP@@XZ 0045b1cb f   uafxcw:tooltip.obj
 0001:0005a1d1       ?_FilterToolTipMessage@CWnd@@SGXPAUtagMSG@@PAV1@@Z 0045b1d1 f   uafxcw:tooltip.obj
 0001:0005a1e5       ?GetText@CToolTipCtrl@@QBEXAAV?$CStringT@_WV?$StrTraitMFC@_WV?$ChTraitsCRT@_W@ATL@@@@@ATL@@PAVCWnd@@I@Z 0045b1e5 f   uafxcw:tooltip.obj
 0001:0005a2a9       ?_EnableToolTips@CWnd@@QAEHHI@Z 0045b2a9 f   uafxcw:tooltip.obj
 0001:0005a345       ?EnableToolTips@CWnd@@QAEHH@Z 0045b345 f   uafxcw:tooltip.obj
 0001:0005a358       ?EnableTrackingToolTips@CWnd@@QAEHH@Z 0045b358 f   uafxcw:tooltip.obj
 0001:0005a36e       ?UpdateTipText@CToolTipCtrl@@QAEXIPAVCWnd@@I@Z 0045b36e f   uafxcw:tooltip.obj
 0001:0005a3bd       ?CreateFloatingFrame@CFrameWnd@@QAEPAVCMiniDockFrameWnd@@K@Z 0045b3bd f   uafxcw:winfrm2.obj
 0001:0005a3fb       ?DockControlBar@CFrameWnd@@QAEXPAVCControlBar@@PAVCDockBar@@PBUtagRECT@@@Z 0045b3fb f   uafxcw:winfrm2.obj
 0001:0005a45c       ?ReDockControlBar@CFrameWnd@@QAEXPAVCControlBar@@PAVCDockBar@@PBUtagRECT@@@Z 0045b45c f   uafxcw:winfrm2.obj
 0001:0005a4f0       ?EnableDocking@CFrameWnd@@QAEXK@Z 0045b4f0 f   uafxcw:winfrm2.obj
 0001:0005a581       ?DockControlBar@CFrameWnd@@QAEXPAVCControlBar@@IPBUtagRECT@@@Z 0045b581 f   uafxcw:winfrm2.obj
 0001:0005a5ab       ?FloatControlBar@CFrameWnd@@QAEXPAVCControlBar@@VCPoint@@K@Z 0045b5ab f   uafxcw:winfrm2.obj
 0001:0005a6df       ?CanDock@CFrameWnd@@QAEKVCRect@@KPAPAVCDockBar@@@Z 0045b6df f   uafxcw:winfrm2.obj
 0001:0005a7b1       ?Detach@COleStreamFile@@QAEPAUIStream@@XZ 0045b7b1 f   uafxcw:olestrm.obj
 0001:0005a7b9       ?Attach@COleStreamFile@@QAEXPAUIStream@@@Z 0045b7b9 f   uafxcw:olestrm.obj
 0001:0005a7d5       ?_AfxReadFromStream@@YGJPAUIStream@@PAXIAAK@Z 0045b7d5 f   uafxcw:olestrm.obj
 0001:0005a810       ?_AfxFillOleFileException@@YGXPAVCFileException@@J@Z 0045b810 f   uafxcw:olestrm.obj
 0001:0005a87b       ?CreateMemoryStream@COleStreamFile@@QAEHPAVCFileException@@@Z 0045b87b f   uafxcw:olestrm.obj
 0001:0005a8b0       ?GetStream@COleStreamFile@@QBEPAUIStream@@XZ 0045b8b0 f   uafxcw:olestrm.obj
 0001:0005a8b4       ?GetRuntimeClass@COleStreamFile@@UBEPAUCRuntimeClass@@XZ 0045b8b4 f   uafxcw:olestrm.obj
 0001:0005a8ba       ?Abort@COleStreamFile@@UAEXXZ 0045b8ba f   uafxcw:olestrm.obj
 0001:0005a8e0       ?Close@COleStreamFile@@UAEXXZ 0045b8e0 f   uafxcw:olestrm.obj
 0001:0005a903       ?GetStorageName@COleStreamFile@@UBE?BV?$CStringT@_WV?$StrTraitMFC@_WV?$ChTraitsCRT@_W@ATL@@@@@ATL@@XZ 0045b903 f   uafxcw:olestrm.obj
 0001:0005a920       ??1COleStreamFile@@UAE@XZ  0045b920 f   uafxcw:olestrm.obj
 0001:0005aa25       ??_ECOleStreamFile@@UAEPAXI@Z 0045ba25 f i uafxcw:olestrm.obj
 0001:0005aa25       ??_GCOleStreamFile@@UAEPAXI@Z 0045ba25 f i uafxcw:olestrm.obj
 0001:0005aa46       ??0COleStreamFile@@QAE@PAUIStream@@@Z 0045ba46 f   uafxcw:olestrm.obj
 0001:0005ab27       ?_AfxThrowOleFileException@@YGXJ@Z 0045bb27 f   uafxcw:olestrm.obj
 0001:0005ab69       ?GetStatus@COleStreamFile@@QBEHAAUCFileStatus@@@Z 0045bb69 f   uafxcw:olestrm.obj
 0001:0005ac6c       ?GetPosition@COleStreamFile@@UBE_KXZ 0045bc6c f   uafxcw:olestrm.obj
 0001:0005ac9e       ?OpenStream@COleStreamFile@@QAEHPAUIStorage@@PB_WKPAVCFileException@@@Z 0045bc9e f   uafxcw:olestrm.obj
 0001:0005ad0c       ?CreateStream@COleStreamFile@@QAEHPAUIStorage@@PB_WKPAVCFileException@@@Z 0045bd0c f   uafxcw:olestrm.obj
 0001:0005ae19       ?Duplicate@COleStreamFile@@UBEPAVCFile@@XZ 0045be19 f   uafxcw:olestrm.obj
 0001:0005ae82       ?Seek@COleStreamFile@@UAE_K_JI@Z 0045be82 f   uafxcw:olestrm.obj
 0001:0005aeb1       ?SetLength@COleStreamFile@@UAEX_K@Z 0045beb1 f   uafxcw:olestrm.obj
 0001:0005aed3       ?GetLength@COleStreamFile@@UBE_KXZ 0045bed3 f   uafxcw:olestrm.obj
 0001:0005af12       ?Read@COleStreamFile@@UAEIPAXI@Z 0045bf12 f   uafxcw:olestrm.obj
 0001:0005af3a       ?Write@COleStreamFile@@UAEXPBXI@Z 0045bf3a f   uafxcw:olestrm.obj
 0001:0005af71       ?LockRange@COleStreamFile@@UAEX_K0@Z 0045bf71 f   uafxcw:olestrm.obj
 0001:0005af9b       ?UnlockRange@COleStreamFile@@UAEX_K0@Z 0045bf9b f   uafxcw:olestrm.obj
 0001:0005afc5       ?Flush@COleStreamFile@@UAEXXZ 0045bfc5 f   uafxcw:olestrm.obj
 0001:0005afdb       ??0CSharedFile@@QAE@II@Z   0045bfdb f   uafxcw:fileshrd.obj
 0001:0005b009       ??1CSharedFile@@UAE@XZ     0045c009 f   uafxcw:fileshrd.obj
 0001:0005b040       ?SetHandle@CSharedFile@@QAEXPAXH@Z 0045c040 f   uafxcw:fileshrd.obj
 0001:0005b07b       ?Alloc@CSharedFile@@MAEPAEK@Z 0045c07b f   uafxcw:fileshrd.obj
 0001:0005b0a2       ?Realloc@CSharedFile@@MAEPAEPAEK@Z 0045c0a2 f   uafxcw:fileshrd.obj
 0001:0005b0df       ?Free@CSharedFile@@MAEXPAE@Z 0045c0df f   uafxcw:fileshrd.obj
 0001:0005b0fa       ?Detach@CSharedFile@@QAEPAXXZ 0045c0fa f   uafxcw:fileshrd.obj
 0001:0005b11a       ?GetRuntimeClass@CSharedFile@@UBEPAUCRuntimeClass@@XZ 0045c11a f   uafxcw:fileshrd.obj
 0001:0005b120       ??_ECSharedFile@@UAEPAXI@Z 0045c120 f i uafxcw:fileshrd.obj
 0001:0005b120       ??_GCSharedFile@@UAEPAXI@Z 0045c120 f i uafxcw:fileshrd.obj
 0001:0005b141       ??1?$CProcessLocal@V_AFX_OLE_STATE@@@@QAE@XZ 0045c141 f i uafxcw:oledata.obj
 0001:0005b146       ??0_AFX_OLE_STATE@@QAE@XZ  0045c146 f   uafxcw:oledata.obj
 0001:0005b14f       ??1_AFX_OLE_STATE@@UAE@XZ  0045c14f f   uafxcw:oledata.obj
 0001:0005b156       ??_E_AFX_OLE_STATE@@UAEPAXI@Z 0045c156 f i uafxcw:oledata.obj
 0001:0005b156       ??_G_AFX_OLE_STATE@@UAEPAXI@Z 0045c156 f i uafxcw:oledata.obj
 0001:0005b177       ?AfxOleHookProc@@YGIPAUHWND__@@IIJ@Z 0045c177 f   uafxcw:oledlgs2.obj
 0001:0005b1c4       ?MapResult@COleDialog@@QAEHI@Z 0045c1c4 f   uafxcw:oledlgs2.obj
 0001:0005b1e7       ?GetRuntimeClass@COleDialog@@UBEPAUCRuntimeClass@@XZ 0045c1e7 f   uafxcw:oledlgs2.obj
 0001:0005b1ed       ?GetRuntimeClass@COleBusyDialog@@UBEPAUCRuntimeClass@@XZ 0045c1ed f   uafxcw:oledlgs2.obj
 0001:0005b1f3       ??1COleDialog@@UAE@XZ      0045c1f3 f i uafxcw:oledlgs2.obj
 0001:0005b1fe       ??0COleDialog@@QAE@PAVCWnd@@@Z 0045c1fe f   uafxcw:oledlgs2.obj
 0001:0005b219       ??0COleBusyDialog@@QAE@PAUHTASK__@@HKPAVCWnd@@@Z 0045c219 f   uafxcw:oledlgs2.obj
 0001:0005b273       ??1COleBusyDialog@@UAE@XZ  0045c273 f   uafxcw:oledlgs2.obj
 0001:0005b27e       ?DoModal@COleBusyDialog@@UAEHXZ 0045c27e f   uafxcw:oledlgs2.obj
 0001:0005b313       ??_GCOleBusyDialog@@UAEPAXI@Z 0045c313 f i uafxcw:oledlgs2.obj
 0001:0005b313       ??_ECOleBusyDialog@@UAEPAXI@Z 0045c313 f i uafxcw:oledlgs2.obj
 0001:0005b527       _wWinMainCRTStartup        0045c527 f   libcmt:wwincrt0.obj
 0001:0005b531       __MarkAllocaS              0045c531 f i libcmt:wcsupr.obj
 0001:0005b547       __freea                    0045c547 f i libcmt:wcsupr.obj
 0001:0005b567       ??0_LocaleUpdate@@QAE@PAUlocaleinfo_struct@@@Z 0045c567 f i libcmt:wcsupr.obj
 0001:0005b5ee       ??1_LocaleUpdate@@QAE@XZ   0045c5ee f i libcmt:wcsupr.obj
 0001:0005b5fc       ?GetLocaleT@_LocaleUpdate@@QAEPAUlocaleinfo_struct@@XZ 0045c5fc f i libcmt:wcsupr.obj
 0001:0005b78f       __wcsupr_s_l               0045c78f f   libcmt:wcsupr.obj
 0001:0005b7c4       __wcsupr_s                 0045c7c4 f   libcmt:wcsupr.obj
 0001:0005b7db       __wcsupr_l                 0045c7db f   libcmt:wcsupr.obj
 0001:0005b7f5       __wcsupr                   0045c7f5 f   libcmt:wcsupr.obj
 0001:0005b865       __vswprintf_l              0045c865 f   libcmt:vswprint.obj
 0001:0005b8fe       __vswprintf                0045c8fe f   libcmt:vswprint.obj
 0001:0005b918       ___vswprintf_l             0045c918 f   libcmt:vswprint.obj
 0001:0005b923       __vscwprintf_helper        0045c923 f   libcmt:vswprint.obj
 0001:0005b97a       __vscwprintf               0045c97a f   libcmt:vswprint.obj
 0001:0005b996       __vscwprintf_l             0045c996 f   libcmt:vswprint.obj
 0001:0005b9b3       __vscwprintf_p             0045c9b3 f   libcmt:vswprint.obj
 0001:0005b9cf       __vscwprintf_p_l           0045c9cf f   libcmt:vswprint.obj
 0001:0005b9ec       __vswprintf_helper         0045c9ec f   libcmt:vswprnc.obj
 0001:0005bae4       __vswprintf_c              0045cae4 f   libcmt:vswprnc.obj
 0001:0005bb0d       __vswprintf_c_l            0045cb0d f   libcmt:vswprnc.obj
 0001:0005bb37       __vswprintf_s_l            0045cb37 f   libcmt:vswprnc.obj
 0001:0005bbc2       _vswprintf_s               0045cbc2 f   libcmt:vswprnc.obj
 0001:0005bbdf       __vsnwprintf_s_l           0045cbdf f   libcmt:vswprnc.obj
 0001:0005bceb       __vsnwprintf_s             0045cceb f   libcmt:vswprnc.obj
 0001:0005bd0b       __vswprintf_p              0045cd0b f   libcmt:vswprnc.obj
 0001:0005bd34       __vswprintf_p_l            0045cd34 f   libcmt:vswprnc.obj
 0001:0005bd5e       ?name@type_info@@QBEPBDPAU__type_info_node@@@Z 0045cd5e f   libcmt:typinfo.obj
 0001:0005bd72       ??1type_info@@UAE@XZ       0045cd72 f   libcmt:typinfo.obj
 0001:0005bd82       ??_Gtype_info@@UAEPAXI@Z   0045cd82 f i libcmt:typinfo.obj
 0001:0005bd82       ??_Etype_info@@UAEPAXI@Z   0045cd82 f i libcmt:typinfo.obj
 0001:0005bda3       ?_name_internal_method@type_info@@QBEPBDPAU__type_info_node@@@Z 0045cda3 f   libcmt:typinfo.obj
 0001:0005bdb7       ?_type_info_dtor_internal_method@type_info@@QAEXXZ 0045cdb7 f   libcmt:typinfo.obj
 0001:0005bdc1       ??8type_info@@QBE_NABV0@@Z 0045cdc1 f   libcmt:typinfo.obj
 0001:0005bde1       ??9type_info@@QBE_NABV0@@Z 0045cde1 f   libcmt:typinfo.obj
 0001:0005be02       ?before@type_info@@QBEHABV1@@Z 0045ce02 f   libcmt:typinfo.obj
 0001:0005be26       ?raw_name@type_info@@QBEPBDXZ 0045ce26 f   libcmt:typinfo.obj
 0001:0005be2a       ??0type_info@@AAE@ABV0@@Z  0045ce2a f   libcmt:typinfo.obj
 0001:0005be35       ??4type_info@@AAEAAV0@ABV0@@Z 0045ce35 f   libcmt:typinfo.obj
 0001:0005be3a       _memcpy_s                  0045ce3a f   libcmt:memcpy_s.obj
 0001:0005beb7       ?_JumpToContinuation@@YGXPAXPAUEHRegistrationNode@@@Z 0045ceb7 f   libcmt:_trnsctrl_.obj
 0001:0005bee9       ?_CallMemberFunction0@@YGXPAX0@Z 0045cee9 f   libcmt:_trnsctrl_.obj
 0001:0005bef0       ?_CallMemberFunction1@@YGXPAX00@Z 0045cef0 f   libcmt:_trnsctrl_.obj
 0001:0005bef7       ?_CallMemberFunction2@@YGXPAX00H@Z 0045cef7 f   libcmt:_trnsctrl_.obj
 0001:0005befe       ?_UnwindNestedFrames@@YGXPAUEHRegistrationNode@@PAUEHExceptionRecord@@@Z 0045cefe f   libcmt:_trnsctrl_.obj
 0001:0005bf52       ___CxxFrameHandler         0045cf52 f   libcmt:_trnsctrl_.obj
 0001:0005bf88       ___CxxFrameHandler3        0045cf88 f   libcmt:_trnsctrl_.obj
 0001:0005bfbe       ___CxxFrameHandler2        0045cfbe f   libcmt:_trnsctrl_.obj
 0001:0005bff4       ___CxxLongjmpUnwind@4      0045cff4 f   libcmt:_trnsctrl_.obj
 0001:0005c046       ?_CallSETranslator@@YAHPAUEHExceptionRecord@@PAUEHRegistrationNode@@PAX2PBU_s_FuncInfo@@H1@Z 0045d046 f   libcmt:_trnsctrl_.obj
 0001:0005c1bc       ?_GetRangeOfTrysToCheck@@YAPBU_s_TryBlockMapEntry@@PBU_s_FuncInfo@@HHPAI1@Z 0045d1bc f   libcmt:_trnsctrl_.obj
 0001:0005c231       __CreateFrameInfo          0045d231 f   libcmt:_trnsctrl_.obj
 0001:0005c25d       __IsExceptionObjectToBeDestroyed 0045d25d f   libcmt:_trnsctrl_.obj
 0001:0005c284       __FindAndUnlinkFrame       0045d284 f   libcmt:_trnsctrl_.obj
 0001:0005c2d6       ?_CallCatchBlock2@@YAPAXPAUEHRegistrationNode@@PBU_s_FuncInfo@@PAXHK@Z 0045d2d6 f   libcmt:_trnsctrl_.obj
 0001:0005c336       @__security_check_cookie@4 0045d336 f   libcmt:secchk.obj
 0001:0005c3ff       ___onexitinit              0045d3ff f   libcmt:onexit.obj
 0001:0005c430       __onexit                   0045d430 f   libcmt:onexit.obj
 0001:0005c46c       _atexit                    0045d46c f   libcmt:onexit.obj
 0001:0005c483       __wctime64_s               0045d483 f   libcmt:wctime64.obj
 0001:0005c510       __wctime64                 0045d510 f   libcmt:wctime64.obj
 0001:0005c573       __isleadbyte_l             0045d573 f i libcmt:_wctype.obj
 0001:0005c5ab       _isleadbyte                0045d5ab f i libcmt:_wctype.obj
 0001:0005c5be       __iswalpha_l               0045d5be f i libcmt:_wctype.obj
 0001:0005c5d8       _iswalpha                  0045d5d8 f i libcmt:_wctype.obj
 0001:0005c5ee       __iswupper_l               0045d5ee f i libcmt:_wctype.obj
 0001:0005c605       _iswupper                  0045d605 f i libcmt:_wctype.obj
 0001:0005c618       __iswlower_l               0045d618 f i libcmt:_wctype.obj
 0001:0005c62f       _iswlower                  0045d62f f i libcmt:_wctype.obj
 0001:0005c642       __iswdigit_l               0045d642 f i libcmt:_wctype.obj
 0001:0005c659       _iswdigit                  0045d659 f i libcmt:_wctype.obj
 0001:0005c66c       __iswxdigit_l              0045d66c f i libcmt:_wctype.obj
 0001:0005c686       _iswxdigit                 0045d686 f i libcmt:_wctype.obj
 0001:0005c69c       __iswspace_l               0045d69c f i libcmt:_wctype.obj
 0001:0005c6b3       _iswspace                  0045d6b3 f i libcmt:_wctype.obj
 0001:0005c6c6       __iswpunct_l               0045d6c6 f i libcmt:_wctype.obj
 0001:0005c6dd       _iswpunct                  0045d6dd f i libcmt:_wctype.obj
 0001:0005c6f0       __iswalnum_l               0045d6f0 f i libcmt:_wctype.obj
 0001:0005c70a       _iswalnum                  0045d70a f i libcmt:_wctype.obj
 0001:0005c720       __iswprint_l               0045d720 f i libcmt:_wctype.obj
 0001:0005c73a       _iswprint                  0045d73a f i libcmt:_wctype.obj
 0001:0005c750       __iswgraph_l               0045d750 f i libcmt:_wctype.obj
 0001:0005c76a       _iswgraph                  0045d76a f i libcmt:_wctype.obj
 0001:0005c780       __iswcntrl_l               0045d780 f i libcmt:_wctype.obj
 0001:0005c797       _iswcntrl                  0045d797 f i libcmt:_wctype.obj
 0001:0005c7aa       _iswascii                  0045d7aa f i libcmt:_wctype.obj
 0001:0005c7be       __iswcsym_l                0045d7be f i libcmt:_wctype.obj
 0001:0005c7e8       ___iswcsym                 0045d7e8 f i libcmt:_wctype.obj
 0001:0005c80e       __iswcsymf_l               0045d80e f i libcmt:_wctype.obj
 0001:0005c838       ___iswcsymf                0045d838 f i libcmt:_wctype.obj
 0001:0005c85e       _wcsstr                    0045d85e f   libcmt:wcsstr.obj
 0001:0005ca4f       __wcslwr_s_l               0045da4f f   libcmt:wcslwr.obj
 0001:0005ca84       __wcslwr_s                 0045da84 f   libcmt:wcslwr.obj
 0001:0005ca9b       __wcslwr_l                 0045da9b f   libcmt:wcslwr.obj
 0001:0005cab5       __wcslwr                   0045dab5 f   libcmt:wcslwr.obj
 0001:0005cb25       _memmove_s                 0045db25 f   libcmt:memmove_s.obj
 0001:0005cbf2       _swscanf                   0045dbf2 f   libcmt:swscanf.obj
 0001:0005cc14       __swscanf_l                0045dc14 f   libcmt:swscanf.obj
 0001:0005cc37       _swscanf_s                 0045dc37 f   libcmt:swscanf.obj
 0001:0005cc59       __swscanf_s_l              0045dc59 f   libcmt:swscanf.obj
 0001:0005cc80       __alloca_probe_16          0045dc80 f   libcmt:alloca16.obj
 0001:0005cc96       __alloca_probe_8           0045dc96     libcmt:alloca16.obj
 0001:0005ccb0       _memset                    0045dcb0 f   libcmt:memset.obj
 0001:0005cd2a       _wcsrchr                   0045dd2a f   libcmt:wcsrchr.obj
 0001:0005cd56       __time64                   0045dd56 f   libcmt:time64.obj
 0001:0005cda7       __purecall                 0045dda7 f   libcmt:purevirt.obj
 0001:0005cdd1       __set_purecall_handler     0045ddd1 f   libcmt:purevirt.obj
 0001:0005cdf8       __get_purecall_handler     0045ddf8 f   libcmt:purevirt.obj
 0001:0005ce10       _memcpy                    0045de10 f   libcmt:memcpy.obj
 0001:0005d175       __fclose_nolock            0045e175 f   libcmt:fclose.obj
 0001:0005d1ec       _fclose                    0045e1ec f   libcmt:fclose.obj
 0001:0005d268       _vfscanf                   0045e268 f   libcmt:fscanf.obj
 0001:0005d372       _fscanf                    0045e372 f   libcmt:fscanf.obj
 0001:0005d392       __fscanf_l                 0045e392 f   libcmt:fscanf.obj
 0001:0005d3b3       _fscanf_s                  0045e3b3 f   libcmt:fscanf.obj
 0001:0005d3d3       __fscanf_s_l               0045e3d3 f   libcmt:fscanf.obj
 0001:0005d3f4       _fgets                     0045e3f4 f   libcmt:fgets.obj
 0001:0005d53c       __wfsopen                  0045e53c f   libcmt:wfopen.obj
 0001:0005d602       __wfopen                   0045e602 f   libcmt:wfopen.obj
 0001:0005d619       __wfopen_s                 0045e619 f   libcmt:wfopen.obj
 0001:0005d6d6       _sscanf                    0045e6d6 f   libcmt:sscanf.obj
 0001:0005d6f8       __sscanf_l                 0045e6f8 f   libcmt:sscanf.obj
 0001:0005d71b       _sscanf_s                  0045e71b f   libcmt:sscanf.obj
 0001:0005d73d       __sscanf_s_l               0045e73d f   libcmt:sscanf.obj
 0001:0005d760       __wcsicmp_l                0045e760 f   libcmt:wcsicmp.obj
 0001:0005d871       __wcsicmp                  0045e871 f   libcmt:wcsicmp.obj
 0001:0005d904       _wcsncpy                   0045e904 f   libcmt:wcsncpy.obj
 0001:0005d9a2       __itow                     0045e9a2 f   libcmt:xtow.obj
 0001:0005d9cc       __ltow                     0045e9cc f   libcmt:xtow.obj
 0001:0005d9f3       __ultow                    0045e9f3 f   libcmt:xtow.obj
 0001:0005da8c       __i64tow                   0045ea8c f   libcmt:xtow.obj
 0001:0005dabf       __ui64tow                  0045eabf f   libcmt:xtow.obj
 0001:0005dadc       _wcsnlen                   0045eadc f   libcmt:wcslen_s.obj
 0001:0005dafb       __flush                    0045eafb f   libcmt:fflush.obj
 0001:0005db63       __fflush_nolock            0045eb63 f   libcmt:fflush.obj
 0001:0005dc85       _fflush                    0045ec85 f   libcmt:fflush.obj
 0001:0005dcd8       __flushall                 0045ecd8 f   libcmt:fflush.obj
 0001:0005dce1       __fwrite_nolock            0045ece1 f   libcmt:fwrite.obj
 0001:0005de43       _fwrite                    0045ee43 f   libcmt:fwrite.obj
 0001:0005dec5       __fread_nolock_s           0045eec5 f   libcmt:fread.obj
 0001:0005e0cf       __fread_nolock             0045f0cf f   libcmt:fread.obj
 0001:0005e0ec       _fread_s                   0045f0ec f   libcmt:fread.obj
 0001:0005e182       _fread                     0045f182 f   libcmt:fread.obj
 0001:0005e19f       _feof                      0045f19f f   libcmt:feoferr.obj
 0001:0005e1d3       _ferror                    0045f1d3 f   libcmt:feoferr.obj
 0001:0005e207       __fseek_nolock             0045f207 f   libcmt:fseek.obj
 0001:0005e291       _fseek                     0045f291 f   libcmt:fseek.obj
 0001:0005e316       _wcstok                    0045f316 f   libcmt:wcstok.obj
 0001:0005e3d0       __chkstk                   0045f3d0 f   libcmt:chkstk.obj
 0001:0005e3d0       __alloca_probe             0045f3d0     libcmt:chkstk.obj
 0001:0005e3fb       ??0exception@std@@QAE@XZ   0045f3fb f   libcmt:stdexcpt.obj
 0001:0005e40c       ??0exception@std@@QAE@ABQBD@Z 0045f40c f   libcmt:stdexcpt.obj
 0001:0005e45f       ??0exception@std@@QAE@ABQBDH@Z 0045f45f f   libcmt:stdexcpt.obj
 0001:0005e47c       ??0exception@std@@QAE@ABV01@@Z 0045f47c f   libcmt:stdexcpt.obj
 0001:0005e4d9       ??4exception@std@@QAEAAV01@ABV01@@Z 0045f4d9 f   libcmt:stdexcpt.obj
 0001:0005e534       ??1exception@std@@UAE@XZ   0045f534 f   libcmt:stdexcpt.obj
 0001:0005e54a       ?what@exception@std@@UBEPBDXZ 0045f54a f   libcmt:stdexcpt.obj
 0001:0005e557       ??0bad_cast@std@@QAE@PBD@Z 0045f557 f   libcmt:stdexcpt.obj
 0001:0005e575       ??0bad_cast@std@@QAE@ABV01@@Z 0045f575 f   libcmt:stdexcpt.obj
 0001:0005e592       ??1bad_cast@std@@UAE@XZ    0045f592 f   libcmt:stdexcpt.obj
 0001:0005e59d       ??0bad_typeid@std@@QAE@PBD@Z 0045f59d f   libcmt:stdexcpt.obj
 0001:0005e5bb       ??0bad_typeid@std@@QAE@ABV01@@Z 0045f5bb f   libcmt:stdexcpt.obj
 0001:0005e5d8       ??1bad_typeid@std@@UAE@XZ  0045f5d8 f   libcmt:stdexcpt.obj
 0001:0005e5e3       ??0__non_rtti_object@std@@QAE@PBD@Z 0045f5e3 f   libcmt:stdexcpt.obj
 0001:0005e600       ??0__non_rtti_object@std@@QAE@ABV01@@Z 0045f600 f   libcmt:stdexcpt.obj
 0001:0005e61d       ??1__non_rtti_object@std@@UAE@XZ 0045f61d f   libcmt:stdexcpt.obj
 0001:0005e628       ??_Gexception@std@@UAEPAXI@Z 0045f628 f i libcmt:stdexcpt.obj
 0001:0005e628       ??_Eexception@std@@UAEPAXI@Z 0045f628 f i libcmt:stdexcpt.obj
 0001:0005e649       ??_Gbad_cast@std@@UAEPAXI@Z 0045f649 f i libcmt:stdexcpt.obj
 0001:0005e649       ??_Ebad_cast@std@@UAEPAXI@Z 0045f649 f i libcmt:stdexcpt.obj
 0001:0005e670       ??_Gbad_typeid@std@@UAEPAXI@Z 0045f670 f i libcmt:stdexcpt.obj
 0001:0005e670       ??_Ebad_typeid@std@@UAEPAXI@Z 0045f670 f i libcmt:stdexcpt.obj
 0001:0005e697       ??_G__non_rtti_object@std@@UAEPAXI@Z 0045f697 f i libcmt:stdexcpt.obj
 0001:0005e697       ??_E__non_rtti_object@std@@UAEPAXI@Z 0045f697 f i libcmt:stdexcpt.obj
 0001:0005e6be       __initp_misc_invarg        0045f6be f   libcmt:invarg.obj
 0001:0005e6cd       __invoke_watson            0045f6cd f   libcmt:invarg.obj
 0001:0005e7f5       __set_invalid_parameter_handler 0045f7f5 f   libcmt:invarg.obj
 0001:0005e81c       __get_invalid_parameter_handler 0045f81c f   libcmt:invarg.obj
 0001:0005e829       ?_invoke_watson@@YAXPBG00II@Z 0045f829 f   libcmt:invarg.obj
 0001:0005e834       __invalid_parameter        0045f834 f   libcmt:invarg.obj
 0001:0005e85a       __invalid_parameter_noinfo 0045f85a f   libcmt:invarg.obj
 0001:0005e86a       ?_invalid_parameter@@YAXPBG00II@Z 0045f86a f   libcmt:invarg.obj
 0001:0005e875       __CxxThrowException@8      0045f875 f   libcmt:throw.obj
 0001:0005e8c1       __wtol                     0045f8c1 f   libcmt:wtox.obj
 0001:0005e8d7       __wtol_l                   0045f8d7 f   libcmt:wtox.obj
 0001:0005e8f0       __wtoi                     0045f8f0 f   libcmt:wtox.obj
 0001:0005e8fb       __wtoi_l                   0045f8fb f   libcmt:wtox.obj
 0001:0005e906       __wtoi64                   0045f906 f   libcmt:wtox.obj
 0001:0005e91c       __wtoi64_l                 0045f91c f   libcmt:wtox.obj
 0001:0005e935       _abort                     0045f935 f   libcmt:abort.obj
 0001:0005ea4c       __set_abort_behavior       0045fa4c f   libcmt:abort.obj
 0001:0005ea6d       _fprintf                   0045fa6d f   libcmt:fprintf.obj
 0001:0005eb89       __fprintf_l                0045fb89 f   libcmt:fprintf.obj
 0001:0005eba5       __fprintf_s_l              0045fba5 f   libcmt:fprintf.obj
