 DiagChan9

 Timestamp is 5655c019 (Wed Nov 25 22:05:13 2015)

 Preferred load address is 10000000

 Start         Length     Name                   Class
 0001:00000000 000322deH .text                   CODE
 0001:000322e0 00000577H .text$x                 CODE
 0001:00032857 00000014H .text$yd                CODE
 0002:00000000 00000200H .idata$5                DATA
 0002:00000200 00000004H .CRT$XCA                DATA
 0002:00000204 00000004H .CRT$XCZ                DATA
 0002:00000208 00000004H .CRT$XIA                DATA
 0002:0000020c 00000010H .CRT$XIC                DATA
 0002:0000021c 00000004H .CRT$XIZ                DATA
 0002:00000220 00000004H .CRT$XPA                DATA
 0002:00000224 00000004H .CRT$XPX                DATA
 0002:00000228 00000004H .CRT$XPXA               DATA
 0002:0000022c 00000004H .CRT$XPZ                DATA
 0002:00000230 00000004H .CRT$XTA                DATA
 0002:00000234 00000004H .CRT$XTZ                DATA
 0002:00000240 00005c48H .rdata                  DATA
 0002:00005e88 00000054H .rdata$debug            DATA
 0002:00005edc 00000800H .rdata$r                DATA
 0002:000066e0 00000088H .rdata$sxdata           DATA
 0002:00006768 00000004H .rtc$IAA                DATA
 0002:0000676c 00000004H .rtc$IZZ                DATA
 0002:00006770 00000004H .rtc$TAA                DATA
 0002:00006774 00000004H .rtc$TZZ                DATA
 0002:00006778 0000129cH .xdata$x                DATA
 0002:00007a14 0000003cH .idata$2                DATA
 0002:00007a50 00000014H .idata$3                DATA
 0002:00007a64 00000200H .idata$4                DATA
 0002:00007c64 00000906H .idata$6                DATA
 0002:00008570 00000188H .edata                  DATA
 0003:00000000 00001310H .data                   DATA
 0003:00001320 00001e8cH .bss                    DATA
 0004:00000000 00000058H .rsrc$01                DATA
 0004:00000060 000003e8H .rsrc$02                DATA

  Address         Publics by Value              Rva+Base       Lib:Object

 0000:00000000       __except_list              00000000     <absolute>
 0000:00000022       ___safe_se_handler_count   00000022     <absolute>
 0000:00000000       ___ImageBase               10000000     <linker-defined>
 0001:00000000       ??0bad_alloc@std@@QAE@PBD@Z 10001000 f i BaseChan.obj
 0001:00000020       ??1bad_alloc@std@@UAE@XZ   10001020 f i BaseChan.obj
 0001:00000030       ??_Gbad_alloc@std@@UAEPAXI@Z 10001030 f i BaseChan.obj
 0001:00000030       ??_Ebad_alloc@std@@UAEPAXI@Z 10001030 f i BaseChan.obj
 0001:00000060       ??2@YAPAXIPAX@Z            10001060 f i BaseChan.obj
 0001:00000070       ??3@YAXPAX0@Z              10001070 f i BaseChan.obj
 0001:00000080       ?assign@?$char_traits@D@std@@SAXAADABD@Z 10001080 f i BaseChan.obj
 0001:00000090       ?length@?$char_traits@D@std@@SAIPBD@Z 10001090 f i BaseChan.obj
 0001:000000b0       ?_Copy_s@?$char_traits@D@std@@SAPADPADIPBDI@Z 100010b0 f i BaseChan.obj
 0001:000000e0       ?_Move_s@?$char_traits@D@std@@SAPADPADIPBDI@Z 100010e0 f i BaseChan.obj
 0001:00000110       ?_Swap_aux@_Container_base@std@@QAEXAAV12@@Z 10001110 f i BaseChan.obj
 0001:00000120       ?IsPhyicalChannel@CBaseChannel@@IAE_NXZ 10001120 f i BaseChan.obj
 0001:00000130       ?IsInternalChannel@CBaseChannel@@IAE_NXZ 10001130 f i BaseChan.obj
 0001:00000140       ??1ICommChannel@@UAE@XZ    10001140 f   BaseChan.obj
 0001:00000150       ??1IProtocolChannel@@UAE@XZ 10001150 f i BaseChan.obj
 0001:00000160       ??0IProtocolObserver@@QAE@XZ 10001160 f i BaseChan.obj
 0001:00000170       ??0ICommChannel@@QAE@XZ    10001170 f i BaseChan.obj
 0001:00000180       ?InitLog@CBaseChannel@@UAEHPB_WIIPAVISpLog@@0@Z 10001180 f   BaseChan.obj
 0001:00000200       ?SetReceiver@CBaseChannel@@UAEHKHPBX@Z 10001200 f   BaseChan.obj
 0001:00000210       ?GetReceiver@CBaseChannel@@UAEXAAKAAHAAPAX@Z 10001210 f   BaseChan.obj
 0001:00000220       ?GetProperty@CBaseChannel@@UAEHJKPAX@Z 10001220 f   BaseChan.obj
 0001:000002c0       ?SetProperty@CBaseChannel@@UAEHJKPBX@Z 100012c0 f   BaseChan.obj
 0001:00000410       ?FreeMem@CBaseChannel@@UAEXPAX@Z 10001410 f   BaseChan.obj
 0001:00000430       ?GetLowerChannel@CBaseChannel@@UAEXPAPAVICommChannel@@_N@Z 10001430 f   BaseChan.obj
 0001:00000470       ?CheckPackage@CBaseChannel@@MAE_NPAUPRT_BUFF@@PAX@Z 10001470 f   BaseChan.obj
 0001:000004b0       ?CompareCond@CBaseChannel@@MAE_NPAX0_N@Z 100014b0 f   BaseChan.obj
 0001:000004c0       ?GetCondition@CBaseChannel@@MAEPAXPAXI_N@Z 100014c0 f   BaseChan.obj
 0001:000004d0       ?CopyCondition@CBaseChannel@@MAEPAXPAX@Z 100014d0 f   BaseChan.obj
 0001:000004e0       ?FreeCondition@CBaseChannel@@MAEXPAX@Z 100014e0 f   BaseChan.obj
 0001:000004f0       ?IsLastPackage@CBaseChannel@@MAE_NPAX@Z 100014f0 f   BaseChan.obj
 0001:00000500       ?StopRecvThread@CBaseChannel@@IAEXXZ 10001500 f   BaseChan.obj
 0001:00000590       ?WakeupOnPackages@CBaseChannel@@IAEXXZ 10001590 f   BaseChan.obj
 0001:000005a0       ?WaitForPackages@CBaseChannel@@IAEXXZ 100015a0 f   BaseChan.obj
 0001:000005b0       ?WakeupOnResponse@CBaseChannel@@IAEXPAX@Z 100015b0 f   BaseChan.obj
 0001:000005c0       ?WaitForResponse@CBaseChannel@@IAE_NPAXI@Z 100015c0 f   BaseChan.obj
 0001:000005e0       ?LockLowerChannel@CBaseChannel@@IAEX_N@Z 100015e0 f   BaseChan.obj
 0001:00000600       ?LockCondList@CBaseChannel@@IAEX_N@Z 10001600 f   BaseChan.obj
 0001:00000620       ?LockPackageList@CBaseChannel@@IAEX_N@Z 10001620 f   BaseChan.obj
 0001:00000640       ?LockObserverList@CBaseChannel@@IAEX_N@Z 10001640 f   BaseChan.obj
 0001:00000660       ?Free_PRT_BUFF@@YAXPAX@Z   10001660 f   BaseChan.obj
 0001:00000690       ?Alloc_PRT_BUFF@@YAPAUPRT_BUFF@@I@Z 10001690 f   BaseChan.obj
 0001:000006d0       ?LoadConfig@CBaseChannel@@MAEXPAX@Z 100016d0 f   BaseChan.obj
 0001:000007b0       ?SetThreadEvent@CBaseChannel@@QAEXXZ 100017b0 f   BaseChan.obj
 0001:000007d0       ?size@?$basic_string@DU?$char_traits@D@std@@V?$allocator@D@2@@std@@QBEIXZ 100017d0 f i BaseChan.obj
 0001:000007e0       ?size@?$list@PAUPRT_BUFF@@V?$allocator@PAUPRT_BUFF@@@std@@@std@@QBEIXZ 100017e0 f i BaseChan.obj
 0001:000007f0       ?empty@?$list@PAUPRT_BUFF@@V?$allocator@PAUPRT_BUFF@@@std@@@std@@QBE_NXZ 100017f0 f i BaseChan.obj
 0001:00000800       ?size@?$vector@UPRT_COND_T@@V?$allocator@UPRT_COND_T@@@std@@@std@@QBEIXZ 10001800 f i BaseChan.obj
 0001:00000820       ??A?$vector@UPRT_COND_T@@V?$allocator@UPRT_COND_T@@@std@@@std@@QAEAAUPRT_COND_T@@I@Z 10001820 f i BaseChan.obj
 0001:00000830       ?size@?$vector@PAVIProtocolObserver@@V?$allocator@PAVIProtocolObserver@@@std@@@std@@QBEIXZ 10001830 f i BaseChan.obj
 0001:00000840       ??A?$vector@PAVIProtocolObserver@@V?$allocator@PAVIProtocolObserver@@@std@@@std@@QAEAAPAVIProtocolObserver@@I@Z 10001840 f i BaseChan.obj
 0001:00000850       ??8?$_Const_iterator@$0A@@?$list@PAUPRT_BUFF@@V?$allocator@PAUPRT_BUFF@@@std@@@std@@QBE_NABV012@@Z 10001850 f i BaseChan.obj
 0001:00000870       ??9?$_Const_iterator@$0A@@?$list@PAUPRT_BUFF@@V?$allocator@PAUPRT_BUFF@@@std@@@std@@QBE_NABV012@@Z 10001870 f i BaseChan.obj
 0001:00000890       ?_Myptr@?$basic_string@DU?$char_traits@D@std@@V?$allocator@D@2@@std@@IBEPBDXZ 10001890 f i BaseChan.obj
 0001:000008a0       ?_Nextnode@?$list@PAUPRT_BUFF@@V?$allocator@PAUPRT_BUFF@@@std@@@std@@KAAAPAU_Node@?$_List_nod@PAUPRT_BUFF@@V?$allocator@PAUPRT_BUFF@@@std@@@2@PAU342@@Z 100018a0 f i BaseChan.obj
 0001:000008b0       ?_Prevnode@?$list@PAUPRT_BUFF@@V?$allocator@PAUPRT_BUFF@@@std@@@std@@KAAAPAU_Node@?$_List_nod@PAUPRT_BUFF@@V?$allocator@PAUPRT_BUFF@@@std@@@2@PAU342@@Z 100018b0 f i BaseChan.obj
 0001:000008c0       ??1?$_Container_base_aux_alloc_empty@V?$allocator@PAUPRT_BUFF@@@std@@@std@@IAE@XZ 100018c0 f i BaseChan.obj
 0001:000008d0       ??0?$allocator@PAUPRT_BUFF@@@std@@QAE@XZ 100018d0 f i BaseChan.obj
 0001:000008e0       ?deallocate@?$allocator@U_Node@?$_List_nod@PAUPRT_BUFF@@V?$allocator@PAUPRT_BUFF@@@std@@@std@@@std@@QAEXPAU_Node@?$_List_nod@PAUPRT_BUFF@@V?$allocator@PAUPRT_BUFF@@@std@@@2@I@Z 100018e0 f i BaseChan.obj
 0001:000008f0       ?capacity@?$vector@UPRT_COND_T@@V?$allocator@UPRT_COND_T@@@std@@@std@@QBEIXZ 100018f0 f i BaseChan.obj
 0001:00000910       ??1?$_Container_base_aux_alloc_empty@V?$allocator@UPRT_COND_T@@@std@@@std@@IAE@XZ 10001910 f i BaseChan.obj
 0001:00000920       ??0?$allocator@UPRT_COND_T@@@std@@QAE@XZ 10001920 f i BaseChan.obj
 0001:00000930       ?capacity@?$vector@PAVIProtocolObserver@@V?$allocator@PAVIProtocolObserver@@@std@@@std@@QBEIXZ 10001930 f i BaseChan.obj
 0001:00000950       ??1?$_Container_base_aux_alloc_empty@V?$allocator@PAVIProtocolObserver@@@std@@@std@@IAE@XZ 10001950 f i BaseChan.obj
 0001:00000960       ??0?$allocator@PAVIProtocolObserver@@@std@@QAE@XZ 10001960 f i BaseChan.obj
 0001:00000970       ??0?$_Const_iterator@$0A@@?$list@PAUPRT_BUFF@@V?$allocator@PAUPRT_BUFF@@@std@@@std@@QAE@XZ 10001970 f i BaseChan.obj
 0001:00000980       ?_Mynode@?$_Const_iterator@$0A@@?$list@PAUPRT_BUFF@@V?$allocator@PAUPRT_BUFF@@@std@@@std@@QBEPAU_Node@?$_List_nod@PAUPRT_BUFF@@V?$allocator@PAUPRT_BUFF@@@std@@@3@XZ 10001980 f i BaseChan.obj
 0001:00000990       ?_Myptr@?$basic_string@DU?$char_traits@D@std@@V?$allocator@D@2@@std@@IAEPADXZ 10001990 f i BaseChan.obj
 0001:000009a0       ??0?$allocator@D@std@@QAE@ABV01@@Z 100019a0 f i BaseChan.obj
 0001:000009b0       ?deallocate@?$allocator@D@std@@QAEXPADI@Z 100019b0 f i BaseChan.obj
 0001:000009c0       ?_Myval@?$list@PAUPRT_BUFF@@V?$allocator@PAUPRT_BUFF@@@std@@@std@@KAAAPAUPRT_BUFF@@PAU_Node@?$_List_nod@PAUPRT_BUFF@@V?$allocator@PAUPRT_BUFF@@@std@@@2@@Z 100019c0 f i BaseChan.obj
 0001:000009d0       ??0?$allocator@PAUPRT_BUFF@@@std@@QAE@ABV01@@Z 100019d0 f i BaseChan.obj
 0001:000009e0       ??0?$_Container_base_aux_alloc_empty@V?$allocator@UPRT_COND_T@@@std@@@std@@IAE@V?$allocator@UPRT_COND_T@@@1@@Z 100019e0 f i BaseChan.obj
 0001:000009f0       ??0?$allocator@UPRT_COND_T@@@std@@QAE@ABV01@@Z 100019f0 f i BaseChan.obj
 0001:00000a00       ?deallocate@?$allocator@UPRT_COND_T@@@std@@QAEXPAUPRT_COND_T@@I@Z 10001a00 f i BaseChan.obj
 0001:00000a10       ??0?$_Container_base_aux_alloc_empty@V?$allocator@PAVIProtocolObserver@@@std@@@std@@IAE@V?$allocator@PAVIProtocolObserver@@@1@@Z 10001a10 f i BaseChan.obj
 0001:00000a20       ??0?$allocator@PAVIProtocolObserver@@@std@@QAE@ABV01@@Z 10001a20 f i BaseChan.obj
 0001:00000a30       ?deallocate@?$allocator@PAVIProtocolObserver@@@std@@QAEXPAPAVIProtocolObserver@@I@Z 10001a30 f i BaseChan.obj
 0001:00000a40       ??0?$_Const_iterator@$0A@@?$list@PAUPRT_BUFF@@V?$allocator@PAUPRT_BUFF@@@std@@@std@@QAE@PAU_Node@?$_List_nod@PAUPRT_BUFF@@V?$allocator@PAUPRT_BUFF@@@std@@@2@@Z 10001a40 f i BaseChan.obj
 0001:00000a50       ??E?$_Const_iterator@$0A@@?$list@PAUPRT_BUFF@@V?$allocator@PAUPRT_BUFF@@@std@@@std@@QAEAAV012@XZ 10001a50 f i BaseChan.obj
 0001:00000a60       ??F?$_Const_iterator@$0A@@?$list@PAUPRT_BUFF@@V?$allocator@PAUPRT_BUFF@@@std@@@std@@QAEAAV012@XZ 10001a60 f i BaseChan.obj
 0001:00000a70       ??G?$_Vector_const_iterator@UPRT_COND_T@@V?$allocator@UPRT_COND_T@@@std@@@std@@QBEHABV01@@Z 10001a70 f i BaseChan.obj
 0001:00000a90       ??G?$_Vector_const_iterator@PAVIProtocolObserver@@V?$allocator@PAVIProtocolObserver@@@std@@@std@@QBEHABV01@@Z 10001a90 f i BaseChan.obj
 0001:00000aa0       ??0?$_String_val@DV?$allocator@D@std@@@std@@IAE@V?$allocator@D@1@@Z 10001aa0 f i BaseChan.obj
 0001:00000ab0       ??0?$allocator@D@std@@QAE@XZ 10001ab0 f i BaseChan.obj
 0001:00000ac0       ?max_size@?$allocator@UPRT_COND_T@@@std@@QBEIXZ 10001ac0 f i BaseChan.obj
 0001:00000ad0       ?max_size@?$allocator@PAVIProtocolObserver@@@std@@QBEIXZ 10001ad0 f i BaseChan.obj
 0001:00000ae0       ??0?$_Vector_const_iterator@UPRT_COND_T@@V?$allocator@UPRT_COND_T@@@std@@@std@@QAE@PAUPRT_COND_T@@@Z 10001ae0 f i BaseChan.obj
 0001:00000af0       ??8?$_Vector_const_iterator@UPRT_COND_T@@V?$allocator@UPRT_COND_T@@@std@@@std@@QBE_NABV01@@Z 10001af0 f i BaseChan.obj
 0001:00000b10       ??0?$_Vector_const_iterator@PAVIProtocolObserver@@V?$allocator@PAVIProtocolObserver@@@std@@@std@@QAE@PAPAVIProtocolObserver@@@Z 10001b10 f i BaseChan.obj
 0001:00000b20       ?max_size@?$allocator@D@std@@QBEIXZ 10001b20 f i BaseChan.obj
 0001:00000b30       ?begin@?$list@PAUPRT_BUFF@@V?$allocator@PAUPRT_BUFF@@@std@@@std@@QBE?AV?$_Const_iterator@$0A@@12@XZ 10001b30 f i BaseChan.obj
 0001:00000b40       ?end@?$list@PAUPRT_BUFF@@V?$allocator@PAUPRT_BUFF@@@std@@@std@@QBE?AV?$_Const_iterator@$0A@@12@XZ 10001b40 f i BaseChan.obj
 0001:00000b50       ??0?$_Container_base_aux_alloc_empty@V?$allocator@PAUPRT_BUFF@@@std@@@std@@IAE@V?$allocator@PAUPRT_BUFF@@@1@@Z 10001b50 f i BaseChan.obj
 0001:00000b60       ?max_size@?$allocator@PAUPRT_BUFF@@@std@@QBEIXZ 10001b60 f i BaseChan.obj
 0001:00000b70       ??Y?$_Vector_const_iterator@UPRT_COND_T@@V?$allocator@UPRT_COND_T@@@std@@@std@@QAEAAV01@H@Z 10001b70 f i BaseChan.obj
 0001:00000b90       ??Y?$_Vector_const_iterator@PAVIProtocolObserver@@V?$allocator@PAVIProtocolObserver@@@std@@@std@@QAEAAV01@H@Z 10001b90 f i BaseChan.obj
 0001:00000bb0       ?_Inside@?$basic_string@DU?$char_traits@D@std@@V?$allocator@D@2@@std@@IAE_NPBD@Z 10001bb0 f i BaseChan.obj
 0001:00000bf0       ??$?8PAUPRT_BUFF@@PAU0@@std@@YA_NABV?$allocator@PAUPRT_BUFF@@@0@0@Z 10001bf0 f i BaseChan.obj
 0001:00000c00       ??$swap@PAU_Node@?$_List_nod@PAUPRT_BUFF@@V?$allocator@PAUPRT_BUFF@@@std@@@std@@@std@@YAXAAPAU_Node@?$_List_nod@PAUPRT_BUFF@@V?$allocator@PAUPRT_BUFF@@@std@@@0@0@Z 10001c00 f i BaseChan.obj
 0001:00000c20       ??$swap@I@std@@YAXAAI0@Z   10001c20 f i BaseChan.obj
 0001:00000c40       ??$_Destroy@U_Node@?$_List_nod@PAUPRT_BUFF@@V?$allocator@PAUPRT_BUFF@@@std@@@std@@@std@@YAXPAU_Node@?$_List_nod@PAUPRT_BUFF@@V?$allocator@PAUPRT_BUFF@@@std@@@0@@Z 10001c40 f i BaseChan.obj
 0001:00000c50       ??$?0PAUPRT_BUFF@@@?$allocator@PAU_Node@?$_List_nod@PAUPRT_BUFF@@V?$allocator@PAUPRT_BUFF@@@std@@@std@@@std@@QAE@ABV?$allocator@PAUPRT_BUFF@@@1@@Z 10001c50 f i BaseChan.obj
 0001:00000c60       ??$_Allocate@U_Node@?$_List_nod@PAUPRT_BUFF@@V?$allocator@PAUPRT_BUFF@@@std@@@std@@@std@@YAPAU_Node@?$_List_nod@PAUPRT_BUFF@@V?$allocator@PAUPRT_BUFF@@@std@@@0@IPAU120@@Z 10001c60 f i BaseChan.obj
 0001:00000cc0       ??$_Construct@PAU_Node@?$_List_nod@PAUPRT_BUFF@@V?$allocator@PAUPRT_BUFF@@@std@@@std@@PAU123@@std@@YAXPAPAU_Node@?$_List_nod@PAUPRT_BUFF@@V?$allocator@PAUPRT_BUFF@@@std@@@0@ABQAU120@@Z 10001cc0 f i BaseChan.obj
 0001:00000ce0       ??$_Destroy@PAU_Node@?$_List_nod@PAUPRT_BUFF@@V?$allocator@PAUPRT_BUFF@@@std@@@std@@@std@@YAXPAPAU_Node@?$_List_nod@PAUPRT_BUFF@@V?$allocator@PAUPRT_BUFF@@@std@@@0@@Z 10001ce0 f i BaseChan.obj
 0001:00000cf0       ??$_Allocate@UPRT_COND_T@@@std@@YAPAUPRT_COND_T@@IPAU1@@Z 10001cf0 f i BaseChan.obj
 0001:00000d50       ??$_Allocate@PAVIProtocolObserver@@@std@@YAPAPAVIProtocolObserver@@IPAPAV1@@Z 10001d50 f i BaseChan.obj
 0001:00000db0       ??$?0PAUPRT_BUFF@@@?$allocator@U_Node@?$_List_nod@PAUPRT_BUFF@@V?$allocator@PAUPRT_BUFF@@@std@@@std@@@std@@QAE@ABV?$allocator@PAUPRT_BUFF@@@1@@Z 10001db0 f i BaseChan.obj
 0001:00000dc0       ??$_Construct@PAUPRT_BUFF@@PAU1@@std@@YAXPAPAUPRT_BUFF@@ABQAU1@@Z 10001dc0 f i BaseChan.obj
 0001:00000de0       ??$_Allocate@D@std@@YAPADIPAD@Z 10001de0 f i BaseChan.obj
 0001:00000e40       ??0bad_alloc@std@@QAE@ABV01@@Z 10001e40 f i BaseChan.obj
 0001:00000e60       ??$_Char_traits_cat@U?$char_traits@D@std@@@std@@YA?AU_Secure_char_traits_tag@0@XZ 10001e60 f i BaseChan.obj
 0001:00000e70       ??$copy_s@U?$char_traits@D@std@@@_Traits_helper@std@@YAPADPADIPBDIU_Secure_char_traits_tag@1@@Z 10001e70 f i BaseChan.obj
 0001:00000ea0       ??$_Iter_random@PAUPRT_COND_T@@PAU1@@std@@YA?AUrandom_access_iterator_tag@0@ABQAUPRT_COND_T@@0@Z 10001ea0 f i BaseChan.obj
 0001:00000eb0       ??$_Ptr_cat@PAUPRT_COND_T@@PAU1@@std@@YA?AU_Nonscalar_ptr_iterator_tag@0@AAPAUPRT_COND_T@@0@Z 10001eb0 f i BaseChan.obj
 0001:00000ec0       ??$_Ptr_cat@PAPAVIProtocolObserver@@PAPAV1@@std@@YA?AU_Scalar_ptr_iterator_tag@0@AAPAPAVIProtocolObserver@@0@Z 10001ec0 f i BaseChan.obj
 0001:00000ed0       ??$move_s@U?$char_traits@D@std@@@_Traits_helper@std@@YAPADPADIPBDIU_Secure_char_traits_tag@1@@Z 10001ed0 f i BaseChan.obj
 0001:00000f00       ??$_Iter_cat@V?$_Const_iterator@$0A@@?$list@PAUPRT_BUFF@@V?$allocator@PAUPRT_BUFF@@@std@@@std@@@std@@YA?AUbidirectional_iterator_tag@0@ABV?$_Const_iterator@$0A@@?$list@PAUPRT_BUFF@@V?$allocator@PAUPRT_BUFF@@@std@@@0@@Z 10001f00 f i BaseChan.obj
 0001:00000f10       ??$_Move_cat@PAUPRT_COND_T@@@std@@YA?AU_Undefined_move_tag@0@ABQAUPRT_COND_T@@@Z 10001f10 f i BaseChan.obj
 0001:00000f20       ??$_Destroy_range@V?$allocator@PAVIProtocolObserver@@@std@@@std@@YAXPAPAVIProtocolObserver@@0AAV?$allocator@PAVIProtocolObserver@@@0@U_Scalar_ptr_iterator_tag@0@@Z 10001f20 f i BaseChan.obj
 0001:00000f30       ??$_Fill@PAPAVIProtocolObserver@@PAV1@@std@@YAXPAPAVIProtocolObserver@@0ABQAV1@@Z 10001f30 f i BaseChan.obj
 0001:00000f50       ??$_Iter_random@PAPAVIProtocolObserver@@PAPAV1@@std@@YA?AUrandom_access_iterator_tag@0@ABQAPAVIProtocolObserver@@0@Z 10001f50 f i BaseChan.obj
 0001:00000f60       ??$_Move_cat@PAPAVIProtocolObserver@@@std@@YA?AU_Undefined_move_tag@0@ABQAPAVIProtocolObserver@@@Z 10001f60 f i BaseChan.obj
 0001:00000f70       ??$_Copy_backward_opt@PAPAVIProtocolObserver@@PAPAV1@Urandom_access_iterator_tag@std@@@std@@YAPAPAVIProtocolObserver@@PAPAV1@00Urandom_access_iterator_tag@0@U_Scalar_ptr_iterator_tag@0@U_Range_checked_iterator_tag@0@@Z 10001f70 f i BaseChan.obj
 0001:00000fa0       ??$_Iter_cat@PAPAVIProtocolObserver@@@std@@YA?AUrandom_access_iterator_tag@0@ABQAPAVIProtocolObserver@@@Z 10001fa0 f i BaseChan.obj
 0001:00000fb0       ??$_Fill_n@PAPAVIProtocolObserver@@IPAV1@@std@@YAXPAPAVIProtocolObserver@@IABQAV1@U_Range_checked_iterator_tag@0@@Z 10001fb0 f i BaseChan.obj
 0001:00000fd0       ??$_Uninit_copy@PAPAVIProtocolObserver@@PAPAV1@V?$allocator@PAVIProtocolObserver@@@std@@@std@@YAPAPAVIProtocolObserver@@PAPAV1@00AAV?$allocator@PAVIProtocolObserver@@@0@U_Scalar_ptr_iterator_tag@0@U_Range_checked_iterator_tag@0@@Z 10001fd0 f i BaseChan.obj
 0001:00001010       ??0IProtocolChannel@@QAE@XZ 10002010 f i BaseChan.obj
 0001:00001020       ??_EIProtocolChannel@@UAEPAXI@Z 10002020 f i BaseChan.obj
 0001:00001020       ??_GIProtocolChannel@@UAEPAXI@Z 10002020 f i BaseChan.obj
 0001:00001040       ?Write@CBaseChannel@@UAEKPAXKK@Z 10002040 f   BaseChan.obj
 0001:000012b0       ?RemoveObserver@CBaseChannel@@UAE_NH@Z 100022b0 f   BaseChan.obj
 0001:00001330       ?GetNextObserver@CBaseChannel@@IAEPAVIProtocolObserver@@AAH@Z 10002330 f   BaseChan.obj
 0001:000013b0       ?FindObserver@CBaseChannel@@IAEHPAVIProtocolObserver@@@Z 100023b0 f   BaseChan.obj
 0001:00001410       ?RecvThread@@YGIPAX@Z      10002410 f   BaseChan.obj
 0001:000015d0       ?StartRecvThread@CBaseChannel@@IAEKXZ 100025d0 f   BaseChan.obj
 0001:00001620       ?OnChannelEvent@CBaseChannel@@UAEHIPAX@Z 10002620 f   BaseChan.obj
 0001:000016d0       ?StopProcessThread@CBaseChannel@@IAEXXZ 100026d0 f   BaseChan.obj
 0001:00001750       ?GenerateEndianEvent@CBaseChannel@@IAEXXZ 10002750 f   BaseChan.obj
 0001:000017e0       ??0?$_Iterator@$0A@@?$list@PAUPRT_BUFF@@V?$allocator@PAUPRT_BUFF@@@std@@@std@@QAE@XZ 100027e0 f i BaseChan.obj
 0001:000017f0       ??1?$_Vector_val@UPRT_COND_T@@V?$allocator@UPRT_COND_T@@@std@@@std@@QAE@XZ 100027f0 f i BaseChan.obj
 0001:00001800       ??1?$_Vector_val@PAVIProtocolObserver@@V?$allocator@PAVIProtocolObserver@@@std@@@std@@QAE@XZ 10002800 f i BaseChan.obj
 0001:00001810       ??1?$_List_nod@PAUPRT_BUFF@@V?$allocator@PAUPRT_BUFF@@@std@@@std@@QAE@XZ 10002810 f i BaseChan.obj
 0001:00001820       ??0?$_String_val@DV?$allocator@D@std@@@std@@QAE@ABV01@@Z 10002820 f i BaseChan.obj
 0001:00001830       ?destroy@?$allocator@U_Node@?$_List_nod@PAUPRT_BUFF@@V?$allocator@PAUPRT_BUFF@@@std@@@std@@@std@@QAEXPAU_Node@?$_List_nod@PAUPRT_BUFF@@V?$allocator@PAUPRT_BUFF@@@std@@@2@@Z 10002830 f i BaseChan.obj
 0001:00001840       ??0?$_Vector_val@UPRT_COND_T@@V?$allocator@UPRT_COND_T@@@std@@@std@@IAE@V?$allocator@UPRT_COND_T@@@1@@Z 10002840 f i BaseChan.obj
 0001:00001850       ??0?$_Vector_val@PAVIProtocolObserver@@V?$allocator@PAVIProtocolObserver@@@std@@@std@@IAE@V?$allocator@PAVIProtocolObserver@@@1@@Z 10002850 f i BaseChan.obj
 0001:00001860       ??0?$_Iterator@$0A@@?$list@PAUPRT_BUFF@@V?$allocator@PAUPRT_BUFF@@@std@@@std@@QAE@PAU_Node@?$_List_nod@PAUPRT_BUFF@@V?$allocator@PAUPRT_BUFF@@@std@@@2@@Z 10002860 f i BaseChan.obj
 0001:00001870       ??E?$_Iterator@$0A@@?$list@PAUPRT_BUFF@@V?$allocator@PAUPRT_BUFF@@@std@@@std@@QAEAAV012@XZ 10002870 f i BaseChan.obj
 0001:00001880       ??F?$_Iterator@$0A@@?$list@PAUPRT_BUFF@@V?$allocator@PAUPRT_BUFF@@@std@@@std@@QAEAAV012@XZ 10002880 f i BaseChan.obj
 0001:00001890       ??D?$_Const_iterator@$0A@@?$list@PAUPRT_BUFF@@V?$allocator@PAUPRT_BUFF@@@std@@@std@@QBEABQAUPRT_BUFF@@XZ 10002890 f i BaseChan.obj
 0001:000018a0       ??E?$_Const_iterator@$0A@@?$list@PAUPRT_BUFF@@V?$allocator@PAUPRT_BUFF@@@std@@@std@@QAE?AV012@H@Z 100028a0 f i BaseChan.obj
 0001:000018b0       ?_Eos@?$basic_string@DU?$char_traits@D@std@@V?$allocator@D@2@@std@@IAEXI@Z 100028b0 f i BaseChan.obj
 0001:000018d0       ?allocate@?$allocator@U_Node@?$_List_nod@PAUPRT_BUFF@@V?$allocator@PAUPRT_BUFF@@@std@@@std@@@std@@QAEPAU_Node@?$_List_nod@PAUPRT_BUFF@@V?$allocator@PAUPRT_BUFF@@@std@@@2@I@Z 100028d0 f i BaseChan.obj
 0001:000018f0       ?construct@?$allocator@PAU_Node@?$_List_nod@PAUPRT_BUFF@@V?$allocator@PAUPRT_BUFF@@@std@@@std@@@std@@QAEXPAPAU_Node@?$_List_nod@PAUPRT_BUFF@@V?$allocator@PAUPRT_BUFF@@@std@@@2@ABQAU342@@Z 100028f0 f i BaseChan.obj
 0001:00001910       ?destroy@?$allocator@PAU_Node@?$_List_nod@PAUPRT_BUFF@@V?$allocator@PAUPRT_BUFF@@@std@@@std@@@std@@QAEXPAPAU_Node@?$_List_nod@PAUPRT_BUFF@@V?$allocator@PAUPRT_BUFF@@@std@@@2@@Z 10002910 f i BaseChan.obj
 0001:00001920       ?max_size@?$vector@UPRT_COND_T@@V?$allocator@UPRT_COND_T@@@std@@@std@@QBEIXZ 10002920 f i BaseChan.obj
 0001:00001930       ?allocate@?$allocator@UPRT_COND_T@@@std@@QAEPAUPRT_COND_T@@I@Z 10002930 f i BaseChan.obj
 0001:00001950       ?max_size@?$vector@PAVIProtocolObserver@@V?$allocator@PAVIProtocolObserver@@@std@@@std@@QBEIXZ 10002950 f i BaseChan.obj
 0001:00001960       ?allocate@?$allocator@PAVIProtocolObserver@@@std@@QAEPAPAVIProtocolObserver@@I@Z 10002960 f i BaseChan.obj
 0001:00001980       ??0?$_Vector_iterator@UPRT_COND_T@@V?$allocator@UPRT_COND_T@@@std@@@std@@QAE@PAUPRT_COND_T@@@Z 10002980 f i BaseChan.obj
 0001:00001990       ??9?$_Vector_const_iterator@UPRT_COND_T@@V?$allocator@UPRT_COND_T@@@std@@@std@@QBE_NABV01@@Z 10002990 f i BaseChan.obj
 0001:000019b0       ??0?$_Vector_iterator@PAVIProtocolObserver@@V?$allocator@PAVIProtocolObserver@@@std@@@std@@QAE@PAPAVIProtocolObserver@@@Z 100029b0 f i BaseChan.obj
 0001:000019c0       ?max_size@?$basic_string@DU?$char_traits@D@std@@V?$allocator@D@2@@std@@QBEIXZ 100029c0 f i BaseChan.obj
 0001:000019d0       ?max_size@?$list@PAUPRT_BUFF@@V?$allocator@PAUPRT_BUFF@@@std@@@std@@QBEIXZ 100029d0 f i BaseChan.obj
 0001:000019e0       ??0?$_List_nod@PAUPRT_BUFF@@V?$allocator@PAUPRT_BUFF@@@std@@@std@@IAE@V?$allocator@PAUPRT_BUFF@@@1@@Z 100029e0 f i BaseChan.obj
 0001:000019f0       ?construct@?$allocator@PAUPRT_BUFF@@@std@@QAEXPAPAUPRT_BUFF@@ABQAU3@@Z 100029f0 f i BaseChan.obj
 0001:00001a10       ??Y?$_Vector_iterator@UPRT_COND_T@@V?$allocator@UPRT_COND_T@@@std@@@std@@QAEAAV01@H@Z 10002a10 f i BaseChan.obj
 0001:00001a30       ??Y?$_Vector_iterator@PAVIProtocolObserver@@V?$allocator@PAVIProtocolObserver@@@std@@@std@@QAEAAV01@H@Z 10002a30 f i BaseChan.obj
 0001:00001a50       ?allocate@?$allocator@D@std@@QAEPADI@Z 10002a50 f i BaseChan.obj
 0001:00001a70       ??$copy_s@U?$char_traits@D@std@@@_Traits_helper@std@@YAPADPADIPBDI@Z 10002a70 f i BaseChan.obj
 0001:00001aa0       ??$move_s@U?$char_traits@D@std@@@_Traits_helper@std@@YAPADPADIPBDI@Z 10002aa0 f i BaseChan.obj
 0001:00001ad0       ??$_Destroy_range@V?$allocator@PAVIProtocolObserver@@@std@@@std@@YAXPAPAVIProtocolObserver@@0AAV?$allocator@PAVIProtocolObserver@@@0@@Z 10002ad0 f i BaseChan.obj
 0001:00001ae0       ??$fill@PAPAVIProtocolObserver@@PAV1@@std@@YAXPAPAVIProtocolObserver@@0ABQAV1@@Z 10002ae0 f i BaseChan.obj
 0001:00001b00       ??$_Move_backward_opt@PAPAVIProtocolObserver@@PAPAV1@Urandom_access_iterator_tag@std@@U_Undefined_move_tag@3@@std@@YAPAPAVIProtocolObserver@@PAPAV1@00Urandom_access_iterator_tag@0@U_Undefined_move_tag@0@U_Range_checked_iterator_tag@0@@Z 10002b00 f i BaseChan.obj
 0001:00001b30       ??$_Fill_n@PAPAVIProtocolObserver@@IPAV1@Urandom_access_iterator_tag@std@@@std@@YAXPAPAVIProtocolObserver@@IABQAV1@Urandom_access_iterator_tag@0@U_Range_checked_iterator_tag@0@@Z 10002b30 f i BaseChan.obj
 0001:00001b50       ??$unchecked_uninitialized_copy@PAPAVIProtocolObserver@@PAPAV1@V?$allocator@PAVIProtocolObserver@@@std@@@stdext@@YAPAPAVIProtocolObserver@@PAPAV1@00AAV?$allocator@PAVIProtocolObserver@@@std@@@Z 10002b50 f i BaseChan.obj
 0001:00001b90       ?SetLowerChannel@CBaseChannel@@UAEXPAVICommChannel@@_N@Z 10002b90 f   BaseChan.obj
 0001:00001d10       ?begin@?$list@PAUPRT_BUFF@@V?$allocator@PAUPRT_BUFF@@@std@@@std@@QAE?AV?$_Iterator@$0A@@12@XZ 10002d10 f i BaseChan.obj
 0001:00001d20       ?end@?$list@PAUPRT_BUFF@@V?$allocator@PAUPRT_BUFF@@@std@@@std@@QAE?AV?$_Iterator@$0A@@12@XZ 10002d20 f i BaseChan.obj
 0001:00001d30       ?clear@?$list@PAUPRT_BUFF@@V?$allocator@PAUPRT_BUFF@@@std@@@std@@QAEXXZ 10002d30 f i BaseChan.obj
 0001:00001d70       ??D?$_Iterator@$0A@@?$list@PAUPRT_BUFF@@V?$allocator@PAUPRT_BUFF@@@std@@@std@@QBEAAPAUPRT_BUFF@@XZ 10002d70 f i BaseChan.obj
 0001:00001d80       ??E?$_Iterator@$0A@@?$list@PAUPRT_BUFF@@V?$allocator@PAUPRT_BUFF@@@std@@@std@@QAE?AV012@H@Z 10002d80 f i BaseChan.obj
 0001:00001d90       ??F?$_Iterator@$0A@@?$list@PAUPRT_BUFF@@V?$allocator@PAUPRT_BUFF@@@std@@@std@@QAE?AV012@H@Z 10002d90 f i BaseChan.obj
 0001:00001da0       ??1?$_List_ptr@PAUPRT_BUFF@@V?$allocator@PAUPRT_BUFF@@@std@@@std@@QAE@XZ 10002da0 f i BaseChan.obj
 0001:00001db0       ?_Tidy@?$basic_string@DU?$char_traits@D@std@@V?$allocator@D@2@@std@@IAEX_NI@Z 10002db0 f i BaseChan.obj
 0001:00001e00       ?_Make_iter@?$list@PAUPRT_BUFF@@V?$allocator@PAUPRT_BUFF@@@std@@@std@@QBE?AV?$_Iterator@$0A@@12@V?$_Const_iterator@$0A@@12@@Z 10002e00 f i BaseChan.obj
 0001:00001e10       ?_Buynode@?$list@PAUPRT_BUFF@@V?$allocator@PAUPRT_BUFF@@@std@@@std@@IAEPAU_Node@?$_List_nod@PAUPRT_BUFF@@V?$allocator@PAUPRT_BUFF@@@std@@@2@XZ 10002e10 f i BaseChan.obj
 0001:00001e30       ?_Tidy@?$list@PAUPRT_BUFF@@V?$allocator@PAUPRT_BUFF@@@std@@@std@@IAEXXZ 10002e30 f i BaseChan.obj
 0001:00001e80       ?begin@?$vector@UPRT_COND_T@@V?$allocator@UPRT_COND_T@@@std@@@std@@QAE?AV?$_Vector_iterator@UPRT_COND_T@@V?$allocator@UPRT_COND_T@@@std@@@2@XZ 10002e80 f i BaseChan.obj
 0001:00001e90       ?end@?$vector@UPRT_COND_T@@V?$allocator@UPRT_COND_T@@@std@@@std@@QAE?AV?$_Vector_iterator@UPRT_COND_T@@V?$allocator@UPRT_COND_T@@@std@@@2@XZ 10002e90 f i BaseChan.obj
 0001:00001ea0       ?end@?$vector@PAVIProtocolObserver@@V?$allocator@PAVIProtocolObserver@@@std@@@std@@QAE?AV?$_Vector_iterator@PAVIProtocolObserver@@V?$allocator@PAVIProtocolObserver@@@std@@@2@XZ 10002ea0 f i BaseChan.obj
 0001:00001eb0       ?erase@?$basic_string@DU?$char_traits@D@std@@V?$allocator@D@2@@std@@QAEAAV12@II@Z 10002eb0 f i BaseChan.obj
 0001:00001f40       ?_Buynode@?$list@PAUPRT_BUFF@@V?$allocator@PAUPRT_BUFF@@@std@@@std@@IAEPAU_Node@?$_List_nod@PAUPRT_BUFF@@V?$allocator@PAUPRT_BUFF@@@std@@@2@PAU342@0ABQAUPRT_BUFF@@@Z 10002f40 f i BaseChan.obj
 0001:00001f80       ??0?$_List_ptr@PAUPRT_BUFF@@V?$allocator@PAUPRT_BUFF@@@std@@@std@@IAE@V?$allocator@PAUPRT_BUFF@@@1@@Z 10002f80 f i BaseChan.obj
 0001:00001f90       ?_Make_iter@?$vector@UPRT_COND_T@@V?$allocator@UPRT_COND_T@@@std@@@std@@QBE?AV?$_Vector_iterator@UPRT_COND_T@@V?$allocator@UPRT_COND_T@@@std@@@2@V?$_Vector_const_iterator@UPRT_COND_T@@V?$allocator@UPRT_COND_T@@@std@@@2@@Z 10002f90 f i BaseChan.obj
 0001:00001fa0       ?begin@?$vector@PAVIProtocolObserver@@V?$allocator@PAVIProtocolObserver@@@std@@@std@@QAE?AV?$_Vector_iterator@PAVIProtocolObserver@@V?$allocator@PAVIProtocolObserver@@@std@@@2@XZ 10002fa0 f i BaseChan.obj
 0001:00001fb0       ?_Destroy@?$vector@PAVIProtocolObserver@@V?$allocator@PAVIProtocolObserver@@@std@@@std@@IAEXPAPAVIProtocolObserver@@0@Z 10002fb0 f i BaseChan.obj
 0001:00001fc0       ??H?$_Vector_iterator@UPRT_COND_T@@V?$allocator@UPRT_COND_T@@@std@@@std@@QBE?AV01@H@Z 10002fc0 f i BaseChan.obj
 0001:00001fe0       ??H?$_Vector_iterator@PAVIProtocolObserver@@V?$allocator@PAVIProtocolObserver@@@std@@@std@@QBE?AV01@H@Z 10002fe0 f i BaseChan.obj
 0001:00002000       ?_Copy@?$basic_string@DU?$char_traits@D@std@@V?$allocator@D@2@@std@@IAEXII@Z 10003000 f i BaseChan.obj
 0001:00002140       ??$_Unchecked_move_backward@PAPAVIProtocolObserver@@PAPAV1@@stdext@@YAPAPAVIProtocolObserver@@PAPAV1@00@Z 10003140 f i BaseChan.obj
 0001:00002170       ??$unchecked_fill_n@PAPAVIProtocolObserver@@IPAV1@@stdext@@YAXPAPAVIProtocolObserver@@IABQAV1@@Z 10003170 f i BaseChan.obj
 0001:00002190       ??$_Uninit_move@PAPAVIProtocolObserver@@PAPAV1@V?$allocator@PAVIProtocolObserver@@@std@@U_Undefined_move_tag@3@@std@@YAPAPAVIProtocolObserver@@PAPAV1@00AAV?$allocator@PAVIProtocolObserver@@@0@U_Undefined_move_tag@0@U_Range_checked_iterator_tag@0@@Z 10003190 f i BaseChan.obj
 0001:000021d0       ?RemoveCond@CBaseChannel@@MAE_NH_N@Z 100031d0 f   BaseChan.obj
 0001:00002400       ??1?$basic_string@DU?$char_traits@D@std@@V?$allocator@D@2@@std@@QAE@XZ 10003400 f i BaseChan.obj
 0001:00002430       ?front@?$list@PAUPRT_BUFF@@V?$allocator@PAUPRT_BUFF@@@std@@@std@@QAEAAPAUPRT_BUFF@@XZ 10003430 f i BaseChan.obj
 0001:00002440       ?erase@?$list@PAUPRT_BUFF@@V?$allocator@PAUPRT_BUFF@@@std@@@std@@QAE?AV?$_Iterator@$0A@@12@V?$_Const_iterator@$0A@@12@@Z 10003440 f i BaseChan.obj
 0001:00002480       ?erase@?$list@PAUPRT_BUFF@@V?$allocator@PAUPRT_BUFF@@@std@@@std@@QAE?AV?$_Iterator@$0A@@12@V?$_Const_iterator@$0A@@12@0@Z 10003480 f i BaseChan.obj
 0001:000024f0       ??1?$_List_val@PAUPRT_BUFF@@V?$allocator@PAUPRT_BUFF@@@std@@@std@@QAE@XZ 100034f0 f i BaseChan.obj
 0001:00002500       ??0?$_List_val@PAUPRT_BUFF@@V?$allocator@PAUPRT_BUFF@@@std@@@std@@QAE@V?$allocator@PAUPRT_BUFF@@@1@@Z 10003500 f i BaseChan.obj
 0001:00002510       ?_Tidy@?$vector@PAVIProtocolObserver@@V?$allocator@PAVIProtocolObserver@@@std@@@std@@IAEXXZ 10003510 f i BaseChan.obj
 0001:00002540       ?_Grow@?$basic_string@DU?$char_traits@D@std@@V?$allocator@D@2@@std@@IAE_NI_N@Z 10003540 f i BaseChan.obj
 0001:00002600       ??$_Uninit_fill_n@PAPAVIProtocolObserver@@IPAV1@V?$allocator@PAVIProtocolObserver@@@std@@@std@@YAXPAPAVIProtocolObserver@@IABQAV1@AAV?$allocator@PAVIProtocolObserver@@@0@U_Scalar_ptr_iterator_tag@0@U_Range_checked_iterator_tag@0@@Z 10003600 f i BaseChan.obj
 0001:00002620       ??$_Unchecked_uninitialized_move@PAPAVIProtocolObserver@@PAPAV1@V?$allocator@PAVIProtocolObserver@@@std@@@stdext@@YAPAPAVIProtocolObserver@@PAPAV1@00AAV?$allocator@PAVIProtocolObserver@@@std@@@Z 10003620 f i BaseChan.obj
 0001:00002660       ??1logic_error@std@@UAE@XZ 10003660 f i BaseChan.obj
 0001:000026a0       ?c_str@?$basic_string@DU?$char_traits@D@std@@V?$allocator@D@2@@std@@QBEPBDXZ 100036a0 f i BaseChan.obj
 0001:000026b0       ?what@logic_error@std@@UBEPBDXZ 100036b0 f i BaseChan.obj
 0001:000026c0       ??_Glogic_error@std@@UAEPAXI@Z 100036c0 f i BaseChan.obj
 0001:000026c0       ??_Elogic_error@std@@UAEPAXI@Z 100036c0 f i BaseChan.obj
 0001:00002710       ?RemovePackages@CBaseChannel@@MAEXPAX@Z 10003710 f   BaseChan.obj
 0001:00002830       ??0?$list@PAUPRT_BUFF@@V?$allocator@PAUPRT_BUFF@@@std@@@std@@QAE@XZ 10003830 f i BaseChan.obj
 0001:00002850       ??1?$list@PAUPRT_BUFF@@V?$allocator@PAUPRT_BUFF@@@std@@@std@@QAE@XZ 10003850 f i BaseChan.obj
 0001:00002860       ?pop_front@?$list@PAUPRT_BUFF@@V?$allocator@PAUPRT_BUFF@@@std@@@std@@QAEXXZ 10003860 f i BaseChan.obj
 0001:00002890       ??1?$vector@PAVIProtocolObserver@@V?$allocator@PAVIProtocolObserver@@@std@@@std@@QAE@XZ 10003890 f i BaseChan.obj
 0001:000028c0       ?assign@?$basic_string@DU?$char_traits@D@std@@V?$allocator@D@2@@std@@QAEAAV12@ABV12@II@Z 100038c0 f i BaseChan.obj
 0001:000029a0       ?assign@?$basic_string@DU?$char_traits@D@std@@V?$allocator@D@2@@std@@QAEAAV12@PBDI@Z 100039a0 f i BaseChan.obj
 0001:00002a80       ??$unchecked_uninitialized_fill_n@PAPAVIProtocolObserver@@IPAV1@V?$allocator@PAVIProtocolObserver@@@std@@@stdext@@YAXPAPAVIProtocolObserver@@IABQAV1@AAV?$allocator@PAVIProtocolObserver@@@std@@@Z 10003a80 f i BaseChan.obj
 0001:00002aa0       ??$_Umove@PAPAVIProtocolObserver@@@?$vector@PAVIProtocolObserver@@V?$allocator@PAVIProtocolObserver@@@std@@@std@@IAEPAPAVIProtocolObserver@@PAPAV2@00@Z 10003aa0 f i BaseChan.obj
 0001:00002ae0       ?Read@CBaseChannel@@UAEKPAXKKK@Z 10003ae0 f   BaseChan.obj
 0001:00002f50       ??0PRT_COND_T@@QAE@XZ      10003f50 f i BaseChan.obj
 0001:00002f70       ??1PRT_COND_T@@QAE@XZ      10003f70 f i BaseChan.obj
 0001:00002f80       ?FindPackage@CBaseChannel@@MAEPAUPRT_BUFF@@AAH@Z 10003f80 f   BaseChan.obj
 0001:000030a0       ?GetPackage@CBaseChannel@@IAEPAUPRT_BUFF@@XZ 100040a0 f   BaseChan.obj
 0001:000031c0       ??0?$basic_string@DU?$char_traits@D@std@@V?$allocator@D@2@@std@@QAE@ABV01@@Z 100041c0 f i BaseChan.obj
 0001:000031f0       ?_Ufill@?$vector@PAVIProtocolObserver@@V?$allocator@PAVIProtocolObserver@@@std@@@std@@IAEPAPAVIProtocolObserver@@PAPAV3@IABQAV3@@Z 100041f0 f i BaseChan.obj
 0001:00003220       ?assign@?$basic_string@DU?$char_traits@D@std@@V?$allocator@D@2@@std@@QAEAAV12@PBD@Z 10004220 f i BaseChan.obj
 0001:00003250       ??_GPRT_COND_T@@QAEPAXI@Z  10004250 f i BaseChan.obj
 0001:00003280       ??0logic_error@std@@QAE@ABV?$basic_string@DU?$char_traits@D@std@@V?$allocator@D@2@@1@@Z 10004280 f i BaseChan.obj
 0001:000032f0       ??0length_error@std@@QAE@ABV?$basic_string@DU?$char_traits@D@std@@V?$allocator@D@2@@1@@Z 100042f0 f i BaseChan.obj
 0001:00003310       ??1length_error@std@@UAE@XZ 10004310 f i BaseChan.obj
 0001:00003350       ??_Glength_error@std@@UAEPAXI@Z 10004350 f i BaseChan.obj
 0001:00003350       ??_Elength_error@std@@UAEPAXI@Z 10004350 f i BaseChan.obj
 0001:000033a0       ?ProcessData@CBaseChannel@@QAEXXZ 100043a0 f   BaseChan.obj
 0001:00003580       ??0?$basic_string@DU?$char_traits@D@std@@V?$allocator@D@2@@std@@QAE@PBD@Z 10004580 f i BaseChan.obj
 0001:000035c0       ?_Incsize@?$list@PAUPRT_BUFF@@V?$allocator@PAUPRT_BUFF@@@std@@@std@@IAEXI@Z 100045c0 f i BaseChan.obj
 0001:00003660       ??0logic_error@std@@QAE@ABV01@@Z 10004660 f i BaseChan.obj
 0001:000036e0       ??0length_error@std@@QAE@ABV01@@Z 100046e0 f i BaseChan.obj
 0001:00003700       ?_Xlen@?$vector@UPRT_COND_T@@V?$allocator@UPRT_COND_T@@@std@@@std@@KAXXZ 10004700 f i BaseChan.obj
 0001:00003780       ?_Xlen@?$vector@PAVIProtocolObserver@@V?$allocator@PAVIProtocolObserver@@@std@@@std@@KAXXZ 10004780 f i BaseChan.obj
 0001:00003800       ??$_Destroy@UPRT_COND_T@@@std@@YAXPAUPRT_COND_T@@@Z 10004800 f i BaseChan.obj
 0001:00003810       ?ProcessThread@@YGIPAX@Z   10004810 f   BaseChan.obj
 0001:00003820       ?StartProcessThread@CBaseChannel@@IAEKXZ 10004820 f   BaseChan.obj
 0001:00003870       ?_Insert@?$list@PAUPRT_BUFF@@V?$allocator@PAUPRT_BUFF@@@std@@@std@@QAEXV?$_Const_iterator@$0A@@12@ABQAUPRT_BUFF@@@Z 10004870 f i BaseChan.obj
 0001:000038b0       ?_Buy@?$vector@UPRT_COND_T@@V?$allocator@UPRT_COND_T@@@std@@@std@@IAE_NI@Z 100048b0 f i BaseChan.obj
 0001:00003900       ?_Buy@?$vector@PAVIProtocolObserver@@V?$allocator@PAVIProtocolObserver@@@std@@@std@@IAE_NI@Z 10004900 f i BaseChan.obj
 0001:00003950       ?_Insert_n@?$vector@PAVIProtocolObserver@@V?$allocator@PAVIProtocolObserver@@@std@@@std@@IAEXV?$_Vector_const_iterator@PAVIProtocolObserver@@V?$allocator@PAVIProtocolObserver@@@std@@@2@IABQAVIProtocolObserver@@@Z 10004950 f i BaseChan.obj
 0001:00003b00       ??$_Insert@V?$_Const_iterator@$0A@@?$list@PAUPRT_BUFF@@V?$allocator@PAUPRT_BUFF@@@std@@@std@@@?$list@PAUPRT_BUFF@@V?$allocator@PAUPRT_BUFF@@@std@@@std@@QAEXV?$_Const_iterator@$0A@@01@00Uforward_iterator_tag@1@@Z 10004b00 f i BaseChan.obj
 0001:00003bc0       ?destroy@?$allocator@UPRT_COND_T@@@std@@QAEXPAUPRT_COND_T@@@Z 10004bc0 f i BaseChan.obj
 0001:00003bd0       ?Open@CBaseChannel@@UAEHQAU_CHANNEL_ATTRIBUTE@@@Z 10004bd0 f   BaseChan.obj
 0001:00003e90       ?push_back@?$list@PAUPRT_BUFF@@V?$allocator@PAUPRT_BUFF@@@std@@@std@@QAEXABQAUPRT_BUFF@@@Z 10004e90 f i BaseChan.obj
 0001:00003ed0       ??0?$vector@UPRT_COND_T@@V?$allocator@UPRT_COND_T@@@std@@@std@@QAE@XZ 10004ed0 f i BaseChan.obj
 0001:00003ee0       ??0?$vector@PAVIProtocolObserver@@V?$allocator@PAVIProtocolObserver@@@std@@@std@@QAE@XZ 10004ee0 f i BaseChan.obj
 0001:00003ef0       ?insert@?$vector@PAVIProtocolObserver@@V?$allocator@PAVIProtocolObserver@@@std@@@std@@QAE?AV?$_Vector_iterator@PAVIProtocolObserver@@V?$allocator@PAVIProtocolObserver@@@std@@@2@V?$_Vector_const_iterator@PAVIProtocolObserver@@V?$allocator@PAVIProtocolObserver@@@std@@@2@ABQAVIProtocolObserver@@@Z 10004ef0 f i BaseChan.obj
 0001:00003f40       ??$insert@V?$_Const_iterator@$0A@@?$list@PAUPRT_BUFF@@V?$allocator@PAUPRT_BUFF@@@std@@@std@@@?$list@PAUPRT_BUFF@@V?$allocator@PAUPRT_BUFF@@@std@@@std@@QAEXV?$_Const_iterator@$0A@@01@00@Z 10004f40 f i BaseChan.obj
 0001:00003f60       ??$_Destroy_range@V?$allocator@UPRT_COND_T@@@std@@@std@@YAXPAUPRT_COND_T@@0AAV?$allocator@UPRT_COND_T@@@0@U_Nonscalar_ptr_iterator_tag@0@@Z 10004f60 f i BaseChan.obj
 0001:00003fd0       ??$_Assign@V?$_Const_iterator@$0A@@?$list@PAUPRT_BUFF@@V?$allocator@PAUPRT_BUFF@@@std@@@std@@@?$list@PAUPRT_BUFF@@V?$allocator@PAUPRT_BUFF@@@std@@@std@@QAEXV?$_Const_iterator@$0A@@01@0Uinput_iterator_tag@1@@Z 10004fd0 f i BaseChan.obj
 0001:00004030       ?AddtoPackageList@CBaseChannel@@IAEXPAPAUPRT_BUFF@@HH@Z 10005030 f   BaseChan.obj
 0001:00004330       ?push_back@?$vector@PAVIProtocolObserver@@V?$allocator@PAVIProtocolObserver@@@std@@@std@@QAEXABQAVIProtocolObserver@@@Z 10005330 f i BaseChan.obj
 0001:00004380       ?_Splice@?$list@PAUPRT_BUFF@@V?$allocator@PAUPRT_BUFF@@@std@@@std@@QAEXV?$_Const_iterator@$0A@@12@AAV12@00I_N@Z 10005380 f i BaseChan.obj
 0001:000043f0       ??0?$list@PAUPRT_BUFF@@V?$allocator@PAUPRT_BUFF@@@std@@@std@@QAE@ABV01@@Z 100053f0 f i BaseChan.obj
 0001:00004480       ??$_Destroy_range@V?$allocator@UPRT_COND_T@@@std@@@std@@YAXPAUPRT_COND_T@@0AAV?$allocator@UPRT_COND_T@@@0@@Z 10005480 f i BaseChan.obj
 0001:000044a0       ??$assign@V?$_Const_iterator@$0A@@?$list@PAUPRT_BUFF@@V?$allocator@PAUPRT_BUFF@@@std@@@std@@@?$list@PAUPRT_BUFF@@V?$allocator@PAUPRT_BUFF@@@std@@@std@@QAEXV?$_Const_iterator@$0A@@01@0@Z 100054a0 f i BaseChan.obj
 0001:000044c0       ?AddObserver@CBaseChannel@@UAEHPAVIProtocolObserver@@@Z 100054c0 f   BaseChan.obj
 0001:00004610       ?OnChannelData@CBaseChannel@@UAEHPAXK@Z 10005610 f   BaseChan.obj
 0001:00004740       ?splice@?$list@PAUPRT_BUFF@@V?$allocator@PAUPRT_BUFF@@@std@@@std@@QAEXV?$_Const_iterator@$0A@@12@AAV12@@Z 10005740 f i BaseChan.obj
 0001:00004770       ?splice@?$list@PAUPRT_BUFF@@V?$allocator@PAUPRT_BUFF@@@std@@@std@@QAEXV?$_Const_iterator@$0A@@12@AAV12@00@Z 10005770 f i BaseChan.obj
 0001:00004840       ?_Destroy@?$vector@UPRT_COND_T@@V?$allocator@UPRT_COND_T@@@std@@@std@@IAEXPAUPRT_COND_T@@0@Z 10005840 f i BaseChan.obj
 0001:00004860       ??0PRT_COND_T@@QAE@ABU0@@Z 10005860 f i BaseChan.obj
 0001:00004890       ??4?$list@PAUPRT_BUFF@@V?$allocator@PAUPRT_BUFF@@@std@@@std@@QAEAAV01@ABV01@@Z 10005890 f i BaseChan.obj
 0001:000048c0       ??$_Construct@UPRT_COND_T@@U1@@std@@YAXPAUPRT_COND_T@@ABU1@@Z 100058c0 f i BaseChan.obj
 0001:00004930       ?swap@?$list@PAUPRT_BUFF@@V?$allocator@PAUPRT_BUFF@@@std@@@std@@QAEXAAV12@@Z 10005930 f i BaseChan.obj
 0001:00004970       ?_Tidy@?$vector@UPRT_COND_T@@V?$allocator@UPRT_COND_T@@@std@@@std@@IAEXXZ 10005970 f i BaseChan.obj
 0001:000049b0       ??4PRT_COND_T@@QAEAAU0@ABU0@@Z 100059b0 f i BaseChan.obj
 0001:000049f0       ?construct@?$allocator@UPRT_COND_T@@@std@@QAEXPAUPRT_COND_T@@ABU3@@Z 100059f0 f i BaseChan.obj
 0001:00004a10       ??$_Copy_backward_opt@PAUPRT_COND_T@@PAU1@Urandom_access_iterator_tag@std@@@std@@YAPAUPRT_COND_T@@PAU1@00Urandom_access_iterator_tag@0@U_Nonscalar_ptr_iterator_tag@0@U_Range_checked_iterator_tag@0@@Z 10005a10 f i BaseChan.obj
 0001:00004ad0       ??$_Uninit_copy@PAUPRT_COND_T@@PAU1@V?$allocator@UPRT_COND_T@@@std@@@std@@YAPAUPRT_COND_T@@PAU1@00AAV?$allocator@UPRT_COND_T@@@0@U_Nonscalar_ptr_iterator_tag@0@U_Range_checked_iterator_tag@0@@Z 10005ad0 f i BaseChan.obj
 0001:00004b90       ??1?$vector@UPRT_COND_T@@V?$allocator@UPRT_COND_T@@@std@@@std@@QAE@XZ 10005b90 f i BaseChan.obj
 0001:00004bd0       ??$_Copy_opt@PAUPRT_COND_T@@PAU1@Urandom_access_iterator_tag@std@@@std@@YAPAUPRT_COND_T@@PAU1@00Urandom_access_iterator_tag@0@U_Nonscalar_ptr_iterator_tag@0@U_Range_checked_iterator_tag@0@@Z 10005bd0 f i BaseChan.obj
 0001:00004c40       ??$_Uninit_fill_n@PAUPRT_COND_T@@IU1@V?$allocator@UPRT_COND_T@@@std@@@std@@YAXPAUPRT_COND_T@@IABU1@AAV?$allocator@UPRT_COND_T@@@0@U_Nonscalar_ptr_iterator_tag@0@U_Range_checked_iterator_tag@0@@Z 10005c40 f i BaseChan.obj
 0001:00004cf0       ??$_Fill@PAUPRT_COND_T@@U1@@std@@YAXPAUPRT_COND_T@@0ABU1@@Z 10005cf0 f i BaseChan.obj
 0001:00004d40       ??$_Move_backward_opt@PAUPRT_COND_T@@PAU1@Urandom_access_iterator_tag@std@@U_Undefined_move_tag@3@@std@@YAPAUPRT_COND_T@@PAU1@00Urandom_access_iterator_tag@0@U_Undefined_move_tag@0@U_Range_checked_iterator_tag@0@@Z 10005d40 f i BaseChan.obj
 0001:00004d70       ??$unchecked_uninitialized_copy@PAUPRT_COND_T@@PAU1@V?$allocator@UPRT_COND_T@@@std@@@stdext@@YAPAUPRT_COND_T@@PAU1@00AAV?$allocator@UPRT_COND_T@@@std@@@Z 10005d70 f i BaseChan.obj
 0001:00004da0       ??0CBaseChannel@@QAE@XZ    10005da0 f   BaseChan.obj
 0001:00004f30       ??1CBaseChannel@@UAE@XZ    10005f30 f   BaseChan.obj
 0001:00005090       ??$unchecked_copy@PAUPRT_COND_T@@PAU1@@stdext@@YAPAUPRT_COND_T@@PAU1@00@Z 10006090 f i BaseChan.obj
 0001:000050c0       ??$unchecked_uninitialized_fill_n@PAUPRT_COND_T@@IU1@V?$allocator@UPRT_COND_T@@@std@@@stdext@@YAXPAUPRT_COND_T@@IABU1@AAV?$allocator@UPRT_COND_T@@@std@@@Z 100060c0 f i BaseChan.obj
 0001:000050f0       ??$fill@PAUPRT_COND_T@@U1@@std@@YAXPAUPRT_COND_T@@0ABU1@@Z 100060f0 f i BaseChan.obj
 0001:00005100       ??$_Unchecked_move_backward@PAUPRT_COND_T@@PAU1@@stdext@@YAPAUPRT_COND_T@@PAU1@00@Z 10006100 f i BaseChan.obj
 0001:00005130       ??$_Uninit_move@PAUPRT_COND_T@@PAU1@V?$allocator@UPRT_COND_T@@@std@@U_Undefined_move_tag@3@@std@@YAPAUPRT_COND_T@@PAU1@00AAV?$allocator@UPRT_COND_T@@@0@U_Undefined_move_tag@0@U_Range_checked_iterator_tag@0@@Z 10006130 f i BaseChan.obj
 0001:00005160       ??_GCBaseChannel@@UAEPAXI@Z 10006160 f i BaseChan.obj
 0001:00005160       ??_ECBaseChannel@@UAEPAXI@Z 10006160 f i BaseChan.obj
 0001:00005180       ?erase@?$vector@UPRT_COND_T@@V?$allocator@UPRT_COND_T@@@std@@@std@@QAE?AV?$_Vector_iterator@UPRT_COND_T@@V?$allocator@UPRT_COND_T@@@std@@@2@V?$_Vector_const_iterator@UPRT_COND_T@@V?$allocator@UPRT_COND_T@@@std@@@2@0@Z 10006180 f i BaseChan.obj
 0001:000051e0       ?_Ufill@?$vector@UPRT_COND_T@@V?$allocator@UPRT_COND_T@@@std@@@std@@IAEPAUPRT_COND_T@@PAU3@IABU3@@Z 100061e0 f i BaseChan.obj
 0001:00005220       ??$_Unchecked_uninitialized_move@PAUPRT_COND_T@@PAU1@V?$allocator@UPRT_COND_T@@@std@@@stdext@@YAPAUPRT_COND_T@@PAU1@00AAV?$allocator@UPRT_COND_T@@@std@@@Z 10006220 f i BaseChan.obj
 0001:00005250       ?clear@?$vector@UPRT_COND_T@@V?$allocator@UPRT_COND_T@@@std@@@std@@QAEXXZ 10006250 f i BaseChan.obj
 0001:00005270       ??$_Umove@PAUPRT_COND_T@@@?$vector@UPRT_COND_T@@V?$allocator@UPRT_COND_T@@@std@@@std@@IAEPAUPRT_COND_T@@PAU2@00@Z 10006270 f i BaseChan.obj
 0001:000052a0       ?Close@CBaseChannel@@UAEXXZ 100062a0 f   BaseChan.obj
 0001:000055a0       ?Clear@CBaseChannel@@UAEHXZ 100065a0 f   BaseChan.obj
 0001:000057f0       ?_Insert_n@?$vector@UPRT_COND_T@@V?$allocator@UPRT_COND_T@@@std@@@std@@IAEXV?$_Vector_const_iterator@UPRT_COND_T@@V?$allocator@UPRT_COND_T@@@std@@@2@IABUPRT_COND_T@@@Z 100067f0 f i BaseChan.obj
 0001:00005b40       ?insert@?$vector@UPRT_COND_T@@V?$allocator@UPRT_COND_T@@@std@@@std@@QAE?AV?$_Vector_iterator@UPRT_COND_T@@V?$allocator@UPRT_COND_T@@@std@@@2@V?$_Vector_const_iterator@UPRT_COND_T@@V?$allocator@UPRT_COND_T@@@std@@@2@ABUPRT_COND_T@@@Z 10006b40 f i BaseChan.obj
 0001:00005bb0       ?push_back@?$vector@UPRT_COND_T@@V?$allocator@UPRT_COND_T@@@std@@@std@@QAEXABUPRT_COND_T@@@Z 10006bb0 f i BaseChan.obj
 0001:00005c40       ?AddCond@CBaseChannel@@MAEHPAXH@Z 10006c40 f   BaseChan.obj
 0001:00005e10       ?AddCond@CBaseChannel@@IAEHPAUPRT_COND_T@@@Z 10006e10 f   BaseChan.obj
 0001:00005f90       ?FindPackage@CBaseChannel@@MAEPAUPRT_BUFF@@PAUPRT_READ_T@@_N@Z 10006f90 f   BaseChan.obj
 0001:00006290       ??0CBmChannel@@QAE@XZ      10007290 f   BmChannel.obj
 0001:00006340       ??1CBmChannel@@UAE@XZ      10007340 f   BmChannel.obj
 0001:000063b0       ?SetProperty@CBmChannel@@UAEHJKPBX@Z 100073b0 f   BmChannel.obj
 0001:000063f0       ?Write@CBmChannel@@UAEKPAXKK@Z 100073f0 f   BmChannel.obj
 0001:00006660       ?CompareCond@CBmChannel@@MAE_NPAX0_N@Z 10007660 f   BmChannel.obj
 0001:00006670       ?GetCondition@CBmChannel@@MAEPAXPAXI_N@Z 10007670 f   BmChannel.obj
 0001:000066a0       ?CopyCondition@CBmChannel@@MAEPAXPAX@Z 100076a0 f   BmChannel.obj
 0001:000066b0       ?FreeCondition@CBmChannel@@MAEXPAX@Z 100076b0 f   BmChannel.obj
 0001:000066c0       ??_ECBmChannel@@UAEPAXI@Z  100076c0 f i BmChannel.obj
 0001:000066c0       ??_GCBmChannel@@UAEPAXI@Z  100076c0 f i BmChannel.obj
 0001:000066e0       ??0CBmPackage@@QAE@XZ      100076e0 f   BmPackage.obj
 0001:00006720       ??1CBmPackage@@UAE@XZ      10007720 f   BmPackage.obj
 0001:00006730       ?CheckLength@CBmPackage@@MAE_NXZ 10007730 f   BmPackage.obj
 0001:00006820       ?SetProperty@CBmPackage@@UAE_NJIPBX@Z 10007820 f   BmPackage.obj
 0001:00006850       ?Package@CBmPackage@@UAEIPAXHPAPAXPAH@Z 10007850 f   BmPackage.obj
 0001:00006a60       ??_GCBmPackage@@UAEPAXI@Z  10007a60 f i BmPackage.obj
 0001:00006a60       ??_ECBmPackage@@UAEPAXI@Z  10007a60 f i BmPackage.obj
 0001:00006a90       _crc_16_l_calc             10007a90 f   crc.obj
 0001:00006ae0       _frm_chk                   10007ae0 f   crc.obj
 0001:00006b40       ?LoadChannelLib@@YAHXZ     10007b40 f   DiagChan.obj
 0001:00006c20       ?FreeChannelLib@@YAXXZ     10007c20 f   DiagChan.obj
 0001:00006c40       _CreateDiagChannel         10007c40 f   DiagChan.obj
 0001:00006c80       _ReleaseDiagChannel        10007c80 f   DiagChan.obj
 0001:00006ca0       _CreateDiagPackage         10007ca0 f   DiagChan.obj
 0001:00006ce0       _ReleaseDiagPackage        10007ce0 f   DiagChan.obj
 0001:00006d00       _CreateBmChannel           10007d00 f   DiagChan.obj
 0001:00006d40       _ReleaseBmChannel          10007d40 f   DiagChan.obj
 0001:00006d60       _CreateBmPackage           10007d60 f   DiagChan.obj
 0001:00006da0       _ReleaseBmPackage          10007da0 f   DiagChan.obj
 0001:00006dc0       _CreateProtoChannel        10007dc0 f   DiagChan.obj
 0001:00006e50       _ReleaseProtoChannel       10007e50 f   DiagChan.obj
 0001:00006e70       _CreateProtoPackage        10007e70 f   DiagChan.obj
 0001:00006f00       _ReleaseProtoPackage       10007f00 f   DiagChan.obj
 0001:00006f20       _DllMain@12                10007f20 f   DiagChan.obj
 0001:00006f70       ?wcsrchr@@YAPA_WPA_W_W@Z   10007f70 f i DiagChannel.obj
 0001:00006f80       ??1CDiagChannel@@UAE@XZ    10007f80 f   DiagChannel.obj
 0001:00006ff0       ?CompareCond@CDiagChannel@@MAE_NPAX0_N@Z 10007ff0 f   DiagChannel.obj
 0001:00007070       ?GetCondition@CDiagChannel@@MAEPAXPAXI_N@Z 10008070 f   DiagChannel.obj
 0001:00007270       ?CopyCondition@CDiagChannel@@MAEPAXPAX@Z 10008270 f   DiagChannel.obj
 0001:000072a0       ?FreeCondition@CDiagChannel@@MAEXPAX@Z 100082a0 f   DiagChannel.obj
 0001:000072c0       ?IsLastPackage@CDiagChannel@@MAE_NPAX@Z 100082c0 f   DiagChannel.obj
 0001:00007310       ?LoadTypeDef@CDiagChannel@@IAEXXZ 10008310 f   DiagChannel.obj
 0001:00007430       ?GetProperty@CDiagChannel@@UAEHJKPAX@Z 10008430 f   DiagChannel.obj
 0001:00007470       ?SetProperty@CDiagChannel@@UAEHJKPBX@Z 10008470 f   DiagChannel.obj
 0001:000074d0       ??0CDiagChannel@@QAE@XZ    100084d0 f   DiagChannel.obj
 0001:00007590       ??_ECDiagChannel@@UAEPAXI@Z 10008590 f i DiagChannel.obj
 0001:00007590       ??_GCDiagChannel@@UAEPAXI@Z 10008590 f i DiagChannel.obj
 0001:000075b0       ??0_Aux_cont@std@@QAE@QBV_Container_base_aux@1@@Z 100085b0 f i DiagPackage.obj
 0001:000075c0       ?_Getcont@_Aux_cont@std@@QBEPBV_Container_base_aux@2@XZ 100085c0 f i DiagPackage.obj
 0001:000075d0       ??0_Container_base_aux@std@@QAE@XZ 100085d0 f i DiagPackage.obj
 0001:000075e0       ??1_Container_base_aux@std@@QAE@XZ 100085e0 f i DiagPackage.obj
 0001:000075f0       ??0_Iterator_base_aux@std@@QAE@XZ 100085f0 f i DiagPackage.obj
 0001:00007600       ?_Set_container@_Iterator_base_aux@std@@QAEXQBV_Container_base_aux@2@@Z 10008600 f i DiagPackage.obj
 0001:00007610       ?_Getmycont@_Iterator_base_aux@std@@QBEPBV_Container_base_aux@2@XZ 10008610 f i DiagPackage.obj
 0001:00007620       ?_Same_container@_Iterator_base_aux@std@@QBE_NABV12@@Z 10008620 f i DiagPackage.obj
 0001:00007640       ??0IProtocolPackage@@QAE@XZ 10008640 f i DiagPackage.obj
 0001:00007650       ?FreeMem@CDiagPackage@@UAEXPAX@Z 10008650 f   DiagPackage.obj
 0001:00007660       ?GetProperty@CDiagPackage@@UAE_NJIPAX@Z 10008660 f   DiagPackage.obj
 0001:000076c0       ?SetProperty@CDiagPackage@@UAE_NJIPBX@Z 100086c0 f   DiagPackage.obj
 0001:00007730       ?LockPakcageList@CDiagPackage@@IAEX_N@Z 10008730 f   DiagPackage.obj
 0001:00007750       ?AddPackage@CDiagPackage@@MAE_NXZ 10008750 f   DiagPackage.obj
 0001:00007780       ?CheckLength@CDiagPackage@@MAE_NXZ 10008780 f   DiagPackage.obj
 0001:00007890       ?Copy@CDiagPackage@@IAEXPAEAAHPBEH@Z 10008890 f   DiagPackage.obj
 0001:000078f0       ?CheckIsDataModeSwitch@CDiagPackage@@IAE_NXZ 100088f0 f   DiagPackage.obj
 0001:00007920       ?size@?$deque@PAUPRT_BUFF@@V?$allocator@PAUPRT_BUFF@@@std@@@std@@QBEIXZ 10008920 f i DiagPackage.obj
 0001:00007930       ?empty@?$deque@PAUPRT_BUFF@@V?$allocator@PAUPRT_BUFF@@@std@@@std@@QBE_NXZ 10008930 f i DiagPackage.obj
 0001:00007940       ?deallocate@?$allocator@PAUPRT_BUFF@@@std@@QAEXPAPAUPRT_BUFF@@I@Z 10008940 f i DiagPackage.obj
 0001:00007950       ?deallocate@?$allocator@V_Aux_cont@std@@@std@@QAEXPAV_Aux_cont@2@I@Z 10008950 f i DiagPackage.obj
 0001:00007960       ?deallocate@?$allocator@PAPAUPRT_BUFF@@@std@@QAEXPAPAPAUPRT_BUFF@@I@Z 10008960 f i DiagPackage.obj
 0001:00007970       ??D?$_Deque_const_iterator@PAUPRT_BUFF@@V?$allocator@PAUPRT_BUFF@@@std@@$0A@@std@@QBEABQAUPRT_BUFF@@XZ 10008970 f i DiagPackage.obj
 0001:000079c0       ??G?$_Deque_const_iterator@PAUPRT_BUFF@@V?$allocator@PAUPRT_BUFF@@@std@@$0A@@std@@QBEHABV01@@Z 100089c0 f i DiagPackage.obj
 0001:000079d0       ??0?$_Ranit_base@PAUPRT_BUFF@@HPBQAU1@ABQAU1@V_Iterator_base_aux@std@@@std@@QAE@XZ 100089d0 f i DiagPackage.obj
 0001:000079e0       ??Y?$_Deque_const_iterator@PAUPRT_BUFF@@V?$allocator@PAUPRT_BUFF@@@std@@$0A@@std@@QAEAAV01@H@Z 100089e0 f i DiagPackage.obj
 0001:000079f0       ??$_Allocate@PAUPRT_BUFF@@@std@@YAPAPAUPRT_BUFF@@IPAPAU1@@Z 100089f0 f i DiagPackage.obj
 0001:00007a50       ??$_Destroy@PAUPRT_BUFF@@@std@@YAXPAPAUPRT_BUFF@@@Z 10008a50 f i DiagPackage.obj
 0001:00007a60       ??$?0PAUPRT_BUFF@@@?$allocator@PAPAUPRT_BUFF@@@std@@QAE@ABV?$allocator@PAUPRT_BUFF@@@1@@Z 10008a60 f i DiagPackage.obj
 0001:00007a70       ??$_Allocate@PAPAUPRT_BUFF@@@std@@YAPAPAPAUPRT_BUFF@@IPAPAPAU1@@Z 10008a70 f i DiagPackage.obj
 0001:00007ad0       ??$_Destroy@PAPAUPRT_BUFF@@@std@@YAXPAPAPAUPRT_BUFF@@@Z 10008ad0 f i DiagPackage.obj
 0001:00007ae0       ??$?0PAUPRT_BUFF@@@?$allocator@V_Aux_cont@std@@@std@@QAE@ABV?$allocator@PAUPRT_BUFF@@@1@@Z 10008ae0 f i DiagPackage.obj
 0001:00007af0       ??$_Allocate@V_Aux_cont@std@@@std@@YAPAV_Aux_cont@0@IPAV10@@Z 10008af0 f i DiagPackage.obj
 0001:00007b50       ??$_Iter_random@V?$_Deque_iterator@PAUPRT_BUFF@@V?$allocator@PAUPRT_BUFF@@@std@@$0A@@std@@V12@@std@@YA?AUrandom_access_iterator_tag@0@ABV?$_Deque_iterator@PAUPRT_BUFF@@V?$allocator@PAUPRT_BUFF@@@std@@$0A@@0@0@Z 10008b50 f i DiagPackage.obj
 0001:00007b60       ??$_Ptr_cat@V?$_Deque_iterator@PAUPRT_BUFF@@V?$allocator@PAUPRT_BUFF@@@std@@$0A@@std@@V12@@std@@YA?AU_Nonscalar_ptr_iterator_tag@0@AAV?$_Deque_iterator@PAUPRT_BUFF@@V?$allocator@PAUPRT_BUFF@@@std@@$0A@@0@0@Z 10008b60 f i DiagPackage.obj
 0001:00007b70       ??$_Ptr_cat@PAPAPAUPRT_BUFF@@PAPAPAU1@@std@@YA?AU_Scalar_ptr_iterator_tag@0@AAPAPAPAUPRT_BUFF@@0@Z 10008b70 f i DiagPackage.obj
 0001:00007b80       ??$_Uninit_copy@PAPAPAUPRT_BUFF@@PAPAPAU1@V?$allocator@PAPAUPRT_BUFF@@@std@@@std@@YAPAPAPAUPRT_BUFF@@PAPAPAU1@00AAV?$allocator@PAPAUPRT_BUFF@@@0@U_Scalar_ptr_iterator_tag@0@U_Range_checked_iterator_tag@0@@Z 10008b80 f i DiagPackage.obj
 0001:00007bc0       ??$_Destroy_range@V?$allocator@PAPAUPRT_BUFF@@@std@@@std@@YAXPAPAPAUPRT_BUFF@@0AAV?$allocator@PAPAUPRT_BUFF@@@0@U_Scalar_ptr_iterator_tag@0@@Z 10008bc0 f i DiagPackage.obj
 0001:00007bd0       ??E?$_Deque_const_iterator@PAUPRT_BUFF@@V?$allocator@PAUPRT_BUFF@@@std@@$0A@@std@@QAEAAV01@XZ 10008bd0 f i DiagPackage.obj
 0001:00007be0       ??F?$_Deque_const_iterator@PAUPRT_BUFF@@V?$allocator@PAUPRT_BUFF@@@std@@$0A@@std@@QAEAAV01@XZ 10008be0 f i DiagPackage.obj
 0001:00007bf0       ??8?$_Deque_const_iterator@PAUPRT_BUFF@@V?$allocator@PAUPRT_BUFF@@@std@@$0A@@std@@QBE_NABV01@@Z 10008bf0 f i DiagPackage.obj
 0001:00007c10       ??$_Iter_cat@PAPAPAUPRT_BUFF@@@std@@YA?AUrandom_access_iterator_tag@0@ABQAPAPAUPRT_BUFF@@@Z 10008c10 f i DiagPackage.obj
 0001:00007c20       ??$_Fill_n@PAPAPAUPRT_BUFF@@IPAPAU1@@std@@YAXPAPAPAUPRT_BUFF@@IABQAPAU1@U_Range_checked_iterator_tag@0@@Z 10008c20 f i DiagPackage.obj
 0001:00007c40       ?Package@CDiagPackage@@UAEIPAXHPAPAXPAH@Z 10008c40 f   DiagPackage.obj
 0001:00007f50       ?PackageQueryEndianCmd@CDiagPackage@@IAEIPAXHPAPAXPAH@Z 10008f50 f   DiagPackage.obj
 0001:000080d0       ??1?$_Container_base_aux_alloc_real@V?$allocator@PAUPRT_BUFF@@@std@@@std@@IAE@XZ 100090d0 f i DiagPackage.obj
 0001:000080e0       ?allocate@?$allocator@PAUPRT_BUFF@@@std@@QAEPAPAUPRT_BUFF@@I@Z 100090e0 f i DiagPackage.obj
 0001:00008100       ?destroy@?$allocator@PAUPRT_BUFF@@@std@@QAEXPAPAUPRT_BUFF@@@Z 10009100 f i DiagPackage.obj
 0001:00008110       ??D?$_Deque_iterator@PAUPRT_BUFF@@V?$allocator@PAUPRT_BUFF@@@std@@$0A@@std@@QBEAAPAUPRT_BUFF@@XZ 10009110 f i DiagPackage.obj
 0001:00008160       ??G?$_Deque_iterator@PAUPRT_BUFF@@V?$allocator@PAUPRT_BUFF@@@std@@$0A@@std@@QBEHABV?$_Deque_const_iterator@PAUPRT_BUFF@@V?$allocator@PAUPRT_BUFF@@@std@@$0A@@1@@Z 10009160 f i DiagPackage.obj
 0001:00008170       ?max_size@?$deque@PAUPRT_BUFF@@V?$allocator@PAUPRT_BUFF@@@std@@@std@@QBEIXZ 10009170 f i DiagPackage.obj
 0001:00008180       ?allocate@?$allocator@PAPAUPRT_BUFF@@@std@@QAEPAPAPAUPRT_BUFF@@I@Z 10009180 f i DiagPackage.obj
 0001:000081a0       ?destroy@?$allocator@PAPAUPRT_BUFF@@@std@@QAEXPAPAPAUPRT_BUFF@@@Z 100091a0 f i DiagPackage.obj
 0001:000081b0       ??Y?$_Deque_iterator@PAUPRT_BUFF@@V?$allocator@PAUPRT_BUFF@@@std@@$0A@@std@@QAEAAV01@H@Z 100091b0 f i DiagPackage.obj
 0001:000081c0       ??0?$_Deque_const_iterator@PAUPRT_BUFF@@V?$allocator@PAUPRT_BUFF@@@std@@$0A@@std@@QAE@IPBV_Container_base_aux@1@@Z 100091c0 f i DiagPackage.obj
 0001:000081e0       ?allocate@?$allocator@V_Aux_cont@std@@@std@@QAEPAV_Aux_cont@2@I@Z 100091e0 f i DiagPackage.obj
 0001:00008200       ??$unchecked_uninitialized_copy@PAPAPAUPRT_BUFF@@PAPAPAU1@V?$allocator@PAPAUPRT_BUFF@@@std@@@stdext@@YAPAPAPAUPRT_BUFF@@PAPAPAU1@00AAV?$allocator@PAPAUPRT_BUFF@@@std@@@Z 10009200 f i DiagPackage.obj
 0001:00008240       ??$_Destroy_range@V?$allocator@PAPAUPRT_BUFF@@@std@@@std@@YAXPAPAPAUPRT_BUFF@@0AAV?$allocator@PAPAUPRT_BUFF@@@0@@Z 10009240 f i DiagPackage.obj
 0001:00008250       ??E?$_Deque_iterator@PAUPRT_BUFF@@V?$allocator@PAUPRT_BUFF@@@std@@$0A@@std@@QAEAAV01@XZ 10009250 f i DiagPackage.obj
 0001:00008260       ??F?$_Deque_iterator@PAUPRT_BUFF@@V?$allocator@PAUPRT_BUFF@@@std@@$0A@@std@@QAEAAV01@XZ 10009260 f i DiagPackage.obj
 0001:00008270       ??9?$_Deque_const_iterator@PAUPRT_BUFF@@V?$allocator@PAUPRT_BUFF@@@std@@$0A@@std@@QBE_NABV01@@Z 10009270 f i DiagPackage.obj
 0001:000082b0       ??$_Fill_n@PAPAPAUPRT_BUFF@@IPAPAU1@Urandom_access_iterator_tag@std@@@std@@YAXPAPAPAUPRT_BUFF@@IABQAPAU1@Urandom_access_iterator_tag@0@U_Range_checked_iterator_tag@0@@Z 100092b0 f i DiagPackage.obj
 0001:000082d0       ?pop_front@?$deque@PAUPRT_BUFF@@V?$allocator@PAUPRT_BUFF@@@std@@@std@@QAEXXZ 100092d0 f i DiagPackage.obj
 0001:00008310       ??1?$_Deque_map@PAUPRT_BUFF@@V?$allocator@PAUPRT_BUFF@@@std@@@std@@QAE@XZ 10009310 f i DiagPackage.obj
 0001:00008320       ?pop_back@?$deque@PAUPRT_BUFF@@V?$allocator@PAUPRT_BUFF@@@std@@@std@@QAEXXZ 10009320 f i DiagPackage.obj
 0001:00008340       ?_Tidy@?$deque@PAUPRT_BUFF@@V?$allocator@PAUPRT_BUFF@@@std@@@std@@IAEXXZ 10009340 f i DiagPackage.obj
 0001:000083b0       ??0?$_Deque_iterator@PAUPRT_BUFF@@V?$allocator@PAUPRT_BUFF@@@std@@$0A@@std@@QAE@IPBV_Container_base_aux@1@@Z 100093b0 f i DiagPackage.obj
 0001:000083d0       ??H?$_Deque_iterator@PAUPRT_BUFF@@V?$allocator@PAUPRT_BUFF@@@std@@$0A@@std@@QBE?AV01@H@Z 100093d0 f i DiagPackage.obj
 0001:000083f0       ??0?$_Container_base_aux_alloc_real@V?$allocator@PAUPRT_BUFF@@@std@@@std@@IAE@V?$allocator@PAUPRT_BUFF@@@1@@Z 100093f0 f i DiagPackage.obj
 0001:00008420       ??$_Copy_backward_opt@V?$_Deque_iterator@PAUPRT_BUFF@@V?$allocator@PAUPRT_BUFF@@@std@@$0A@@std@@V12@Urandom_access_iterator_tag@2@@std@@YA?AV?$_Deque_iterator@PAUPRT_BUFF@@V?$allocator@PAUPRT_BUFF@@@std@@$0A@@0@V10@00Urandom_access_iterator_tag@0@U_Nonscalar_ptr_iterator_tag@0@U_Range_checked_iterator_tag@0@@Z 10009420 f i DiagPackage.obj
 0001:000084f0       ??$_Copy_opt@V?$_Deque_iterator@PAUPRT_BUFF@@V?$allocator@PAUPRT_BUFF@@@std@@$0A@@std@@V12@Urandom_access_iterator_tag@2@@std@@YA?AV?$_Deque_iterator@PAUPRT_BUFF@@V?$allocator@PAUPRT_BUFF@@@std@@$0A@@0@V10@00Urandom_access_iterator_tag@0@U_Nonscalar_ptr_iterator_tag@0@U_Range_checked_iterator_tag@0@@Z 100094f0 f i DiagPackage.obj
 0001:000085b0       ??$unchecked_fill_n@PAPAPAUPRT_BUFF@@IPAPAU1@@stdext@@YAXPAPAPAUPRT_BUFF@@IABQAPAU1@@Z 100095b0 f i DiagPackage.obj
 0001:000085d0       ?begin@?$deque@PAUPRT_BUFF@@V?$allocator@PAUPRT_BUFF@@@std@@@std@@QAE?AV?$_Deque_iterator@PAUPRT_BUFF@@V?$allocator@PAUPRT_BUFF@@@std@@$0A@@2@XZ 100095d0 f i DiagPackage.obj
 0001:000085f0       ?end@?$deque@PAUPRT_BUFF@@V?$allocator@PAUPRT_BUFF@@@std@@@std@@QAE?AV?$_Deque_iterator@PAUPRT_BUFF@@V?$allocator@PAUPRT_BUFF@@@std@@$0A@@2@XZ 100095f0 f i DiagPackage.obj
 0001:00008610       ?front@?$deque@PAUPRT_BUFF@@V?$allocator@PAUPRT_BUFF@@@std@@@std@@QAEAAPAUPRT_BUFF@@XZ 10009610 f i DiagPackage.obj
 0001:00008660       ??1?$_Deque_val@PAUPRT_BUFF@@V?$allocator@PAUPRT_BUFF@@@std@@@std@@QAE@XZ 10009660 f i DiagPackage.obj
 0001:00008670       ?_Make_iter@?$deque@PAUPRT_BUFF@@V?$allocator@PAUPRT_BUFF@@@std@@@std@@QBE?AV?$_Deque_iterator@PAUPRT_BUFF@@V?$allocator@PAUPRT_BUFF@@@std@@$0A@@2@V?$_Deque_const_iterator@PAUPRT_BUFF@@V?$allocator@PAUPRT_BUFF@@@std@@$0A@@2@@Z 10009670 f i DiagPackage.obj
 0001:00008690       ??0?$_Deque_map@PAUPRT_BUFF@@V?$allocator@PAUPRT_BUFF@@@std@@@std@@IAE@V?$allocator@PAUPRT_BUFF@@@1@@Z 10009690 f i DiagPackage.obj
 0001:000086c0       ??$copy_backward@V?$_Deque_iterator@PAUPRT_BUFF@@V?$allocator@PAUPRT_BUFF@@@std@@$0A@@std@@V12@@std@@YA?AV?$_Deque_iterator@PAUPRT_BUFF@@V?$allocator@PAUPRT_BUFF@@@std@@$0A@@0@V10@00@Z 100096c0 f i DiagPackage.obj
 0001:00008710       ??$copy@V?$_Deque_iterator@PAUPRT_BUFF@@V?$allocator@PAUPRT_BUFF@@@std@@$0A@@std@@V12@@std@@YA?AV?$_Deque_iterator@PAUPRT_BUFF@@V?$allocator@PAUPRT_BUFF@@@std@@$0A@@0@V10@00@Z 10009710 f i DiagPackage.obj
 0001:00008760       ??$_Uninit_fill_n@PAPAPAUPRT_BUFF@@IPAPAU1@V?$allocator@PAPAUPRT_BUFF@@@std@@@std@@YAXPAPAPAUPRT_BUFF@@IABQAPAU1@AAV?$allocator@PAPAUPRT_BUFF@@@0@U_Scalar_ptr_iterator_tag@0@U_Range_checked_iterator_tag@0@@Z 10009760 f i DiagPackage.obj
 0001:00008780       ?GetPackages@CDiagPackage@@UAEIPAXH@Z 10009780 f   DiagPackage.obj
 0001:00008880       ??1?$deque@PAUPRT_BUFF@@V?$allocator@PAUPRT_BUFF@@@std@@@std@@QAE@XZ 10009880 f i DiagPackage.obj
 0001:000088a0       ?erase@?$deque@PAUPRT_BUFF@@V?$allocator@PAUPRT_BUFF@@@std@@@std@@QAE?AV?$_Deque_iterator@PAUPRT_BUFF@@V?$allocator@PAUPRT_BUFF@@@std@@$0A@@2@V?$_Deque_const_iterator@PAUPRT_BUFF@@V?$allocator@PAUPRT_BUFF@@@std@@$0A@@2@0@Z 100098a0 f i DiagPackage.obj
 0001:000089a0       ??0?$_Deque_val@PAUPRT_BUFF@@V?$allocator@PAUPRT_BUFF@@@std@@@std@@IAE@V?$allocator@PAUPRT_BUFF@@@1@@Z 100099a0 f i DiagPackage.obj
 0001:000089d0       ??$unchecked_uninitialized_fill_n@PAPAPAUPRT_BUFF@@IPAPAU1@V?$allocator@PAPAUPRT_BUFF@@@std@@@stdext@@YAXPAPAPAUPRT_BUFF@@IABQAPAU1@AAV?$allocator@PAPAUPRT_BUFF@@@std@@@Z 100099d0 f i DiagPackage.obj
 0001:000089f0       ??1CDiagPackage@@UAE@XZ    100099f0 f   DiagPackage.obj
 0001:00008a20       ?Clear@CDiagPackage@@UAEXXZ 10009a20 f   DiagPackage.obj
 0001:00008ab0       ??0?$deque@PAUPRT_BUFF@@V?$allocator@PAUPRT_BUFF@@@std@@@std@@QAE@XZ 10009ab0 f i DiagPackage.obj
 0001:00008af0       ??0CDiagPackage@@QAE@XZ    10009af0 f   DiagPackage.obj
 0001:00008bb0       ??_GCDiagPackage@@UAEPAXI@Z 10009bb0 f i DiagPackage.obj
 0001:00008bb0       ??_ECDiagPackage@@UAEPAXI@Z 10009bb0 f i DiagPackage.obj
 0001:00008c00       ?_Xlen@?$deque@PAUPRT_BUFF@@V?$allocator@PAUPRT_BUFF@@@std@@@std@@KAXXZ 10009c00 f i DiagPackage.obj
 0001:00008c80       ?_Growmap@?$deque@PAUPRT_BUFF@@V?$allocator@PAUPRT_BUFF@@@std@@@std@@IAEXI@Z 10009c80 f i DiagPackage.obj
 0001:00008de0       ?push_back@?$deque@PAUPRT_BUFF@@V?$allocator@PAUPRT_BUFF@@@std@@@std@@QAEXABQAUPRT_BUFF@@@Z 10009de0 f i DiagPackage.obj
 0001:00008e60       ?NoHeaderAppend@CDiagPackage@@MAEIPAXI@Z 10009e60 f   DiagPackage.obj
 0001:00009030       ?NoEscapeAppend@CDiagPackage@@MAEIPAXI@Z 1000a030 f   DiagPackage.obj
 0001:00009330       ?AddToPackageList@CDiagPackage@@MAEXXZ 1000a330 f   DiagPackage.obj
 0001:00009370       ?RawDataAppend@CDiagPackage@@IAEIPAXI@Z 1000a370 f   DiagPackage.obj
 0001:000093d0       ?Append@CDiagPackage@@UAEIPAXI@Z 1000a3d0 f   DiagPackage.obj
 0001:0000b0a0       _dlmalloc                  1000c0a0 f   dlmalloc.obj
 0001:0000b3c0       _dlfree                    1000c3c0 f   dlmalloc.obj
 0001:0000ba80       _dlcalloc                  1000ca80 f   dlmalloc.obj
 0001:0000bae0       _dlmalloc_trim             1000cae0 f   dlmalloc.obj
 0001:0000bba0       _dlmalloc_footprint        1000cba0 f   dlmalloc.obj
 0001:0000bbb0       _dlmalloc_max_footprint    1000cbb0 f   dlmalloc.obj
 0001:0000bbc0       _dlmallinfo                1000cbc0 f   dlmalloc.obj
 0001:0000bbf0       _dlmalloc_stats            1000cbf0 f   dlmalloc.obj
 0001:0000bc00       _dlmallopt                 1000cc00 f   dlmalloc.obj
 0001:0000bc20       _dlmalloc_usable_size      1000cc20 f   dlmalloc.obj
 0001:0000c2f0       _dlrealloc                 1000d2f0 f   dlmalloc.obj
 0001:0000c320       _dlmemalign                1000d320 f   dlmalloc.obj
 0001:0000c340       _dlindependent_calloc      1000d340 f   dlmalloc.obj
 0001:0000c370       _dlindependent_comalloc    1000d370 f   dlmalloc.obj
 0001:0000c390       _dlvalloc                  1000d390 f   dlmalloc.obj
 0001:0000c3c0       _dlpvalloc                 1000d3c0 f   dlmalloc.obj
 0001:0000c400       ??0CSmpChannel@@QAE@XZ     1000d400 f   SmpChannel.obj
 0001:0000c4b0       ??1CSmpChannel@@UAE@XZ     1000d4b0 f   SmpChannel.obj
 0001:0000c520       ?Read@CSmpChannel@@UAEKPAXKKK@Z 1000d520 f   SmpChannel.obj
 0001:0000c530       ?Write@CSmpChannel@@UAEKPAXKK@Z 1000d530 f   SmpChannel.obj
 0001:0000c540       ??_ECSmpChannel@@UAEPAXI@Z 1000d540 f i SmpChannel.obj
 0001:0000c540       ??_GCSmpChannel@@UAEPAXI@Z 1000d540 f i SmpChannel.obj
 0001:0000c560       ??0CSmpPackage@@QAE@XZ     1000d560 f   SmpPackage.obj
 0001:0000c590       ??1CSmpPackage@@UAE@XZ     1000d590 f   SmpPackage.obj
 0001:0000c5a0       ?GetSMPDataStatus@CSmpPackage@@IAE?AW4Diag_Pkg_Status@@PAEH@Z 1000d5a0 f   SmpPackage.obj
 0001:0000c5f0       ?Package@CSmpPackage@@UAEIPAXHPAPAXPAH@Z 1000d5f0 f   SmpPackage.obj
 0001:0000c6e0       ?CheckHeader@CSmpPackage@@MAE_NPAUSMP_HEADER@@@Z 1000d6e0 f   SmpPackage.obj
 0001:0000c700       ?SetProperty@CSmpPackage@@UAE_NJIPBX@Z 1000d700 f   SmpPackage.obj
 0001:0000c710       ?CheckLength@CSmpPackage@@MAE_NXZ 1000d710 f   SmpPackage.obj
 0001:0000c780       ??$_Dist_type@PAE@std@@YAPAHPAE@Z 1000d780 f i SmpPackage.obj
 0001:0000c790       ??$_Iter_cat@PAE@std@@YA?AUrandom_access_iterator_tag@0@ABQAE@Z 1000d790 f i SmpPackage.obj
 0001:0000c7a0       ??$_Distance2@PAEH@std@@YAXPAE0AAHUrandom_access_iterator_tag@0@@Z 1000d7a0 f i SmpPackage.obj
 0001:0000c7b0       ??_GCSmpPackage@@UAEPAXI@Z 1000d7b0 f i SmpPackage.obj
 0001:0000c7b0       ??_ECSmpPackage@@UAEPAXI@Z 1000d7b0 f i SmpPackage.obj
 0001:0000c7e0       ??$_Distance@PAEH@std@@YAXPAE0AAH@Z 1000d7e0 f i SmpPackage.obj
 0001:0000c7f0       ??$_Search@PAEPAEHH@std@@YAPAEPAE000PAH1@Z 1000d7f0 f i SmpPackage.obj
 0001:0000c840       ??$search@PAEPAE@std@@YAPAEPAE000@Z 1000d840 f i SmpPackage.obj
 0001:0000c870       ?Append@CSmpPackage@@UAEIPAXI@Z 1000d870 f   SmpPackage.obj
 0001:0000cc00       ?AddToPackageList@CSmpPackage@@MAEXXZ 1000dc00 f   SmpPackage.obj
 0001:0000cc50       ??1ISpLog@@UAE@XZ          1000dc50 f i SpLog.obj
 0001:0000cc60       ??_EISpLog@@UAEPAXI@Z      1000dc60 f i SpLog.obj
 0001:0000cc60       ??_GISpLog@@UAEPAXI@Z      1000dc60 f i SpLog.obj
 0001:0000cc80       ?GetLocalTime@CSpLog@@IBEPBDXZ 1000dc80 f i SpLog.obj
 0001:0000cce0       ?Lock@CSpLog@@IAEXXZ       1000dce0 f i SpLog.obj
 0001:0000ccf0       ?UnLock@CSpLog@@IAEXXZ     1000dcf0 f i SpLog.obj
 0001:0000cd00       ??0ISpLog@@QAE@XZ          1000dd00 f i SpLog.obj
 0001:0000cd10       ??1CSpLog@@UAE@XZ          1000dd10 f   SpLog.obj
 0001:0000cd30       ?Release@CSpLog@@UAEXXZ    1000dd30 f i SpLog.obj
 0001:0000cd40       ?Close@CSpLog@@UAEHXZ      1000dd40 f   SpLog.obj
 0001:0000cdd0       ?GetProperty@CSpLog@@UAEHJJPAX@Z 1000ddd0 f   SpLog.obj
 0001:0000d000       ?WriteConsoleWindow@CSpLog@@IAEXPBXK@Z 1000e000 f   SpLog.obj
 0001:0000d040       ?AllocConsoleWindow@CSpLog@@IAEXXZ 1000e040 f   SpLog.obj
 0001:0000d110       ?CreateMultiDirectory@CSpLog@@IAEHPB_W@Z 1000e110 f   SpLog.obj
 0001:0000d290       ?GetLogExtension@CSpLog@@IAEXPB_WPA_WH@Z 1000e290 f   SpLog.obj
 0001:0000d370       ?GetLogFilePath@CSpLog@@IAEXPB_WPA_WH@Z 1000e370 f   SpLog.obj
 0001:0000d5b0       ?GetBinFilePath@CSpLog@@IAEXPB_WPA_WH@Z 1000e5b0 f   SpLog.obj
 0001:0000d6d0       ?GetNextPartLog@CSpLog@@IAEXPB_WPA_WI@Z 1000e6d0 f   SpLog.obj
 0001:0000d7e0       ?OpenFile@CSpLog@@IAEPAXPB_W@Z 1000e7e0 f   SpLog.obj
 0001:0000d840       ??0CFnLog@@QAA@PAVISpLog@@PBD1ZZ 1000e840 f   SpLog.obj
 0001:0000d950       ??0CFnLog@@QAA@PAVISpLog@@PB_W1ZZ 1000e950 f   SpLog.obj
 0001:0000dab0       ??1CFnLog@@UAE@XZ          1000eab0 f   SpLog.obj
 0001:0000dae0       ??0CSpLog@@QAE@XZ          1000eae0 f   SpLog.obj
 0001:0000dd10       ??_GCSpLog@@UAEPAXI@Z      1000ed10 f i SpLog.obj
 0001:0000dd10       ??_ECSpLog@@UAEPAXI@Z      1000ed10 f i SpLog.obj
 0001:0000dd50       ?Open@CSpLog@@UAEHPB_WIII@Z 1000ed50 f   SpLog.obj
 0001:0000df00       ?SetProperty@CSpLog@@UAEHJJPBX@Z 1000ef00 f   SpLog.obj
 0001:0000e1b0       ?WriteLog@CSpLog@@IAEHAAPAXPB_WAAIPBXK@Z 1000f1b0 f   SpLog.obj
 0001:0000e2f0       ?LogString@CSpLog@@IAEHPBD@Z 1000f2f0 f   SpLog.obj
 0001:0000e3c0       ?LogHexData@CSpLog@@UAEHPBEKI@Z 1000f3c0 f   SpLog.obj
 0001:0000e420       ?LogRawStrA@CSpLog@@UAEHIPBD@Z 1000f420 f   SpLog.obj
 0001:0000e450       ?LogRawStrW@CSpLog@@UAEHIPB_W@Z 1000f450 f   SpLog.obj
 0001:0000e4f0       ?LogFmtStrA@CSpLog@@UAAHIPBDZZ 1000f4f0 f   SpLog.obj
 0001:0000e5b0       ?LogFmtStrW@CSpLog@@UAAHIPB_WZZ 1000f5b0 f   SpLog.obj
 0001:0000e6b0       ?LogBufData@CSpLog@@UAEHIPBEKIPBK@Z 1000f6b0 f   SpLog.obj
 0001:0000ea70       ??_ECFnLog@@UAEPAXI@Z      1000fa70 f i SpLog.obj
 0001:0000ea70       ??_GCFnLog@@UAEPAXI@Z      1000fa70 f i SpLog.obj
 0001:0000eac0       ?GetCurrentModule@@YAPAUHINSTANCE__@@XZ 1000fac0 f   StdAfx.obj
 0001:0000ead0       ?GetModuleFilePath@@YAXPAUHINSTANCE__@@PA_W@Z 1000fad0 f   StdAfx.obj
 0001:0000eb78       _CloseHandle@4             1000fb78 f   kernel32:KERNEL32.dll
 0001:0000eb7e       _WaitForSingleObject@8     1000fb7e f   kernel32:KERNEL32.dll
 0001:0000eb84       _Sleep@4                   1000fb84 f   kernel32:KERNEL32.dll
 0001:0000eb8a       _SetEvent@4                1000fb8a f   kernel32:KERNEL32.dll
 0001:0000eb90       _LeaveCriticalSection@4    1000fb90 f   kernel32:KERNEL32.dll
 0001:0000eb96       _EnterCriticalSection@4    1000fb96 f   kernel32:KERNEL32.dll
 0001:0000eb9c       _InterlockedDecrement@4    1000fb9c f   kernel32:KERNEL32.dll
 0001:0000eba2       _GetPrivateProfileIntW@16  1000fba2 f   kernel32:KERNEL32.dll
 0001:0000eba8       _ResetEvent@4              1000fba8 f   kernel32:KERNEL32.dll
 0001:0000ebae       _InterlockedIncrement@4    1000fbae f   kernel32:KERNEL32.dll
 0001:0000ebb4       _GetTickCount@0            1000fbb4 f   kernel32:KERNEL32.dll
 0001:0000ebba       _CreateEventW@16           1000fbba f   kernel32:KERNEL32.dll
 0001:0000ebc0       _InitializeCriticalSectionAndSpinCount@8 1000fbc0 f   kernel32:KERNEL32.dll
 0001:0000ebc6       _InitializeCriticalSection@4 1000fbc6 f   kernel32:KERNEL32.dll
 0001:0000ebcc       _DeleteCriticalSection@4   1000fbcc f   kernel32:KERNEL32.dll
 0001:0000ebd2       _GetProcAddress@8          1000fbd2 f   kernel32:KERNEL32.dll
 0001:0000ebd8       _LoadLibraryW@4            1000fbd8 f   kernel32:KERNEL32.dll
 0001:0000ebde       _FreeLibrary@4             1000fbde f   kernel32:KERNEL32.dll
 0001:0000ebe4       _GetModuleFileNameW@12     1000fbe4 f   kernel32:KERNEL32.dll
 0001:0000ebea       _VirtualAlloc@16           1000fbea f   kernel32:KERNEL32.dll
 0001:0000ebf0       _VirtualFree@12            1000fbf0 f   kernel32:KERNEL32.dll
 0001:0000ebf6       _VirtualQuery@12           1000fbf6 f   kernel32:KERNEL32.dll
 0001:0000ebfc       _SleepEx@8                 1000fbfc f   kernel32:KERNEL32.dll
 0001:0000ec02       _GetCurrentThreadId@0      1000fc02 f   kernel32:KERNEL32.dll
 0001:0000ec08       _GetSystemInfo@4           1000fc08 f   kernel32:KERNEL32.dll
 0001:0000ec0e       _GetLocalTime@4            1000fc0e f   kernel32:KERNEL32.dll
 0001:0000ec14       _FreeConsole@0             1000fc14 f   kernel32:KERNEL32.dll
 0001:0000ec1a       _FlushFileBuffers@4        1000fc1a f   kernel32:KERNEL32.dll
 0001:0000ec20       _IsBadWritePtr@8           1000fc20 f   kernel32:KERNEL32.dll
 0001:0000ec26       _WriteConsoleW@20          1000fc26 f   kernel32:KERNEL32.dll
 0001:0000ec2c       _GetConsoleWindow@0        1000fc2c f   kernel32:KERNEL32.dll
 0001:0000ec32       _SetConsoleTitleW@4        1000fc32 f   kernel32:KERNEL32.dll
 0001:0000ec38       _SetConsoleWindowInfo@12   1000fc38 f   kernel32:KERNEL32.dll
 0001:0000ec3e       _SetConsoleScreenBufferSize@8 1000fc3e f   kernel32:KERNEL32.dll
 0001:0000ec44       _GetStdHandle@4            1000fc44 f   kernel32:KERNEL32.dll
 0001:0000ec4a       _AllocConsole@0            1000fc4a f   kernel32:KERNEL32.dll
 0001:0000ec50       _GetLastError@0            1000fc50 f   kernel32:KERNEL32.dll
 0001:0000ec56       _CreateDirectoryW@8        1000fc56 f   kernel32:KERNEL32.dll
 0001:0000ec5c       _GetFileAttributesW@4      1000fc5c f   kernel32:KERNEL32.dll
 0001:0000ec62       _lstrlenW@4                1000fc62 f   kernel32:KERNEL32.dll
 0001:0000ec68       _SetFilePointer@16         1000fc68 f   kernel32:KERNEL32.dll
 0001:0000ec6e       _CreateFileW@28            1000fc6e f   kernel32:KERNEL32.dll
 0001:0000ec74       _WideCharToMultiByte@32    1000fc74 f   kernel32:KERNEL32.dll
 0001:0000ec7a       _GetTempPathW@8            1000fc7a f   kernel32:KERNEL32.dll
 0001:0000ec80       _WriteFile@20              1000fc80 f   kernel32:KERNEL32.dll
 0001:0000ec86       _GetFileSize@8             1000fc86 f   kernel32:KERNEL32.dll
 0001:0000ec8c       _lstrlenA@4                1000fc8c f   kernel32:KERNEL32.dll
 0001:0000ec92       _lstrcatA@8                1000fc92 f   kernel32:KERNEL32.dll
 0001:0000ec98       _PostThreadMessageW@16     1000fc98 f   user32:USER32.dll
 0001:0000ec9e       _GetMessageW@16            1000fc9e f   user32:USER32.dll
 0001:0000eca4       _ShowWindow@8              1000fca4 f   user32:USER32.dll
 0001:0000ecaa       _EnableMenuItem@12         1000fcaa f   user32:USER32.dll
 0001:0000ecb0       _GetSystemMenu@8           1000fcb0 f   user32:USER32.dll
 0001:0000ecb6       ??0invalid_argument@std@@QAE@ABV?$basic_string@DU?$char_traits@D@std@@V?$allocator@D@2@@1@@Z 1000fcb6 f i libcpmt:string.obj
 0001:0000ecd3       ??1invalid_argument@std@@UAE@XZ 1000fcd3 f i libcpmt:string.obj
 0001:0000ecde       ??_Einvalid_argument@std@@UAEPAXI@Z 1000fcde f i libcpmt:string.obj
 0001:0000ecde       ??_Ginvalid_argument@std@@UAEPAXI@Z 1000fcde f i libcpmt:string.obj
 0001:0000ed05       ??0out_of_range@std@@QAE@ABV?$basic_string@DU?$char_traits@D@std@@V?$allocator@D@2@@1@@Z 1000fd05 f i libcpmt:string.obj
 0001:0000ed22       ??1out_of_range@std@@UAE@XZ 1000fd22 f i libcpmt:string.obj
 0001:0000ed2d       ??_Gout_of_range@std@@UAEPAXI@Z 1000fd2d f i libcpmt:string.obj
 0001:0000ed2d       ??_Eout_of_range@std@@UAEPAXI@Z 1000fd2d f i libcpmt:string.obj
 0001:0000ed54       ?_Xlen@_String_base@std@@SAXXZ 1000fd54 f   libcpmt:string.obj
 0001:0000ed8c       ?_Xran@_String_base@std@@SAXXZ 1000fd8c f   libcpmt:string.obj
 0001:0000edc4       ?_Xinvarg@_String_base@std@@SAXXZ 1000fdc4 f   libcpmt:string.obj
 0001:0000edfc       ??0invalid_argument@std@@QAE@ABV01@@Z 1000fdfc f i libcpmt:string.obj
 0001:0000ee19       ??0out_of_range@std@@QAE@ABV01@@Z 1000fe19 f i libcpmt:string.obj
 0001:0000ee36       ??0exception@std@@QAE@XZ   1000fe36 f   LIBCMT:stdexcpt.obj
 0001:0000ee47       ??0exception@std@@QAE@ABQBD@Z 1000fe47 f   LIBCMT:stdexcpt.obj
 0001:0000ee9a       ??0exception@std@@QAE@ABQBDH@Z 1000fe9a f   LIBCMT:stdexcpt.obj
 0001:0000eeb7       ??0exception@std@@QAE@ABV01@@Z 1000feb7 f   LIBCMT:stdexcpt.obj
 0001:0000ef14       ??4exception@std@@QAEAAV01@ABV01@@Z 1000ff14 f   LIBCMT:stdexcpt.obj
 0001:0000ef6f       ??1exception@std@@UAE@XZ   1000ff6f f   LIBCMT:stdexcpt.obj
 0001:0000ef85       ?what@exception@std@@UBEPBDXZ 1000ff85 f   LIBCMT:stdexcpt.obj
 0001:0000ef92       ??0bad_cast@std@@QAE@PBD@Z 1000ff92 f   LIBCMT:stdexcpt.obj
 0001:0000efb0       ??0bad_cast@std@@QAE@ABV01@@Z 1000ffb0 f   LIBCMT:stdexcpt.obj
 0001:0000efcd       ??1bad_cast@std@@UAE@XZ    1000ffcd f   LIBCMT:stdexcpt.obj
 0001:0000efd8       ??0bad_typeid@std@@QAE@PBD@Z 1000ffd8 f   LIBCMT:stdexcpt.obj
 0001:0000eff6       ??0bad_typeid@std@@QAE@ABV01@@Z 1000fff6 f   LIBCMT:stdexcpt.obj
 0001:0000f013       ??1bad_typeid@std@@UAE@XZ  10010013 f   LIBCMT:stdexcpt.obj
 0001:0000f01e       ??0__non_rtti_object@std@@QAE@PBD@Z 1001001e f   LIBCMT:stdexcpt.obj
 0001:0000f03b       ??0__non_rtti_object@std@@QAE@ABV01@@Z 1001003b f   LIBCMT:stdexcpt.obj
 0001:0000f058       ??1__non_rtti_object@std@@UAE@XZ 10010058 f   LIBCMT:stdexcpt.obj
 0001:0000f063       ??_Gexception@std@@UAEPAXI@Z 10010063 f i LIBCMT:stdexcpt.obj
 0001:0000f063       ??_Eexception@std@@UAEPAXI@Z 10010063 f i LIBCMT:stdexcpt.obj
 0001:0000f084       ??_Gbad_cast@std@@UAEPAXI@Z 10010084 f i LIBCMT:stdexcpt.obj
 0001:0000f084       ??_Ebad_cast@std@@UAEPAXI@Z 10010084 f i LIBCMT:stdexcpt.obj
 0001:0000f0ab       ??_Gbad_typeid@std@@UAEPAXI@Z 100100ab f i LIBCMT:stdexcpt.obj
 0001:0000f0ab       ??_Ebad_typeid@std@@UAEPAXI@Z 100100ab f i LIBCMT:stdexcpt.obj
 0001:0000f0d2       ??_G__non_rtti_object@std@@UAEPAXI@Z 100100d2 f i LIBCMT:stdexcpt.obj
 0001:0000f0d2       ??_E__non_rtti_object@std@@UAEPAXI@Z 100100d2 f i LIBCMT:stdexcpt.obj
 0001:0000f0f9       ?name@type_info@@QBEPBDPAU__type_info_node@@@Z 100100f9 f   LIBCMT:typinfo.obj
 0001:0000f10d       ??1type_info@@UAE@XZ       1001010d f   LIBCMT:typinfo.obj
 0001:0000f11d       ??_Etype_info@@UAEPAXI@Z   1001011d f i LIBCMT:typinfo.obj
 0001:0000f11d       ??_Gtype_info@@UAEPAXI@Z   1001011d f i LIBCMT:typinfo.obj
 0001:0000f13e       ?_name_internal_method@type_info@@QBEPBDPAU__type_info_node@@@Z 1001013e f   LIBCMT:typinfo.obj
 0001:0000f152       ?_type_info_dtor_internal_method@type_info@@QAEXXZ 10010152 f   LIBCMT:typinfo.obj
 0001:0000f15c       ??8type_info@@QBE_NABV0@@Z 1001015c f   LIBCMT:typinfo.obj
 0001:0000f17c       ??9type_info@@QBE_NABV0@@Z 1001017c f   LIBCMT:typinfo.obj
 0001:0000f19d       ?before@type_info@@QBEHABV1@@Z 1001019d f   LIBCMT:typinfo.obj
 0001:0000f1c1       ?raw_name@type_info@@QBEPBDXZ 100101c1 f   LIBCMT:typinfo.obj
 0001:0000f1c5       ??0type_info@@AAE@ABV0@@Z  100101c5 f   LIBCMT:typinfo.obj
 0001:0000f1d0       ??4type_info@@AAEAAV0@ABV0@@Z 100101d0 f   LIBCMT:typinfo.obj
 0001:0000f1d5       ??3@YAXPAX@Z               100101d5 f   LIBCMT:delete.obj
 0001:0000f1e0       _memcpy_s                  100101e0 f   LIBCMT:memcpy_s.obj
 0001:0000f25d       _memmove_s                 1001025d f   LIBCMT:memmove_s.obj
 0001:0000f2ba       __purecall                 100102ba f   LIBCMT:purevirt.obj
 0001:0000f2e4       __set_purecall_handler     100102e4 f   LIBCMT:purevirt.obj
 0001:0000f30b       __get_purecall_handler     1001030b f   LIBCMT:purevirt.obj
 0001:0000f318       @__security_check_cookie@4 10010318 f   LIBCMT:secchk.obj
 0001:0000f330       _memset                    10010330 f   LIBCMT:memset.obj
 0001:0000f3aa       ??0bad_alloc@std@@QAE@XZ   100103aa f i LIBCMT:new.obj
 0001:0000f3c5       ??2@YAPAXI@Z               100103c5 f   LIBCMT:new.obj
 0001:0000f42a       __CxxThrowException@8      1001042a f   LIBCMT:throw.obj
 0001:0000f476       __endthreadex              10010476 f   LIBCMT:threadex.obj
 0001:0000f577       __beginthreadex            10010577 f   LIBCMT:threadex.obj
 0001:0000f630       _memcpy                    10010630 f   LIBCMT:memcpy.obj
 0001:0000f995       ?_JumpToContinuation@@YGXPAXPAUEHRegistrationNode@@@Z 10010995 f   LIBCMT:_trnsctrl_.obj
 0001:0000f9c7       ?_CallMemberFunction0@@YGXPAX0@Z 100109c7 f   LIBCMT:_trnsctrl_.obj
 0001:0000f9ce       ?_CallMemberFunction1@@YGXPAX00@Z 100109ce f   LIBCMT:_trnsctrl_.obj
 0001:0000f9d5       ?_CallMemberFunction2@@YGXPAX00H@Z 100109d5 f   LIBCMT:_trnsctrl_.obj
 0001:0000f9dc       ?_UnwindNestedFrames@@YGXPAUEHRegistrationNode@@PAUEHExceptionRecord@@@Z 100109dc f   LIBCMT:_trnsctrl_.obj
 0001:0000fa30       ___CxxFrameHandler         10010a30 f   LIBCMT:_trnsctrl_.obj
 0001:0000fa66       ___CxxFrameHandler3        10010a66 f   LIBCMT:_trnsctrl_.obj
 0001:0000fa9c       ___CxxFrameHandler2        10010a9c f   LIBCMT:_trnsctrl_.obj
 0001:0000fad2       ___CxxLongjmpUnwind@4      10010ad2 f   LIBCMT:_trnsctrl_.obj
 0001:0000fb24       ?_CallSETranslator@@YAHPAUEHExceptionRecord@@PAUEHRegistrationNode@@PAX2PBU_s_FuncInfo@@H1@Z 10010b24 f   LIBCMT:_trnsctrl_.obj
 0001:0000fc9a       ?_GetRangeOfTrysToCheck@@YAPBU_s_TryBlockMapEntry@@PBU_s_FuncInfo@@HHPAI1@Z 10010c9a f   LIBCMT:_trnsctrl_.obj
 0001:0000fd0f       __CreateFrameInfo          10010d0f f   LIBCMT:_trnsctrl_.obj
 0001:0000fd3b       __IsExceptionObjectToBeDestroyed 10010d3b f   LIBCMT:_trnsctrl_.obj
 0001:0000fd62       __FindAndUnlinkFrame       10010d62 f   LIBCMT:_trnsctrl_.obj
 0001:0000fdb4       ?_CallCatchBlock2@@YAPAXPAUEHRegistrationNode@@PBU_s_FuncInfo@@PAXHK@Z 10010db4 f   LIBCMT:_trnsctrl_.obj
 0001:0000fe14       _wcsrchr                   10010e14 f   LIBCMT:wcsrchr.obj
 0001:0000fe40       __alloca_probe             10010e40     LIBCMT:chkstk.obj
 0001:0000fe40       __chkstk                   10010e40 f   LIBCMT:chkstk.obj
 0001:0000fe6b       __fclose_nolock            10010e6b f   LIBCMT:fclose.obj
 0001:0000fee2       _fclose                    10010ee2 f   LIBCMT:fclose.obj
 0001:0000ff5e       _vfscanf                   10010f5e f   LIBCMT:fscanf.obj
 0001:00010068       _fscanf                    10011068 f   LIBCMT:fscanf.obj
 0001:00010088       __fscanf_l                 10011088 f   LIBCMT:fscanf.obj
 0001:000100a9       _fscanf_s                  100110a9 f   LIBCMT:fscanf.obj
 0001:000100c9       __fscanf_s_l               100110c9 f   LIBCMT:fscanf.obj
 0001:000100ea       _fgets                     100110ea f   LIBCMT:fgets.obj
 0001:00010232       __wfsopen                  10011232 f   LIBCMT:wfopen.obj
 0001:000102f8       __wfopen                   100112f8 f   LIBCMT:wfopen.obj
 0001:0001030f       __wfopen_s                 1001130f f   LIBCMT:wfopen.obj
 0001:00010362       _abort                     10011362 f   LIBCMT:abort.obj
 0001:00010479       __set_abort_behavior       10011479 f   LIBCMT:abort.obj
 0001:0001049a       _fprintf                   1001149a f   LIBCMT:fprintf.obj
 0001:000105b6       __fprintf_l                100115b6 f   LIBCMT:fprintf.obj
 0001:000105d2       __fprintf_s_l              100115d2 f   LIBCMT:fprintf.obj
 0001:000105ee       _fprintf_s                 100115ee f   LIBCMT:fprintf.obj
 0001:00010609       __fprintf_p_l              10011609 f   LIBCMT:fprintf.obj
 0001:00010625       __fprintf_p                10011625 f   LIBCMT:fprintf.obj
 0001:00010640       ___iob_func                10011640 f   LIBCMT:_file.obj
 0001:00010646       ___initstdio               10011646 f   LIBCMT:_file.obj
 0001:000106f7       ___endstdio                100116f7 f   LIBCMT:_file.obj
 0001:00010717       __lock_file                10011717 f   LIBCMT:_file.obj
 0001:00010758       __lock_file2               10011758 f   LIBCMT:_file.obj
 0001:0001078a       __unlock_file              1001178a f   LIBCMT:_file.obj
 0001:000107c6       __unlock_file2             100117c6 f   LIBCMT:_file.obj
 0001:00010800       _memmove                   10011800 f   LIBCMT:memmove.obj
 0001:00010b65       __snprintf                 10011b65 f   LIBCMT:snprintf.obj
 0001:00010c14       __snprintf_l               10011c14 f   LIBCMT:snprintf.obj
 0001:00010c33       _wcsncpy                   10011c33 f   LIBCMT:wcsncpy.obj
 0001:00010c7d       ??0_LocaleUpdate@@QAE@PAUlocaleinfo_struct@@@Z 10011c7d f i LIBCMT:wcsicmp.obj
 0001:00010d04       ??1_LocaleUpdate@@QAE@XZ   10011d04 f i LIBCMT:wcsicmp.obj
 0001:00010d12       ?GetLocaleT@_LocaleUpdate@@QAEPAUlocaleinfo_struct@@XZ 10011d12 f i LIBCMT:wcsicmp.obj
 0001:00010d15       __wcsicmp_l                10011d15 f   LIBCMT:wcsicmp.obj
 0001:00010e26       __wcsicmp                  10011e26 f   LIBCMT:wcsicmp.obj
 0001:00010eb9       __snwprintf                10011eb9 f   LIBCMT:snwprint.obj
 0001:00010f8c       __snwprintf_l              10011f8c f   LIBCMT:snwprint.obj
 0001:00010fab       __vsnprintf_l              10011fab f   LIBCMT:vsnprint.obj
 0001:0001105e       __vsnprintf                1001205e f   LIBCMT:vsnprint.obj
 0001:0001107b       __vsnwprintf_l             1001207b f   LIBCMT:vsnwprnt.obj
 0001:0001114f       __vsnwprintf               1001214f f   LIBCMT:vsnwprnt.obj
 0001:0001116c       __isalpha_l                1001216c f i LIBCMT:_ctype.obj
 0001:000111c2       _isalpha                   100121c2 f i LIBCMT:_ctype.obj
 0001:000111f2       __isupper_l                100121f2 f i LIBCMT:_ctype.obj
 0001:00011243       _isupper                   10012243 f i LIBCMT:_ctype.obj
 0001:00011271       __islower_l                10012271 f i LIBCMT:_ctype.obj
 0001:000112c2       _islower                   100122c2 f i LIBCMT:_ctype.obj
 0001:000112f0       __isdigit_l                100122f0 f i LIBCMT:_ctype.obj
 0001:00011341       _isdigit                   10012341 f i LIBCMT:_ctype.obj
 0001:0001136f       __isxdigit_l               1001236f f i LIBCMT:_ctype.obj
 0001:000113c5       _isxdigit                  100123c5 f i LIBCMT:_ctype.obj
 0001:000113f5       __isspace_l                100123f5 f i LIBCMT:_ctype.obj
 0001:00011446       _isspace                   10012446 f i LIBCMT:_ctype.obj
 0001:00011474       __ispunct_l                10012474 f i LIBCMT:_ctype.obj
 0001:000114c5       _ispunct                   100124c5 f i LIBCMT:_ctype.obj
 0001:000114f3       __isalnum_l                100124f3 f i LIBCMT:_ctype.obj
 0001:00011549       _isalnum                   10012549 f i LIBCMT:_ctype.obj
 0001:00011579       __isprint_l                10012579 f i LIBCMT:_ctype.obj
 0001:000115cf       _isprint                   100125cf f i LIBCMT:_ctype.obj
 0001:000115ff       __isgraph_l                100125ff f i LIBCMT:_ctype.obj
 0001:00011655       _isgraph                   10012655 f i LIBCMT:_ctype.obj
 0001:00011685       __iscntrl_l                10012685 f i LIBCMT:_ctype.obj
 0001:000116d6       _iscntrl                   100126d6 f i LIBCMT:_ctype.obj
 0001:00011704       ___isascii                 10012704 f i LIBCMT:_ctype.obj
 0001:00011716       ___toascii                 10012716 f i LIBCMT:_ctype.obj
 0001:00011723       __iscsymf_l                10012723 f i LIBCMT:_ctype.obj
 0001:00011746       ___iscsymf                 10012746 f i LIBCMT:_ctype.obj
 0001:00011765       __iscsym_l                 10012765 f i LIBCMT:_ctype.obj
 0001:00011788       ___iscsym                  10012788 f i LIBCMT:_ctype.obj
 0001:000117a9       _sprintf                   100127a9 f   LIBCMT:sprintf.obj
 0001:00011826       __sprintf_l                10012826 f   LIBCMT:sprintf.obj
 0001:00011842       _sprintf_s                 10012842 f   LIBCMT:sprintf.obj
 0001:00011860       __sprintf_s_l              10012860 f   LIBCMT:sprintf.obj
 0001:0001187f       __snprintf_s               1001287f f   LIBCMT:sprintf.obj
 0001:000118a0       __snprintf_s_l             100128a0 f   LIBCMT:sprintf.obj
 0001:000118c2       __sprintf_p                100128c2 f   LIBCMT:sprintf.obj
 0001:000118e0       __sprintf_p_l              100128e0 f   LIBCMT:sprintf.obj
 0001:000118ff       __scprintf                 100128ff f   LIBCMT:sprintf.obj
 0001:00011914       __scprintf_p               10012914 f   LIBCMT:sprintf.obj
 0001:00011929       __scprintf_l               10012929 f   LIBCMT:sprintf.obj
 0001:00011942       __scprintf_p_l             10012942 f   LIBCMT:sprintf.obj
 0001:0001195b       __CRT_INIT@12              1001295b f   LIBCMT:dllcrt0.obj
 0001:00011b86       __DllMainCRTStartup@12     10012b86 f   LIBCMT:dllcrt0.obj
 0001:00011bb0       _strlen                    10012bb0 f   LIBCMT:strlen.obj
 0001:00011c3b       __EH_prolog3               10012c3b f   LIBCMT:ehprolg3.obj
 0001:00011c6e       __EH_prolog3_catch         10012c6e f   LIBCMT:ehprolg3.obj
 0001:00011ca4       __EH_prolog3_GS            10012ca4 f   LIBCMT:ehprolg3.obj
 0001:00011cda       __EH_prolog3_catch_GS      10012cda f   LIBCMT:ehprolg3.obj
 0001:00011d13       __EH_epilog3               10012d13 f   LIBCMT:ehprolg3.obj
 0001:00011d27       __EH_epilog3_GS            10012d27 f   LIBCMT:ehprolg3.obj
 0001:00011d36       __EH_epilog3_catch_GS      10012d36 f   LIBCMT:ehprolg3.obj
 0001:00011d45       _strcpy_s                  10012d45 f   LIBCMT:strcpy_s.obj
 0001:00011dad       _V6_HeapAlloc              10012dad f   LIBCMT:malloc.obj
 0001:00011dfc       __heap_alloc               10012dfc f i LIBCMT:malloc.obj
 0001:00011e76       _malloc                    10012e76 f   LIBCMT:malloc.obj
 0001:00011f40       _free                      10012f40 f   LIBCMT:free.obj
 0001:00011fce       __invoke_watson_if_error   10012fce f i LIBCMT:typname.obj
 0001:00011ff2       ?_Type_info_dtor@type_info@@CAXPAV1@@Z 10012ff2 f   LIBCMT:typname.obj
 0001:00012062       ?_Name_base@type_info@@CAPBDPBV1@PAU__type_info_node@@@Z 10013062 f   LIBCMT:typname.obj
 0001:00012157       ?_Type_info_dtor_internal@type_info@@CAXPAV1@@Z 10013157 f   LIBCMT:typname.obj
 0001:000121c7       ___unDNameHelper           100131c7 f   LIBCMT:typname.obj
 0001:000121fa       ?_Name_base_internal@type_info@@CAPBDPBV1@PAU__type_info_node@@@Z 100131fa f   LIBCMT:typname.obj
 0001:00012309       ___clean_type_info_names_internal 10013309 f   LIBCMT:typname.obj
 0001:00012360       _strcmp                    10013360 f   LIBCMT:strcmp.obj
 0001:000123e8       __initp_misc_invarg        100133e8 f   LIBCMT:invarg.obj
 0001:000123f7       __invoke_watson            100133f7 f   LIBCMT:invarg.obj
 0001:0001251f       __set_invalid_parameter_handler 1001351f f   LIBCMT:invarg.obj
 0001:00012546       __get_invalid_parameter_handler 10013546 f   LIBCMT:invarg.obj
 0001:00012553       ?_invoke_watson@@YAXPBG00II@Z 10013553 f   LIBCMT:invarg.obj
 0001:0001255e       __invalid_parameter        1001355e f   LIBCMT:invarg.obj
 0001:00012584       __invalid_parameter_noinfo 10013584 f   LIBCMT:invarg.obj
 0001:00012594       ?_invalid_parameter@@YAXPBG00II@Z 10013594 f   LIBCMT:invarg.obj
 0001:0001259f       __get_errno_from_oserr     1001359f f   LIBCMT:dosmap.obj
 0001:000125e1       __errno                    100135e1 f   LIBCMT:dosmap.obj
 0001:000125f4       ___doserrno                100135f4 f   LIBCMT:dosmap.obj
 0001:00012607       __dosmaperr                10013607 f   LIBCMT:dosmap.obj
 0001:0001262a       __set_errno                1001362a f   LIBCMT:dosmap.obj
 0001:0001264b       __get_errno                1001364b f   LIBCMT:dosmap.obj
 0001:0001267a       __set_doserrno             1001367a f   LIBCMT:dosmap.obj
 0001:0001269b       __get_doserrno             1001369b f   LIBCMT:dosmap.obj
 0001:000126ca       __NMSG_WRITE               100136ca f   LIBCMT:crt0msg.obj
 0001:00012875       __GET_RTERRMSG             10013875 f   LIBCMT:crt0msg.obj
 0001:0001289b       __FF_MSGBANNER             1001389b f   LIBCMT:crt0msg.obj
 0001:000128d4       __crt_wait_module_handle   100138d4 f i LIBCMT:tidtable.obj
 0001:000128ee       __encode_pointer           100138ee f   LIBCMT:tidtable.obj
 0001:00012960       __encoded_null             10013960 f   LIBCMT:tidtable.obj
 0001:00012969       __decode_pointer           10013969 f   LIBCMT:tidtable.obj
 0001:000129db       ___crtTlsAlloc@4           100139db f   LIBCMT:tidtable.obj
 0001:000129e4       ___fls_getvalue@4          100139e4 f   LIBCMT:tidtable.obj
 0001:000129fe       ___get_flsindex            100139fe f   LIBCMT:tidtable.obj
 0001:00012a04       ___set_flsgetvalue         10013a04 f   LIBCMT:tidtable.obj
 0001:00012a38       ___fls_setvalue@8          10013a38 f   LIBCMT:tidtable.obj
 0001:00012a55       __mtterm                   10013a55 f   LIBCMT:tidtable.obj
 0001:00012a92       __initptd                  10013a92 f   LIBCMT:tidtable.obj
 0001:00012b79       __getptd_noexit            10013b79 f   LIBCMT:tidtable.obj
 0001:00012bf2       __getptd                   10013bf2 f   LIBCMT:tidtable.obj
 0001:00012c0c       __freefls@4                10013c0c f   LIBCMT:tidtable.obj
 0001:00012d3b       __freeptd                  10013d3b f   LIBCMT:tidtable.obj
 0001:00012da9       ___threadid                10013da9 f   LIBCMT:tidtable.obj
 0001:00012daf       ___threadhandle            10013daf f   LIBCMT:tidtable.obj
 0001:00012db5       __mtinit                   10013db5 f   LIBCMT:tidtable.obj
 0001:00012f42       ___getlocaleinfo           10013f42 f   LIBCMT:inithelp.obj
 0001:000130c1       __initp_misc_purevirt      100140c1 f   LIBCMT:inithelp.obj
 0001:000130d0       ___report_gsfailure        100140d0 f   LIBCMT:gs_report.obj
 0001:0001322d       __VEC_memzero              1001422d f   LIBCMT:p4_memset.obj
 0001:0001330c       __get_sse2_info            1001430c f   LIBCMT:cpu_disp.obj
 0001:0001336e       ___sse2_available_init     1001436e f   LIBCMT:cpu_disp.obj
 0001:00013435       ___onexitinit              10014435 f   LIBCMT:onexit.obj
 0001:00013466       __onexit                   10014466 f   LIBCMT:onexit.obj
 0001:000134a2       _atexit                    100144a2 f   LIBCMT:onexit.obj
 0001:000134b9       __initp_heap_handler       100144b9 f   LIBCMT:handler.obj
 0001:000134c8       ?_set_new_handler@@YAP6AHI@ZP6AHI@Z@Z 100144c8 f   LIBCMT:handler.obj
 0001:000134fe       ?_set_new_handler@@YAP6AHI@ZH@Z 100144fe f   LIBCMT:handler.obj
 0001:00013507       ?_query_new_handler@@YAP6AHI@ZXZ 10014507 f   LIBCMT:handler.obj
 0001:00013514       __callnewh                 10014514 f   LIBCMT:handler.obj
 0001:00013540       __ValidateImageBase        10014540 f   LIBCMT:pesect.obj
 0001:00013580       __FindPESection            10014580 f   LIBCMT:pesect.obj
 0001:000135d0       __IsNonwritableInCurrentImage 100145d0 f   LIBCMT:pesect.obj
 0001:0001368d       __crt_waiting_on_module_handle 1001468d f   LIBCMT:crt0dat.obj
 0001:000136bd       __amsg_exit                100146bd f   LIBCMT:crt0dat.obj
 0001:000136e6       ___crtCorExitProcess       100146e6 f   LIBCMT:crt0dat.obj
 0001:00013711       ___crtExitProcess          10014711 f   LIBCMT:crt0dat.obj
 0001:00013729       __lockexit                 10014729 f   LIBCMT:crt0dat.obj
 0001:00013732       __unlockexit               10014732 f   LIBCMT:crt0dat.obj
 0001:00013758       __initterm_e               10014758 f   LIBCMT:crt0dat.obj
 0001:0001377c       __get_wpgmptr              1001477c f   LIBCMT:crt0dat.obj
 0001:000137b8       __get_pgmptr               100147b8 f   LIBCMT:crt0dat.obj
 0001:000137f4       __cinit                    100147f4 f   LIBCMT:crt0dat.obj
 0001:000139a5       _exit                      100149a5 f   LIBCMT:crt0dat.obj
 0001:000139bb       __exit                     100149bb f   LIBCMT:crt0dat.obj
 0001:000139d1       __cexit                    100149d1 f   LIBCMT:crt0dat.obj
 0001:000139e0       __c_exit                   100149e0 f   LIBCMT:crt0dat.obj
 0001:000139ef       __init_pointers            100149ef f   LIBCMT:crt0dat.obj
 0001:00013a3d       __initp_misc_winxfltr      10014a3d f   LIBCMT:winxfltr.obj
 0001:00013a73       __XcptFilter               10014a73 f   LIBCMT:winxfltr.obj
 0001:00013bd3       ___CppXcptFilter           10014bd3 f   LIBCMT:winxfltr.obj
 0001:00013bf4       __SEH_prolog4              10014bf4 f   LIBCMT:sehprolg4.obj
 0001:00013c39       __SEH_epilog4              10014c39 f   LIBCMT:sehprolg4.obj
 0001:00013c80       __except_handler4          10014c80 f   LIBCMT:chandler4.obj
 0001:00013e0c       _wait_a_bit                10014e0c f i LIBCMT:crtheap.obj
 0001:00013e32       __set_malloc_crt_max_wait  10014e32 f   LIBCMT:crtheap.obj
 0001:00013e47       __malloc_crt               10014e47 f   LIBCMT:crtheap.obj
 0001:00013e8c       __calloc_crt               10014e8c f   LIBCMT:crtheap.obj
 0001:00013ed8       __realloc_crt              10014ed8 f   LIBCMT:crtheap.obj
 0001:00013f26       __recalloc_crt             10014f26 f   LIBCMT:crtheap.obj
 0001:00013fff       __VEC_memcpy               10014fff f   LIBCMT:p4_memcpy.obj
 0001:000140e2       ??0bad_exception@std@@QAE@PBD@Z 100150e2 f i LIBCMT:frame.obj
 0001:00014100       ??1bad_exception@std@@UAE@XZ 10015100 f i LIBCMT:frame.obj
 0001:0001410b       ??_Ebad_exception@std@@UAEPAXI@Z 1001510b f i LIBCMT:frame.obj
 0001:0001410b       ??_Gbad_exception@std@@UAEPAXI@Z 1001510b f i LIBCMT:frame.obj
 0001:00014132       ___TypeMatch               10015132 f   LIBCMT:frame.obj
 0001:00014191       ___FrameUnwindFilter       10015191 f   LIBCMT:frame.obj
 0001:000141da       ___FrameUnwindToState      100151da f   LIBCMT:frame.obj
 0001:00014300       ___DestructExceptionObject 10015300 f   LIBCMT:frame.obj
 0001:00014355       ___AdjustPointer           10015355 f   LIBCMT:frame.obj
 0001:0001437e       ?__uncaught_exception@@YA_NXZ 1001537e f   LIBCMT:frame.obj
 0001:00014391       ___CxxRegisterExceptionObject 10015391 f   LIBCMT:frame.obj
 0001:00014448       ___CxxDetectRethrow        10015448 f   LIBCMT:frame.obj
 0001:0001449a       ___CxxUnregisterExceptionObject 1001549a f   LIBCMT:frame.obj
 0001:000145d9       ___CxxQueryExceptionSize   100155d9 f   LIBCMT:frame.obj
 0001:000145dd       ___CxxCallUnwindDtor       100155dd f   LIBCMT:frame.obj
 0001:0001460f       ___CxxCallUnwindDelDtor    1001560f f   LIBCMT:frame.obj
 0001:00014642       ___CxxCallUnwindStdDelDtor 10015642 f   LIBCMT:frame.obj
 0001:00014674       ___CxxCallUnwindVecDtor    10015674 f   LIBCMT:frame.obj
 0001:000147a5       ?_is_exception_typeof@@YAHABVtype_info@@PAU_EXCEPTION_POINTERS@@@Z 100157a5 f   LIBCMT:frame.obj
 0001:000149c7       ___BuildCatchObjectHelper  100159c7 f   LIBCMT:frame.obj
 0001:00014b46       ___BuildCatchObject        10015b46 f   LIBCMT:frame.obj
 0001:00014bd8       ___CxxExceptionFilter      10015bd8 f   LIBCMT:frame.obj
 0001:000151c6       ??0bad_exception@std@@QAE@ABV01@@Z 100161c6 f i LIBCMT:frame.obj
 0001:000151e3       ___InternalCxxFrameHandler 100161e3 f   LIBCMT:frame.obj
 0001:000152c9       ?terminate@@YAXXZ          100162c9 f   LIBCMT:hooks.obj
 0001:00015302       ?unexpected@@YAXXZ         10016302 f   LIBCMT:hooks.obj
 0001:00015315       ?_inconsistency@@YAXXZ     10016315 f   LIBCMT:hooks.obj
 0001:0001534d       __initp_eh_hooks           1001634d f   LIBCMT:hooks.obj
 0001:00015360       __CallSettingFrame@12      10016360 f   LIBCMT:lowhelpr.obj
 0001:00015387       __NLG_Return               10016387     LIBCMT:lowhelpr.obj
 0001:000153ac       __close_nolock             100163ac f   LIBCMT:close.obj
 0001:00015448       __close                    10016448 f   LIBCMT:close.obj
 0001:00015515       __fileno                   10016515 f   LIBCMT:fileno.obj
 0001:00015547       __freebuf                  10016547 f   LIBCMT:_freebuf.obj
 0001:00015578       __flush                    10016578 f   LIBCMT:fflush.obj
 0001:000155e0       __fflush_nolock            100165e0 f   LIBCMT:fflush.obj
 0001:00015702       _fflush                    10016702 f   LIBCMT:fflush.obj
 0001:00015755       __flushall                 10016755 f   LIBCMT:fflush.obj
 0001:0001575e       __ioinit                   1001675e f   LIBCMT:ioinit.obj
 0001:000159b2       __ioterm                   100169b2 f   LIBCMT:ioinit.obj
 0001:00015a57       __INTRN_LOCALE_CONV        10016a57 f i LIBCMT:input.obj
 0001:00015adc       __input_l                  10016adc f   LIBCMT:input.obj
 0001:00016b63       __input_s_l                10017b63 f   LIBCMT:inputs.obj
 0001:00017c87       __filbuf                   10018c87 f   LIBCMT:_filbuf.obj
 0001:00017db2       __wopenfile                10018db2 f   LIBCMT:_wopen.obj
 0001:00018066       __getstream                10019066 f   LIBCMT:stream.obj
 0001:000181a0       __local_unwind4            100191a0 f   LIBCMT:exsup4.obj
 0001:00018276       __seh_longjmp_unwind4@4    10019276 f   LIBCMT:exsup4.obj
 0001:00018292       @_EH4_CallFilterFunc@8     10019292 f   LIBCMT:exsup4.obj
 0001:000182a9       @_EH4_TransferToHandler@8  100192a9 f   LIBCMT:exsup4.obj
 0001:000182c2       @_EH4_GlobalUnwind@4       100192c2 f   LIBCMT:exsup4.obj
 0001:000182dc       @_EH4_LocalUnwind@16       100192dc f   LIBCMT:exsup4.obj
 0001:000182f3       __initp_misc_winsig        100192f3 f   LIBCMT:winsig.obj
 0001:000183e3       ___get_sigabrt             100193e3 f   LIBCMT:winsig.obj
 0001:000183f0       ___fpecode                 100193f0 f   LIBCMT:winsig.obj
 0001:000183f9       ___pxcptinfoptrs           100193f9 f   LIBCMT:winsig.obj
 0001:00018402       _signal                    10019402 f   LIBCMT:winsig.obj
 0001:0001863f       _raise                     1001963f f   LIBCMT:winsig.obj
 0001:000187ef       __stbuf                    100197ef f   LIBCMT:_sftbuf.obj
 0001:0001888b       __ftbuf                    1001988b f   LIBCMT:_sftbuf.obj
 0001:00018965       _get_int_arg               10019965 f i LIBCMT:output.obj
 0001:00018977       _get_int64_arg             10019977 f i LIBCMT:output.obj
 0001:0001898c       _get_short_arg             1001998c f i LIBCMT:output.obj
 0001:0001899f       __output_l                 1001999f f   LIBCMT:output.obj
 0001:00019537       _vfprintf_helper           1001a537 f   LIBCMT:vfprintf.obj
 0001:00019652       __vfprintf_l               1001a652 f   LIBCMT:vfprintf.obj
 0001:00019672       __vfprintf_s_l             1001a672 f   LIBCMT:vfprintf.obj
 0001:00019692       __vfprintf_p_l             1001a692 f   LIBCMT:vfprintf.obj
 0001:000196b2       _vfprintf                  1001a6b2 f   LIBCMT:vfprintf.obj
 0001:000196d1       _vfprintf_s                1001a6d1 f   LIBCMT:vfprintf.obj
 0001:000196f0       __vfprintf_p               1001a6f0 f   LIBCMT:vfprintf.obj
 0001:0001970f       __fcloseall                1001a70f f   LIBCMT:closeall.obj
 0001:000197ae       __mtinitlocks              1001a7ae f   LIBCMT:mlock.obj
 0001:000197f9       __mtdeletelocks            1001a7f9 f   LIBCMT:mlock.obj
 0001:00019850       __unlock                   1001a850 f   LIBCMT:mlock.obj
 0001:00019867       __lockerr_exit             1001a867 f   LIBCMT:mlock.obj
 0001:0001987f       __mtinitlocknum            1001a87f f   LIBCMT:mlock.obj
 0001:00019942       __lock                     1001a942 f   LIBCMT:mlock.obj
 0001:00019975       __flsbuf                   1001a975 f   LIBCMT:_flsbuf.obj
 0001:00019cff       ___updatetmbcinfo          1001acff f   LIBCMT:mbctype.obj
 0001:00019e1f       __setmbcp_nolock           1001ae1f f   LIBCMT:mbctype.obj
 0001:0001a004       __getmbcp                  1001b004 f   LIBCMT:mbctype.obj
 0001:0001a042       __setmbcp                  1001b042 f   LIBCMT:mbctype.obj
 0001:0001a1dc       ___initmbctable            1001b1dc f   LIBCMT:mbctype.obj
 0001:0001a1fa       ____setlc_active_func      1001b1fa f   LIBCMT:setlocal.obj
 0001:0001a200       ____unguarded_readlc_active_add_func 1001b200 f   LIBCMT:setlocal.obj
 0001:0001a206       ___freetlocinfo            1001b206 f   LIBCMT:setlocal.obj
 0001:0001a34f       ___addlocaleref            1001b34f f   LIBCMT:setlocal.obj
 0001:0001a3de       ___removelocaleref         1001b3de f   LIBCMT:setlocal.obj
 0001:0001a4db       ___updatetlocinfo          1001b4db f   LIBCMT:setlocal.obj
 0001:0001a551       __configthreadlocale       1001b551 f   LIBCMT:setlocal.obj
 0001:0001a60e       __free_locale              1001b60e f   LIBCMT:setlocal.obj
 0001:0001a6d0       ___free_locale             1001b6d0 f   LIBCMT:setlocal.obj
 0001:0001a6db       __get_current_locale       1001b6db f   LIBCMT:setlocal.obj
 0001:0001a78a       ___get_current_locale      1001b78a f   LIBCMT:setlocal.obj
 0001:0001a78f       ___init_dummy              1001b78f f   LIBCMT:setlocal.obj
 0001:0001a792       __strcats                  1001b792 f   LIBCMT:setlocal.obj
 0001:0001a7d2       ___lc_strtolc              1001b7d2 f   LIBCMT:setlocal.obj
 0001:0001a8fb       ___lc_lctostr              1001b8fb f   LIBCMT:setlocal.obj
 0001:0001aae5       __expandlocale             1001bae5 f   LIBCMT:setlocal.obj
 0001:0001b233       __create_locale            1001c233 f   LIBCMT:setlocal.obj
 0001:0001b328       ___create_locale           1001c328 f   LIBCMT:setlocal.obj
 0001:0001b333       _setlocale                 1001c333 f   LIBCMT:setlocal.obj
 0001:0001b4a3       __towlower_l               1001c4a3 f   LIBCMT:towlower.obj
 0001:0001b558       _towlower                  1001c558 f   LIBCMT:towlower.obj
 0001:0001b613       __woutput_l                1001c613 f   LIBCMT:woutput.obj
 0001:0001c1ab       __isctype_l                1001d1ab f   LIBCMT:isctype.obj
 0001:0001c263       __isctype                  1001d263 f   LIBCMT:isctype.obj
 0001:0001c295       __vsprintf_l               1001d295 f   LIBCMT:vsprintf.obj
 0001:0001c313       _vsprintf                  1001d313 f   LIBCMT:vsprintf.obj
 0001:0001c32d       __vscprintf_helper         1001d32d f   LIBCMT:vsprintf.obj
 0001:0001c384       __vscprintf                1001d384 f   LIBCMT:vsprintf.obj
 0001:0001c3a0       __vscprintf_l              1001d3a0 f   LIBCMT:vsprintf.obj
 0001:0001c3bd       __vscprintf_p              1001d3bd f   LIBCMT:vsprintf.obj
 0001:0001c3d9       __vscprintf_p_l            1001d3d9 f   LIBCMT:vsprintf.obj
 0001:0001c3f6       __vsnprintf_helper         1001d3f6 f   LIBCMT:vsnprnc.obj
 0001:0001c4c2       __vsnprintf_c              1001d4c2 f   LIBCMT:vsnprnc.obj
 0001:0001c4eb       __vsnprintf_c_l            1001d4eb f   LIBCMT:vsnprnc.obj
 0001:0001c515       __vsprintf_s_l             1001d515 f   LIBCMT:vsnprnc.obj
 0001:0001c59d       _vsprintf_s                1001d59d f   LIBCMT:vsnprnc.obj
 0001:0001c5ba       __vsnprintf_s_l            1001d5ba f   LIBCMT:vsnprnc.obj
 0001:0001c6c1       __vsnprintf_s              1001d6c1 f   LIBCMT:vsnprnc.obj
 0001:0001c6e1       __vsprintf_p               1001d6e1 f   LIBCMT:vsnprnc.obj
 0001:0001c70a       __vsprintf_p_l             1001d70a f   LIBCMT:vsnprnc.obj
 0001:0001c734       __setenvp                  1001d734 f   LIBCMT:stdenvp.obj
 0001:0001c812       __set_pgmptr               1001d812 f i LIBCMT:stdargv.obj
 0001:0001c9bb       __setargv                  1001d9bb f   LIBCMT:stdargv.obj
 0001:0001ca76       ___crtGetEnvironmentStringsA 1001da76 f   LIBCMT:a_env.obj
 0001:0001cbad       __RTC_Initialize           1001dbad f   LIBCMT:_initsect_.obj
 0001:0001cbd3       __RTC_Terminate            1001dbd3 f   LIBCMT:_initsect_.obj
 0001:0001cbf9       ___heap_select             1001dbf9 f   LIBCMT:heapinit.obj
 0001:0001cbfd       __heap_init                1001dbfd f   LIBCMT:heapinit.obj
 0001:0001cc2d       __heap_term                1001dc2d f   LIBCMT:heapinit.obj
 0001:0001cca1       __get_heap_handle          1001dca1 f   LIBCMT:heapinit.obj
 0001:0001cca7       ___security_init_cookie    1001dca7 f   LIBCMT:gs_support.obj
 0001:0001cd3d       __get_sbh_threshold        1001dd3d f   LIBCMT:sbheap.obj
 0001:0001cd5e       __set_amblksiz             1001dd5e f   LIBCMT:sbheap.obj
 0001:0001cda9       __get_amblksiz             1001dda9 f   LIBCMT:sbheap.obj
 0001:0001cdea       ___sbh_heap_init           1001ddea f   LIBCMT:sbheap.obj
 0001:0001ce38       ___sbh_find_block          1001de38 f   LIBCMT:sbheap.obj
 0001:0001ce68       ___sbh_free_block          1001de68 f   LIBCMT:sbheap.obj
 0001:0001d17e       ___sbh_alloc_new_region    1001e17e f   LIBCMT:sbheap.obj
 0001:0001d22e       ___sbh_alloc_new_group     1001e22e f   LIBCMT:sbheap.obj
 0001:0001d336       ___sbh_resize_block        1001e336 f   LIBCMT:sbheap.obj
 0001:0001d617       ___sbh_heapmin             1001e617 f   LIBCMT:sbheap.obj
 0001:0001d6e4       ___sbh_heap_check          1001e6e4 f   LIBCMT:sbheap.obj
 0001:0001d9c8       __set_sbh_threshold        1001e9c8 f   LIBCMT:sbheap.obj
 0001:0001da77       ___sbh_alloc_block         1001ea77 f   LIBCMT:sbheap.obj
 0001:0001dd5c       ??0Block@HeapManager@@QAE@XZ 1001ed5c f i LIBCMT:undname.obj
 0001:0001dd62       ?Constructor@HeapManager@@QAEXP6APAXI@ZP6AXPAX@Z@Z 1001ed62 f i LIBCMT:undname.obj
 0001:0001dd81       ?Destructor@HeapManager@@QAEXXZ 1001ed81 f i LIBCMT:undname.obj
 0001:0001dda9       ?getNumberOfDimensions@UnDecorator@@CAHXZ 1001eda9 f   LIBCMT:undname.obj
 0001:0001de0c       ?getTypeEncoding@UnDecorator@@CAHXZ 1001ee0c f i LIBCMT:undname.obj
 0001:0001e2f8       ?doUnderScore@UnDecorator@@SAHXZ 1001f2f8 f i LIBCMT:undname.obj
 0001:0001e303       ?doMSKeywords@UnDecorator@@SAHXZ 1001f303 f i LIBCMT:undname.obj
 0001:0001e310       ?doPtr64@UnDecorator@@SAHXZ 1001f310 f i LIBCMT:undname.obj
 0001:0001e31e       ?doFunctionReturns@UnDecorator@@SAHXZ 1001f31e f i LIBCMT:undname.obj
 0001:0001e32c       ?doAllocationModel@UnDecorator@@SAHXZ 1001f32c f i LIBCMT:undname.obj
 0001:0001e33a       ?doAllocationLanguage@UnDecorator@@SAHXZ 1001f33a f i LIBCMT:undname.obj
 0001:0001e348       ?doThisTypes@UnDecorator@@SAHXZ 1001f348 f i LIBCMT:undname.obj
 0001:0001e35a       ?doAccessSpecifiers@UnDecorator@@SAHXZ 1001f35a f i LIBCMT:undname.obj
 0001:0001e368       ?doThrowTypes@UnDecorator@@SAHXZ 1001f368 f i LIBCMT:undname.obj
 0001:0001e376       ?doMemberTypes@UnDecorator@@SAHXZ 1001f376 f i LIBCMT:undname.obj
 0001:0001e384       ?doNameOnly@UnDecorator@@SAHXZ 1001f384 f i LIBCMT:undname.obj
 0001:0001e38f       ?doTypeOnly@UnDecorator@@SAHXZ 1001f38f f i LIBCMT:undname.obj
 0001:0001e39a       ?haveTemplateParameters@UnDecorator@@SAHXZ 1001f39a f i LIBCMT:undname.obj
 0001:0001e3a5       ?doEcsu@UnDecorator@@SAHXZ 1001f3a5 f i LIBCMT:undname.obj
 0001:0001e3b3       ?doNoIdentCharCheck@UnDecorator@@SAHXZ 1001f3b3 f i LIBCMT:undname.obj
 0001:0001e3be       ?doEllipsis@UnDecorator@@SAHXZ 1001f3be f i LIBCMT:undname.obj
 0001:0001e3cc       ?UScore@UnDecorator@@SAPBDW4Tokens@@@Z 1001f3cc f   LIBCMT:undname.obj
 0001:0001e3ea       ?getMemory@HeapManager@@QAEPAXIH@Z 1001f3ea f   LIBCMT:undname.obj
 0001:0001e472       ??0DName@@QAE@XZ           1001f472 f i LIBCMT:undname.obj
 0001:0001e483       ??0DName@@QAE@ABV0@@Z      1001f483 f i LIBCMT:undname.obj
 0001:0001e49b       ?isValid@DName@@QBEHXZ     1001f49b f i LIBCMT:undname.obj
 0001:0001e4a5       ?isEmpty@DName@@QBEHXZ     1001f4a5 f i LIBCMT:undname.obj
 0001:0001e4ad       ?status@DName@@QBE?AW4DNameStatus@@XZ 1001f4ad f i LIBCMT:undname.obj
 0001:0001e4b2       ?setPtrRef@DName@@QAEAAV1@XZ 1001f4b2 f i LIBCMT:undname.obj
 0001:0001e4bc       ?isPtrRef@DName@@QBEHXZ    1001f4bc f i LIBCMT:undname.obj
 0001:0001e4c6       ?isUDC@DName@@QBEHXZ       1001f4c6 f i LIBCMT:undname.obj
 0001:0001e4d7       ?setIsUDC@DName@@QAEXXZ    1001f4d7 f i LIBCMT:undname.obj
 0001:0001e4e4       ?isUDTThunk@DName@@QBEHXZ  1001f4e4 f i LIBCMT:undname.obj
 0001:0001e4f5       ?setIsArray@DName@@QAEXXZ  1001f4f5 f i LIBCMT:undname.obj
 0001:0001e4fd       ?isArray@DName@@QBEHXZ     1001f4fd f i LIBCMT:undname.obj
 0001:0001e507       ?isNoTE@DName@@QBEHXZ      1001f507 f i LIBCMT:undname.obj
 0001:0001e511       ?setIsNoTE@DName@@QAEXXZ   1001f511 f i LIBCMT:undname.obj
 0001:0001e519       ?isPinPtr@DName@@QBEHXZ    1001f519 f i LIBCMT:undname.obj
 0001:0001e523       ?setIsPinPtr@DName@@QAEXXZ 1001f523 f i LIBCMT:undname.obj
 0001:0001e52b       ?isComArray@DName@@QBEHXZ  1001f52b f i LIBCMT:undname.obj
 0001:0001e535       ?setIsComArray@DName@@QAEXXZ 1001f535 f i LIBCMT:undname.obj
 0001:0001e53d       ?isVCallThunk@DName@@QBEHXZ 1001f53d f i LIBCMT:undname.obj
 0001:0001e547       ?setIsVCallThunk@DName@@QAEXXZ 1001f547 f i LIBCMT:undname.obj
 0001:0001e54f       ?length@DName@@QBEHXZ      1001f54f f i LIBCMT:undname.obj
 0001:0001e55c       ?getLastChar@DName@@QBEDXZ 1001f55c f i LIBCMT:undname.obj
 0001:0001e56a       ?getString@DName@@QBEPADPAD0@Z 1001f56a f i LIBCMT:undname.obj
 0001:0001e582       ??_5DName@@QAEAAV0@ABV0@@Z 1001f582 f   LIBCMT:undname.obj
 0001:0001e5a1       ??4DName@@QAEAAV0@ABV0@@Z  1001f5a1 f   LIBCMT:undname.obj
 0001:0001e5b9       ?isFull@Replicator@@QBEHXZ 1001f5b9 f i LIBCMT:undname.obj
 0001:0001e5c2       ??0Replicator@@QAE@XZ      1001f5c2 f i LIBCMT:undname.obj
 0001:0001e5c8       ??0DNameNode@@IAE@XZ       1001f5c8 f   LIBCMT:undname.obj
 0001:0001e5d1       ??0charNode@@QAE@D@Z       1001f5d1 f   LIBCMT:undname.obj
 0001:0001e5e8       ?length@charNode@@UBEHXZ   1001f5e8 f i LIBCMT:undname.obj
 0001:0001e5ec       ?getLastChar@charNode@@UBEDXZ 1001f5ec f i LIBCMT:undname.obj
 0001:0001e5f0       ?getString@charNode@@UBEPADPAD0@Z 1001f5f0 f i LIBCMT:undname.obj
 0001:0001e607       ??0pDNameNode@@QAE@PAVDName@@@Z 1001f607 f   LIBCMT:undname.obj
 0001:0001e631       ?length@pDNameNode@@UBEHXZ 1001f631 f i LIBCMT:undname.obj
 0001:0001e647       ?getLastChar@pDNameNode@@UBEDXZ 1001f647 f i LIBCMT:undname.obj
 0001:0001e65e       ?getString@pDNameNode@@UBEPADPAD0@Z 1001f65e f i LIBCMT:undname.obj
 0001:0001e677       ??0DNameStatusNode@@AAE@W4DNameStatus@@@Z 1001f677 f   LIBCMT:undname.obj
 0001:0001e69c       ?length@DNameStatusNode@@UBEHXZ 1001f69c f i LIBCMT:undname.obj
 0001:0001e6a0       ?getLastChar@DNameStatusNode@@UBEDXZ 1001f6a0 f i LIBCMT:undname.obj
 0001:0001e6ac       ?make@DNameStatusNode@@SAPAV1@W4DNameStatus@@@Z 1001f6ac f i LIBCMT:undname.obj
 0001:0001e732       ??0pairNode@@QAE@PAVDNameNode@@0@Z 1001f732 f   LIBCMT:undname.obj
 0001:0001e753       ?length@pairNode@@UBEHXZ   1001f753 f i LIBCMT:undname.obj
 0001:0001e77e       ?getLastChar@pairNode@@UBEDXZ 1001f77e f i LIBCMT:undname.obj
 0001:0001e79a       ?getString@pairNode@@UBEPADPAD0@Z 1001f79a f i LIBCMT:undname.obj
 0001:0001e814       ??0UnDecorator@@QAE@PADPBDHP6APADJ@ZK@Z 1001f814 f i LIBCMT:undname.obj
 0001:0001e883       ?getDataIndirectType@UnDecorator@@CA?AVDName@@XZ 1001f883 f i LIBCMT:undname.obj
 0001:0001e8b8       ?getThisType@UnDecorator@@CA?AVDName@@XZ 1001f8b8 f i LIBCMT:undname.obj
 0001:0001e8ee       ??2@YAPAXIAAVHeapManager@@H@Z 1001f8ee f i LIBCMT:undname.obj
 0001:0001e905       ?getStringHelper@@YAPADPAD00H@Z 1001f905 f i LIBCMT:undname.obj
 0001:0001e93c       ??0DName@@QAE@PAV0@@Z      1001f93c f   LIBCMT:undname.obj
 0001:0001e98f       ??0DName@@QAE@W4DNameStatus@@@Z 1001f98f f   LIBCMT:undname.obj
 0001:0001e9d4       ?getString@DName@@QBEPADPADH@Z 1001f9d4 f i LIBCMT:undname.obj
 0001:0001ea2c       ?append@DName@@AAEXPAVDNameNode@@@Z 1001fa2c f   LIBCMT:undname.obj
 0001:0001ea6b       ??4DName@@QAEAAV0@PAV0@@Z  1001fa6b f   LIBCMT:undname.obj
 0001:0001eab8       ??4DName@@QAEAAV0@W4DNameStatus@@@Z 1001fab8 f   LIBCMT:undname.obj
 0001:0001eaef       ??YReplicator@@QAEAAV0@ABVDName@@@Z 1001faef f   LIBCMT:undname.obj
 0001:0001eb39       ??AReplicator@@QBE?AVDName@@H@Z 1001fb39 f   LIBCMT:undname.obj
 0001:0001eb79       ??0pcharNode@@QAE@PBDH@Z   1001fb79 f   LIBCMT:undname.obj
 0001:0001ebd0       ?length@pcharNode@@UBEHXZ  1001fbd0 f i LIBCMT:undname.obj
 0001:0001ebd4       ?getLastChar@pcharNode@@UBEDXZ 1001fbd4 f i LIBCMT:undname.obj
 0001:0001ebe6       ?getString@pcharNode@@UBEPADPAD0@Z 1001fbe6 f i LIBCMT:undname.obj
 0001:0001ec03       ?getString@DNameStatusNode@@UBEPADPAD0@Z 1001fc03 f i LIBCMT:undname.obj
 0001:0001ec2c       ?getReturnType@UnDecorator@@CA?AVDName@@PAV2@@Z 1001fc2c f   LIBCMT:undname.obj
 0001:0001ec5d       ?getStorageConvention@UnDecorator@@CA?AVDName@@XZ 1001fc5d f i LIBCMT:undname.obj
 0001:0001ec70       ??YDName@@QAEAAV0@W4DNameStatus@@@Z 1001fc70 f   LIBCMT:undname.obj
 0001:0001ecb2       ?doPchar@DName@@AAEXPBDH@Z 1001fcb2 f   LIBCMT:undname.obj
 0001:0001ed2e       ??0DName@@QAE@D@Z          1001fd2e f   LIBCMT:undname.obj
 0001:0001ed5b       ??0DName@@QAE@PBD@Z        1001fd5b f   LIBCMT:undname.obj
 0001:0001ed94       ??0DName@@QAE@AAPBDD@Z     1001fd94 f   LIBCMT:undname.obj
 0001:0001ee53       ??0DName@@QAE@_K@Z         1001fe53 f   LIBCMT:undname.obj
 0001:0001eec1       ??0DName@@QAE@_J@Z         1001fec1 f   LIBCMT:undname.obj
 0001:0001ef5c       ??HDName@@QBE?AV0@W4DNameStatus@@@Z 1001ff5c f   LIBCMT:undname.obj
 0001:0001ef80       ??YDName@@QAEAAV0@ABV0@@Z  1001ff80 f   LIBCMT:undname.obj
 0001:0001efc3       ??YDName@@QAEAAV0@PAV0@@Z  1001ffc3 f   LIBCMT:undname.obj
 0001:0001f02a       ??4DName@@QAEAAV0@D@Z      1002002a f i LIBCMT:undname.obj
 0001:0001f057       ??4DName@@QAEAAV0@PBD@Z    10020057 f   LIBCMT:undname.obj
 0001:0001f08c       ?getCallingConvention@UnDecorator@@CA?AVDName@@XZ 1002008c f   LIBCMT:undname.obj
 0001:0001f136       ?getVCallThunkType@UnDecorator@@CA?AVDName@@XZ 10020136 f i LIBCMT:undname.obj
 0001:0001f16f       ??HDName@@QBE?AV0@ABV0@@Z  1002016f f   LIBCMT:undname.obj
 0001:0001f193       ??HDName@@QBE?AV0@PAV0@@Z  10020193 f   LIBCMT:undname.obj
 0001:0001f1b7       ??YDName@@QAEAAV0@D@Z      100201b7 f   LIBCMT:undname.obj
 0001:0001f209       ??YDName@@QAEAAV0@PBD@Z    10020209 f   LIBCMT:undname.obj
 0001:0001f26d       ?getArgumentList@UnDecorator@@CA?AVDName@@XZ 1002026d f   LIBCMT:undname.obj
 0001:0001f36f       ?getVdispMapType@UnDecorator@@CA?AVDName@@ABV2@@Z 1002036f f i LIBCMT:undname.obj
 0001:0001f3c3       ??H@YA?AVDName@@DABV0@@Z   100203c3 f i LIBCMT:undname.obj
 0001:0001f3e7       ??H@YA?AVDName@@W4DNameStatus@@ABV0@@Z 100203e7 f i LIBCMT:undname.obj
 0001:0001f40b       ??H@YA?AVDName@@PBDABV0@@Z 1002040b f i LIBCMT:undname.obj
 0001:0001f42f       ??HDName@@QBE?AV0@D@Z      1002042f f   LIBCMT:undname.obj
 0001:0001f453       ??HDName@@QBE?AV0@PBD@Z    10020453 f   LIBCMT:undname.obj
 0001:0001f477       ?getDimension@UnDecorator@@CA?AVDName@@_N@Z 10020477 f   LIBCMT:undname.obj
 0001:0001f5c9       ?getEnumType@UnDecorator@@CA?AVDName@@XZ 100205c9 f i LIBCMT:undname.obj
 0001:0001f69d       ?getArgumentTypes@UnDecorator@@CA?AVDName@@XZ 1002069d f   LIBCMT:undname.obj
 0001:0001f779       ?getThrowTypes@UnDecorator@@CA?AVDName@@XZ 10020779 f   LIBCMT:undname.obj
 0001:0001f7f8       ?getExtendedDataIndirectType@UnDecorator@@CA?AVDName@@AADAA_NH@Z 100207f8 f   LIBCMT:undname.obj
 0001:0001f975       ?getArrayType@UnDecorator@@CA?AVDName@@ABV2@@Z 10020975 f i LIBCMT:undname.obj
 0001:0001faef       ?getLexicalFrame@UnDecorator@@CA?AVDName@@XZ 10020aef f i LIBCMT:undname.obj
 0001:0001fb22       ?getDisplacement@UnDecorator@@CA?AVDName@@XZ 10020b22 f i LIBCMT:undname.obj
 0001:0001fb38       ?getCallIndex@UnDecorator@@CA?AVDName@@XZ 10020b38 f i LIBCMT:undname.obj
 0001:0001fb4e       ?getGuardNumber@UnDecorator@@CA?AVDName@@XZ 10020b4e f i LIBCMT:undname.obj
 0001:0001fb64       ?getVfTableType@UnDecorator@@CA?AVDName@@ABV2@@Z 10020b64 f i LIBCMT:undname.obj
 0001:0001fc9b       ?getStringEncoding@UnDecorator@@CA?AVDName@@PADH@Z 10020c9b f   LIBCMT:undname.obj
 0001:0001fd3f       ?getSignedDimension@UnDecorator@@CA?AVDName@@XZ 10020d3f f   LIBCMT:undname.obj
 0001:0001fd91       ?getTemplateConstant@UnDecorator@@CA?AVDName@@XZ 10020d91 f   LIBCMT:undname.obj
 0001:0002005e       ?getPtrRefDataType@UnDecorator@@CA?AVDName@@ABV2@H@Z 1002105e f i LIBCMT:undname.obj
 0001:0002013c       ?getVbTableType@UnDecorator@@CA?AVDName@@ABV2@@Z 1002113c f i LIBCMT:undname.obj
 0001:00020153       ?getTemplateArgumentList@UnDecorator@@CA?AVDName@@XZ 10021153 f   LIBCMT:undname.obj
 0001:00020317       ?getOperatorName@UnDecorator@@CA?AVDName@@_NPA_N@Z 10021317 f i LIBCMT:undname.obj
 0001:000208b4       ?getTemplateName@UnDecorator@@CA?AVDName@@_N@Z 100218b4 f   LIBCMT:undname.obj
 0001:000209fb       ?getZName@UnDecorator@@CA?AVDName@@_N0@Z 100219fb f   LIBCMT:undname.obj
 0001:00020bf1       ?getScopedName@UnDecorator@@CA?AVDName@@XZ 10021bf1 f   LIBCMT:undname.obj
 0001:00020cc2       ?getECSUName@UnDecorator@@CA?AVDName@@XZ 10021cc2 f i LIBCMT:undname.obj
 0001:00020cd5       ?getECSUDataType@UnDecorator@@CA?AVDName@@XZ 10021cd5 f   LIBCMT:undname.obj
 0001:00020ddc       ?getSymbolName@UnDecorator@@CA?AVDName@@XZ 10021ddc f i LIBCMT:undname.obj
 0001:00020e26       ?getBasedType@UnDecorator@@CA?AVDName@@XZ 10021e26 f   LIBCMT:undname.obj
 0001:00020ebe       ?composeDeclaration@UnDecorator@@CA?AVDName@@ABV2@@Z 10021ebe f i LIBCMT:undname.obj
 0001:00021a59       ?getDecoratedName@UnDecorator@@CA?AVDName@@XZ 10022a59 f   LIBCMT:undname.obj
 0001:00021c71       ?getScope@UnDecorator@@CA?AVDName@@XZ 10022c71 f   LIBCMT:undname.obj
 0001:00021ee1       ?getFunctionIndirectType@UnDecorator@@CA?AVDName@@ABV2@@Z 10022ee1 f   LIBCMT:undname.obj
 0001:00022235       ?getDataIndirectType@UnDecorator@@CA?AVDName@@ABV2@D0H@Z 10023235 f   LIBCMT:undname.obj
 0001:000226fc       ??BUnDecorator@@QAEPADXZ   100236fc f i LIBCMT:undname.obj
 0001:0002282d       ?getPtrRefType@UnDecorator@@CA?AVDName@@ABV2@0D@Z 1002382d f   LIBCMT:undname.obj
 0001:00022926       ?getPointerType@UnDecorator@@CA?AVDName@@ABV2@0@Z 10023926 f i LIBCMT:undname.obj
 0001:00022943       ?getPointerTypeArray@UnDecorator@@CA?AVDName@@ABV2@0@Z 10023943 f i LIBCMT:undname.obj
 0001:00022960       ?getReferenceType@UnDecorator@@CA?AVDName@@ABV2@0@Z 10023960 f i LIBCMT:undname.obj
 0001:0002297d       ___unDName                 1002397d f   LIBCMT:undname.obj
 0001:00022a17       ___unDNameEx               10023a17 f   LIBCMT:undname.obj
 0001:00022ab1       ?getBasicDataType@UnDecorator@@CA?AVDName@@ABV2@@Z 10023ab1 f   LIBCMT:undname.obj
 0001:00022e68       ?getPrimaryDataType@UnDecorator@@CA?AVDName@@ABV2@@Z 10023e68 f   LIBCMT:undname.obj
 0001:00022fa0       ?getDataType@UnDecorator@@CA?AVDName@@PAV2@@Z 10023fa0 f   LIBCMT:undname.obj
 0001:00023060       ?getExternalDataType@UnDecorator@@CA?AVDName@@ABV2@@Z 10024060 f i LIBCMT:undname.obj
 0001:000230ce       __crt_debugger_hook        100240ce f   LIBCMT:dbghook.obj
 0001:000230d6       ___crtMessageBoxA          100240d6 f   LIBCMT:crtmbox.obj
 0001:0002323f       _strcat_s                  1002423f f   LIBCMT:strcat_s.obj
 0001:000232b3       _strncpy_s                 100242b3 f   LIBCMT:strncpy_s.obj
 0001:00023368       __set_error_mode           10024368 f   LIBCMT:errmode.obj
 0001:000233b3       ___set_app_type            100243b3 f   LIBCMT:errmode.obj
 0001:000233c2       ___get_app_type            100243c2 f   LIBCMT:errmode.obj
 0001:000233e1       ___crtGetLocaleInfoW       100243e1 f   LIBCMT:w_loc.obj
 0001:00023415       __MarkAllocaS              10024415 f i LIBCMT:a_loc.obj
 0001:0002342b       __freea                    1002442b f i LIBCMT:a_loc.obj
 0001:0002358a       ___crtGetLocaleInfoA       1002458a f   LIBCMT:a_loc.obj
 0001:000235c7       __msize                    100245c7 f   LIBCMT:msize.obj
 0001:0002366a       __initp_misc_cfltcvt_tab   1002466a f   LIBCMT:cmiscdat.obj
 0001:0002368b       __initp_misc_rand_s        1002468b f   LIBCMT:rand_s.obj
 0001:0002369a       _rand_s                    1002469a f   LIBCMT:rand_s.obj
 0001:000237a2       __initp_misc_initcrit      100247a2 f   LIBCMT:initcrit.obj
 0001:000237b1       ___crtInitCritSecAndSpinCount 100247b1 f   LIBCMT:initcrit.obj
 0001:00023811       __calloc_impl              10024811 f   LIBCMT:calloc_impl.obj
 0001:0002392f       _realloc                   1002492f f   LIBCMT:realloc.obj
 0001:00023b4a       __recalloc                 10024b4a f   LIBCMT:recalloc.obj
 0001:00023bc5       ?_ValidateRead@@YAHPBXI@Z  10024bc5 f   LIBCMT:validate.obj
 0001:00023bd7       ?_ValidateWrite@@YAHPAXI@Z 10024bd7 f   LIBCMT:validate.obj
 0001:00023be9       ?_ValidateExecute@@YAHP6GHXZ@Z 10024be9 f   LIBCMT:validate.obj
 0001:00023bfc       __global_unwind2           10024bfc f   LIBCMT:exsup.obj
 0001:00023c61       __local_unwind2            10024c61 f   LIBCMT:exsup.obj
 0001:00023ce5       __abnormal_termination     10024ce5 f   LIBCMT:exsup.obj
 0001:00023d08       __NLG_Notify1              10024d08 f   LIBCMT:exsup.obj
 0001:00023d11       __NLG_Notify               10024d11 f   LIBCMT:exsup.obj
 0001:00023d28       __NLG_Dispatch             10024d28     LIBCMT:exsup.obj
 0001:00023d28       __NLG_Dispatch2            10024d28     LIBCMT:exsup.obj
 0001:00023d30       __NLG_Call                 10024d30 f   LIBCMT:exsup.obj
 0001:00023d32       __NLG_Return2              10024d32     LIBCMT:exsup.obj
 0001:00023d33       __set_osfhnd               10024d33 f   LIBCMT:osfinfo.obj
 0001:00023db4       __free_osfhnd              10024db4 f   LIBCMT:osfinfo.obj
 0001:00023e3a       __get_osfhandle            10024e3a f   LIBCMT:osfinfo.obj
 0001:00023eb1       ___lock_fhandle            10024eb1 f   LIBCMT:osfinfo.obj
 0001:00023f51       __unlock_fhandle           10024f51 f   LIBCMT:osfinfo.obj
 0001:00023f78       __alloc_osfhnd             10024f78 f   LIBCMT:osfinfo.obj
 0001:00024112       __open_osfhandle           10025112 f   LIBCMT:osfinfo.obj
 0001:00024228       __write_nolock             10025228 f   LIBCMT:write.obj
 0001:0002495b       __write                    1002595b f   LIBCMT:write.obj
 0001:00024a37       __commit                   10025a37 f   LIBCMT:commit.obj
 0001:00024b18       __ungetc_nolock            10025b18 f   LIBCMT:ungetc.obj
 0001:00024c09       _ungetc                    10025c09 f   LIBCMT:ungetc.obj
 0001:00024c7b       __mbtowc_l                 10025c7b f   LIBCMT:mbtowc.obj
 0001:00024d92       _mbtowc                    10025d92 f   LIBCMT:mbtowc.obj
 0001:00024dac       __isleadbyte_l             10025dac f i LIBCMT:_wctype.obj
 0001:00024de4       _isleadbyte                10025de4 f i LIBCMT:_wctype.obj
 0001:00024df7       __iswalpha_l               10025df7 f i LIBCMT:_wctype.obj
 0001:00024e11       _iswalpha                  10025e11 f i LIBCMT:_wctype.obj
 0001:00024e27       __iswupper_l               10025e27 f i LIBCMT:_wctype.obj
 0001:00024e3e       _iswupper                  10025e3e f i LIBCMT:_wctype.obj
 0001:00024e51       __iswlower_l               10025e51 f i LIBCMT:_wctype.obj
 0001:00024e68       _iswlower                  10025e68 f i LIBCMT:_wctype.obj
 0001:00024e7b       __iswdigit_l               10025e7b f i LIBCMT:_wctype.obj
 0001:00024e92       _iswdigit                  10025e92 f i LIBCMT:_wctype.obj
 0001:00024ea5       __iswxdigit_l              10025ea5 f i LIBCMT:_wctype.obj
 0001:00024ebf       _iswxdigit                 10025ebf f i LIBCMT:_wctype.obj
 0001:00024ed5       __iswspace_l               10025ed5 f i LIBCMT:_wctype.obj
 0001:00024eec       _iswspace                  10025eec f i LIBCMT:_wctype.obj
 0001:00024eff       __iswpunct_l               10025eff f i LIBCMT:_wctype.obj
 0001:00024f16       _iswpunct                  10025f16 f i LIBCMT:_wctype.obj
 0001:00024f29       __iswalnum_l               10025f29 f i LIBCMT:_wctype.obj
 0001:00024f43       _iswalnum                  10025f43 f i LIBCMT:_wctype.obj
 0001:00024f59       __iswprint_l               10025f59 f i LIBCMT:_wctype.obj
 0001:00024f73       _iswprint                  10025f73 f i LIBCMT:_wctype.obj
 0001:00024f89       __iswgraph_l               10025f89 f i LIBCMT:_wctype.obj
 0001:00024fa3       _iswgraph                  10025fa3 f i LIBCMT:_wctype.obj
 0001:00024fb9       __iswcntrl_l               10025fb9 f i LIBCMT:_wctype.obj
 0001:00024fd0       _iswcntrl                  10025fd0 f i LIBCMT:_wctype.obj
 0001:00024fe3       _iswascii                  10025fe3 f i LIBCMT:_wctype.obj
 0001:00024ff7       __iswcsym_l                10025ff7 f i LIBCMT:_wctype.obj
 0001:00025021       ___iswcsym                 10026021 f i LIBCMT:_wctype.obj
 0001:00025047       __iswcsymf_l               10026047 f i LIBCMT:_wctype.obj
 0001:00025071       ___iswcsymf                10026071 f i LIBCMT:_wctype.obj
 0001:000250a0       __allmul                   100260a0 f   LIBCMT:llmul.obj
 0001:000250d4       __read_nolock              100260d4 f   LIBCMT:read.obj
 0001:00025696       __read                     10026696 f   LIBCMT:read.obj
 0001:00025793       __getbuf                   10026793 f   LIBCMT:_getbuf.obj
 0001:00025efc       __wopen                    10026efc f   LIBCMT:wopen.obj
 0001:00025fb2       __wsopen_helper            10026fb2 f   LIBCMT:wopen.obj
 0001:0002607e       __wsopen                   1002707e f   LIBCMT:wopen.obj
 0001:000260b0       __wsopen_s                 100270b0 f   LIBCMT:wopen.obj
 0001:000260d0       __wcsnicmp_l               100270d0 f   LIBCMT:wcsnicmp.obj
 0001:000261ba       __wcsnicmp                 100271ba f   LIBCMT:wcsnicmp.obj
 0001:00026260       _wcsncmp                   10027260 f   LIBCMT:wcsncmp.obj
 0001:00026297       __isatty                   10027297 f   LIBCMT:isatty.obj
 0001:000262fb       _printf                    100272fb f   LIBCMT:printf.obj
 0001:000263aa       __printf_l                 100273aa f   LIBCMT:printf.obj
 0001:000263c3       __printf_s_l               100273c3 f   LIBCMT:printf.obj
 0001:000263dc       _printf_s                  100273dc f   LIBCMT:printf.obj
 0001:000263f4       __printf_p_l               100273f4 f   LIBCMT:printf.obj
 0001:0002640d       __printf_p                 1002740d f   LIBCMT:printf.obj
 0001:00026425       __set_printf_count_output  10027425 f   LIBCMT:printf.obj
 0001:0002644f       __get_printf_count_output  1002744f f   LIBCMT:printf.obj
 0001:00026465       __wctomb_s_l               10027465 f   LIBCMT:wctomb.obj
 0001:000265d1       _wctomb_s                  100275d1 f   LIBCMT:wctomb.obj
 0001:000265ee       __wctomb_l                 100275ee f   LIBCMT:wctomb.obj
 0001:0002663f       _wctomb                    1002763f f   LIBCMT:wctomb.obj
 0001:00026680       __aulldvrm                 10027680 f   LIBCMT:ulldvrm.obj
 0001:000267bb       __output_s_l               100277bb f   LIBCMT:outputs.obj
 0001:0002738b       __validate_param_reuseA    1002838b f   LIBCMT:outputp.obj
 0001:0002755c       _get_crtdouble_arg         1002855c f i LIBCMT:outputp.obj
 0001:00027571       __output_p_l               10028571 f   LIBCMT:outputp.obj
 0001:00028831       __lseeki64_nolock          10029831 f   LIBCMT:lseeki64.obj
 0001:000288b6       __lseeki64                 100298b6 f   LIBCMT:lseeki64.obj
 0001:00028d92       ___crtLCMapStringA         10029d92 f   LIBCMT:a_map.obj
 0001:00028f91       ___crtGetStringTypeA       10029f91 f   LIBCMT:a_str.obj
 0001:00028fd3       ___pwctype_func            10029fd3 f   LIBCMT:ctype.obj
 0001:00028fd9       ___pctype_func             10029fd9 f   LIBCMT:ctype.obj
 0001:0002941d       ___free_lc_time            1002a41d f   LIBCMT:inittime.obj
 0001:000295b2       ___init_time               1002a5b2 f   LIBCMT:inittime.obj
 0001:0002965e       ___free_lconv_num          1002a65e f   LIBCMT:initnum.obj
 0001:000296a3       ___init_numeric            1002a6a3 f   LIBCMT:initnum.obj
 0001:000298a0       ___free_lconv_mon          1002a8a0 f   LIBCMT:initmon.obj
 0001:0002992e       ___init_monetary           1002a92e f   LIBCMT:initmon.obj
 0001:00029bf4       ___init_ctype              1002abf4 f   LIBCMT:initctyp.obj
 0001:00029f96       ____mb_cur_max_func        1002af96 f   LIBCMT:initctyp.obj
 0001:00029fbf       ____mb_cur_max_l_func      1002afbf f   LIBCMT:initctyp.obj
 0001:00029fdb       ____lc_codepage_func       1002afdb f   LIBCMT:initctyp.obj
 0001:0002a001       ____lc_collate_cp_func     1002b001 f   LIBCMT:initctyp.obj
 0001:0002a027       ____lc_handle_func         1002b027 f   LIBCMT:initctyp.obj
 0001:0002a04d       ___init_collate            1002b04d f   LIBCMT:initcoll.obj
 0001:0002a050       __Getdays_l                1002b050 f   LIBCMT:strftime.obj
 0001:0002a150       __Getdays                  1002b150 f   LIBCMT:strftime.obj
 0001:0002a159       __Getmonths_l              1002b159 f   LIBCMT:strftime.obj
 0001:0002a259       __Getmonths                1002b259 f   LIBCMT:strftime.obj
 0001:0002a262       __Gettnames_l              1002b262 f   LIBCMT:strftime.obj
 0001:0002a5b9       __Gettnames                1002b5b9 f   LIBCMT:strftime.obj
 0001:0002aedc       __Strftime_l               1002bedc f   LIBCMT:strftime.obj
 0001:0002b080       __strftime_l               1002c080 f   LIBCMT:strftime.obj
 0001:0002b0a0       _strftime                  1002c0a0 f   LIBCMT:strftime.obj
 0001:0002b0bf       __Strftime                 1002c0bf f   LIBCMT:strftime.obj
 0001:0002b0df       _localeconv                1002c0df f   LIBCMT:lconv.obj
 0001:0002b110       _strcspn                   1002c110 f   LIBCMT:strcspn.obj
 0001:0002b751       ___get_qualified_locale    1002c751 f   LIBCMT:getqloc.obj
 0001:0002ceb8       _memcmp                    1002deb8 f   LIBCMT:memcmp.obj
 0001:0002e538       _strncmp                   1002f538 f   LIBCMT:strncmp.obj
 0001:0002e600       _strpbrk                   1002f600 f   LIBCMT:strpbrk.obj
 0001:0002e69d       ___crtLCMapStringW         1002f69d f   LIBCMT:w_map.obj
 0001:0002e6f4       __iswctype_l               1002f6f4 f   LIBCMT:iswctype.obj
 0001:0002e77e       _iswctype                  1002f77e f   LIBCMT:iswctype.obj
 0001:0002e7f4       _is_wctype                 1002f7f4 f   LIBCMT:iswctype.obj
 0001:0002e7ff       __fputwc_nolock            1002f7ff f   LIBCMT:fputwc.obj
 0001:0002e986       _fputwc                    1002f986 f   LIBCMT:fputwc.obj
 0001:0002e9ff       _putwc                     1002f9ff f   LIBCMT:fputwc.obj
 0001:0002ea5d       __ismbbkalnum_l            1002fa5d f   LIBCMT:ismbbyte.obj
 0001:0002ea76       __ismbbkalnum              1002fa76 f   LIBCMT:ismbbyte.obj
 0001:0002ea8e       __ismbbkprint_l            1002fa8e f   LIBCMT:ismbbyte.obj
 0001:0002eaa7       __ismbbkprint              1002faa7 f   LIBCMT:ismbbyte.obj
 0001:0002eabf       __ismbbkpunct_l            1002fabf f   LIBCMT:ismbbyte.obj
 0001:0002ead8       __ismbbkpunct              1002fad8 f   LIBCMT:ismbbyte.obj
 0001:0002eaf0       __ismbbalnum_l             1002faf0 f   LIBCMT:ismbbyte.obj
 0001:0002eb0c       __ismbbalnum               1002fb0c f   LIBCMT:ismbbyte.obj
 0001:0002eb27       __ismbbalpha_l             1002fb27 f   LIBCMT:ismbbyte.obj
 0001:0002eb43       __ismbbalpha               1002fb43 f   LIBCMT:ismbbyte.obj
 0001:0002eb5e       __ismbbgraph_l             1002fb5e f   LIBCMT:ismbbyte.obj
 0001:0002eb7a       __ismbbgraph               1002fb7a f   LIBCMT:ismbbyte.obj
 0001:0002eb95       __ismbbprint_l             1002fb95 f   LIBCMT:ismbbyte.obj
 0001:0002ebb1       __ismbbprint               1002fbb1 f   LIBCMT:ismbbyte.obj
 0001:0002ebcc       __ismbbpunct_l             1002fbcc f   LIBCMT:ismbbyte.obj
 0001:0002ebe5       __ismbbpunct               1002fbe5 f   LIBCMT:ismbbyte.obj
 0001:0002ebfd       __ismbblead_l              1002fbfd f   LIBCMT:ismbbyte.obj
 0001:0002ec16       __ismbblead                1002fc16 f   LIBCMT:ismbbyte.obj
 0001:0002ec2e       __ismbbtrail_l             1002fc2e f   LIBCMT:ismbbyte.obj
 0001:0002ec47       __ismbbtrail               1002fc47 f   LIBCMT:ismbbyte.obj
 0001:0002ec5f       __ismbbkana_l              1002fc5f f   LIBCMT:ismbbyte.obj
 0001:0002ecb4       __ismbbkana                1002fcb4 f   LIBCMT:ismbbyte.obj
 0001:0002ecc7       _atol                      1002fcc7 f   LIBCMT:atox.obj
 0001:0002ecdd       __atol_l                   1002fcdd f   LIBCMT:atox.obj
 0001:0002ecf6       _atoi                      1002fcf6 f   LIBCMT:atox.obj
 0001:0002ed01       __atoi_l                   1002fd01 f   LIBCMT:atox.obj
 0001:0002ed0c       __atoi64                   1002fd0c f   LIBCMT:atox.obj
 0001:0002ed22       __atoi64_l                 1002fd22 f   LIBCMT:atox.obj
 0001:0002ed40       __alloca_probe_16          1002fd40 f   LIBCMT:alloca16.obj
 0001:0002ed56       __alloca_probe_8           1002fd56     LIBCMT:alloca16.obj
 0001:0002ed6c       __fptrap                   1002fd6c f   LIBCMT:crt0fp.obj
 0001:0002ed75       __putwch_nolock            1002fd75 f   LIBCMT:putwch.obj
 0001:0002ee3a       __cputws                   1002fe3a f   LIBCMT:putwch.obj
 0001:0002eed9       __putwch                   1002fed9 f   LIBCMT:putwch.obj
 0001:0002ef1f       __chsize_nolock            1002ff1f f   LIBCMT:chsize.obj
 0001:0002f0d5       __chsize_s                 100300d5 f   LIBCMT:chsize.obj
 0001:0002f1c2       __chsize                   100301c2 f   LIBCMT:chsize.obj
 0001:0002f1de       __lseek_nolock             100301de f   LIBCMT:lseek.obj
 0001:0002f253       __lseek                    10030253 f   LIBCMT:lseek.obj
 0001:0002f32f       __setmode_nolock           1003032f f   LIBCMT:setmode.obj
 0001:0002f3eb       __set_fmode                100303eb f   LIBCMT:setmode.obj
 0001:0002f437       __get_fmode                10030437 f   LIBCMT:setmode.obj
 0001:0002f470       __setmode                  10030470 f   LIBCMT:setmode.obj
 0001:0002f567       _vprintf_helper            10030567 f   LIBCMT:vprintf.obj
 0001:0002f5f7       __vprintf_l                100305f7 f   LIBCMT:vprintf.obj
 0001:0002f614       __vprintf_s_l              10030614 f   LIBCMT:vprintf.obj
 0001:0002f631       __vprintf_p_l              10030631 f   LIBCMT:vprintf.obj
 0001:0002f64e       _vprintf                   1003064e f   LIBCMT:vprintf.obj
 0001:0002f66a       _vprintf_s                 1003066a f   LIBCMT:vprintf.obj
 0001:0002f686       __vprintf_p                10030686 f   LIBCMT:vprintf.obj
 0001:0002f8d1       _strtol                    100308d1 f   LIBCMT:strtol.obj
 0001:0002f8fc       __strtol_l                 100308fc f   LIBCMT:strtol.obj
 0001:0002f919       _strtoul                   10030919 f   LIBCMT:strtol.obj
 0001:0002f945       __strtoul_l                10030945 f   LIBCMT:strtol.obj
 0001:0002f962       ___ansicp                  10030962 f   LIBCMT:convrtcp.obj
 0001:0002f9ab       ___convertcp               100309ab f   LIBCMT:convrtcp.obj
 0001:0002fb5f       __get_daylight             10030b5f f   LIBCMT:timeset.obj
 0001:0002fb98       __get_dstbias              10030b98 f   LIBCMT:timeset.obj
 0001:0002fbd1       __get_timezone             10030bd1 f   LIBCMT:timeset.obj
 0001:0002fc0a       __get_tzname               10030c0a f   LIBCMT:timeset.obj
 0001:0002fcae       ___daylight                10030cae f   LIBCMT:timeset.obj
 0001:0002fcb4       ___dstbias                 10030cb4 f   LIBCMT:timeset.obj
 0001:0002fcba       ___timezone                10030cba f   LIBCMT:timeset.obj
 0001:0002fcc0       ___tzname                  10030cc0 f   LIBCMT:timeset.obj
 0001:0002fcc6       __set_daylight             10030cc6 f i LIBCMT:tzset.obj
 0001:0002fcd7       __set_dstbias              10030cd7 f i LIBCMT:tzset.obj
 0001:0002fce8       __set_timezone             10030ce8 f i LIBCMT:tzset.obj
 0001:0003040e       ___tzset                   1003140e f   LIBCMT:tzset.obj
 0001:0003045d       __tzset                    1003145d f   LIBCMT:tzset.obj
 0001:00030495       __isindst                  10031495 f   LIBCMT:tzset.obj
 0001:000304d6       ___ascii_stricmp           100314d6 f   LIBCMT:stricmp.obj
 0001:0003050f       __stricmp_l                1003150f f   LIBCMT:stricmp.obj
 0001:000305e4       __stricmp                  100315e4 f   LIBCMT:stricmp.obj
 0001:00030636       __strnicmp_l               10031636 f   LIBCMT:strnicmp.obj
 0001:00030728       __strnicmp                 10031728 f   LIBCMT:strnicmp.obj
 0001:00030863       __itoa_s                   10031863 f   LIBCMT:xtoas.obj
 0001:0003088d       __ltoa_s                   1003188d f   LIBCMT:xtoas.obj
 0001:000308b4       __ultoa_s                  100318b4 f   LIBCMT:xtoas.obj
 0001:000309c6       __i64toa_s                 100319c6 f   LIBCMT:xtoas.obj
 0001:000309fb       __ui64toa_s                100319fb f   LIBCMT:xtoas.obj
 0001:00030a3d       ___crtGetStringTypeW       10031a3d f   LIBCMT:w_str.obj
 0001:00030a7b       __flswbuf                  10031a7b f   LIBCMT:_flswbuf.obj
 0001:00030e86       __strtoi64                 10031e86 f   LIBCMT:strtoq.obj
 0001:00030eb1       __strtoi64_l               10031eb1 f   LIBCMT:strtoq.obj
 0001:00030ece       __strtoui64                10031ece f   LIBCMT:strtoq.obj
 0001:00030efa       __strtoui64_l              10031efa f   LIBCMT:strtoq.obj
 0001:00030f17       ___initconin               10031f17 f   LIBCMT:initcon.obj
 0001:00030f36       ___initconout              10031f36 f   LIBCMT:initcon.obj
 0001:00030f55       ___termcon                 10031f55 f   LIBCMT:initcon.obj
 0001:00030f82       _wcslen                    10031f82 f   LIBCMT:wcslen.obj
 0001:00030f9c       __getenv_helper_nolock     10031f9c f   LIBCMT:getenv.obj
 0001:0003115c       _getenv                    1003215c f   LIBCMT:getenv.obj
 0001:000311df       _getenv_s                  100321df f   LIBCMT:getenv.obj
 0001:000312b7       __dupenv_s                 100322b7 f   LIBCMT:getenv.obj
 0001:0003139d       __tolower                  1003239d f   LIBCMT:tolower.obj
 0001:000313aa       __tolower_l                100323aa f   LIBCMT:tolower.obj
 0001:000314bf       _tolower                   100324bf f   LIBCMT:tolower.obj
 0001:000314f0       ___ascii_strnicmp          100324f0 f   LIBCMT:_strnicm.obj
 0001:00031551       __mbsnbicoll_l             10032551 f   LIBCMT:mbsnbico.obj
 0001:0003163f       __mbsnbicoll               1003263f f   LIBCMT:mbsnbico.obj
 0001:00031659       ___wtomb_environ           10032659 f   LIBCMT:wtombenv.obj
 0001:000316f0       _calloc                    100326f0 f   LIBCMT:calloc.obj
 0001:00031730       _strnlen                   10032730 f   LIBCMT:strlen_s.obj
 0001:00031adb       ___crtCompareStringA       10032adb f   LIBCMT:a_cmp.obj
 0001:00031b1d       __strnicoll_l              10032b1d f   LIBCMT:strnicol.obj
 0001:00031c17       __strnicoll                10032c17 f   LIBCMT:strnicol.obj
 0001:00031cec       ___crtsetenv               10032cec f   LIBCMT:setenv.obj
 0001:00031f37       __strdup                   10032f37 f   LIBCMT:strdup.obj
 0001:00031f8c       __mbschr_l                 10032f8c f   LIBCMT:mbschr.obj
 0001:00032048       __mbschr                   10033048 f   LIBCMT:mbschr.obj
 0001:00032070       _strchr                    10033070 f   LIBCMT:strchr.obj
 0001:00032076       ___from_strstr_to_strchr   10033076     LIBCMT:strchr.obj
 0001:0003212e       _PathFindExtensionW@4      1003312e f   shlwapi:SHLWAPI.dll
 0001:00032134       _PathRemoveFileSpecW@4     10033134 f   shlwapi:SHLWAPI.dll
 0001:0003213a       _PathIsRelativeW@4         1003313a f   shlwapi:SHLWAPI.dll
 0001:00032140       _PathFindFileNameW@4       10033140 f   shlwapi:SHLWAPI.dll
 0001:00032146       _RaiseException@16         10033146 f   kernel32:KERNEL32.dll
 0001:0003214c       _ExitThread@4              1003314c f   kernel32:KERNEL32.dll
 0001:00032152       _CreateThread@24           10033152 f   kernel32:KERNEL32.dll
 0001:00032158       _RtlUnwind@16              10033158 f   kernel32:KERNEL32.dll
 0001:0003215e       _UnhandledExceptionFilter@4 1003315e f   kernel32:KERNEL32.dll
 0001:00032164       _SetUnhandledExceptionFilter@4 10033164 f   kernel32:KERNEL32.dll
 0001:0003216a       _GetCommandLineA@0         1003316a f   kernel32:KERNEL32.dll
 0001:00032170       _HeapAlloc@12              10033170 f   kernel32:KERNEL32.dll
 0001:00032176       _HeapFree@12               10033176 f   kernel32:KERNEL32.dll
 0001:0003217c       _TerminateProcess@8        1003317c f   kernel32:KERNEL32.dll
 0001:00032182       _GetCurrentProcess@0       10033182 f   kernel32:KERNEL32.dll
 0001:00032188       _IsDebuggerPresent@0       10033188 f   kernel32:KERNEL32.dll
 0001:0003218e       _GetModuleFileNameA@12     1003318e f   kernel32:KERNEL32.dll
 0001:00032194       _GetModuleHandleW@4        10033194 f   kernel32:KERNEL32.dll
 0001:0003219a       _TlsGetValue@4             1003319a f   kernel32:KERNEL32.dll
 0001:000321a0       _TlsAlloc@0                100331a0 f   kernel32:KERNEL32.dll
 0001:000321a6       _TlsSetValue@8             100331a6 f   kernel32:KERNEL32.dll
 0001:000321ac       _TlsFree@4                 100331ac f   kernel32:KERNEL32.dll
 0001:000321b2       _SetLastError@4            100331b2 f   kernel32:KERNEL32.dll
 0001:000321b8       _GetCurrentThread@0        100331b8 f   kernel32:KERNEL32.dll
 0001:000321be       _ExitProcess@4             100331be f   kernel32:KERNEL32.dll
 0001:000321c4       _SetHandleCount@4          100331c4 f   kernel32:KERNEL32.dll
 0001:000321ca       _GetFileType@4             100331ca f   kernel32:KERNEL32.dll
 0001:000321d0       _GetStartupInfoA@4         100331d0 f   kernel32:KERNEL32.dll
 0001:000321d6       _SetConsoleCtrlHandler@8   100331d6 f   kernel32:KERNEL32.dll
 0001:000321dc       _FatalAppExitA@8           100331dc f   kernel32:KERNEL32.dll
 0001:000321e2       _GetCPInfo@8               100331e2 f   kernel32:KERNEL32.dll
 0001:000321e8       _GetACP@0                  100331e8 f   kernel32:KERNEL32.dll
 0001:000321ee       _GetOEMCP@0                100331ee f   kernel32:KERNEL32.dll
 0001:000321f4       _IsValidCodePage@4         100331f4 f   kernel32:KERNEL32.dll
 0001:000321fa       _FreeEnvironmentStringsA@4 100331fa f   kernel32:KERNEL32.dll
 0001:00032200       _GetEnvironmentStrings@0   10033200 f   kernel32:KERNEL32.dll
 0001:00032206       _FreeEnvironmentStringsW@4 10033206 f   kernel32:KERNEL32.dll
 0001:0003220c       _GetEnvironmentStringsW@0  1003320c f   kernel32:KERNEL32.dll
 0001:00032212       _HeapCreate@12             10033212 f   kernel32:KERNEL32.dll
 0001:00032218       _HeapDestroy@4             10033218 f   kernel32:KERNEL32.dll
 0001:0003221e       _QueryPerformanceCounter@4 1003321e f   kernel32:KERNEL32.dll
 0001:00032224       _GetCurrentProcessId@0     10033224 f   kernel32:KERNEL32.dll
 0001:0003222a       _GetSystemTimeAsFileTime@4 1003322a f   kernel32:KERNEL32.dll
 0001:00032230       _HeapReAlloc@16            10033230 f   kernel32:KERNEL32.dll
 0001:00032236       _LoadLibraryA@4            10033236 f   kernel32:KERNEL32.dll
 0001:0003223c       _GetLocaleInfoW@16         1003323c f   kernel32:KERNEL32.dll
 0001:00032242       _GetLocaleInfoA@16         10033242 f   kernel32:KERNEL32.dll
 0001:00032248       _HeapSize@12               10033248 f   kernel32:KERNEL32.dll
 0001:0003224e       _InterlockedExchange@8     1003324e f   kernel32:KERNEL32.dll
 0001:00032254       _SetStdHandle@8            10033254 f   kernel32:KERNEL32.dll
 0001:0003225a       _GetConsoleCP@0            1003325a f   kernel32:KERNEL32.dll
 0001:00032260       _GetConsoleMode@8          10033260 f   kernel32:KERNEL32.dll
 0001:00032266       _MultiByteToWideChar@24    10033266 f   kernel32:KERNEL32.dll
 0001:0003226c       _ReadFile@20               1003326c f   kernel32:KERNEL32.dll
 0001:00032272       _LCMapStringA@24           10033272 f   kernel32:KERNEL32.dll
 0001:00032278       _LCMapStringW@24           10033278 f   kernel32:KERNEL32.dll
 0001:0003227e       _GetStringTypeA@20         1003327e f   kernel32:KERNEL32.dll
 0001:00032284       _GetStringTypeW@16         10033284 f   kernel32:KERNEL32.dll
 0001:0003228a       _GetTimeFormatA@24         1003328a f   kernel32:KERNEL32.dll
 0001:00032290       _GetDateFormatA@24         10033290 f   kernel32:KERNEL32.dll
 0001:00032296       _GetUserDefaultLCID@0      10033296 f   kernel32:KERNEL32.dll
 0001:0003229c       _EnumSystemLocalesA@8      1003329c f   kernel32:KERNEL32.dll
 0001:000322a2       _IsValidLocale@8           100332a2 f   kernel32:KERNEL32.dll
 0001:000322a8       _WriteConsoleA@20          100332a8 f   kernel32:KERNEL32.dll
 0001:000322ae       _GetConsoleOutputCP@0      100332ae f   kernel32:KERNEL32.dll
 0001:000322b4       _SetEndOfFile@4            100332b4 f   kernel32:KERNEL32.dll
 0001:000322ba       _GetProcessHeap@0          100332ba f   kernel32:KERNEL32.dll
 0001:000322c0       _GetTimeZoneInformation@4  100332c0 f   kernel32:KERNEL32.dll
 0001:000322c6       _CreateFileA@28            100332c6 f   kernel32:KERNEL32.dll
 0001:000322cc       _CompareStringA@24         100332cc f   kernel32:KERNEL32.dll
 0001:000322d2       _CompareStringW@24         100332d2 f   kernel32:KERNEL32.dll
 0001:000322d8       _SetEnvironmentVariableA@8 100332d8 f   kernel32:KERNEL32.dll
 0002:00000000       __imp__CloseHandle@4       10034000     kernel32:KERNEL32.dll
 0002:00000004       __imp__WaitForSingleObject@8 10034004     kernel32:KERNEL32.dll
 0002:00000008       __imp__Sleep@4             10034008     kernel32:KERNEL32.dll
 0002:0000000c       __imp__SetEvent@4          1003400c     kernel32:KERNEL32.dll
 0002:00000010       __imp__LeaveCriticalSection@4 10034010     kernel32:KERNEL32.dll
 0002:00000014       __imp__EnterCriticalSection@4 10034014     kernel32:KERNEL32.dll
 0002:00000018       __imp__InterlockedDecrement@4 10034018     kernel32:KERNEL32.dll
 0002:0000001c       __imp__GetPrivateProfileIntW@16 1003401c     kernel32:KERNEL32.dll
 0002:00000020       __imp__ResetEvent@4        10034020     kernel32:KERNEL32.dll
 0002:00000024       __imp__InterlockedIncrement@4 10034024     kernel32:KERNEL32.dll
 0002:00000028       __imp__GetTickCount@0      10034028     kernel32:KERNEL32.dll
 0002:0000002c       __imp__CreateEventW@16     1003402c     kernel32:KERNEL32.dll
 0002:00000030       __imp__InitializeCriticalSectionAndSpinCount@8 10034030     kernel32:KERNEL32.dll
 0002:00000034       __imp__InitializeCriticalSection@4 10034034     kernel32:KERNEL32.dll
 0002:00000038       __imp__DeleteCriticalSection@4 10034038     kernel32:KERNEL32.dll
 0002:0000003c       __imp__GetProcAddress@8    1003403c     kernel32:KERNEL32.dll
 0002:00000040       __imp__LoadLibraryW@4      10034040     kernel32:KERNEL32.dll
 0002:00000044       __imp__FreeLibrary@4       10034044     kernel32:KERNEL32.dll
 0002:00000048       __imp__GetModuleFileNameW@12 10034048     kernel32:KERNEL32.dll
 0002:0000004c       __imp__VirtualAlloc@16     1003404c     kernel32:KERNEL32.dll
 0002:00000050       __imp__VirtualFree@12      10034050     kernel32:KERNEL32.dll
 0002:00000054       __imp__VirtualQuery@12     10034054     kernel32:KERNEL32.dll
 0002:00000058       __imp__SleepEx@8           10034058     kernel32:KERNEL32.dll
 0002:0000005c       __imp__GetCurrentThreadId@0 1003405c     kernel32:KERNEL32.dll
 0002:00000060       __imp__GetSystemInfo@4     10034060     kernel32:KERNEL32.dll
 0002:00000064       __imp__GetLocalTime@4      10034064     kernel32:KERNEL32.dll
 0002:00000068       __imp__FreeConsole@0       10034068     kernel32:KERNEL32.dll
 0002:0000006c       __imp__FlushFileBuffers@4  1003406c     kernel32:KERNEL32.dll
 0002:00000070       __imp__IsBadWritePtr@8     10034070     kernel32:KERNEL32.dll
 0002:00000074       __imp__WriteConsoleW@20    10034074     kernel32:KERNEL32.dll
 0002:00000078       __imp__GetConsoleWindow@0  10034078     kernel32:KERNEL32.dll
 0002:0000007c       __imp__SetConsoleTitleW@4  1003407c     kernel32:KERNEL32.dll
 0002:00000080       __imp__SetConsoleWindowInfo@12 10034080     kernel32:KERNEL32.dll
 0002:00000084       __imp__SetConsoleScreenBufferSize@8 10034084     kernel32:KERNEL32.dll
 0002:00000088       __imp__GetStdHandle@4      10034088     kernel32:KERNEL32.dll
 0002:0000008c       __imp__AllocConsole@0      1003408c     kernel32:KERNEL32.dll
 0002:00000090       __imp__GetLastError@0      10034090     kernel32:KERNEL32.dll
 0002:00000094       __imp__CreateDirectoryW@8  10034094     kernel32:KERNEL32.dll
 0002:00000098       __imp__GetFileAttributesW@4 10034098     kernel32:KERNEL32.dll
 0002:0000009c       __imp__lstrlenW@4          1003409c     kernel32:KERNEL32.dll
 0002:000000a0       __imp__SetFilePointer@16   100340a0     kernel32:KERNEL32.dll
 0002:000000a4       __imp__CreateFileW@28      100340a4     kernel32:KERNEL32.dll
 0002:000000a8       __imp__WideCharToMultiByte@32 100340a8     kernel32:KERNEL32.dll
 0002:000000ac       __imp__GetTempPathW@8      100340ac     kernel32:KERNEL32.dll
 0002:000000b0       __imp__WriteFile@20        100340b0     kernel32:KERNEL32.dll
 0002:000000b4       __imp__GetFileSize@8       100340b4     kernel32:KERNEL32.dll
 0002:000000b8       __imp__lstrlenA@4          100340b8     kernel32:KERNEL32.dll
 0002:000000bc       __imp__lstrcatA@8          100340bc     kernel32:KERNEL32.dll
 0002:000000c0       __imp__CompareStringW@24   100340c0     kernel32:KERNEL32.dll
 0002:000000c4       __imp__CompareStringA@24   100340c4     kernel32:KERNEL32.dll
 0002:000000c8       __imp__CreateFileA@28      100340c8     kernel32:KERNEL32.dll
 0002:000000cc       __imp__GetTimeZoneInformation@4 100340cc     kernel32:KERNEL32.dll
 0002:000000d0       __imp__GetProcessHeap@0    100340d0     kernel32:KERNEL32.dll
 0002:000000d4       __imp__SetEndOfFile@4      100340d4     kernel32:KERNEL32.dll
 0002:000000d8       __imp__GetConsoleOutputCP@0 100340d8     kernel32:KERNEL32.dll
 0002:000000dc       __imp__WriteConsoleA@20    100340dc     kernel32:KERNEL32.dll
 0002:000000e0       __imp__IsValidLocale@8     100340e0     kernel32:KERNEL32.dll
 0002:000000e4       __imp__EnumSystemLocalesA@8 100340e4     kernel32:KERNEL32.dll
 0002:000000e8       __imp__GetUserDefaultLCID@0 100340e8     kernel32:KERNEL32.dll
 0002:000000ec       __imp__RaiseException@16   100340ec     kernel32:KERNEL32.dll
 0002:000000f0       __imp__ExitThread@4        100340f0     kernel32:KERNEL32.dll
 0002:000000f4       __imp__CreateThread@24     100340f4     kernel32:KERNEL32.dll
 0002:000000f8       __imp__RtlUnwind@16        100340f8     kernel32:KERNEL32.dll
 0002:000000fc       __imp__UnhandledExceptionFilter@4 100340fc     kernel32:KERNEL32.dll
 0002:00000100       __imp__SetUnhandledExceptionFilter@4 10034100     kernel32:KERNEL32.dll
 0002:00000104       __imp__GetCommandLineA@0   10034104     kernel32:KERNEL32.dll
 0002:00000108       __imp__HeapAlloc@12        10034108     kernel32:KERNEL32.dll
 0002:0000010c       __imp__HeapFree@12         1003410c     kernel32:KERNEL32.dll
 0002:00000110       __imp__TerminateProcess@8  10034110     kernel32:KERNEL32.dll
 0002:00000114       __imp__GetCurrentProcess@0 10034114     kernel32:KERNEL32.dll
 0002:00000118       __imp__IsDebuggerPresent@0 10034118     kernel32:KERNEL32.dll
 0002:0000011c       __imp__GetModuleFileNameA@12 1003411c     kernel32:KERNEL32.dll
 0002:00000120       __imp__GetModuleHandleW@4  10034120     kernel32:KERNEL32.dll
 0002:00000124       __imp__TlsGetValue@4       10034124     kernel32:KERNEL32.dll
 0002:00000128       __imp__TlsAlloc@0          10034128     kernel32:KERNEL32.dll
 0002:0000012c       __imp__TlsSetValue@8       1003412c     kernel32:KERNEL32.dll
 0002:00000130       __imp__TlsFree@4           10034130     kernel32:KERNEL32.dll
 0002:00000134       __imp__SetLastError@4      10034134     kernel32:KERNEL32.dll
 0002:00000138       __imp__GetCurrentThread@0  10034138     kernel32:KERNEL32.dll
 0002:0000013c       __imp__ExitProcess@4       1003413c     kernel32:KERNEL32.dll
 0002:00000140       __imp__SetHandleCount@4    10034140     kernel32:KERNEL32.dll
 0002:00000144       __imp__GetFileType@4       10034144     kernel32:KERNEL32.dll
 0002:00000148       __imp__GetStartupInfoA@4   10034148     kernel32:KERNEL32.dll
 0002:0000014c       __imp__SetConsoleCtrlHandler@8 1003414c     kernel32:KERNEL32.dll
 0002:00000150       __imp__FatalAppExitA@8     10034150     kernel32:KERNEL32.dll
 0002:00000154       __imp__GetCPInfo@8         10034154     kernel32:KERNEL32.dll
 0002:00000158       __imp__GetACP@0            10034158     kernel32:KERNEL32.dll
 0002:0000015c       __imp__GetOEMCP@0          1003415c     kernel32:KERNEL32.dll
 0002:00000160       __imp__IsValidCodePage@4   10034160     kernel32:KERNEL32.dll
 0002:00000164       __imp__FreeEnvironmentStringsA@4 10034164     kernel32:KERNEL32.dll
 0002:00000168       __imp__GetEnvironmentStrings@0 10034168     kernel32:KERNEL32.dll
 0002:0000016c       __imp__FreeEnvironmentStringsW@4 1003416c     kernel32:KERNEL32.dll
 0002:00000170       __imp__GetEnvironmentStringsW@0 10034170     kernel32:KERNEL32.dll
 0002:00000174       __imp__HeapCreate@12       10034174     kernel32:KERNEL32.dll
 0002:00000178       __imp__HeapDestroy@4       10034178     kernel32:KERNEL32.dll
 0002:0000017c       __imp__QueryPerformanceCounter@4 1003417c     kernel32:KERNEL32.dll
 0002:00000180       __imp__GetCurrentProcessId@0 10034180     kernel32:KERNEL32.dll
 0002:00000184       __imp__GetSystemTimeAsFileTime@4 10034184     kernel32:KERNEL32.dll
 0002:00000188       __imp__HeapReAlloc@16      10034188     kernel32:KERNEL32.dll
 0002:0000018c       __imp__LoadLibraryA@4      1003418c     kernel32:KERNEL32.dll
 0002:00000190       __imp__GetLocaleInfoW@16   10034190     kernel32:KERNEL32.dll
 0002:00000194       __imp__GetLocaleInfoA@16   10034194     kernel32:KERNEL32.dll
 0002:00000198       __imp__HeapSize@12         10034198     kernel32:KERNEL32.dll
 0002:0000019c       __imp__InterlockedExchange@8 1003419c     kernel32:KERNEL32.dll
 0002:000001a0       __imp__SetStdHandle@8      100341a0     kernel32:KERNEL32.dll
 0002:000001a4       __imp__GetConsoleCP@0      100341a4     kernel32:KERNEL32.dll
 0002:000001a8       __imp__GetConsoleMode@8    100341a8     kernel32:KERNEL32.dll
 0002:000001ac       __imp__MultiByteToWideChar@24 100341ac     kernel32:KERNEL32.dll
 0002:000001b0       __imp__ReadFile@20         100341b0     kernel32:KERNEL32.dll
 0002:000001b4       __imp__LCMapStringA@24     100341b4     kernel32:KERNEL32.dll
 0002:000001b8       __imp__LCMapStringW@24     100341b8     kernel32:KERNEL32.dll
 0002:000001bc       __imp__GetStringTypeA@20   100341bc     kernel32:KERNEL32.dll
 0002:000001c0       __imp__GetStringTypeW@16   100341c0     kernel32:KERNEL32.dll
 0002:000001c4       __imp__GetTimeFormatA@24   100341c4     kernel32:KERNEL32.dll
 0002:000001c8       __imp__GetDateFormatA@24   100341c8     kernel32:KERNEL32.dll
 0002:000001cc       __imp__SetEnvironmentVariableA@8 100341cc     kernel32:KERNEL32.dll
 0002:000001d0       \177KERNEL32_NULL_THUNK_DATA 100341d0     kernel32:KERNEL32.dll
 0002:000001d4       __imp__PathFindFileNameW@4 100341d4     shlwapi:SHLWAPI.dll
 0002:000001d8       __imp__PathIsRelativeW@4   100341d8     shlwapi:SHLWAPI.dll
 0002:000001dc       __imp__PathRemoveFileSpecW@4 100341dc     shlwapi:SHLWAPI.dll
 0002:000001e0       __imp__PathFindExtensionW@4 100341e0     shlwapi:SHLWAPI.dll
 0002:000001e4       \177SHLWAPI_NULL_THUNK_DATA 100341e4     shlwapi:SHLWAPI.dll
 0002:000001e8       __imp__EnableMenuItem@12   100341e8     user32:USER32.dll
 0002:000001ec       __imp__ShowWindow@8        100341ec     user32:USER32.dll
 0002:000001f0       __imp__GetMessageW@16      100341f0     user32:USER32.dll
 0002:000001f4       __imp__PostThreadMessageW@16 100341f4     user32:USER32.dll
 0002:000001f8       __imp__GetSystemMenu@8     100341f8     user32:USER32.dll
 0002:000001fc       \177USER32_NULL_THUNK_DATA 100341fc     user32:USER32.dll
 0002:00000200       ___xc_a                    10034200     LIBCMT:crt0init.obj
 0002:00000204       ___xc_z                    10034204     LIBCMT:crt0init.obj
 0002:00000208       ___xi_a                    10034208     LIBCMT:crt0init.obj
 0002:0000021c       ___xi_z                    1003421c     LIBCMT:crt0init.obj
 0002:00000220       ___xp_a                    10034220     LIBCMT:crt0init.obj
 0002:0000022c       ___xp_z                    1003422c     LIBCMT:crt0init.obj
 0002:00000230       ___xt_a                    10034230     LIBCMT:crt0init.obj
 0002:00000234       ___xt_z                    10034234     LIBCMT:crt0init.obj
 0002:0000025c       ??_C@_0P@GHFPNOJB@bad?5allocation?$AA@ 1003425c     BaseChan.obj
 0002:0000026b       ?_Value@?$_Is_swap_move@U_Swap_move_tag@std@@@std@@2_NB 1003426b     BaseChan.obj
 0002:0000026c       ?value@?$integral_constant@_N$0A@@tr1@std@@2_NB 1003426c     BaseChan.obj
 0002:0000026d       ?value@?$integral_constant@_N$00@tr1@std@@2_NB 1003426d     BaseChan.obj
 0002:00000274       ??_7bad_alloc@std@@6B@     10034274     BaseChan.obj
 0002:00000280       ??_7ICommChannel@@6B@      10034280     BaseChan.obj
 0002:000002b4       ??_7IProtocolObserver@@6B@ 100342b4     BaseChan.obj
 0002:000002c0       ??_C@_1FE@IAJFNMGB@?$AAC?$AAl?$AAe?$AAa?$AAr?$AA?5?$AAa?$AAn?$AAd?$AA?5?$AAk?$AAe?$AAe?$AAp?$AA?5?$AAp?$AAa?$AAc?$AAk?$AAa?$AAg?$AAe?$AA?5?$AAf?$AAl?$AAa?$AAg?$AA?5?$AAi?$AAs?$AA?5?$AAs@ 100342c0     BaseChan.obj
 0002:00000318       ??_C@_1EK@NPAEIONA@?$AAa?$AAs?$AAy?$AAn?$AAc?$AA?5?$AAp?$AAa?$AAc?$AAk?$AAa?$AAg?$AAe?$AA?5?$AAc?$AAa?$AAp?$AAa?$AAc?$AAi?$AAt?$AAy?$AA?5?$AAi?$AAs?$AA?5?$AAs?$AAe?$AAt?$AA?5?$AAt?$AAo@ 10034318     BaseChan.obj
 0002:00000368       ??_C@_1EC@MAEHGKKG@?$AAD?$AAe?$AAv?$AAi?$AAc?$AAe?$AA?5?$AAc?$AAh?$AAa?$AAn?$AAg?$AAe?$AA?5?$AAf?$AAl?$AAa?$AAg?$AA?5?$AAi?$AAs?$AA?5?$AAs?$AAe?$AAt?$AA?5?$AAt?$AAo?$AA?5?$AA?$CF?$AAd?$AA?4@ 10034368     BaseChan.obj
 0002:000003b0       ??_C@_1HM@BAMOAJE@?$AAE?$AAn?$AAd?$AAi?$AAa?$AAn?$AA?5?$AAi?$AAs?$AA?5?$AAs?$AAe?$AAt?$AA?0?$AAL?$AAo?$AAw?$AA?5?$AAl?$AAe?$AAv?$AAe?$AAl?$AA?5?$AAe?$AAn?$AAd?$AAi?$AAa?$AAn?$AA?5?$AAi@ 100343b0     BaseChan.obj
 0002:00000430       ??_C@_1FG@MCLJEGLE@?$AAS?$AAt?$AAo?$AAp?$AAR?$AAe?$AAc?$AAv?$AAT?$AAh?$AAr?$AAe?$AAa?$AAd?$AA?3?$AA?5?$AAW?$AAa?$AAi?$AAt?$AAF?$AAo?$AAr?$AAS?$AAi?$AAn?$AAg?$AAl?$AAe?$AAO?$AAb?$AAj@ 10034430     BaseChan.obj
 0002:00000488       ??_C@_1BC@PILJOBKD@?$AAB?$AAa?$AAs?$AAe?$AAC?$AAh?$AAa?$AAn?$AA?$AA@ 10034488     BaseChan.obj
 0002:0000049c       ??_C@_19BIEPDBPA@?$AAT?$AAy?$AAp?$AAe?$AA?$AA@ 1003449c     BaseChan.obj
 0002:000004a8       ??_C@_17LLLMIFAB@?$AAL?$AAo?$AAg?$AA?$AA@ 100344a8     BaseChan.obj
 0002:000004b0       ??_C@_1M@MFHLECJA@?$AAL?$AAe?$AAv?$AAe?$AAl?$AA?$AA@ 100344b0     BaseChan.obj
 0002:000004bc       ??_C@_1BM@NMAKBNCI@?$AA?2?$AAD?$AAi?$AAa?$AAg?$AAC?$AAh?$AAa?$AAn?$AA?4?$AAi?$AAn?$AAi?$AA?$AA@ 100344bc     BaseChan.obj
 0002:000004dc       ??_7IProtocolChannel@@6B@  100344dc     BaseChan.obj
 0002:00000520       ??_C@_1II@KDIKIDNA@?$AAW?$AAr?$AAi?$AAt?$AAe?$AA?3?$AA?5?$AAi?$AAn?$AAp?$AAu?$AAt?$AA?5?$AAd?$AAa?$AAt?$AAa?$AA?5?$AAp?$AAo?$AAi?$AAn?$AAt?$AAe?$AAr?$AA?5?$AAi?$AAs?$AA?5?$AAn?$AAu?$AAl@ 10034520     BaseChan.obj
 0002:000005a8       ??_C@_1GO@JLOLNHFI@?$AAW?$AAr?$AAi?$AAt?$AAe?$AA?3?$AA?5?$AAf?$AAa?$AAi?$AAl?$AAe?$AAd?$AA?0?$AA?5?$AAr?$AAe?$AAm?$AAo?$AAv?$AAe?$AA?5?$AAp?$AAr?$AAe?$AAv?$AAi?$AAo?$AAu?$AAs?$AAl?$AAy@ 100345a8     BaseChan.obj
 0002:00000618       ??_C@_1GG@EPBHFGDG@?$AAW?$AAr?$AAi?$AAt?$AAe?$AA?3?$AA?5?$AAr?$AAe?$AAm?$AAo?$AAv?$AAe?$AA?5?$AAa?$AAl?$AAl?$AA?5?$AAp?$AAa?$AAc?$AAk?$AAa?$AAg?$AAe?$AAs?$AA?5?$AAs?$AAa?$AAt?$AAi?$AAs@ 10034618     BaseChan.obj
 0002:00000680       ??_C@_1GC@NAIPIELL@?$AAW?$AAr?$AAi?$AAt?$AAe?$AA?3?$AA?5?$AAl?$AAo?$AAw?$AAe?$AAr?$AA?5?$AAw?$AAr?$AAi?$AAt?$AAe?$AA?5?$AAi?$AAs?$AA?5?$AAc?$AAa?$AAl?$AAl?$AAe?$AAd?$AA?0?$AA?5?$AAr?$AAe@ 10034680     BaseChan.obj
 0002:000006e8       ??_C@_1FC@NKMKFBOP@?$AAW?$AAr?$AAi?$AAt?$AAe?$AA?3?$AA?5?$AAa?$AAd?$AAd?$AA?5?$AAa?$AA?5?$AAc?$AAo?$AAn?$AAd?$AAi?$AAt?$AAi?$AAo?$AAn?$AA?5?$AAt?$AAo?$AA?5?$AAl?$AAi?$AAs?$AAt?$AA?0?$AA?5@ 100346e8     BaseChan.obj
 0002:00000740       ??_C@_1FC@DBAKNMEI@?$AAW?$AAr?$AAi?$AAt?$AAe?$AA?3?$AA?5?$AAp?$AAa?$AAc?$AAk?$AAa?$AAg?$AAe?$AA?5?$AAf?$AAa?$AAi?$AAl?$AAe?$AAd?$AA?0?$AA?5?$AAe?$AAr?$AAr?$AAo?$AAr?$AA?5?$AAc?$AAo?$AAd@ 10034740     BaseChan.obj
 0002:00000794       ??_C@_1CI@LFKBEMNO@?$AAW?$AAr?$AAi?$AAt?$AAe?$AA?3?$AA?5?$AAa?$AAc?$AAt?$AAi?$AAo?$AAn?$AA?5?$AAi?$AAs?$AA?5?$AA?$CF?$AAd?$AA?$AA@ 10034794     BaseChan.obj
 0002:000007bc       ??_C@_1BG@HCABDBDD@?$AAW?$AAr?$AAi?$AAt?$AAe?$AA?3?$AA?5?$AA?9?$AA?9?$AA?9?$AA?$AA@ 100347bc     BaseChan.obj
 0002:000007d8       ??_C@_1FC@KFMNLBFB@?$AAW?$AAr?$AAi?$AAt?$AAe?$AA?3?$AA?5?$AAc?$AAh?$AAa?$AAn?$AAn?$AAe?$AAl?$AA?5?$AAi?$AAs?$AA?5?$AAn?$AAu?$AAl?$AAl?$AA?0?$AA?5?$AAn?$AAo?$AAt?$AAh?$AAi?$AAn?$AAg?$AA?5@ 100347d8     BaseChan.obj
 0002:0000082c       ??_C@_1BG@EHFMIEHF@?$AAW?$AAr?$AAi?$AAt?$AAe?$AA?3?$AA?5?$AA?$CL?$AA?$CL?$AA?$CL?$AA?$AA@ 1003482c     BaseChan.obj
 0002:00000844       ??_C@_1CI@KGBBJDDK@?$AAR?$AAe?$AAm?$AAo?$AAv?$AAe?$AAO?$AAb?$AAs?$AAe?$AAr?$AAv?$AAe?$AAr?$AA?3?$AA?5?$AA?9?$AA?9?$AA?9?$AA?$AA@ 10034844     BaseChan.obj
 0002:00000870       ??_C@_1FK@BKJBDHNM@?$AAR?$AAe?$AAm?$AAo?$AAv?$AAe?$AAO?$AAb?$AAs?$AAe?$AAr?$AAv?$AAe?$AAr?$AA?3?$AA?5?$AAI?$AAn?$AAp?$AAu?$AAt?$AA?5?$AAo?$AAb?$AAs?$AAe?$AAr?$AAv?$AAe?$AAr?$AA?5?$AAi@ 10034870     BaseChan.obj
 0002:000008cc       ??_C@_1CI@JDEMCGHM@?$AAR?$AAe?$AAm?$AAo?$AAv?$AAe?$AAO?$AAb?$AAs?$AAe?$AAr?$AAv?$AAe?$AAr?$AA?3?$AA?5?$AA?$CL?$AA?$CL?$AA?$CL?$AA?$AA@ 100348cc     BaseChan.obj
 0002:000008f4       ??_C@_1CA@PAHHPODO@?$AAR?$AAe?$AAc?$AAv?$AAT?$AAh?$AAr?$AAe?$AAa?$AAd?$AA?3?$AA?5?$AA?9?$AA?9?$AA?9?$AA?$AA@ 100348f4     BaseChan.obj
 0002:00000914       ??_C@_1CA@MFCKELHI@?$AAR?$AAe?$AAc?$AAv?$AAT?$AAh?$AAr?$AAe?$AAa?$AAd?$AA?3?$AA?5?$AA?$CL?$AA?$CL?$AA?$CL?$AA?$AA@ 10034914     BaseChan.obj
 0002:00000938       ??_C@_1EE@LPMKHIGB@?$AAO?$AAn?$AAC?$AAh?$AAa?$AAn?$AAn?$AAe?$AAl?$AAE?$AAv?$AAe?$AAn?$AAt?$AA?3?$AA?5?$AAE?$AAv?$AAe?$AAn?$AAt?$AA?5?$AA?$CF?$AAd?$AA?5?$AAh?$AAa?$AAp?$AAp?$AAe?$AAn?$AAe@ 10034938     BaseChan.obj
 0002:00000980       ??_C@_1FM@CHAMHFKD@?$AAS?$AAt?$AAo?$AAp?$AAP?$AAr?$AAo?$AAc?$AAe?$AAs?$AAs?$AAT?$AAh?$AAr?$AAe?$AAa?$AAd?$AA?3?$AA?5?$AAW?$AAa?$AAi?$AAt?$AAF?$AAo?$AAr?$AAS?$AAi?$AAn?$AAg?$AAl?$AAe@ 10034980     BaseChan.obj
 0002:000009dc       ??_C@_1CK@PAKPKNBO@?$AAS?$AAt?$AAo?$AAp?$AAP?$AAr?$AAo?$AAc?$AAe?$AAs?$AAs?$AAT?$AAh?$AAr?$AAe?$AAa?$AAd?$AA?4?$AA?4?$AA?4?$AA?$AA@ 100349dc     BaseChan.obj
 0002:00000a08       ??_C@_1FA@NCFLIPEA@?$AAO?$AAn?$AAC?$AAh?$AAa?$AAn?$AAn?$AAe?$AAl?$AAE?$AAv?$AAe?$AAn?$AAt?$AA?5?$AAo?$AAf?$AA?5?$AAO?$AAb?$AAs?$AAe?$AAr?$AAv?$AAe?$AAr?$AA?5?$AA?$CF?$AAd?$AA?5?$AAi?$AAs@ 10034a08     BaseChan.obj
 0002:00000a58       ??_C@_1DE@CIIGFGAG@?$AAG?$AAe?$AAn?$AAe?$AAr?$AAa?$AAt?$AAe?$AA?5?$AAa?$AAn?$AA?5?$AAe?$AAn?$AAd?$AAi?$AAa?$AAn?$AA?5?$AAe?$AAv?$AAe?$AAn?$AAt?$AA?$CB?$AA?$AA@ 10034a58     BaseChan.obj
 0002:00000a90       ??_C@_1EK@EBMADGIB@?$AAS?$AAe?$AAt?$AAL?$AAo?$AAw?$AAe?$AAr?$AAC?$AAh?$AAa?$AAn?$AAn?$AAe?$AAl?$AA?3?$AA?5?$AAa?$AAt?$AAt?$AAa?$AAc?$AAh?$AA?5?$AAt?$AAo?$AA?5?$AAa?$AA?5?$AAc?$AAh?$AAa@ 10034a90     BaseChan.obj
 0002:00000ae0       ??_C@_1FM@GEBHHDHP@?$AAS?$AAe?$AAt?$AAL?$AAo?$AAw?$AAe?$AAr?$AAC?$AAh?$AAa?$AAn?$AAn?$AAe?$AAl?$AA?3?$AA?5?$AAc?$AAr?$AAe?$AAa?$AAt?$AAe?$AA?5?$AAr?$AAe?$AAc?$AAe?$AAi?$AAv?$AAe?$AA?5@ 10034ae0     BaseChan.obj
 0002:00000b40       ??_C@_1IA@OBGJLBGB@?$AAS?$AAe?$AAt?$AAL?$AAo?$AAw?$AAe?$AAr?$AAC?$AAh?$AAa?$AAn?$AAn?$AAe?$AAl?$AA?3?$AA?5?$AAa?$AAt?$AAt?$AAa?$AAc?$AAh?$AA?5?$AAt?$AAo?$AA?5?$AAa?$AA?5?$AAp?$AAr?$AAo@ 10034b40     BaseChan.obj
 0002:00000bc0       ??_C@_1FK@BBEGEHGN@?$AAS?$AAe?$AAt?$AAL?$AAo?$AAw?$AAe?$AAr?$AAC?$AAh?$AAa?$AAn?$AAn?$AAe?$AAl?$AA?3?$AA?5?$AAc?$AAl?$AAo?$AAs?$AAe?$AA?5?$AAc?$AAu?$AAr?$AAr?$AAe?$AAn?$AAt?$AA?5?$AAC@ 10034bc0     BaseChan.obj
 0002:00000c20       ??_C@_1JI@JKCPFCNC@?$AAS?$AAe?$AAt?$AAL?$AAo?$AAw?$AAe?$AAr?$AAC?$AAh?$AAa?$AAn?$AAn?$AAe?$AAl?$AA?3?$AA?5?$AAt?$AAh?$AAe?$AA?5?$AAc?$AAh?$AAa?$AAn?$AAn?$AAe?$AAl?$AA?5?$AAi?$AAs?$AA?5@ 10034c20     BaseChan.obj
 0002:00000cb8       ??_C@_1IE@MACMNBAG@?$AAS?$AAe?$AAt?$AAL?$AAo?$AAw?$AAe?$AAr?$AAC?$AAh?$AAa?$AAn?$AAn?$AAe?$AAl?$AA?3?$AA?5?$AAs?$AAt?$AAo?$AAp?$AA?5?$AAr?$AAe?$AAc?$AAe?$AAi?$AAv?$AAi?$AAn?$AAg?$AA?5@ 10034cb8     BaseChan.obj
 0002:00000d40       ??_C@_1FO@EOPCDGON@?$AAS?$AAe?$AAt?$AAL?$AAo?$AAw?$AAe?$AAr?$AAC?$AAh?$AAa?$AAn?$AAn?$AAe?$AAl?$AA?3?$AA?5?$AAI?$AAn?$AAp?$AAu?$AAt?$AA?5?$AAc?$AAh?$AAa?$AAn?$AAn?$AAe?$AAl?$AA?5?$AAp@ 10034d40     BaseChan.obj
 0002:00000da0       ??_C@_1GO@PKKJMGLH@?$AAR?$AAe?$AAm?$AAo?$AAv?$AAe?$AAC?$AAo?$AAn?$AAd?$AA?3?$AA?5?$AAc?$AAo?$AAn?$AAd?$AA?5?$AAi?$AAd?$AA?5?$AA?$DN?$AA?5?$AA?$CF?$AAd?$AA?0?$AA?5?$AAr?$AAe?$AAf?$AA?5?$AAc?$AAo@ 10034da0     BaseChan.obj
 0002:00000e10       ??_C@_1HG@KCODEJIF@?$AAR?$AAe?$AAm?$AAo?$AAv?$AAe?$AAC?$AAo?$AAn?$AAd?$AA?3?$AA?5?$AAc?$AAo?$AAn?$AAd?$AAi?$AAt?$AAi?$AAo?$AAn?$AA?5?$AAi?$AAs?$AA?5?$AAs?$AAt?$AAi?$AAl?$AAl?$AA?5?$AAi@ 10034e10     BaseChan.obj
 0002:00000e88       ??_C@_1FG@KAFHJOC@?$AAR?$AAe?$AAm?$AAo?$AAv?$AAe?$AAC?$AAo?$AAn?$AAd?$AA?3?$AA?5?$AAr?$AAe?$AAm?$AAo?$AAv?$AAe?$AA?5?$AAc?$AAo?$AAn?$AAd?$AAi?$AAt?$AAi?$AAo?$AAn?$AA?5?$AAf?$AAr?$AAo@ 10034e88     BaseChan.obj
 0002:00000ee0       ??_C@_1KA@LEBAECNK@?$AAR?$AAe?$AAm?$AAo?$AAv?$AAe?$AAC?$AAo?$AAn?$AAd?$AA?3?$AA?5?$AAf?$AAo?$AAr?$AAc?$AAe?$AA?5?$AAt?$AAo?$AA?5?$AAr?$AAe?$AAm?$AAo?$AAv?$AAe?$AA?5?$AAc?$AAo?$AAn?$AAd@ 10034ee0     BaseChan.obj
 0002:00000f80       ??_C@_1GO@BBDIEJFI@?$AAR?$AAe?$AAm?$AAo?$AAv?$AAe?$AAC?$AAo?$AAn?$AAd?$AA?3?$AA?5?$AAe?$AAr?$AAr?$AAo?$AAr?$AA?0?$AA?5?$AAc?$AAo?$AAn?$AAd?$AAi?$AAt?$AAo?$AAn?$AA?5?$AAr?$AAe?$AAf?$AAe@ 10034f80     BaseChan.obj
 0002:00000ff0       ??_C@_1HA@LEJJEPLH@?$AAR?$AAe?$AAm?$AAo?$AAv?$AAe?$AAC?$AAo?$AAn?$AAd?$AA?3?$AA?5?$AAe?$AAr?$AAr?$AAo?$AAr?$AA?0?$AA?5?$AAn?$AAC?$AAo?$AAn?$AAd?$AAI?$AAd?$AA?5?$AA?$CI?$AA?$CF?$AAd?$AA?$CJ?$AA?5@ 10034ff0     BaseChan.obj
 0002:00001060       ??_C@_1CA@DGBHEJKD@?$AAR?$AAe?$AAm?$AAo?$AAv?$AAe?$AAC?$AAo?$AAn?$AAd?$AA?3?$AA?5?$AA?9?$AA?9?$AA?9?$AA?$AA@ 10035060     BaseChan.obj
 0002:00001080       ??_C@_1FK@LKDNDDBO@?$AAR?$AAe?$AAm?$AAo?$AAv?$AAe?$AAC?$AAo?$AAn?$AAd?$AA?3?$AA?5?$AAe?$AAr?$AAr?$AAo?$AAr?$AA?0?$AA?5?$AAi?$AAn?$AAv?$AAa?$AAl?$AAi?$AAd?$AA?5?$AAc?$AAo?$AAn?$AAd?$AAi@ 10035080     BaseChan.obj
 0002:000010e0       ??_C@_1FC@DGLKOHDI@?$AAR?$AAe?$AAm?$AAo?$AAv?$AAe?$AAC?$AAo?$AAn?$AAd?$AA?3?$AA?5?$AAc?$AAo?$AAn?$AAd?$AA?5?$AAi?$AAd?$AA?5?$AA?$DN?$AA?5?$AA?$CF?$AAd?$AA?0?$AA?5?$AAf?$AAo?$AAr?$AAc?$AAe?$AA?5@ 100350e0     BaseChan.obj
 0002:00001138       ??_7logic_error@std@@6B@   10035138     BaseChan.obj
 0002:00001140       ??_C@_1CI@OBPHFKHE@?$AAR?$AAe?$AAm?$AAo?$AAv?$AAe?$AAP?$AAa?$AAc?$AAk?$AAa?$AAg?$AAe?$AAs?$AA?3?$AA?5?$AA?9?$AA?9?$AA?9?$AA?$AA@ 10035140     BaseChan.obj
 0002:00001168       ??_C@_1HC@KPHAPHHI@?$AAR?$AAe?$AAm?$AAo?$AAv?$AAe?$AAP?$AAa?$AAc?$AAk?$AAa?$AAg?$AAe?$AAs?$AA?3?$AA?5?$AAr?$AAe?$AAm?$AAo?$AAv?$AAe?$AA?5?$AAa?$AAl?$AAl?$AA?5?$AA?$CF?$AAd?$AA?5?$AAp?$AAa@ 10035168     BaseChan.obj
 0002:000011e0       ??_C@_1JK@ICCMGGHN@?$AAR?$AAe?$AAm?$AAo?$AAv?$AAe?$AAP?$AAa?$AAc?$AAk?$AAa?$AAg?$AAe?$AAs?$AA?3?$AA?5?$AAr?$AAe?$AAm?$AAo?$AAv?$AAe?$AA?5?$AA?$CF?$AAd?$AA?5?$AAp?$AAa?$AAc?$AAk?$AAa?$AAg@ 100351e0     BaseChan.obj
 0002:0000127c       ??_C@_1CI@NEKKOPDC@?$AAR?$AAe?$AAm?$AAo?$AAv?$AAe?$AAP?$AAa?$AAc?$AAk?$AAa?$AAg?$AAe?$AAs?$AA?3?$AA?5?$AA?$CL?$AA?$CL?$AA?$CL?$AA?$AA@ 1003527c     BaseChan.obj
 0002:000012a8       ??_C@_1KA@BPEOGMIA@?$AAR?$AAe?$AAa?$AAd?$AA?3?$AA?5?$AAi?$AAn?$AAp?$AAu?$AAt?$AA?5?$AAd?$AAa?$AAt?$AAa?$AA?5?$AAp?$AAo?$AAi?$AAn?$AAt?$AAe?$AAr?$AA?5?$AAi?$AAs?$AA?5?$AAn?$AAu?$AAl?$AAl@ 100352a8     BaseChan.obj
 0002:00001348       ??_C@_1GM@DJMKLPPL@?$AAR?$AAe?$AAa?$AAd?$AA?3?$AA?5?$AAo?$AAn?$AAe?$AA?5?$AAp?$AAa?$AAc?$AAk?$AAa?$AAg?$AAe?$AA?5?$AAi?$AAs?$AA?5?$AAf?$AAo?$AAu?$AAn?$AAd?$AA?5?$AAa?$AAf?$AAt?$AAe?$AAr@ 10035348     BaseChan.obj
 0002:000013b4       ??_C@_1CG@EABLHIPH@?$AAR?$AAe?$AAa?$AAd?$AA?3?$AA?5?$AAw?$AAa?$AAi?$AAt?$AA?5?$AAt?$AAi?$AAm?$AAe?$AAo?$AAu?$AAt?$AA?$AA@ 100353b4     BaseChan.obj
 0002:000013dc       ??_C@_1DG@FHKDMGCA@?$AAR?$AAe?$AAa?$AAd?$AA?3?$AA?5?$AAn?$AAo?$AAt?$AA?5?$AAf?$AAo?$AAu?$AAn?$AAd?$AA?5?$AAa?$AA?5?$AAp?$AAa?$AAc?$AAk?$AAa?$AAg?$AAe?$AA?$CB?$AA?$AA@ 100353dc     BaseChan.obj
 0002:00001418       ??_C@_1HK@JAPOHJEG@?$AAR?$AAe?$AAa?$AAd?$AA?3?$AA?5?$AAw?$AAa?$AAi?$AAt?$AA?5?$AAa?$AAl?$AAl?$AA?5?$AAp?$AAa?$AAc?$AAk?$AAa?$AAg?$AAe?$AAs?$AA?5?$AAa?$AAr?$AAe?$AA?5?$AAp?$AAu?$AAs?$AAh@ 10035418     BaseChan.obj
 0002:00001498       ??_C@_1IC@JEHPNONB@?$AAR?$AAe?$AAa?$AAd?$AA?3?$AA?5?$AAw?$AAa?$AAi?$AAt?$AA?5?$AAa?$AAl?$AAl?$AA?5?$AAp?$AAa?$AAc?$AAk?$AAa?$AAg?$AAe?$AAs?$AA?5?$AAa?$AAr?$AAe?$AA?5?$AAp?$AAu?$AAs?$AAh@ 10035498     BaseChan.obj
 0002:00001520       ??_C@_1HK@KFKDMMAA@?$AAR?$AAe?$AAa?$AAd?$AA?3?$AA?5?$AAw?$AAa?$AAi?$AAt?$AA?5?$AAa?$AAl?$AAl?$AA?5?$AAp?$AAa?$AAc?$AAk?$AAa?$AAg?$AAe?$AAs?$AA?5?$AAa?$AAr?$AAe?$AA?5?$AAp?$AAu?$AAs?$AAh@ 10035520     BaseChan.obj
 0002:000015a0       ??_C@_1EM@PBICNOID@?$AAR?$AAe?$AAa?$AAd?$AA?3?$AA?5?$AAo?$AAn?$AAe?$AA?5?$AAp?$AAa?$AAc?$AAk?$AAa?$AAg?$AAe?$AA?5?$AAi?$AAs?$AA?5?$AAf?$AAo?$AAu?$AAn?$AAd?$AA?5?$AAa?$AAf?$AAt?$AAe?$AAr@ 100355a0     BaseChan.obj
 0002:000015f0       ??_C@_1FO@PFDLDHCG@?$AAR?$AAe?$AAa?$AAd?$AA?3?$AA?5?$AAw?$AAa?$AAi?$AAt?$AA?5?$AAi?$AAs?$AA?5?$AAw?$AAa?$AAk?$AAe?$AAd?$AAu?$AAp?$AA?5?$AAa?$AAn?$AAd?$AA?5?$AAc?$AAh?$AAe?$AAc?$AAk?$AA?5@ 100355f0     BaseChan.obj
 0002:00001650       ??_C@_1CI@GGKIIMCK@?$AAR?$AAe?$AAa?$AAd?$AA?3?$AA?5?$AAw?$AAa?$AAi?$AAt?$AA?5?$AAf?$AAo?$AAr?$AA?5?$AAd?$AAa?$AAt?$AAa?$AA?$AA@ 10035650     BaseChan.obj
 0002:00001678       ??_C@_1BE@NEOJGHGH@?$AAR?$AAe?$AAa?$AAd?$AA?3?$AA?5?$AA?9?$AA?9?$AA?9?$AA?$AA@ 10035678     BaseChan.obj
 0002:0000168c       ??_C@_1DC@NOCBKFOB@?$AAR?$AAe?$AAa?$AAd?$AA?3?$AA?5?$AAc?$AAo?$AAn?$AAd?$AA?5?$AA?$CF?$AAd?$AA?5?$AAi?$AAs?$AA?5?$AAr?$AAe?$AAm?$AAo?$AAv?$AAe?$AAd?$AA?$AA@ 1003568c     BaseChan.obj
 0002:000016c0       ??_C@_1IA@MPGPJPJF@?$AAR?$AAe?$AAa?$AAd?$AA?3?$AA?5?$AAo?$AAn?$AAe?$AA?5?$AAp?$AAa?$AAc?$AAk?$AAa?$AAg?$AAe?$AA?5?$AAi?$AAs?$AA?5?$AAf?$AAo?$AAu?$AAn?$AAd?$AA?5?$AAi?$AAn?$AA?5?$AAa?$AAs@ 100356c0     BaseChan.obj
 0002:00001740       ??_C@_1FI@LOILFBOH@?$AAR?$AAe?$AAa?$AAd?$AA?3?$AA?5?$AAs?$AAe?$AAa?$AAr?$AAc?$AAh?$AA?5?$AAp?$AAa?$AAc?$AAk?$AAa?$AAg?$AAe?$AA?5?$AAi?$AAn?$AA?5?$AAa?$AAs?$AAy?$AAn?$AAc?$AA?5?$AAp?$AAa@ 10035740     BaseChan.obj
 0002:00001798       ??_C@_1GM@PCPKPJGM@?$AAR?$AAe?$AAa?$AAd?$AA?3?$AA?5?$AA?$CL?$AAw?$AAa?$AAi?$AAt?$AA?5?$AAa?$AAl?$AAl?$AA?5?$AAp?$AAa?$AAc?$AAk?$AAa?$AAg?$AAe?$AAs?$AA?5?$AAa?$AAr?$AAe?$AA?5?$AAp?$AAu?$AAs@ 10035798     BaseChan.obj
 0002:00001808       ??_C@_1HE@MLMCMIG@?$AAR?$AAe?$AAa?$AAd?$AA?3?$AA?5?$AA?$CL?$AAw?$AAa?$AAi?$AAt?$AA?5?$AAa?$AAl?$AAl?$AA?5?$AAp?$AAa?$AAc?$AAk?$AAa?$AAg?$AAe?$AAs?$AA?5?$AAa?$AAr?$AAe?$AA?5?$AAp?$AAu?$AAs@ 10035808     BaseChan.obj
 0002:00001880       ??_C@_1GM@MHKHEMCK@?$AAR?$AAe?$AAa?$AAd?$AA?3?$AA?5?$AA?$CL?$AAw?$AAa?$AAi?$AAt?$AA?5?$AAa?$AAl?$AAl?$AA?5?$AAp?$AAa?$AAc?$AAk?$AAa?$AAg?$AAe?$AAs?$AA?5?$AAa?$AAr?$AAe?$AA?5?$AAp?$AAu?$AAs@ 10035880     BaseChan.obj
 0002:000018f0       ??_C@_1HO@LGIJOJDB@?$AAR?$AAe?$AAa?$AAd?$AA?3?$AA?5?$AAo?$AAn?$AAe?$AA?5?$AAp?$AAa?$AAc?$AAk?$AAa?$AAg?$AAe?$AA?5?$AAi?$AAs?$AA?5?$AAf?$AAo?$AAu?$AAn?$AAd?$AA?5?$AAi?$AAn?$AA?5?$AAs?$AAy@ 100358f0     BaseChan.obj
 0002:00001970       ??_C@_1FG@NNILPEOO@?$AAR?$AAe?$AAa?$AAd?$AA?3?$AA?5?$AAs?$AAe?$AAa?$AAr?$AAc?$AAh?$AA?5?$AAp?$AAa?$AAc?$AAk?$AAa?$AAg?$AAe?$AA?5?$AAi?$AAn?$AA?5?$AAs?$AAy?$AAn?$AAc?$AA?5?$AAp?$AAa?$AAc@ 10035970     BaseChan.obj
 0002:000019c8       ??_C@_1DC@ODNKOJOB@?$AAR?$AAe?$AAa?$AAd?$AA?3?$AA?5?$AAl?$AAp?$AAR?$AAe?$AAa?$AAd?$AA?9?$AA?$DO?$AAn?$AAC?$AAo?$AAn?$AAd?$AA?5?$AA?$DN?$AA?5?$AA?$CF?$AAd?$AA?$AA@ 100359c8     BaseChan.obj
 0002:000019fc       ??_C@_1BE@OBLENCCB@?$AAR?$AAe?$AAa?$AAd?$AA?3?$AA?5?$AA?$CL?$AA?$CL?$AA?$CL?$AA?$AA@ 100359fc     BaseChan.obj
 0002:00001a10       ??_C@_1HK@MIBBKPHI@?$AAF?$AAi?$AAn?$AAd?$AAP?$AAa?$AAc?$AAk?$AAa?$AAg?$AAe?$AA?3?$AA?5?$AAi?$AAn?$AAv?$AAa?$AAl?$AAi?$AAd?$AA?5?$AAc?$AAo?$AAn?$AAd?$AAi?$AAt?$AAi?$AAo?$AAn?$AA?5?$AAi@ 10035a10     BaseChan.obj
 0002:00001a90       ??_C@_1EG@HHCGBKGN@?$AAF?$AAi?$AAn?$AAd?$AAP?$AAa?$AAc?$AAk?$AAa?$AAg?$AAe?$AA?3?$AA?5?$AAc?$AAo?$AAn?$AAd?$AAi?$AAt?$AAi?$AAo?$AAn?$AA?5?$AAi?$AAd?$AA?5?$AA?$CI?$AA?$CF?$AAd?$AA?$CJ?$AA?5?$AA?9@ 10035a90     BaseChan.obj
 0002:00001ad8       ??_C@_1EA@NMLLBMCF@?$AAF?$AAi?$AAn?$AAd?$AAP?$AAa?$AAc?$AAk?$AAa?$AAg?$AAe?$AA?3?$AA?5?$AAc?$AAo?$AAn?$AAd?$AAi?$AAt?$AAi?$AAo?$AAn?$AA?5?$AAi?$AAs?$AA?5?$AAe?$AAm?$AAp?$AAt?$AAy?$AA?$AA@ 10035ad8     BaseChan.obj
 0002:00001b18       ??_C@_1FO@CDMNKPP@?$AAF?$AAi?$AAn?$AAd?$AAP?$AAa?$AAc?$AAk?$AAa?$AAg?$AAe?$AA?3?$AA?5?$AAp?$AAa?$AAc?$AAk?$AAa?$AAg?$AAe?$AA?5?$AAf?$AAo?$AAu?$AAn?$AAd?$AA?0?$AA?5?$AAr?$AAe?$AAm?$AAa@ 10035b18     BaseChan.obj
 0002:00001b78       ??_C@_1EG@ECHLKPCL@?$AAF?$AAi?$AAn?$AAd?$AAP?$AAa?$AAc?$AAk?$AAa?$AAg?$AAe?$AA?3?$AA?5?$AAc?$AAo?$AAn?$AAd?$AAi?$AAt?$AAi?$AAo?$AAn?$AA?5?$AAi?$AAd?$AA?5?$AA?$CI?$AA?$CF?$AAd?$AA?$CJ?$AA?5?$AA?$CL@ 10035b78     BaseChan.obj
 0002:00001bc0       ??_C@_1DK@JMPLLEMA@?$AAG?$AAe?$AAt?$AAP?$AAa?$AAc?$AAk?$AAa?$AAg?$AAe?$AA?3?$AA?5?$AAo?$AAn?$AAe?$AA?5?$AAp?$AAa?$AAc?$AAa?$AAk?$AAg?$AAe?$AA?0?$AA?5?$AA?9?$AA?9?$AA?9?$AA?$AA@ 10035bc0     BaseChan.obj
 0002:00001c00       ??_C@_1JM@HCLGJJMI@?$AAG?$AAe?$AAt?$AAP?$AAa?$AAc?$AAk?$AAa?$AAg?$AAe?$AA?3?$AA?5?$AAa?$AAs?$AAy?$AAn?$AAc?$AA?5?$AAp?$AAa?$AAc?$AAk?$AAa?$AAg?$AAe?$AA?5?$AAl?$AAi?$AAs?$AAt?$AA?5?$AAi@ 10035c00     BaseChan.obj
 0002:00001c9c       ??_C@_1CM@GMAEOEGA@?$AAG?$AAe?$AAt?$AAP?$AAa?$AAc?$AAk?$AAa?$AAg?$AAe?$AA?3?$AA?5?$AAN?$AAU?$AAL?$AAL?$AA?0?$AA?5?$AA?9?$AA?9?$AA?9?$AA?$AA@ 10035c9c     BaseChan.obj
 0002:00001cc8       ??_C@_1CA@MDJHJNKI@?$AAG?$AAe?$AAt?$AAP?$AAa?$AAc?$AAk?$AAa?$AAg?$AAe?$AA?3?$AA?5?$AA?$CL?$AA?$CL?$AA?$CL?$AA?$AA@ 10035cc8     BaseChan.obj
 0002:00001cec       ??_7length_error@std@@6B@  10035cec     BaseChan.obj
 0002:00001cf4       ??_C@_1CC@LCAMDPMB@?$AAP?$AAr?$AAo?$AAc?$AAe?$AAs?$AAs?$AAD?$AAa?$AAt?$AAa?$AA?3?$AA?5?$AA?9?$AA?9?$AA?9?$AA?$AA@ 10035cf4     BaseChan.obj
 0002:00001d18       ??_C@_1EM@IHLKAMGL@?$AAP?$AAr?$AAo?$AAc?$AAe?$AAs?$AAs?$AAD?$AAa?$AAt?$AAa?$AA?3?$AA?5?$AAc?$AAl?$AAe?$AAa?$AAr?$AA?5?$AAa?$AAs?$AAy?$AAn?$AAc?$AA?5?$AAp?$AAa?$AAc?$AAk?$AAa?$AAg?$AAe@ 10035d18     BaseChan.obj
 0002:00001d68       ??_C@_1GI@FHLEJGCP@?$AAP?$AAr?$AAo?$AAc?$AAe?$AAs?$AAs?$AAD?$AAa?$AAt?$AAa?$AA?3?$AA?5?$AAO?$AAn?$AAC?$AAh?$AAa?$AAn?$AAn?$AAe?$AAl?$AAD?$AAa?$AAt?$AAa?$AA?5?$AAo?$AAf?$AA?5?$AAO?$AAb@ 10035d68     BaseChan.obj
 0002:00001dd0       ??_C@_1CC@IHFBIKIH@?$AAP?$AAr?$AAo?$AAc?$AAe?$AAs?$AAs?$AAD?$AAa?$AAt?$AAa?$AA?3?$AA?5?$AA?$CL?$AA?$CL?$AA?$CL?$AA?$AA@ 10035dd0     BaseChan.obj
 0002:00001df4       ??_C@_0BB@MOGOBHAF@list?$DMT?$DO?5too?5long?$AA@ 10035df4     BaseChan.obj
 0002:00001e08       ??_C@_0BD@OLBABOEK@vector?$DMT?$DO?5too?5long?$AA@ 10035e08     BaseChan.obj
 0002:00001e1c       ??_C@_1CK@HGJLNPBF@?$AAO?$AAp?$AAe?$AAn?$AA?3?$AA?5?$AAs?$AAu?$AAc?$AAc?$AAe?$AAs?$AAs?$AAe?$AAd?$AA?0?$AA?5?$AA?9?$AA?9?$AA?9?$AA?$AA@ 10035e1c     BaseChan.obj
 0002:00001e48       ??_C@_1CC@IAJFLIDK@?$AAO?$AAp?$AAe?$AAn?$AA?3?$AA?5?$AAf?$AAa?$AAi?$AAl?$AAe?$AAd?$AA?0?$AA?9?$AA?9?$AA?9?$AA?$AA@ 10035e48     BaseChan.obj
 0002:00001e6c       ??_C@_1DC@FNBBPCGJ@?$AAO?$AAp?$AAe?$AAn?$AA?3?$AA?5?$AAc?$AAh?$AAa?$AAn?$AAn?$AAe?$AAl?$AA?5?$AAt?$AAy?$AAp?$AAe?$AA?5?$AAi?$AAs?$AA?5?$AA?$CF?$AAd?$AA?$AA@ 10035e6c     BaseChan.obj
 0002:00001ea0       ??_C@_1FM@DKIEPPJG@?$AAO?$AAp?$AAe?$AAn?$AA?3?$AA?5?$AAc?$AAh?$AAa?$AAn?$AAn?$AAe?$AAl?$AA?5?$AAt?$AAy?$AAp?$AAe?$AA?5?$AAi?$AAs?$AA?5?$AAS?$AAO?$AAC?$AAK?$AAE?$AAT?$AA?0?$AA?5?$AAi?$AAp@ 10035ea0     BaseChan.obj
 0002:00001f00       ??_C@_1GC@KPENJFHA@?$AAO?$AAp?$AAe?$AAn?$AA?3?$AA?5?$AAc?$AAh?$AAa?$AAn?$AAn?$AAe?$AAl?$AA?5?$AAt?$AAy?$AAp?$AAe?$AA?5?$AAi?$AAs?$AA?5?$AAU?$AAA?$AAR?$AAT?$AA?0?$AA?5?$AAp?$AAo?$AAr?$AAt@ 10035f00     BaseChan.obj
 0002:00001f68       ??_C@_1EG@PJLHBCND@?$AAO?$AAp?$AAe?$AAn?$AA?3?$AA?5?$AAc?$AAr?$AAe?$AAa?$AAt?$AAe?$AA?5?$AAr?$AAe?$AAc?$AAe?$AAi?$AAv?$AAe?$AA?5?$AAt?$AAh?$AAr?$AAe?$AAa?$AAd?$AA?5?$AAf?$AAa?$AAi?$AAl@ 10035f68     BaseChan.obj
 0002:00001fb0       ??_C@_1EG@PENANOBO@?$AAO?$AAp?$AAe?$AAn?$AA?3?$AA?5?$AAc?$AAr?$AAe?$AAa?$AAt?$AAe?$AA?5?$AAp?$AAr?$AAo?$AAc?$AAe?$AAs?$AAs?$AA?5?$AAt?$AAh?$AAr?$AAe?$AAa?$AAd?$AA?5?$AAf?$AAa?$AAi?$AAl@ 10035fb0     BaseChan.obj
 0002:00001ff8       ??_C@_1DI@MFMPEAFH@?$AAO?$AAp?$AAe?$AAn?$AA?3?$AA?5?$AAc?$AAr?$AAe?$AAa?$AAt?$AAe?$AA?5?$AAc?$AAh?$AAa?$AAn?$AAn?$AAe?$AAl?$AA?5?$AAf?$AAa?$AAi?$AAl?$AAe?$AAd?$AA?$AA@ 10035ff8     BaseChan.obj
 0002:00002030       ??_C@_1FA@HONEMKGJ@?$AAO?$AAp?$AAe?$AAn?$AA?3?$AA?5?$AAf?$AAa?$AAi?$AAl?$AAe?$AAd?$AA?0?$AA?5?$AAc?$AAh?$AAa?$AAn?$AAn?$AAe?$AAl?$AA?5?$AAp?$AAa?$AAr?$AAa?$AAm?$AAe?$AAt?$AAe?$AAr?$AA?5@ 10036030     BaseChan.obj
 0002:00002080       ??_C@_1BE@EOCBGBAM@?$AAO?$AAp?$AAe?$AAn?$AA?3?$AA?5?$AA?9?$AA?9?$AA?9?$AA?$AA@ 10036080     BaseChan.obj
 0002:00002098       ??_C@_1FE@BJMPOCJD@?$AAO?$AAp?$AAe?$AAn?$AA?3?$AA?5?$AAf?$AAa?$AAi?$AAl?$AAe?$AAd?$AA?0?$AA?5?$AAm?$AA_?$AAp?$AAL?$AAo?$AAw?$AAe?$AAr?$AAC?$AAh?$AAa?$AAn?$AAn?$AAe?$AAl?$AA?5?$AAi?$AAs@ 10036098     BaseChan.obj
 0002:000020ec       ??_C@_1BE@HLHMNEEK@?$AAO?$AAp?$AAe?$AAn?$AA?3?$AA?5?$AA?$CL?$AA?$CL?$AA?$CL?$AA?$AA@ 100360ec     BaseChan.obj
 0002:00002100       ??_C@_1CM@FFJKEIDC@?$AAA?$AAd?$AAd?$AAt?$AAo?$AAP?$AAa?$AAc?$AAk?$AAa?$AAg?$AAe?$AAL?$AAi?$AAs?$AAt?$AA?3?$AA?5?$AA?9?$AA?9?$AA?9?$AA?$AA@ 10036100     BaseChan.obj
 0002:00002130       ??_C@_1EG@KBHJOBKK@?$AAA?$AAd?$AAd?$AAt?$AAo?$AAP?$AAa?$AAc?$AAk?$AAa?$AAg?$AAe?$AAL?$AAi?$AAs?$AAt?$AA?3?$AA?5?$AAW?$AAa?$AAk?$AAe?$AAu?$AAp?$AAO?$AAn?$AAP?$AAa?$AAc?$AAk?$AAa?$AAg@ 10036130     BaseChan.obj
 0002:00002178       ??_C@_1GA@LHPLKIEL@?$AAA?$AAd?$AAd?$AAt?$AAo?$AAP?$AAa?$AAc?$AAk?$AAa?$AAg?$AAe?$AAL?$AAi?$AAs?$AAt?$AA?3?$AA?5?$AAa?$AAd?$AAd?$AA?5?$AAo?$AAn?$AAe?$AA?5?$AAp?$AAa?$AAc?$AAk?$AAa?$AAg@ 10036178     BaseChan.obj
 0002:000021d8       ??_C@_1EG@MKNPHBGN@?$AAA?$AAd?$AAd?$AAt?$AAo?$AAP?$AAa?$AAc?$AAk?$AAa?$AAg?$AAe?$AAL?$AAi?$AAs?$AAt?$AA?3?$AA?5?$AAW?$AAa?$AAk?$AAe?$AAu?$AAp?$AAO?$AAn?$AAR?$AAe?$AAs?$AAp?$AAo?$AAn@ 100361d8     BaseChan.obj
 0002:00002220       ??_C@_1II@COBCODFA@?$AAA?$AAd?$AAd?$AAt?$AAo?$AAP?$AAa?$AAc?$AAk?$AAa?$AAg?$AAe?$AAL?$AAi?$AAs?$AAt?$AA?3?$AA?5?$AAd?$AAe?$AAc?$AAr?$AAe?$AAm?$AAe?$AAn?$AAt?$AA?5?$AAr?$AAe?$AAf?$AA_@ 10036220     BaseChan.obj
 0002:000022a8       ??_C@_1FM@NANLOHNK@?$AAO?$AAn?$AAC?$AAh?$AAa?$AAn?$AAn?$AAe?$AAl?$AAD?$AAa?$AAt?$AAa?$AA?3?$AA?5?$AAs?$AAe?$AAt?$AA?5?$AAe?$AAv?$AAe?$AAn?$AAt?$AA?5?$AAf?$AAo?$AAr?$AA?5?$AAa?$AAl?$AAl@ 100362a8     BaseChan.obj
 0002:00002308       ??_C@_1II@ICHHBCPK@?$AAA?$AAd?$AAd?$AAt?$AAo?$AAP?$AAa?$AAc?$AAk?$AAa?$AAg?$AAe?$AAL?$AAi?$AAs?$AAt?$AA?3?$AA?5?$AAa?$AAd?$AAd?$AA?5?$AAo?$AAn?$AAe?$AA?5?$AAp?$AAa?$AAc?$AAk?$AAa?$AAg@ 10036308     BaseChan.obj
 0002:00002390       ??_C@_1FI@LABJKPJJ@?$AAA?$AAd?$AAd?$AAt?$AAo?$AAP?$AAa?$AAc?$AAk?$AAa?$AAg?$AAe?$AAL?$AAi?$AAs?$AAt?$AA?3?$AA?5?$AAc?$AAo?$AAn?$AAd?$AAi?$AAt?$AAi?$AAo?$AAn?$AA?5?$AAl?$AAi?$AAs?$AAt@ 10036390     BaseChan.obj
 0002:000023e8       ??_C@_1CM@GAMHPNHE@?$AAA?$AAd?$AAd?$AAt?$AAo?$AAP?$AAa?$AAc?$AAk?$AAa?$AAg?$AAe?$AAL?$AAi?$AAs?$AAt?$AA?3?$AA?5?$AA?$CL?$AA?$CL?$AA?$CL?$AA?$AA@ 100363e8     BaseChan.obj
 0002:00002414       ??_C@_1DE@HHAHLNCL@?$AAA?$AAd?$AAd?$AAO?$AAb?$AAs?$AAe?$AAr?$AAv?$AAe?$AAr?$AA?3?$AA?5?$AAi?$AAd?$AA?5?$AA?$DN?$AA?5?$AA?$CF?$AAd?$AA?0?$AA?5?$AA?9?$AA?9?$AA?9?$AA?$AA@ 10036414     BaseChan.obj
 0002:00002448       ??_C@_1FC@MHKGOAK@?$AAA?$AAd?$AAd?$AAO?$AAb?$AAs?$AAe?$AAr?$AAv?$AAe?$AAr?$AA?3?$AA?5?$AAo?$AAb?$AAs?$AAe?$AAr?$AAv?$AAe?$AAr?$AA?5?$AAi?$AAs?$AA?5?$AAa?$AAl?$AAr?$AAe?$AAa?$AAd?$AAy@ 10036448     BaseChan.obj
 0002:000024a0       ??_C@_1EE@DAGKGLLM@?$AAA?$AAd?$AAd?$AAO?$AAb?$AAs?$AAe?$AAr?$AAv?$AAe?$AAr?$AA?3?$AA?5?$AAa?$AAd?$AAd?$AA?5?$AAo?$AAb?$AAs?$AAe?$AAr?$AAv?$AAe?$AAr?$AA?5?$AAt?$AAo?$AA?5?$AAl?$AAi?$AAs@ 100364a0     BaseChan.obj
 0002:000024e4       ??_C@_1CC@EGPDGHHP@?$AAA?$AAd?$AAd?$AAO?$AAb?$AAs?$AAe?$AAr?$AAv?$AAe?$AAr?$AA?3?$AA?5?$AA?9?$AA?9?$AA?9?$AA?$AA@ 100364e4     BaseChan.obj
 0002:00002508       ??_C@_1FI@DOGFPCHD@?$AAA?$AAd?$AAd?$AAO?$AAb?$AAs?$AAe?$AAr?$AAv?$AAe?$AAr?$AA?3?$AA?5?$AAi?$AAn?$AAp?$AAu?$AAt?$AA?5?$AAo?$AAb?$AAs?$AAe?$AAr?$AAv?$AAe?$AAr?$AA?5?$AAp?$AAo?$AAi?$AAn@ 10036508     BaseChan.obj
 0002:00002560       ??_C@_1CC@HDKONCDJ@?$AAA?$AAd?$AAd?$AAO?$AAb?$AAs?$AAe?$AAr?$AAv?$AAe?$AAr?$AA?3?$AA?5?$AA?$CL?$AA?$CL?$AA?$CL?$AA?$AA@ 10036560     BaseChan.obj
 0002:00002584       ??_C@_1CG@MKJFLOIF@?$AAO?$AAn?$AAC?$AAh?$AAa?$AAn?$AAn?$AAe?$AAl?$AAD?$AAa?$AAt?$AAa?$AA?3?$AA?5?$AA?9?$AA?9?$AA?9?$AA?$AA@ 10036584     BaseChan.obj
 0002:000025b0       ??_C@_1IK@ECLMBOBJ@?$AAO?$AAn?$AAC?$AAh?$AAa?$AAn?$AAn?$AAe?$AAl?$AAD?$AAa?$AAt?$AAa?$AA?3?$AA?5?$AA?$CF?$AAd?$AA?5?$AAp?$AAa?$AAc?$AAk?$AAa?$AAg?$AAe?$AAs?$AA?5?$AAr?$AAe?$AAc?$AAe?$AAi@ 100365b0     BaseChan.obj
 0002:00002640       ??_C@_1EC@IEADODKC@?$AAO?$AAn?$AAC?$AAh?$AAa?$AAn?$AAn?$AAe?$AAl?$AAD?$AAa?$AAt?$AAa?$AA?3?$AA?5?$AA?$CF?$AAd?$AA?5?$AAb?$AAy?$AAt?$AAe?$AAs?$AA?5?$AAr?$AAe?$AAc?$AAe?$AAi?$AAv?$AAe?$AAd@ 10036640     BaseChan.obj
 0002:00002684       ??_C@_1CG@PPMIALMD@?$AAO?$AAn?$AAC?$AAh?$AAa?$AAn?$AAn?$AAe?$AAl?$AAD?$AAa?$AAt?$AAa?$AA?3?$AA?5?$AA?$CL?$AA?$CL?$AA?$CL?$AA?$AA@ 10036684     BaseChan.obj
 0002:000026ac       ??_C@_0BD@IPGJINKL@list?$DMT?$DO?5bad?5splice?$AA@ 100366ac     BaseChan.obj
 0002:000026c4       ??_7CBaseChannel@@6BIProtocolObserver@@@ 100366c4     BaseChan.obj
 0002:000026d4       ??_7CBaseChannel@@6BIProtocolChannel@@@ 100366d4     BaseChan.obj
 0002:00002744       ??_C@_1BG@INOMEMMA@?$AAC?$AAl?$AAo?$AAs?$AAe?$AA?3?$AA?5?$AA?9?$AA?9?$AA?9?$AA?$AA@ 10036744     BaseChan.obj
 0002:0000275c       ??_C@_1DG@MBAMAADL@?$AAC?$AAl?$AAo?$AAs?$AAe?$AA?3?$AA?5?$AAn?$AAo?$AA?5?$AAc?$AAh?$AAa?$AAn?$AAn?$AAe?$AAl?$AA?5?$AAt?$AAo?$AA?5?$AAc?$AAl?$AAo?$AAs?$AAe?$AA?$AA@ 1003675c     BaseChan.obj
 0002:00002798       ??_C@_1GA@CFPCABBJ@?$AAC?$AAl?$AAo?$AAs?$AAe?$AA?3?$AA?5?$AAs?$AAt?$AAo?$AAp?$AA?5?$AAr?$AAe?$AAc?$AAe?$AAi?$AAv?$AAi?$AAn?$AAg?$AA?5?$AAd?$AAa?$AAt?$AAa?$AA?5?$AAf?$AAr?$AAo?$AAm?$AA?5@ 10036798     BaseChan.obj
 0002:000027f8       ??_C@_1DK@OJJIOHC@?$AAC?$AAl?$AAo?$AAs?$AAe?$AA?3?$AA?5?$AAs?$AAt?$AAo?$AAp?$AA?5?$AAi?$AAn?$AAt?$AAe?$AAr?$AAn?$AAa?$AAl?$AA?5?$AAt?$AAh?$AAr?$AAe?$AAa?$AAd?$AAs?$AA?$AA@ 100367f8     BaseChan.obj
 0002:00002838       ??_C@_1JA@HHGFIPMP@?$AAC?$AAl?$AAo?$AAs?$AAe?$AA?3?$AA?5?$AAs?$AAt?$AAo?$AAp?$AA?5?$AAr?$AAe?$AAc?$AAi?$AAe?$AAv?$AAi?$AAn?$AAg?$AA?5?$AAd?$AAa?$AAt?$AAa?$AA?5?$AAf?$AAr?$AAo?$AAm?$AA?5@ 10036838     BaseChan.obj
 0002:000028c8       ??_C@_1FC@ICMPLOPI@?$AAC?$AAl?$AAo?$AAs?$AAe?$AA?3?$AA?5?$AAc?$AAl?$AAo?$AAs?$AAe?$AA?5?$AAt?$AAh?$AAe?$AA?5?$AAc?$AAh?$AAa?$AAn?$AAn?$AAe?$AAl?$AA?5?$AAc?$AAr?$AAe?$AAa?$AAt?$AAe?$AAd@ 100368c8     BaseChan.obj
 0002:0000291c       ??_C@_1BG@LILBPJIG@?$AAC?$AAl?$AAo?$AAs?$AAe?$AA?3?$AA?5?$AA?$CL?$AA?$CL?$AA?$CL?$AA?$AA@ 1003691c     BaseChan.obj
 0002:00002938       ??_C@_1FO@FPBIMALA@?$AAC?$AAl?$AAe?$AAa?$AAr?$AA?3?$AA?5?$AAe?$AAr?$AAa?$AAs?$AAe?$AA?5?$AA?$CF?$AAd?$AA?5?$AAp?$AAa?$AAc?$AAk?$AAa?$AAg?$AAe?$AAs?$AA?5?$AAi?$AAn?$AA?5?$AAa?$AAs?$AAy?$AAn@ 10036938     BaseChan.obj
 0002:00002998       ??_C@_1DM@OKCAFJKO@?$AAC?$AAl?$AAe?$AAa?$AAr?$AA?3?$AA?5?$AAc?$AAl?$AAe?$AAa?$AAr?$AA?5?$AAp?$AAr?$AAo?$AAt?$AAo?$AAc?$AAo?$AAl?$AA?5?$AAp?$AAa?$AAc?$AAk?$AAa?$AAg?$AAe?$AA?$AA@ 10036998     BaseChan.obj
 0002:000029d4       ??_C@_1DE@GAHPMBDJ@?$AAC?$AAl?$AAe?$AAa?$AAr?$AA?3?$AA?5?$AAc?$AAl?$AAe?$AAa?$AAr?$AA?5?$AAc?$AAh?$AAa?$AAn?$AAn?$AAe?$AAl?$AA?5?$AAd?$AAa?$AAt?$AAa?$AA?$AA@ 100369d4     BaseChan.obj
 0002:00002a08       ??_C@_1EM@LFNMLJHM@?$AAA?$AAd?$AAd?$AAC?$AAo?$AAn?$AAd?$AA?3?$AA?5?$AAi?$AAd?$AA?5?$AA?$DN?$AA?5?$AA?$CF?$AAd?$AA?0?$AA?5?$AAr?$AAe?$AAf?$AA_?$AAc?$AAo?$AAu?$AAn?$AAt?$AA?5?$AA?$DN?$AA?5?$AA?$CF?$AAd@ 10036a08     BaseChan.obj
 0002:00002a58       ??_C@_1GK@IJLILNDN@?$AAA?$AAd?$AAd?$AAC?$AAo?$AAn?$AAd?$AA?3?$AA?5?$AAf?$AAi?$AAn?$AAd?$AA?5?$AAa?$AA?5?$AAs?$AAa?$AAm?$AAe?$AA?5?$AAc?$AAo?$AAn?$AAd?$AAi?$AAt?$AAi?$AAo?$AAn?$AA?5?$AAi@ 10036a58     BaseChan.obj
 0002:00002ac4       ??_C@_1DK@IEBGIEGH@?$AAA?$AAd?$AAd?$AAC?$AAo?$AAn?$AAd?$AA?3?$AA?5?$AAr?$AAe?$AAf?$AA_?$AAc?$AAo?$AAu?$AAn?$AAt?$AA?5?$AA?$DN?$AA?5?$AA?$CF?$AAd?$AA?0?$AA?5?$AA?$CL?$AA?$CL?$AA?$CL?$AA?$AA@ 10036ac4     BaseChan.obj
 0002:00002b00       ??_C@_1CM@PIDBOIJF@?$AAA?$AAd?$AAd?$AAC?$AAo?$AAn?$AAd?$AA?3?$AA?5?$AAi?$AAd?$AA?5?$AA?$DN?$AA?5?$AA?$CF?$AAd?$AA?0?$AA?5?$AA?9?$AA?9?$AA?9?$AA?$AA@ 10036b00     BaseChan.obj
 0002:00002b30       ??_C@_1GI@NKEGFHED@?$AAA?$AAd?$AAd?$AAC?$AAo?$AAn?$AAd?$AA?3?$AA?5?$AAf?$AAi?$AAn?$AAd?$AA?5?$AAa?$AA?5?$AAs?$AAa?$AAm?$AAe?$AA?5?$AAc?$AAo?$AAn?$AAd?$AAi?$AAt?$AAi?$AAo?$AAn?$AA?5?$AAi@ 10036b30     BaseChan.obj
 0002:00002b98       ??_C@_1BK@NEPILMGI@?$AAA?$AAd?$AAd?$AAC?$AAo?$AAn?$AAd?$AA?3?$AA?5?$AA?$CL?$AA?$CL?$AA?$CL?$AA?$AA@ 10036b98     BaseChan.obj
 0002:00002bb4       ??_C@_1DA@FHGGMJKP@?$AAF?$AAi?$AAn?$AAd?$AAP?$AAa?$AAc?$AAk?$AAa?$AAg?$AAe?$AA?3?$AA?5?$AAl?$AAp?$AAR?$AAe?$AAa?$AAd?$AA?5?$AA?9?$AA?9?$AA?9?$AA?$AA@ 10036bb4     BaseChan.obj
 0002:00002be8       ??_C@_1EC@EKBKJEAK@?$AAF?$AAi?$AAn?$AAd?$AAP?$AAa?$AAc?$AAk?$AAa?$AAg?$AAe?$AA?3?$AA?5?$AAa?$AAd?$AAd?$AA?5?$AAc?$AAo?$AAn?$AAd?$AA?5?$AA?$CF?$AAd?$AA?5?$AAt?$AAo?$AA?5?$AAl?$AAi?$AAs?$AAt@ 10036be8     BaseChan.obj
 0002:00002c30       ??_C@_1HA@IMHOHGMF@?$AAF?$AAi?$AAn?$AAd?$AAP?$AAa?$AAc?$AAk?$AAa?$AAg?$AAe?$AA?3?$AA?5?$AAr?$AAe?$AAm?$AAo?$AAv?$AAe?$AA?5?$AAo?$AAn?$AAe?$AA?5?$AAp?$AAa?$AAc?$AAk?$AAa?$AAg?$AAe?$AA?5@ 10036c30     BaseChan.obj
 0002:00002ca0       ??_C@_1DG@FNFMMCAE@?$AAF?$AAi?$AAn?$AAd?$AAP?$AAa?$AAc?$AAk?$AAa?$AAg?$AAe?$AA?3?$AA?5?$AAp?$AAa?$AAc?$AAk?$AAa?$AAg?$AAe?$AA?5?$AAf?$AAo?$AAu?$AAn?$AAd?$AA?$AA@ 10036ca0     BaseChan.obj
 0002:00002cd8       ??_C@_1FG@PJOPIJPM@?$AAF?$AAi?$AAn?$AAd?$AAP?$AAa?$AAc?$AAk?$AAa?$AAg?$AAe?$AA?3?$AA?5?$AAa?$AAs?$AAy?$AAn?$AAc?$AA?5?$AAp?$AAa?$AAc?$AAk?$AAa?$AAg?$AAe?$AA?5?$AAl?$AAi?$AAs?$AAt?$AA?5@ 10036cd8     BaseChan.obj
 0002:00002d30       ??_C@_1EG@NEIFNNLB@?$AAF?$AAi?$AAn?$AAd?$AAP?$AAa?$AAc?$AAk?$AAa?$AAg?$AAe?$AA?3?$AA?5?$AAl?$AAp?$AAR?$AAe?$AAa?$AAd?$AA?9?$AA?$DO?$AAn?$AAC?$AAo?$AAn?$AAd?$AA?$CI?$AA?$CF?$AAd?$AA?$CJ?$AA?5?$AA?$CL@ 10036d30     BaseChan.obj
 0002:00002d78       ?_EEM_DS@?$deque@PAUPRT_BUFF@@V?$allocator@PAUPRT_BUFF@@@std@@@std@@2HB 10036d78     BmChannel.obj
 0002:00002d7c       ??_C@_1O@FGLMIDOA@?$AAB?$AAm?$AAC?$AAh?$AAa?$AAn?$AA?$AA@ 10036d7c     BmChannel.obj
 0002:00002d90       ??_7CBmChannel@@6BIProtocolObserver@@@ 10036d90     BmChannel.obj
 0002:00002d9c       ??_7CBmChannel@@6BIProtocolChannel@@@ 10036d9c     BmChannel.obj
 0002:00002e0c       ??_C@_1BE@MACJIDKK@?$AAW?$AAr?$AAi?$AAt?$AAe?$AA?3?$AA?5?$AA?9?$AA?9?$AA?$AA@ 10036e0c     BmChannel.obj
 0002:00002e20       ??_C@_1JA@OCKMGPD@?$AAW?$AAr?$AAi?$AAt?$AAe?$AA?3?$AA?5?$AAi?$AAn?$AAp?$AAu?$AAt?$AA?5?$AAd?$AAa?$AAt?$AAa?$AA?5?$AAp?$AAo?$AAi?$AAn?$AAt?$AAe?$AAr?$AA?5?$AAi?$AAs?$AA?5?$AAn?$AAu?$AAl@ 10036e20     BmChannel.obj
 0002:00002eb0       ??_C@_1GM@MABLMOMC@?$AAW?$AAr?$AAi?$AAt?$AAe?$AA?3?$AA?5?$AAf?$AAa?$AAi?$AAl?$AAe?$AAd?$AA?0?$AAr?$AAe?$AAm?$AAo?$AAv?$AAe?$AA?5?$AAp?$AAr?$AAe?$AAv?$AAi?$AAo?$AAu?$AAs?$AAl?$AAy?$AA?5@ 10036eb0     BmChannel.obj
 0002:00002f20       ??_C@_1HC@IBHAOAOO@?$AAW?$AAr?$AAi?$AAt?$AAe?$AA?3?$AA?5?$AAr?$AAe?$AAm?$AAo?$AAv?$AAe?$AA?5?$AAa?$AAl?$AAl?$AA?5?$AAp?$AAa?$AAc?$AAk?$AAa?$AAg?$AAe?$AAs?$AA?5?$AAw?$AAh?$AAi?$AAc?$AAh@ 10036f20     BmChannel.obj
 0002:00002f98       ??_C@_1GA@GKIKPLIN@?$AAW?$AAr?$AAi?$AAt?$AAe?$AA?3?$AA?5?$AAl?$AAo?$AAw?$AAe?$AAr?$AA?5?$AAW?$AAr?$AAi?$AAt?$AAe?$AA?5?$AAi?$AAs?$AA?5?$AAc?$AAa?$AAl?$AAl?$AAe?$AAd?$AA?0?$AAr?$AAe?$AAt@ 10036f98     BmChannel.obj
 0002:00002ff8       ??_C@_1FA@HHKNHJEI@?$AAW?$AAr?$AAi?$AAt?$AAe?$AA?3?$AA?5?$AAp?$AAa?$AAc?$AAk?$AAa?$AAg?$AAe?$AA?5?$AAf?$AAa?$AAi?$AAl?$AAe?$AAd?$AA?0?$AAe?$AAr?$AAr?$AAo?$AAr?$AA?5?$AAc?$AAo?$AAd?$AAe@ 10036ff8     BmChannel.obj
 0002:00003048       ??_C@_1FM@KJKPGOPM@?$AAW?$AAr?$AAi?$AAt?$AAe?$AA?3?$AA?5?$AAl?$AAo?$AAw?$AAe?$AAr?$AA?5?$AAc?$AAh?$AAa?$AAn?$AAn?$AAe?$AAl?$AA?5?$AAi?$AAs?$AA?5?$AAn?$AAu?$AAl?$AAl?$AA?0?$AAn?$AAo?$AAt@ 10037048     BmChannel.obj
 0002:000030a8       ??_7CBmPackage@@6B@        100370a8     BmPackage.obj
 0002:000030dc       ??_C@_0P@BOGJPMMF@ReleaseChannel?$AA@ 100370dc     DiagChan.obj
 0002:000030ec       ??_C@_0O@KHIFFBDL@CreateChannel?$AA@ 100370ec     DiagChan.obj
 0002:000030fc       ??_C@_1BM@MEPNFMGP@?$AA?2?$AAC?$AAh?$AAa?$AAn?$AAn?$AAe?$AAl?$AA9?$AA?4?$AAd?$AAl?$AAl?$AA?$AA@ 100370fc     DiagChan.obj
 0002:0000311c       ??_7CDiagChannel@@6BIProtocolObserver@@@ 1003711c     DiagChannel.obj
 0002:0000312c       ??_7CDiagChannel@@6BIProtocolChannel@@@ 1003712c     DiagChannel.obj
 0002:000031a0       ??_C@_1FK@FOBNFGFL@?$AAG?$AAe?$AAt?$AAC?$AAo?$AAn?$AAd?$AAi?$AAt?$AAi?$AAo?$AAn?$AA?3?$AA?5?$AAs?$AAn?$AA?5?$AA?$DN?$AA?5?$AA?$CF?$AAd?$AA?0?$AAt?$AAy?$AAp?$AAe?$AA?5?$AA?$DN?$AA?5?$AA?$CF?$AAd?$AA?0@ 100371a0     DiagChannel.obj
 0002:00003200       ??_C@_1HO@GKIOHGNP@?$AAI?$AAn?$AAp?$AAu?$AAt?$AA?5?$AAd?$AAa?$AAt?$AAa?$AA?5?$AAc?$AAo?$AAn?$AAt?$AAa?$AAi?$AAn?$AAs?$AA?5?$AAn?$AAo?$AA?5?$AAv?$AAa?$AAl?$AAi?$AAd?$AA?5?$AAp?$AAa?$AAc@ 10037200     DiagChannel.obj
 0002:00003280       ??_C@_0BD@DLPAENGM@type?$DN?$CFd?0subtype?$DN?$CFd?$AA@ 10037280     DiagChannel.obj
 0002:00003294       ??_C@_13BPINEIPE@?$AAr?$AA?$AA@ 10037294     DiagChannel.obj
 0002:00003298       ??_C@_1BK@IDEKGIHN@?$AAt?$AAy?$AAp?$AAe?$AA_?$AAd?$AAe?$AAf?$AA?4?$AAd?$AAe?$AAf?$AA?$AA@ 10037298     DiagChannel.obj
 0002:000032b4       ??_C@_1BC@OODBKEDH@?$AAD?$AAi?$AAa?$AAg?$AAC?$AAh?$AAa?$AAn?$AA?$AA@ 100372b4     DiagChannel.obj
 0002:000032cc       ??_7IProtocolPackage@@6B@  100372cc     DiagPackage.obj
 0002:000032ec       ??_7CDiagPackage@@6B@      100372ec     DiagPackage.obj
 0002:00003320       ??_C@_0BC@KBDMBKEH@deque?$DMT?$DO?5too?5long?$AA@ 10037320     DiagPackage.obj
 0002:00003334       ??_C@_0BK@GOGELADF@in?5use?5bytes?5?5?5?5?5?$DN?5?$CF10lu?6?$AA@ 10037334     dlmalloc.obj
 0002:00003350       ??_C@_0BK@HGDMIJJL@system?5bytes?5?5?5?5?5?$DN?5?$CF10lu?6?$AA@ 10037350     dlmalloc.obj
 0002:0000336c       ??_C@_0BK@NOJBAIDO@max?5system?5bytes?5?$DN?5?$CF10lu?6?$AA@ 1003736c     dlmalloc.obj
 0002:00003388       ??_C@_1BA@IDGKONNI@?$AAS?$AAm?$AAp?$AAC?$AAh?$AAa?$AAn?$AA?$AA@ 10037388     SmpChannel.obj
 0002:0000339c       ??_7CSmpChannel@@6BIProtocolObserver@@@ 1003739c     SmpChannel.obj
 0002:000033ac       ??_7CSmpChannel@@6BIProtocolChannel@@@ 100373ac     SmpChannel.obj
 0002:00003420       ??_7CSmpPackage@@6B@       10037420     SmpPackage.obj
 0002:0000345c       ??_7ISpLog@@6B@            1003745c     SpLog.obj
 0002:0000348c       ??_C@_0CF@KFHMIEDK@?$FL?$CF04d?9?$CF02d?9?$CF02d?5?$CF02d?3?$CF02d?3?$CF02d?3?$CF@ 1003748c     SpLog.obj
 0002:000034b8       ??_7CSpLog@@6B@            100374b8     SpLog.obj
 0002:000034e8       ??_C@_19CLCNNNIO@?$AA?4?$AAb?$AAi?$AAn?$AA?$AA@ 100374e8     SpLog.obj
 0002:000034f4       ??_C@_19JFPGGDCL@?$AA?4?$AAl?$AAo?$AAg?$AA?$AA@ 100374f4     SpLog.obj
 0002:00003500       ??_C@_1BA@HEBNFGMC@?$AA?$CF?$AAs?$AA?2?$AA?$CF?$AAs?$AA?$CF?$AAs?$AA?$AA@ 10037500     SpLog.obj
 0002:00003510       ??_C@_1CO@DNECLGJH@?$AA?$CF?$AAs?$AA?2?$AA?$CF?$AAs?$AA_?$AA?$CF?$AA0?$AA4?$AAd?$AA_?$AA?$CF?$AA0?$AA2?$AAd?$AA_?$AA?$CF?$AA0?$AA2?$AAd?$AA?$CF?$AAs?$AA?$AA@ 10037510     SpLog.obj
 0002:00003540       ??_C@_1FG@FHONEJOP@?$AA?$CF?$AAs?$AA?2?$AA?$CF?$AAs?$AA_?$AA?$CF?$AA0?$AA4?$AAd?$AA_?$AA?$CF?$AA0?$AA2?$AAd?$AA_?$AA?$CF?$AA0?$AA2?$AAd?$AA_?$AA?$CF?$AA0?$AA2?$AAd?$AA_?$AA?$CF?$AA0?$AA2?$AAd?$AA_?$AA?$CF@ 10037540     SpLog.obj
 0002:00003598       ??_C@_15GANGMFKL@?$AA?$CF?$AAs?$AA?$AA@ 10037598     SpLog.obj
 0002:000035a0       ??_C@_1BG@JEMCAELI@?$AA?$CF?$AAs?$AA?2?$AA?$CF?$AAs?$AA_?$AAW?$AAt?$AA?$CF?$AAs?$AA?$AA@ 100375a0     SpLog.obj
 0002:000035b8       ??_C@_1BG@OFAPONH@?$AA?$CF?$AAs?$AA?2?$AA?$CF?$AAs?$AA_?$AAR?$AAd?$AA?$CF?$AAs?$AA?$AA@ 100375b8     SpLog.obj
 0002:000035d0       ??_C@_1BG@BKMFGADG@?$AA?$CF?$AAs?$AA?2?$AA?$CF?$AAs?$AA_?$AA?$CF?$AAd?$AA?$CF?$AAs?$AA?$AA@ 100375d0     SpLog.obj
 0002:000035e8       ??_C@_0O@CLJDBCAD@Enter?5?$FL?$CFs?$FN?5?$CFs?$AA@ 100375e8     SpLog.obj
 0002:000035f8       ??_C@_0L@DENLGDIJ@Enter?5?$FL?$CFs?$FN?$AA@ 100375f8     SpLog.obj
 0002:00003604       ??_C@_02DKCKIIND@?$CFs?$AA@ 10037604     SpLog.obj
 0002:0000360c       ??_7CFnLog@@6B@            1003760c     SpLog.obj
 0002:00003610       ??_C@_0L@BGMDFEN@Leave?5?$FL?$CFs?$FN?$AA@ 10037610     SpLog.obj
 0002:0000361c       ??_C@_1M@DFKENGJN@?$AA?$CF?$AAs?$AA?2?$AA?$CF?$AAs?$AA?$AA@ 1003761c     SpLog.obj
 0002:00003628       ??_C@_1BC@GLIGFLDD@?$AA?$CF?$AAs?$AA?2?$AA?$CF?$AAs?$AA?2?$AA?$CF?$AAs?$AA?$AA@ 10037628     SpLog.obj
 0002:0000363c       ??_C@_04LLEBNMDN@?$CFs?$AN?6?$AA@ 1003763c     SpLog.obj
 0002:00003644       ??_C@_07HDPLFHPL@?$CFs?5?$CFs?$AN?6?$AA@ 10037644     SpLog.obj
 0002:0000364c       ??_C@_07MKMFIMPB@?$CFs?$CFs?$DL?$AN?6?$AA@ 1003764c     SpLog.obj
 0002:00003654       ??_C@_0L@LLCACCMD@?$CFs?$CFs?$DL?5?$CFs?$AN?6?$AA@ 10037654     SpLog.obj
 0002:00003660       ??_C@_03NDEAONJP@?5?5?5?$AA@ 10037660     SpLog.obj
 0002:00003664       ??_C@_05BFHEBJNP@?$CF02X?5?$AA@ 10037664     SpLog.obj
 0002:0000366c       ??_C@_07OAEJFMDA@?$CF08xh?3?5?$AA@ 1003766c     SpLog.obj
 0002:00003674       ??_C@_0BP@GEGAOEKJ@?$CFs?5?$CFd?$CI0x?$CF08x?$CJ?1?$CFd?$CI0x?$CF08x?$CJ?5Bytes?$AA@ 10037674     SpLog.obj
 0002:00003694       ??_C@_03HEPJOIKG@?$DM?9?9?$AA@ 10037694     SpLog.obj
 0002:00003698       ??_C@_03PNLDJJMO@?9?9?$DO?$AA@ 10037698     SpLog.obj
 0002:0000369c       ??_C@_0BE@NFLAEEAD@?$CFs?5?$CFd?$CI0x?$CF08x?$CJ?5Bytes?$AA@ 1003769c     SpLog.obj
 0002:000036b0       ??_C@_03GJBNCBOB@?$DM?$DM?9?$AA@ 100376b0     SpLog.obj
 0002:000036b4       ??_C@_03JMFMNIFM@?9?9?9?$AA@ 100376b4     SpLog.obj
 0002:000036b8       ?collate@?$_Locbase@H@std@@2HB 100376b8     libcpmt:string.obj
 0002:000036bc       ?ctype@?$_Locbase@H@std@@2HB 100376bc     libcpmt:string.obj
 0002:000036c0       ?monetary@?$_Locbase@H@std@@2HB 100376c0     libcpmt:string.obj
 0002:000036c4       ?numeric@?$_Locbase@H@std@@2HB 100376c4     libcpmt:string.obj
 0002:000036c8       ?time@?$_Locbase@H@std@@2HB 100376c8     libcpmt:string.obj
 0002:000036cc       ?messages@?$_Locbase@H@std@@2HB 100376cc     libcpmt:string.obj
 0002:000036d0       ?all@?$_Locbase@H@std@@2HB 100376d0     libcpmt:string.obj
 0002:000036d4       ?none@?$_Locbase@H@std@@2HB 100376d4     libcpmt:string.obj
 0002:000036d8       ?table_size@?$ctype@D@std@@2IB 100376d8     libcpmt:string.obj
 0002:000036dc       ?skipws@?$_Iosb@H@std@@2W4_Fmtflags@12@B 100376dc     libcpmt:string.obj
 0002:000036e0       ?unitbuf@?$_Iosb@H@std@@2W4_Fmtflags@12@B 100376e0     libcpmt:string.obj
 0002:000036e4       ?uppercase@?$_Iosb@H@std@@2W4_Fmtflags@12@B 100376e4     libcpmt:string.obj
 0002:000036e8       ?showbase@?$_Iosb@H@std@@2W4_Fmtflags@12@B 100376e8     libcpmt:string.obj
 0002:000036ec       ?showpoint@?$_Iosb@H@std@@2W4_Fmtflags@12@B 100376ec     libcpmt:string.obj
 0002:000036f0       ?showpos@?$_Iosb@H@std@@2W4_Fmtflags@12@B 100376f0     libcpmt:string.obj
 0002:000036f4       ?left@?$_Iosb@H@std@@2W4_Fmtflags@12@B 100376f4     libcpmt:string.obj
 0002:000036f8       ?right@?$_Iosb@H@std@@2W4_Fmtflags@12@B 100376f8     libcpmt:string.obj
 0002:000036fc       ?internal@?$_Iosb@H@std@@2W4_Fmtflags@12@B 100376fc     libcpmt:string.obj
 0002:00003700       ?dec@?$_Iosb@H@std@@2W4_Fmtflags@12@B 10037700     libcpmt:string.obj
 0002:00003704       ?oct@?$_Iosb@H@std@@2W4_Fmtflags@12@B 10037704     libcpmt:string.obj
 0002:00003708       ?hex@?$_Iosb@H@std@@2W4_Fmtflags@12@B 10037708     libcpmt:string.obj
 0002:0000370c       ?scientific@?$_Iosb@H@std@@2W4_Fmtflags@12@B 1003770c     libcpmt:string.obj
 0002:00003710       ?fixed@?$_Iosb@H@std@@2W4_Fmtflags@12@B 10037710     libcpmt:string.obj
 0002:00003714       ?hexfloat@?$_Iosb@H@std@@2W4_Fmtflags@12@B 10037714     libcpmt:string.obj
 0002:00003718       ?boolalpha@?$_Iosb@H@std@@2W4_Fmtflags@12@B 10037718     libcpmt:string.obj
 0002:0000371c       ?_Stdio@?$_Iosb@H@std@@2W4_Fmtflags@12@B 1003771c     libcpmt:string.obj
 0002:00003720       ?adjustfield@?$_Iosb@H@std@@2W4_Fmtflags@12@B 10037720     libcpmt:string.obj
 0002:00003724       ?basefield@?$_Iosb@H@std@@2W4_Fmtflags@12@B 10037724     libcpmt:string.obj
 0002:00003728       ?floatfield@?$_Iosb@H@std@@2W4_Fmtflags@12@B 10037728     libcpmt:string.obj
 0002:0000372c       ?goodbit@?$_Iosb@H@std@@2W4_Iostate@12@B 1003772c     libcpmt:string.obj
 0002:00003730       ?eofbit@?$_Iosb@H@std@@2W4_Iostate@12@B 10037730     libcpmt:string.obj
 0002:00003734       ?failbit@?$_Iosb@H@std@@2W4_Iostate@12@B 10037734     libcpmt:string.obj
 0002:00003738       ?badbit@?$_Iosb@H@std@@2W4_Iostate@12@B 10037738     libcpmt:string.obj
 0002:0000373c       ?_Hardfail@?$_Iosb@H@std@@2W4_Iostate@12@B 1003773c     libcpmt:string.obj
 0002:00003740       ?in@?$_Iosb@H@std@@2W4_Openmode@12@B 10037740     libcpmt:string.obj
 0002:00003744       ?out@?$_Iosb@H@std@@2W4_Openmode@12@B 10037744     libcpmt:string.obj
 0002:00003748       ?ate@?$_Iosb@H@std@@2W4_Openmode@12@B 10037748     libcpmt:string.obj
 0002:0000374c       ?app@?$_Iosb@H@std@@2W4_Openmode@12@B 1003774c     libcpmt:string.obj
 0002:00003750       ?trunc@?$_Iosb@H@std@@2W4_Openmode@12@B 10037750     libcpmt:string.obj
 0002:00003754       ?_Nocreate@?$_Iosb@H@std@@2W4_Openmode@12@B 10037754     libcpmt:string.obj
 0002:00003758       ?_Noreplace@?$_Iosb@H@std@@2W4_Openmode@12@B 10037758     libcpmt:string.obj
 0002:0000375c       ?binary@?$_Iosb@H@std@@2W4_Openmode@12@B 1003775c     libcpmt:string.obj
 0002:00003760       ?beg@?$_Iosb@H@std@@2W4_Seekdir@12@B 10037760     libcpmt:string.obj
 0002:00003764       ?cur@?$_Iosb@H@std@@2W4_Seekdir@12@B 10037764     libcpmt:string.obj
 0002:00003768       ?end@?$_Iosb@H@std@@2W4_Seekdir@12@B 10037768     libcpmt:string.obj
 0002:00003770       ??_7invalid_argument@std@@6B@ 10037770     libcpmt:string.obj
 0002:0000377c       ??_7out_of_range@std@@6B@  1003777c     libcpmt:string.obj
 0002:00003784       ??_C@_0BA@JFNIOLAK@string?5too?5long?$AA@ 10037784     libcpmt:string.obj
 0002:00003794       ??_C@_0BI@CFPLBAOH@invalid?5string?5position?$AA@ 10037794     libcpmt:string.obj
 0002:000037ac       ??_C@_0BI@ILCMCLF@invalid?5string?5argument?$AA@ 100377ac     libcpmt:string.obj
 0002:000037c8       ??_7exception@std@@6B@     100377c8     LIBCMT:stdexcpt.obj
 0002:000037d0       ??_C@_0BC@EOODALEL@Unknown?5exception?$AA@ 100377d0     LIBCMT:stdexcpt.obj
 0002:000037e8       ??_7bad_cast@std@@6B@      100377e8     LIBCMT:stdexcpt.obj
 0002:000037f4       ??_7bad_typeid@std@@6B@    100377f4     LIBCMT:stdexcpt.obj
 0002:00003800       ??_7__non_rtti_object@std@@6B@ 10037800     LIBCMT:stdexcpt.obj
 0002:0000380c       ??_7type_info@@6B@         1003780c     LIBCMT:typinfo.obj
 0002:00003830       ?ProcessDetach@NativeDll@<CrtImplementationDetails>@@0IB 10037830     LIBCMT:_trnsctrl_.obj
 0002:00003834       ?ProcessAttach@NativeDll@<CrtImplementationDetails>@@0IB 10037834     LIBCMT:_trnsctrl_.obj
 0002:00003838       ?ThreadAttach@NativeDll@<CrtImplementationDetails>@@0IB 10037838     LIBCMT:_trnsctrl_.obj
 0002:0000383c       ?ThreadDetach@NativeDll@<CrtImplementationDetails>@@0IB 1003783c     LIBCMT:_trnsctrl_.obj
 0002:00003840       ?ProcessVerifier@NativeDll@<CrtImplementationDetails>@@0IB 10037840     LIBCMT:_trnsctrl_.obj
 0002:00003844       __pDefaultRawDllMain       10037844     LIBCMT:dllcrt0.obj
 0002:00003844       __pRawDllMain              10037844     LIBCMT:dllcrt0.obj
 0002:00003848       ??_C@_0P@GGKDKEEG@runtime?5error?5?$AA@ 10037848     LIBCMT:crt0msg.obj
 0002:00003858       ??_C@_02PCIJFNDE@?$AN?6?$AA@ 10037858     LIBCMT:crt0msg.obj
 0002:0000385c       ??_C@_0O@MJNIPGOH@TLOSS?5error?$AN?6?$AA@ 1003785c     LIBCMT:crt0msg.obj
 0002:0000386c       ??_C@_0N@BONNPDHF@SING?5error?$AN?6?$AA@ 1003786c     LIBCMT:crt0msg.obj
 0002:0000387c       ??_C@_0P@MBDAJNE@DOMAIN?5error?$AN?6?$AA@ 1003787c     LIBCMT:crt0msg.obj
 0002:00003890       ??_C@_0JL@DFDOOABL@R6034?$AN?6An?5application?5has?5made?5a@ 10037890     LIBCMT:crt0msg.obj
 0002:00003930       ??_C@_0PH@EPAFIJ@R6033?$AN?6?9?5Attempt?5to?5use?5MSIL?5cod@ 10037930     LIBCMT:crt0msg.obj
 0002:00003a28       ??_C@_0DD@BKEEABMM@R6032?$AN?6?9?5not?5enough?5space?5for?5lo@ 10037a28     LIBCMT:crt0msg.obj
 0002:00003a60       ??_C@_0GD@OFKILIED@R6031?$AN?6?9?5Attempt?5to?5initialize?5t@ 10037a60     LIBCMT:crt0msg.obj
 0002:00003ac4       ??_C@_0BP@LPMHJOKI@R6030?$AN?6?9?5CRT?5not?5initialized?$AN?6?$AA@ 10037ac4     LIBCMT:crt0msg.obj
 0002:00003ae4       ??_C@_0CF@KJDAIALP@R6028?$AN?6?9?5unable?5to?5initialize?5he@ 10037ae4     LIBCMT:crt0msg.obj
 0002:00003b0c       ??_C@_0DF@GAKBPDFP@R6027?$AN?6?9?5not?5enough?5space?5for?5lo@ 10037b0c     LIBCMT:crt0msg.obj
 0002:00003b44       ??_C@_0DF@IBLNNAIG@R6026?$AN?6?9?5not?5enough?5space?5for?5st@ 10037b44     LIBCMT:crt0msg.obj
 0002:00003b7c       ??_C@_0CG@IOHKGFNJ@R6025?$AN?6?9?5pure?5virtual?5function?5c@ 10037b7c     LIBCMT:crt0msg.obj
 0002:00003ba4       ??_C@_0DF@JIJJFJDC@R6024?$AN?6?9?5not?5enough?5space?5for?5_o@ 10037ba4     LIBCMT:crt0msg.obj
 0002:00003bdc       ??_C@_0CJ@EGEJHFME@R6019?$AN?6?9?5unable?5to?5open?5console?5@ 10037bdc     LIBCMT:crt0msg.obj
 0002:00003c08       ??_C@_0CB@GNHNIELH@R6018?$AN?6?9?5unexpected?5heap?5error?$AN?6@ 10037c08     LIBCMT:crt0msg.obj
 0002:00003c2c       ??_C@_0CN@FOLDKNG@R6017?$AN?6?9?5unexpected?5multithread?5@ 10037c2c     LIBCMT:crt0msg.obj
 0002:00003c5c       ??_C@_0CM@FAHFJNHO@R6016?$AN?6?9?5not?5enough?5space?5for?5th@ 10037c5c     LIBCMT:crt0msg.obj
 0002:00003c88       ??_C@_0JG@LBKMGKLD@?$AN?6This?5application?5has?5requested@ 10037c88     LIBCMT:crt0msg.obj
 0002:00003d20       ??_C@_0CM@FLCNIPKK@R6009?$AN?6?9?5not?5enough?5space?5for?5en@ 10037d20     LIBCMT:crt0msg.obj
 0002:00003d4c       ??_C@_0CK@KMMJOAPP@R6008?$AN?6?9?5not?5enough?5space?5for?5ar@ 10037d4c     LIBCMT:crt0msg.obj
 0002:00003d78       ??_C@_0CN@LEKKICBM@R6002?$AN?6?9?5floating?5point?5support?5@ 10037d78     LIBCMT:crt0msg.obj
 0002:00003da8       ??_C@_0CF@GOGNBNAK@Microsoft?5Visual?5C?$CL?$CL?5Runtime?5Lib@ 10037da8     LIBCMT:crt0msg.obj
 0002:00003dd0       ??_C@_02PHMGELLB@?6?6?$AA@ 10037dd0     LIBCMT:crt0msg.obj
 0002:00003dd4       ??_C@_03KHICJKCI@?4?4?4?$AA@ 10037dd4     LIBCMT:crt0msg.obj
 0002:00003dd8       ??_C@_0BH@DNAGHKFM@?$DMprogram?5name?5unknown?$DO?$AA@ 10037dd8     LIBCMT:crt0msg.obj
 0002:00003df0       ??_C@_0BK@OFGJDLJJ@Runtime?5Error?$CB?6?6Program?3?5?$AA@ 10037df0     LIBCMT:crt0msg.obj
 0002:00003e0c       ??_C@_0O@NLDKAIKN@EncodePointer?$AA@ 10037e0c     LIBCMT:tidtable.obj
 0002:00003e1c       ??_C@_1BK@DBDEIDLH@?$AAK?$AAE?$AAR?$AAN?$AAE?$AAL?$AA3?$AA2?$AA?4?$AAD?$AAL?$AAL?$AA?$AA@ 10037e1c     LIBCMT:tidtable.obj
 0002:00003e38       ??_C@_0O@KBPMFGHI@DecodePointer?$AA@ 10037e38     LIBCMT:tidtable.obj
 0002:00003e48       ??_C@_07PEJMOBNF@FlsFree?$AA@ 10037e48     LIBCMT:tidtable.obj
 0002:00003e50       ??_C@_0M@JCPCPOEF@FlsSetValue?$AA@ 10037e50     LIBCMT:tidtable.obj
 0002:00003e5c       ??_C@_0M@GDNOONDI@FlsGetValue?$AA@ 10037e5c     LIBCMT:tidtable.obj
 0002:00003e68       ??_C@_08KNHFBNJ@FlsAlloc?$AA@ 10037e68     LIBCMT:tidtable.obj
 0002:00003e7c       ??_C@_0P@MIGLKIOC@CorExitProcess?$AA@ 10037e7c     LIBCMT:crt0dat.obj
 0002:00003e8c       ??_C@_1BI@BGOHAHKC@?$AAm?$AAs?$AAc?$AAo?$AAr?$AAe?$AAe?$AA?4?$AAd?$AAl?$AAl?$AA?$AA@ 10037e8c     LIBCMT:crt0dat.obj
 0002:00003ea8       __XcptActTab               10037ea8     LIBCMT:winxfltr.obj
 0002:00003f20       __pDestructExceptionObject 10037f20     LIBCMT:frame.obj
 0002:00003f28       ??_7bad_exception@std@@6B@ 10037f28     LIBCMT:frame.obj
 0002:00003f30       ??_C@_0O@DPKOEFFH@bad?5exception?$AA@ 10037f30     LIBCMT:frame.obj
 0002:00003f78       ??_C@_1O@CEDCILHN@?$AA?$CI?$AAn?$AAu?$AAl?$AAl?$AA?$CJ?$AA?$AA@ 10037f78     LIBCMT:output.obj
 0002:00003f88       ??_C@_06OJHGLDPL@?$CInull?$CJ?$AA@ 10037f88     LIBCMT:output.obj
 0002:00003f90       ___lookuptable             10037f90     LIBCMT:output.obj
 0002:00003fec       ??_C@_07LCBHPJJN@LC_TIME?$AA@ 10037fec     LIBCMT:setlocal.obj
 0002:00003ff4       ??_C@_0L@DLHIECNL@LC_NUMERIC?$AA@ 10037ff4     LIBCMT:setlocal.obj
 0002:00004000       ??_C@_0M@MIENIKLA@LC_MONETARY?$AA@ 10038000     LIBCMT:setlocal.obj
 0002:0000400c       ??_C@_08EADHIDAD@LC_CTYPE?$AA@ 1003800c     LIBCMT:setlocal.obj
 0002:00004018       ??_C@_0L@KFJHEKIK@LC_COLLATE?$AA@ 10038018     LIBCMT:setlocal.obj
 0002:00004024       ??_C@_06NEFDFEKB@LC_ALL?$AA@ 10038024     LIBCMT:setlocal.obj
 0002:00004030       ___lc_category             10038030     LIBCMT:setlocal.obj
 0002:000040f8       ??_C@_03EGDHDPFD@_?4?0?$AA@ 100380f8     LIBCMT:setlocal.obj
 0002:000040fc       ??_C@_01LFCBOECM@?4?$AA@   100380fc     LIBCMT:setlocal.obj
 0002:00004100       ??_C@_01IDAFKMJL@_?$AA@    10038100     LIBCMT:setlocal.obj
 0002:00004104       ??_C@_01ICJEACDI@?$DL?$AA@ 10038104     LIBCMT:setlocal.obj
 0002:00004108       ??_C@_01NEMOKFLO@?$DN?$AA@ 10038108     LIBCMT:setlocal.obj
 0002:0000410a       ??_C@_00CNPNBAHC@?$AA@     1003810a     LIBCMT:setlocal.obj
 0002:0000410c       ??_C@_01GFHCPBMG@C?$AA@    1003810c     LIBCMT:setlocal.obj
 0002:00004110       ??_C@_02BALPLPBG@?$DN?$DL?$AA@ 10038110     LIBCMT:setlocal.obj
 0002:00004114       ??_C@_0BK@CFCOFLF@?5Complete?5Object?5Locator?8?$AA@ 10038114     LIBCMT:undname.obj
 0002:00004130       ??_C@_0BN@MECKDCOJ@?5Class?5Hierarchy?5Descriptor?8?$AA@ 10038130     LIBCMT:undname.obj
 0002:00004150       ??_C@_0BD@LGICGFMM@?5Base?5Class?5Array?8?$AA@ 10038150     LIBCMT:undname.obj
 0002:00004164       ??_C@_0BM@LDKODKLH@?5Base?5Class?5Descriptor?5at?5?$CI?$AA@ 10038164     LIBCMT:undname.obj
 0002:00004180       ??_C@_0BC@DAFEJGAK@?5Type?5Descriptor?8?$AA@ 10038180     LIBCMT:undname.obj
 0002:00004194       ??_C@_0BM@PMGGMLDN@?$GAlocal?5static?5thread?5guard?8?$AA@ 10038194     LIBCMT:undname.obj
 0002:000041b0       ??_C@_0CL@FGIJHLCE@?$GAmanaged?5vector?5copy?5constructor@ 100381b0     LIBCMT:undname.obj
 0002:000041dc       ??_C@_0CJ@GJELGAMM@?$GAvector?5vbase?5copy?5constructor?5i@ 100381dc     LIBCMT:undname.obj
 0002:00004208       ??_C@_0CD@CGAJBKEJ@?$GAvector?5copy?5constructor?5iterato@ 10038208     LIBCMT:undname.obj
 0002:0000422c       ??_C@_0CB@PDBIFEP@?$GAdynamic?5atexit?5destructor?5for?5?8@ 1003822c     LIBCMT:undname.obj
 0002:00004250       ??_C@_0BL@CLIPGLGB@?$GAdynamic?5initializer?5for?5?8?$AA@ 10038250     LIBCMT:undname.obj
 0002:0000426c       ??_C@_0CM@FCBBDIGB@?$GAeh?5vector?5vbase?5copy?5constructo@ 1003826c     LIBCMT:undname.obj
 0002:00004298       ??_C@_0CG@HLDDJMAG@?$GAeh?5vector?5copy?5constructor?5iter@ 10038298     LIBCMT:undname.obj
 0002:000042c0       ??_C@_0CF@IMGKMJNO@?$GAmanaged?5vector?5destructor?5itera@ 100382c0     LIBCMT:undname.obj
 0002:000042e8       ??_C@_0CG@CFDHKGGD@?$GAmanaged?5vector?5constructor?5iter@ 100382e8     LIBCMT:undname.obj
 0002:00004310       ??_C@_0BN@CKNJLHMB@?$GAplacement?5delete?$FL?$FN?5closure?8?$AA@ 10038310     LIBCMT:undname.obj
 0002:00004330       ??_C@_0BL@CNOONJFP@?$GAplacement?5delete?5closure?8?$AA@ 10038330     LIBCMT:undname.obj
 0002:0000434c       ??_C@_0P@HJKNJFNN@?$GAomni?5callsig?8?$AA@ 1003834c     LIBCMT:undname.obj
 0002:0000435c       ??_C@_09LBNFPBCA@?5delete?$FL?$FN?$AA@ 1003835c     LIBCMT:undname.obj
 0002:00004368       ??_C@_06FHBGPFGH@?5new?$FL?$FN?$AA@ 10038368     LIBCMT:undname.obj
 0002:00004370       ??_C@_0CE@IIHCMGGL@?$GAlocal?5vftable?5constructor?5closu@ 10038370     LIBCMT:undname.obj
 0002:00004394       ??_C@_0BA@KKLDJDLB@?$GAlocal?5vftable?8?$AA@ 10038394     LIBCMT:undname.obj
 0002:000043a4       ??_C@_05KHLCHHI@?$GARTTI?$AA@ 100383a4     LIBCMT:undname.obj
 0002:000043ac       ??_C@_03KLGMFNMG@?$GAEH?$AA@ 100383ac     LIBCMT:undname.obj
 0002:000043b0       ??_C@_0BA@KBCDOMBN@?$GAudt?5returning?8?$AA@ 100383b0     LIBCMT:undname.obj
 0002:000043c0       ??_C@_0BL@LLKPOHJI@?$GAcopy?5constructor?5closure?8?$AA@ 100383c0     LIBCMT:undname.obj
 0002:000043dc       ??_C@_0CH@OOJPLCPH@?$GAeh?5vector?5vbase?5constructor?5ite@ 100383dc     LIBCMT:undname.obj
 0002:00004404       ??_C@_0CA@GCEOPDGL@?$GAeh?5vector?5destructor?5iterator?8?$AA@ 10038404     LIBCMT:undname.obj
 0002:00004424       ??_C@_0CB@JONCMFFK@?$GAeh?5vector?5constructor?5iterator?8@ 10038424     LIBCMT:undname.obj
 0002:00004448       ??_C@_0BL@NILFHHPC@?$GAvirtual?5displacement?5map?8?$AA@ 10038448     LIBCMT:undname.obj
 0002:00004464       ??_C@_0CE@IKBNEHA@?$GAvector?5vbase?5constructor?5iterat@ 10038464     LIBCMT:undname.obj
 0002:00004488       ??_C@_0BN@LFPFMEDL@?$GAvector?5destructor?5iterator?8?$AA@ 10038488     LIBCMT:undname.obj
 0002:000044a8       ??_C@_0BO@PFGOCPJJ@?$GAvector?5constructor?5iterator?8?$AA@ 100384a8     LIBCMT:undname.obj
 0002:000044c8       ??_C@_0BN@IMDCHIKM@?$GAscalar?5deleting?5destructor?8?$AA@ 100384c8     LIBCMT:undname.obj
 0002:000044e8       ??_C@_0BO@OBMKPJIG@?$GAdefault?5constructor?5closure?8?$AA@ 100384e8     LIBCMT:undname.obj
 0002:00004508       ??_C@_0BN@DEGPLNFK@?$GAvector?5deleting?5destructor?8?$AA@ 10038508     LIBCMT:undname.obj
 0002:00004528       ??_C@_0BD@JDLKDPAB@?$GAvbase?5destructor?8?$AA@ 10038528     LIBCMT:undname.obj
 0002:0000453c       ??_C@_08OBABFOLI@?$GAstring?8?$AA@ 1003853c     LIBCMT:undname.obj
 0002:00004548       ??_C@_0BF@KDPPACIK@?$GAlocal?5static?5guard?8?$AA@ 10038548     LIBCMT:undname.obj
 0002:00004560       ??_C@_08LLFFHHDJ@?$GAtypeof?8?$AA@ 10038560     LIBCMT:undname.obj
 0002:0000456c       ??_C@_07FEEIOKP@?$GAvcall?8?$AA@ 1003856c     LIBCMT:undname.obj
 0002:00004574       ??_C@_09BLBHBJP@?$GAvbtable?8?$AA@ 10038574     LIBCMT:undname.obj
 0002:00004580       ??_C@_09IFPLHPGF@?$GAvftable?8?$AA@ 10038580     LIBCMT:undname.obj
 0002:0000458c       ??_C@_02MHEGNOJ@?$FO?$DN?$AA@ 1003858c     LIBCMT:undname.obj
 0002:00004590       ??_C@_02DHLNPPGH@?$HM?$DN?$AA@ 10038590     LIBCMT:undname.obj
 0002:00004594       ??_C@_02FGJGFEAB@?$CG?$DN?$AA@ 10038594     LIBCMT:undname.obj
 0002:00004598       ??_C@_03CDNPDDLA@?$DM?$DM?$DN?$AA@ 10038598     LIBCMT:undname.obj
 0002:0000459c       ??_C@_03IKFCCPFF@?$DO?$DO?$DN?$AA@ 1003859c     LIBCMT:undname.obj
 0002:000045a0       ??_C@_02FENAOKFI@?$CF?$DN?$AA@ 100385a0     LIBCMT:undname.obj
 0002:000045a4       ??_C@_02FJEHGPIO@?1?$DN?$AA@ 100385a4     LIBCMT:undname.obj
 0002:000045a8       ??_C@_02FKMDLLOA@?9?$DN?$AA@ 100385a8     LIBCMT:undname.obj
 0002:000045ac       ??_C@_02FOEOMHFC@?$CL?$DN?$AA@ 100385ac     LIBCMT:undname.obj
 0002:000045b0       ??_C@_02FPIMKNGF@?$CK?$DN?$AA@ 100385b0     LIBCMT:undname.obj
 0002:000045b4       ??_C@_02NONPIBCD@?$HM?$HM?$AA@ 100385b4     LIBCMT:undname.obj
 0002:000045b8       ??_C@_02PPKAJPJL@?$CG?$CG?$AA@ 100385b8     LIBCMT:undname.obj
 0002:000045bc       ??_C@_01DNKMNLPK@?$HM?$AA@ 100385bc     LIBCMT:undname.obj
 0002:000045c0       ??_C@_01JKBOJNNK@?$FO?$AA@ 100385c0     LIBCMT:undname.obj
 0002:000045c4       ??_C@_01PJKLJHI@?$HO?$AA@  100385c4     LIBCMT:undname.obj
 0002:000045c8       ??_C@_02HCKGKOFO@?$CI?$CJ?$AA@ 100385c8     LIBCMT:undname.obj
 0002:000045cc       ??_C@_01IHBHIGKO@?0?$AA@   100385cc     LIBCMT:undname.obj
 0002:000045d0       ??_C@_02EEKDKGMJ@?$DO?$DN?$AA@ 100385d0     LIBCMT:undname.obj
 0002:000045d4       ??_C@_01PPODPGHN@?$DO?$AA@ 100385d4     LIBCMT:undname.obj
 0002:000045d8       ??_C@_02EHCHHCKH@?$DM?$DN?$AA@ 100385d8     LIBCMT:undname.obj
 0002:000045dc       ??_C@_01MNNFJEPP@?$DM?$AA@ 100385dc     LIBCMT:undname.obj
 0002:000045e0       ??_C@_01FGNFDNOH@?$CF?$AA@ 100385e0     LIBCMT:undname.obj
 0002:000045e4       ??_C@_01KMDKNFGN@?1?$AA@   100385e4     LIBCMT:undname.obj
 0002:000045e8       ??_C@_03MNHNFDLC@?9?$DO?$CK?$AA@ 100385e8     LIBCMT:undname.obj
 0002:000045ec       ??_C@_01HNPIGOCE@?$CG?$AA@ 100385ec     LIBCMT:undname.obj
 0002:000045f0       ??_C@_01MIFGBAGJ@?$CL?$AA@ 100385f0     LIBCMT:undname.obj
 0002:000045f4       ??_C@_01JOAMLHOP@?9?$AA@   100385f4     LIBCMT:undname.obj
 0002:000045f8       ??_C@_02BAABKJLB@?9?9?$AA@ 100385f8     LIBCMT:undname.obj
 0002:000045fc       ??_C@_02ECNGHCIF@?$CL?$CL?$AA@ 100385fc     LIBCMT:undname.obj
 0002:00004600       ??_C@_01NBENCBCI@?$CK?$AA@ 10038600     LIBCMT:undname.obj
 0002:00004604       ??_C@_02HBOOOICD@?9?$DO?$AA@ 10038604     LIBCMT:undname.obj
 0002:00004608       ??_C@_08LHJFAFGD@operator?$AA@ 10038608     LIBCMT:undname.obj
 0002:00004614       ??_C@_02GPECMEKF@?$FL?$FN?$AA@ 10038614     LIBCMT:undname.obj
 0002:00004618       ??_C@_02FDNJECIE@?$CB?$DN?$AA@ 10038618     LIBCMT:undname.obj
 0002:0000461c       ??_C@_02EGOFBIJA@?$DN?$DN?$AA@ 1003861c     LIBCMT:undname.obj
 0002:00004620       ??_C@_01DCLJPIOD@?$CB?$AA@ 10038620     LIBCMT:undname.obj
 0002:00004624       ??_C@_02FODMEDOG@?$DM?$DM?$AA@ 10038624     LIBCMT:undname.obj
 0002:00004628       ??_C@_02GPIOPFAK@?$DO?$DO?$AA@ 10038628     LIBCMT:undname.obj
 0002:0000462c       ??_C@_07FPCDHGMM@?5delete?$AA@ 1003862c     LIBCMT:undname.obj
 0002:00004634       ??_C@_04NIHEBCM@?5new?$AA@ 10038634     LIBCMT:undname.obj
 0002:0000463c       ??_C@_0M@GFIIJFMG@__unaligned?$AA@ 1003863c     LIBCMT:undname.obj
 0002:00004648       ??_C@_0L@PILCLIHE@__restrict?$AA@ 10038648     LIBCMT:undname.obj
 0002:00004654       ??_C@_07JOMMBBKO@__ptr64?$AA@ 10038654     LIBCMT:undname.obj
 0002:0000465c       ??_C@_09HIJEGCPM@__clrcall?$AA@ 1003865c     LIBCMT:undname.obj
 0002:00004668       ??_C@_0L@JMKHOMEK@__fastcall?$AA@ 10038668     LIBCMT:undname.obj
 0002:00004674       ??_C@_0L@NPHFGOKO@__thiscall?$AA@ 10038674     LIBCMT:undname.obj
 0002:00004680       ??_C@_09IFJBGAPI@__stdcall?$AA@ 10038680     LIBCMT:undname.obj
 0002:0000468c       ??_C@_08GHMPAG@__pascal?$AA@ 1003868c     LIBCMT:undname.obj
 0002:00004698       ??_C@_07KOLFKCDI@__cdecl?$AA@ 10038698     LIBCMT:undname.obj
 0002:000046a0       ??_C@_08EHJDFFNH@__based?$CI?$AA@ 100386a0     LIBCMT:undname.obj
 0002:00004830       ??_7DNameNode@@6B@         10038830     LIBCMT:undname.obj
 0002:0000483c       ??_7charNode@@6B@          1003883c     LIBCMT:undname.obj
 0002:00004848       ??_7pDNameNode@@6B@        10038848     LIBCMT:undname.obj
 0002:00004854       ??_7DNameStatusNode@@6B@   10038854     LIBCMT:undname.obj
 0002:00004860       ??_7pairNode@@6B@          10038860     LIBCMT:undname.obj
 0002:0000486c       ??_7pcharNode@@6B@         1003886c     LIBCMT:undname.obj
 0002:00004878       ??_C@_04OKOHEJBO@?5?$DP?$DP?5?$AA@ 10038878     LIBCMT:undname.obj
 0002:00004880       ??_C@_06EEGAIFAK@?$HLflat?$HN?$AA@ 10038880     LIBCMT:undname.obj
 0002:00004888       ??_C@_05JIBOFOHK@?$HLfor?5?$AA@ 10038888     LIBCMT:undname.obj
 0002:00004890       ??_C@_0BN@IBLMMFAP@?$GAnon?9type?9template?9parameter?$AA@ 10038890     LIBCMT:undname.obj
 0002:000048b0       ??_C@_09EBBEKKIH@unsigned?5?$AA@ 100388b0     LIBCMT:undname.obj
 0002:000048bc       ??_C@_05CJIMAING@long?5?$AA@ 100388bc     LIBCMT:undname.obj
 0002:000048c4       ??_C@_04LAHKHJMA@int?5?$AA@ 100388c4     LIBCMT:undname.obj
 0002:000048cc       ??_C@_06EHJMALKF@short?5?$AA@ 100388cc     LIBCMT:undname.obj
 0002:000048d4       ??_C@_05CIHEBHNO@char?5?$AA@ 100388d4     LIBCMT:undname.obj
 0002:000048dc       ??_C@_04GKJNKENE@void?$AA@ 100388dc     LIBCMT:undname.obj
 0002:000048e4       ??_C@_0L@EGPHHEKN@?$DMellipsis?$DO?$AA@ 100388e4     LIBCMT:undname.obj
 0002:000048f0       ??_C@_0M@ELJOJFFH@?0?$DMellipsis?$DO?$AA@ 100388f0     LIBCMT:undname.obj
 0002:000048fc       ??_C@_04EENFHACM@?0?4?4?4?$AA@ 100388fc     LIBCMT:undname.obj
 0002:00004904       ??_C@_07HDJPLPEK@?5throw?$CI?$AA@ 10038904     LIBCMT:undname.obj
 0002:0000490c       ??_C@_02GOGNNPBN@?$CJ?$FL?$AA@ 1003890c     LIBCMT:undname.obj
 0002:00004910       ??_C@_02MDINNEEG@s?5?$AA@  10038910     LIBCMT:undname.obj
 0002:00004914       ??_C@_0BE@EODMJLIF@?$GAtemplate?9parameter?$AA@ 10038914     LIBCMT:undname.obj
 0002:00004928       ??_C@_01GEODFPGF@?8?$AA@   10038928     LIBCMT:undname.obj
 0002:0000492c       ??_C@_04HIBGFPH@NULL?$AA@  1003892c     LIBCMT:undname.obj
 0002:00004934       ??_C@_0O@GKABPPIF@cli?3?3pin_ptr?$DM?$AA@ 10038934     LIBCMT:undname.obj
 0002:00004944       ??_C@_0M@EALIELKG@cli?3?3array?$DM?$AA@ 10038944     LIBCMT:undname.obj
 0002:00004950       ??_C@_05BEFAKPML@void?5?$AA@ 10038950     LIBCMT:undname.obj
 0002:00004958       ??_C@_02OHHJMEON@?8?8?$AA@ 10038958     LIBCMT:undname.obj
 0002:0000495c       ??_C@_0BG@JNJLAMPM@?$GAanonymous?5namespace?8?$AA@ 1003895c     LIBCMT:undname.obj
 0002:00004974       ??_C@_01NLNLIGKH@?$GA?$AA@ 10038974     LIBCMT:undname.obj
 0002:00004978       ??_C@_0O@KHGCOMHP@generic?9type?9?$AA@ 10038978     LIBCMT:undname.obj
 0002:00004988       ??_C@_0BE@JAEOCHPE@template?9parameter?9?$AA@ 10038988     LIBCMT:undname.obj
 0002:0000499c       ??_C@_02MOLJINC@?3?3?$AA@  1003899c     LIBCMT:undname.obj
 0002:000049a0       ??_C@_0P@GCIFDJCJ@?$GAunknown?5ecsu?8?$AA@ 100389a0     LIBCMT:undname.obj
 0002:000049b0       ??_C@_06MOJHIBMG@union?5?$AA@ 100389b0     LIBCMT:undname.obj
 0002:000049b8       ??_C@_07DIBCDNGL@struct?5?$AA@ 100389b8     LIBCMT:undname.obj
 0002:000049c0       ??_C@_06LJBABKPM@class?5?$AA@ 100389c0     LIBCMT:undname.obj
 0002:000049c8       ??_C@_05LJGMCFOG@enum?5?$AA@ 100389c8     LIBCMT:undname.obj
 0002:000049d0       ??_C@_08KOFANOFK@coclass?5?$AA@ 100389d0     LIBCMT:undname.obj
 0002:000049dc       ??_C@_0N@DLIEFKNA@cointerface?5?$AA@ 100389dc     LIBCMT:undname.obj
 0002:000049ec       ??_C@_02KCKGHPCA@?$CJ?5?$AA@ 100389ec     LIBCMT:undname.obj
 0002:000049f0       ??_C@_0M@DHNBOJMP@extern?5?$CCC?$CC?5?$AA@ 100389f0     LIBCMT:undname.obj
 0002:000049fc       ??_C@_08KJLFOPNE@?$FLthunk?$FN?3?$AA@ 100389fc     LIBCMT:undname.obj
 0002:00004a08       ??_C@_08GPDDCMKI@public?3?5?$AA@ 10038a08     LIBCMT:undname.obj
 0002:00004a14       ??_C@_0M@GAIFPFIP@protected?3?5?$AA@ 10038a14     LIBCMT:undname.obj
 0002:00004a20       ??_C@_09LAPHOOG@private?3?5?$AA@ 10038a20     LIBCMT:undname.obj
 0002:00004a2c       ??_C@_08NIEOINHE@virtual?5?$AA@ 10038a2c     LIBCMT:undname.obj
 0002:00004a38       ??_C@_07PGOEDBHP@static?5?$AA@ 10038a38     LIBCMT:undname.obj
 0002:00004a40       ??_C@_0DA@HGFJFBBE@?$GAtemplate?5static?5data?5member?5des@ 10038a40     LIBCMT:undname.obj
 0002:00004a70       ??_C@_0DB@ILEFOCIJ@?$GAtemplate?5static?5data?5member?5con@ 10038a70     LIBCMT:undname.obj
 0002:00004aa4       ??_C@_0CB@KJDOOODE@?$GAlocal?5static?5destructor?5helper?8@ 10038aa4     LIBCMT:undname.obj
 0002:00004ac8       ??_C@_0L@HNGCOGAE@?$GAadjustor?$HL?$AA@ 10038ac8     LIBCMT:undname.obj
 0002:00004ad4       ??_C@_0L@GHPFDFH@?$GAvtordisp?$HL?$AA@ 10038ad4     LIBCMT:undname.obj
 0002:00004ae0       ??_C@_0N@CBHHHENL@?$GAvtordispex?$HL?$AA@ 10038ae0     LIBCMT:undname.obj
 0002:00004af0       ??_C@_01CLKCMJKC@?5?$AA@   10038af0     LIBCMT:undname.obj
 0002:00004af4       ??_C@_02IGFCGPIL@?$HN?8?$AA@ 10038af4     LIBCMT:undname.obj
 0002:00004af8       ??_C@_03OPGICMGF@?$HN?8?5?$AA@ 10038af8     LIBCMT:undname.obj
 0002:00004afc       ??_C@_06LIJLOJAG@const?5?$AA@ 10038afc     LIBCMT:undname.obj
 0002:00004b04       ??_C@_09GAIEOBLP@volatile?5?$AA@ 10038b04     LIBCMT:undname.obj
 0002:00004b10       ??_C@_04HEJADOOB@CV?3?5?$AA@ 10038b10     LIBCMT:undname.obj
 0002:00004b18       ??_C@_08PABEKFH@volatile?$AA@ 10038b18     LIBCMT:undname.obj
 0002:00004b24       ??_C@_09EFNPDFFP@?5volatile?$AA@ 10038b24     LIBCMT:undname.obj
 0002:00004b30       ??_C@_05BNCCCJPP@const?$AA@ 10038b30     LIBCMT:undname.obj
 0002:00004b38       ??_C@_07EDHNAJHC@signed?5?$AA@ 10038b38     LIBCMT:undname.obj
 0002:00004b40       ??_C@_06BNJCAIGJ@double?$AA@ 10038b40     LIBCMT:undname.obj
 0002:00004b48       ??_C@_07NFANNNEC@UNKNOWN?$AA@ 10038b48     LIBCMT:undname.obj
 0002:00004b50       ??_C@_08GAHOLHEO@__int128?$AA@ 10038b50     LIBCMT:undname.obj
 0002:00004b5c       ??_C@_04DDKJGDCM@bool?$AA@ 10038b5c     LIBCMT:undname.obj
 0002:00004b64       ??_C@_07CLGGIAMF@wchar_t?$AA@ 10038b64     LIBCMT:undname.obj
 0002:00004b6c       ??_C@_07LFCOJCAC@__int64?$AA@ 10038b6c     LIBCMT:undname.obj
 0002:00004b74       ??_C@_07ICFHOGAF@__int16?$AA@ 10038b74     LIBCMT:undname.obj
 0002:00004b7c       ??_C@_07OFLPPHGP@__int32?$AA@ 10038b7c     LIBCMT:undname.obj
 0002:00004b84       ??_C@_06EBGKOKIG@__int8?$AA@ 10038b84     LIBCMT:undname.obj
 0002:00004b8c       ??_C@_06GCICPBLB@__w64?5?$AA@ 10038b8c     LIBCMT:undname.obj
 0002:00004b94       ??_C@_05KNFBNCOH@float?$AA@ 10038b94     LIBCMT:undname.obj
 0002:00004b9c       ??_C@_04GOKPGOLB@long?$AA@ 10038b9c     LIBCMT:undname.obj
 0002:00004ba4       ??_C@_03JBIPMCLC@int?$AA@  10038ba4     LIBCMT:undname.obj
 0002:00004ba8       ??_C@_05BFKKPKCG@short?$AA@ 10038ba8     LIBCMT:undname.obj
 0002:00004bb0       ??_C@_04ENMBGAPA@char?$AA@ 10038bb0     LIBCMT:undname.obj
 0002:00004bb8       ??_C@_0BI@DFKBFLJE@GetProcessWindowStation?$AA@ 10038bb8     LIBCMT:crtmbox.obj
 0002:00004bd0       ??_C@_0BK@CIDNPOGP@GetUserObjectInformationA?$AA@ 10038bd0     LIBCMT:crtmbox.obj
 0002:00004bec       ??_C@_0BD@HHGDFDBJ@GetLastActivePopup?$AA@ 10038bec     LIBCMT:crtmbox.obj
 0002:00004c00       ??_C@_0BA@HNOPNCHB@GetActiveWindow?$AA@ 10038c00     LIBCMT:crtmbox.obj
 0002:00004c10       ??_C@_0M@CHKKJDAI@MessageBoxA?$AA@ 10038c10     LIBCMT:crtmbox.obj
 0002:00004c1c       ??_C@_0L@NDEGIDAG@USER32?4DLL?$AA@ 10038c1c     LIBCMT:crtmbox.obj
 0002:00004c28       ??_C@_0BC@JEAENNKH@SystemFunction036?$AA@ 10038c28     LIBCMT:rand_s.obj
 0002:00004c3c       ??_C@_0N@JJPEKNFO@ADVAPI32?4DLL?$AA@ 10038c3c     LIBCMT:rand_s.obj
 0002:00004c50       ___lookuptable_s           10038c50     LIBCMT:outputs.obj
 0002:00004cac       ??_C@_13NOLLCAOD@?$AA?$AA?$AA?$AA@ 10038cac     LIBCMT:a_map.obj
 0002:00004cb0       ___newctype                10038cb0     LIBCMT:ctype.obj
 0002:00004fb0       __wctype                   10038fb0     LIBCMT:ctype.obj
 0002:000051b8       ___newclmap                100391b8     LIBCMT:ctype.obj
 0002:00005338       ___newcumap                10039338     LIBCMT:ctype.obj
 0002:000054b8       ??_C@_08JCCMCCIL@HH?3mm?3ss?$AA@ 100394b8     LIBCMT:strftime.obj
 0002:000054c4       ??_C@_0BE@CKGJFCPC@dddd?0?5MMMM?5dd?0?5yyyy?$AA@ 100394c4     LIBCMT:strftime.obj
 0002:000054d8       ??_C@_08BPBNCDIB@MM?1dd?1yy?$AA@ 100394d8     LIBCMT:strftime.obj
 0002:000054e4       ??_C@_02CJNFDJBF@PM?$AA@   100394e4     LIBCMT:strftime.obj
 0002:000054e8       ??_C@_02DEDBPAFC@AM?$AA@   100394e8     LIBCMT:strftime.obj
 0002:000054ec       ??_C@_08EDHMEBNP@December?$AA@ 100394ec     LIBCMT:strftime.obj
 0002:000054f8       ??_C@_08HCHEGEOA@November?$AA@ 100394f8     LIBCMT:strftime.obj
 0002:00005504       ??_C@_07JJNFCEND@October?$AA@ 10039504     LIBCMT:strftime.obj
 0002:0000550c       ??_C@_09BHHEALKD@September?$AA@ 1003950c     LIBCMT:strftime.obj
 0002:00005518       ??_C@_06LBBHFDDG@August?$AA@ 10039518     LIBCMT:strftime.obj
 0002:00005520       ??_C@_04MIEPOIFP@July?$AA@ 10039520     LIBCMT:strftime.obj
 0002:00005528       ??_C@_04CNLMGBGM@June?$AA@ 10039528     LIBCMT:strftime.obj
 0002:00005530       ??_C@_05DMJDNLEJ@April?$AA@ 10039530     LIBCMT:strftime.obj
 0002:00005538       ??_C@_05HPCKOFNC@March?$AA@ 10039538     LIBCMT:strftime.obj
 0002:00005540       ??_C@_08GNJGEPFN@February?$AA@ 10039540     LIBCMT:strftime.obj
 0002:0000554c       ??_C@_07CGJPFGJA@January?$AA@ 1003954c     LIBCMT:strftime.obj
 0002:00005554       ??_C@_03MKABNOCG@Dec?$AA@  10039554     LIBCMT:strftime.obj
 0002:00005558       ??_C@_03JPJOFNIA@Nov?$AA@  10039558     LIBCMT:strftime.obj
 0002:0000555c       ??_C@_03BMAOKBAD@Oct?$AA@  1003955c     LIBCMT:strftime.obj
 0002:00005560       ??_C@_03GGCAPAJC@Sep?$AA@  10039560     LIBCMT:strftime.obj
 0002:00005564       ??_C@_03IFJFEIGA@Aug?$AA@  10039564     LIBCMT:strftime.obj
 0002:00005568       ??_C@_03LBGABGKK@Jul?$AA@  10039568     LIBCMT:strftime.obj
 0002:0000556c       ??_C@_03IDFGHECI@Jun?$AA@  1003956c     LIBCMT:strftime.obj
 0002:00005570       ??_C@_03CNMDKL@May?$AA@    10039570     LIBCMT:strftime.obj
 0002:00005574       ??_C@_03LEOLGMJP@Apr?$AA@  10039574     LIBCMT:strftime.obj
 0002:00005578       ??_C@_03ODNJBKGA@Mar?$AA@  10039578     LIBCMT:strftime.obj
 0002:0000557c       ??_C@_03HJBDCHOM@Feb?$AA@  1003957c     LIBCMT:strftime.obj
 0002:00005580       ??_C@_03JIHJHPIE@Jan?$AA@  10039580     LIBCMT:strftime.obj
 0002:00005584       ??_C@_08INBOOONO@Saturday?$AA@ 10039584     LIBCMT:strftime.obj
 0002:00005590       ??_C@_06JECMNKMI@Friday?$AA@ 10039590     LIBCMT:strftime.obj
 0002:00005598       ??_C@_08HACCIKIA@Thursday?$AA@ 10039598     LIBCMT:strftime.obj
 0002:000055a4       ??_C@_09DLIGFAKA@Wednesday?$AA@ 100395a4     LIBCMT:strftime.obj
 0002:000055b0       ??_C@_07BAAGCFCM@Tuesday?$AA@ 100395b0     LIBCMT:strftime.obj
 0002:000055b8       ??_C@_06JLEDEDGH@Monday?$AA@ 100395b8     LIBCMT:strftime.obj
 0002:000055c0       ??_C@_06OOPIFAJ@Sunday?$AA@ 100395c0     LIBCMT:strftime.obj
 0002:000055c8       ??_C@_03FEFJNEK@Sat?$AA@   100395c8     LIBCMT:strftime.obj
 0002:000055cc       ??_C@_03IDIOELNC@Fri?$AA@  100395cc     LIBCMT:strftime.obj
 0002:000055d0       ??_C@_03IOFIKPDN@Thu?$AA@  100395d0     LIBCMT:strftime.obj
 0002:000055d4       ??_C@_03MHOMLAJA@Wed?$AA@  100395d4     LIBCMT:strftime.obj
 0002:000055d8       ??_C@_03NAGEINEP@Tue?$AA@  100395d8     LIBCMT:strftime.obj
 0002:000055dc       ??_C@_03PDAGKDH@Mon?$AA@   100395dc     LIBCMT:strftime.obj
 0002:000055e0       ??_C@_03KOEHGMDN@Sun?$AA@  100395e0     LIBCMT:strftime.obj
 0002:000055e4       ??_C@_03EBAPMIKO@a?1p?$AA@ 100395e4     LIBCMT:strftime.obj
 0002:000055e8       ??_C@_05JAMEPDIN@am?1pm?$AA@ 100395e8     LIBCMT:strftime.obj
 0002:000055f0       ??_C@_0O@FMJNFNKE@united?9states?$AA@ 100395f0     LIBCMT:getqloc.obj
 0002:00005600       ??_C@_0P@NDHFFKCA@united?9kingdom?$AA@ 10039600     LIBCMT:getqloc.obj
 0002:00005610       ??_C@_0BC@HHDADLGF@trinidad?5?$CG?5tobago?$AA@ 10039610     LIBCMT:getqloc.obj
 0002:00005624       ??_C@_0M@IOAEBDAC@south?9korea?$AA@ 10039624     LIBCMT:getqloc.obj
 0002:00005630       ??_C@_0N@FIELFKIJ@south?9africa?$AA@ 10039630     LIBCMT:getqloc.obj
 0002:00005640       ??_C@_0M@OPNDHCMC@south?5korea?$AA@ 10039640     LIBCMT:getqloc.obj
 0002:0000564c       ??_C@_0N@MDEOEPFI@south?5africa?$AA@ 1003964c     LIBCMT:getqloc.obj
 0002:0000565c       ??_C@_06FKAPCJLB@slovak?$AA@ 1003965c     LIBCMT:getqloc.obj
 0002:00005664       ??_C@_0M@EFJANOAL@puerto?9rico?$AA@ 10039664     LIBCMT:getqloc.obj
 0002:00005670       ??_C@_08PGOJKDAI@pr?9china?$AA@ 10039670     LIBCMT:getqloc.obj
 0002:0000567c       ??_C@_08JHDOMCMI@pr?5china?$AA@ 1003967c     LIBCMT:getqloc.obj
 0002:00005688       ??_C@_02JHCHFBLL@nz?$AA@   10039688     LIBCMT:getqloc.obj
 0002:0000568c       ??_C@_0M@LINHDHKP@new?9zealand?$AA@ 1003968c     LIBCMT:getqloc.obj
 0002:00005698       ??_C@_09IIIPPBDB@hong?9kong?$AA@ 10039698     LIBCMT:getqloc.obj
 0002:000056a4       ??_C@_07HJLCKBG@holland?$AA@ 100396a4     LIBCMT:getqloc.obj
 0002:000056ac       ??_C@_0O@LEHGMHAG@great?5britain?$AA@ 100396ac     LIBCMT:getqloc.obj
 0002:000056bc       ??_C@_07FACOMELA@england?$AA@ 100396bc     LIBCMT:getqloc.obj
 0002:000056c4       ??_C@_05JIHCEICB@czech?$AA@ 100396c4     LIBCMT:getqloc.obj
 0002:000056cc       ??_C@_05BBJOBLGB@china?$AA@ 100396cc     LIBCMT:getqloc.obj
 0002:000056d4       ??_C@_07GPKPHICP@britain?$AA@ 100396d4     LIBCMT:getqloc.obj
 0002:000056dc       ??_C@_07MHIPBHMG@america?$AA@ 100396dc     LIBCMT:getqloc.obj
 0002:000056e4       ??_C@_03KIALPMKC@usa?$AA@  100396e4     LIBCMT:getqloc.obj
 0002:000056e8       ??_C@_02FGJGKGGD@us?$AA@   100396e8     LIBCMT:getqloc.obj
 0002:000056ec       ??_C@_02NEINDODK@uk?$AA@   100396ec     LIBCMT:getqloc.obj
 0002:000056f0       ??_C@_05JMPCFJFJ@swiss?$AA@ 100396f0     LIBCMT:getqloc.obj
 0002:000056f8       ??_C@_0BA@HLOCPIOD@swedish?9finland?$AA@ 100396f8     LIBCMT:getqloc.obj
 0002:00005708       ??_C@_0BC@PKCNIABK@spanish?9venezuela?$AA@ 10039708     LIBCMT:getqloc.obj
 0002:0000571c       ??_C@_0BA@GBHHMIJI@spanish?9uruguay?$AA@ 1003971c     LIBCMT:getqloc.obj
 0002:0000572c       ??_C@_0BE@BHDOHPMC@spanish?9puerto?5rico?$AA@ 1003972c     LIBCMT:getqloc.obj
 0002:00005740       ??_C@_0N@KMOIDGGN@spanish?9peru?$AA@ 10039740     LIBCMT:getqloc.obj
 0002:00005750       ??_C@_0BB@HMHLPGPH@spanish?9paraguay?$AA@ 10039750     LIBCMT:getqloc.obj
 0002:00005764       ??_C@_0P@MCPKNGFD@spanish?9panama?$AA@ 10039764     LIBCMT:getqloc.obj
 0002:00005774       ??_C@_0BC@IHOHGAIL@spanish?9nicaragua?$AA@ 10039774     LIBCMT:getqloc.obj
 0002:00005788       ??_C@_0P@KLMJDNFJ@spanish?9modern?$AA@ 10039788     LIBCMT:getqloc.obj
 0002:00005798       ??_C@_0BA@BPAPGBCM@spanish?9mexican?$AA@ 10039798     LIBCMT:getqloc.obj
 0002:000057a8       ??_C@_0BB@PDECHHHE@spanish?9honduras?$AA@ 100397a8     LIBCMT:getqloc.obj
 0002:000057bc       ??_C@_0BC@KLHKFGDB@spanish?9guatemala?$AA@ 100397bc     LIBCMT:getqloc.obj
 0002:000057d0       ??_C@_0BE@MFOOKJAI@spanish?9el?5salvador?$AA@ 100397d0     LIBCMT:getqloc.obj
 0002:000057e4       ??_C@_0BA@FCOKFPFC@spanish?9ecuador?$AA@ 100397e4     LIBCMT:getqloc.obj
 0002:000057f4       ??_C@_0BL@PLMGIMOO@spanish?9dominican?5republic?$AA@ 100397f4     LIBCMT:getqloc.obj
 0002:00005810       ??_C@_0BD@HLGDNMHB@spanish?9costa?5rica?$AA@ 10039810     LIBCMT:getqloc.obj
 0002:00005824       ??_C@_0BB@PKCBKCPE@spanish?9colombia?$AA@ 10039824     LIBCMT:getqloc.obj
 0002:00005838       ??_C@_0O@MCBIJGNE@spanish?9chile?$AA@ 10039838     LIBCMT:getqloc.obj
 0002:00005848       ??_C@_0BA@BEFEIGJJ@spanish?9bolivia?$AA@ 10039848     LIBCMT:getqloc.obj
 0002:00005858       ??_C@_0BC@EMECMPD@spanish?9argentina?$AA@ 10039858     LIBCMT:getqloc.obj
 0002:0000586c       ??_C@_0BF@EALFLENP@portuguese?9brazilian?$AA@ 1003986c     LIBCMT:getqloc.obj
 0002:00005884       ??_C@_0BC@HBLEBLNN@norwegian?9nynorsk?$AA@ 10039884     LIBCMT:getqloc.obj
 0002:00005898       ??_C@_0BB@HMACDDCK@norwegian?9bokmal?$AA@ 10039898     LIBCMT:getqloc.obj
 0002:000058ac       ??_C@_09BAFFPPHE@norwegian?$AA@ 100398ac     LIBCMT:getqloc.obj
 0002:000058b8       ??_C@_0O@EAJFJDFG@italian?9swiss?$AA@ 100398b8     LIBCMT:getqloc.obj
 0002:000058c8       ??_C@_0O@CNOMPGD@irish?9english?$AA@ 100398c8     LIBCMT:getqloc.obj
 0002:000058d8       ??_C@_0N@EDHBGCKG@german?9swiss?$AA@ 100398d8     LIBCMT:getqloc.obj
 0002:000058e8       ??_C@_0BC@JACMHNBP@german?9luxembourg?$AA@ 100398e8     LIBCMT:getqloc.obj
 0002:000058fc       ??_C@_0BE@HBGMGFEG@german?9lichtenstein?$AA@ 100398fc     LIBCMT:getqloc.obj
 0002:00005910       ??_C@_0BA@HKKBIBKL@german?9austrian?$AA@ 10039910     LIBCMT:getqloc.obj
 0002:00005920       ??_C@_0N@GCAEPEBK@french?9swiss?$AA@ 10039920     LIBCMT:getqloc.obj
 0002:00005930       ??_C@_0BC@DJFJJCK@french?9luxembourg?$AA@ 10039930     LIBCMT:getqloc.obj
 0002:00005944       ??_C@_0BA@NNCEDFIC@french?9canadian?$AA@ 10039944     LIBCMT:getqloc.obj
 0002:00005954       ??_C@_0P@CMPOCLM@french?9belgian?$AA@ 10039954     LIBCMT:getqloc.obj
 0002:00005964       ??_C@_0M@GHHDJOK@english?9usa?$AA@ 10039964     LIBCMT:getqloc.obj
 0002:00005970       ??_C@_0L@PLDJKEIL@english?9us?$AA@ 10039970     LIBCMT:getqloc.obj
 0002:0000597c       ??_C@_0L@HJCCDMNC@english?9uk?$AA@ 1003997c     LIBCMT:getqloc.obj
 0002:00005988       ??_C@_0BK@CKLIAGJB@english?9trinidad?5y?5tobago?$AA@ 10039988     LIBCMT:getqloc.obj
 0002:000059a4       ??_C@_0BF@JMJMGNNF@english?9south?5africa?$AA@ 100399a4     LIBCMT:getqloc.obj
 0002:000059bc       ??_C@_0L@DKIIFDFD@english?9nz?$AA@ 100399bc     LIBCMT:getqloc.obj
 0002:000059c8       ??_C@_0BA@ONHGJCLH@english?9jamaica?$AA@ 100399c8     LIBCMT:getqloc.obj
 0002:000059d8       ??_C@_0M@HJBGHOPO@english?9ire?$AA@ 100399d8     LIBCMT:getqloc.obj
 0002:000059e4       ??_C@_0BC@LFEKMIFB@english?9caribbean?$AA@ 100399e4     LIBCMT:getqloc.obj
 0002:000059f8       ??_C@_0M@OLDPFKHI@english?9can?$AA@ 100399f8     LIBCMT:getqloc.obj
 0002:00005a04       ??_C@_0P@OMDEHBMP@english?9belize?$AA@ 10039a04     LIBCMT:getqloc.obj
 0002:00005a14       ??_C@_0M@KFHFPFED@english?9aus?$AA@ 10039a14     LIBCMT:getqloc.obj
 0002:00005a20       ??_C@_0BB@MNMBKDFE@english?9american?$AA@ 10039a20     LIBCMT:getqloc.obj
 0002:00005a34       ??_C@_0O@KIDLNNBA@dutch?9belgian?$AA@ 10039a34     LIBCMT:getqloc.obj
 0002:00005a44       ??_C@_0BE@JBKABBMH@chinese?9traditional?$AA@ 10039a44     LIBCMT:getqloc.obj
 0002:00005a58       ??_C@_0BC@MJJMPKCG@chinese?9singapore?$AA@ 10039a58     LIBCMT:getqloc.obj
 0002:00005a6c       ??_C@_0BD@FDKADDCP@chinese?9simplified?$AA@ 10039a6c     LIBCMT:getqloc.obj
 0002:00005a80       ??_C@_0BB@DBEFDDME@chinese?9hongkong?$AA@ 10039a80     LIBCMT:getqloc.obj
 0002:00005a94       ??_C@_07DHNMFMCI@chinese?$AA@ 10039a94     LIBCMT:getqloc.obj
 0002:00005a9c       ??_C@_03FNDDCHI@chi?$AA@   10039a9c     LIBCMT:getqloc.obj
 0002:00005aa0       ??_C@_03BMMIADDJ@chh?$AA@  10039aa0     LIBCMT:getqloc.obj
 0002:00005aa4       ??_C@_08OAIPJDGI@canadian?$AA@ 10039aa4     LIBCMT:getqloc.obj
 0002:00005ab0       ??_C@_07HBPMNPNJ@belgian?$AA@ 10039ab0     LIBCMT:getqloc.obj
 0002:00005ab8       ??_C@_0L@OEKOPBEL@australian?$AA@ 10039ab8     LIBCMT:getqloc.obj
 0002:00005ac4       ??_C@_0BB@MEIMBEDG@american?9english?$AA@ 10039ac4     LIBCMT:getqloc.obj
 0002:00005ad8       ??_C@_0BB@DFMDPDGB@american?5english?$AA@ 10039ad8     LIBCMT:getqloc.obj
 0002:00005aec       ??_C@_08IJLOKOLL@american?$AA@ 10039aec     LIBCMT:getqloc.obj
 0002:00005af8       ___rg_language             10039af8     LIBCMT:getqloc.obj
 0002:00005d00       ___rg_country              10039d00     LIBCMT:getqloc.obj
 0002:00005db8       ___rglangidNotDefault      10039db8     LIBCMT:getqloc.obj
 0002:00005dcc       ??_C@_01GBGANLPD@0?$AA@    10039dcc     LIBCMT:getqloc.obj
 0002:00005dd0       ??_C@_03NFKLAGEF@OCP?$AA@  10039dd0     LIBCMT:getqloc.obj
 0002:00005dd4       ??_C@_03DFHEHBHG@ACP?$AA@  10039dd4     LIBCMT:getqloc.obj
 0002:00005dd8       ??_C@_0BC@NFIEMBLL@Norwegian?9Nynorsk?$AA@ 10039dd8     LIBCMT:getqloc.obj
 0002:00005dec       ___dnames                  10039dec     LIBCMT:timeset.obj
 0002:00005e04       ___mnames                  10039e04     LIBCMT:timeset.obj
 0002:00005e2c       ??_C@_02CLFPBFFP@TZ?$AA@   10039e2c     LIBCMT:tzset.obj
 0002:00005e30       ??_C@_06GDENEHCP@CONIN$?$AA@ 10039e30     LIBCMT:initcon.obj
 0002:00005e38       ??_C@_07GPDNMNG@CONOUT$?$AA@ 10039e38     LIBCMT:initcon.obj
 0002:00005e40       __load_config_used         10039e40     LIBCMT:loadcfg.obj
 0002:00005edc       ??_R4bad_alloc@std@@6B@    10039edc     BaseChan.obj
 0002:00005ef0       ??_R3bad_alloc@std@@8      10039ef0     BaseChan.obj
 0002:00005f00       ??_R2bad_alloc@std@@8      10039f00     BaseChan.obj
 0002:00005f0c       ??_R1A@?0A@EA@bad_alloc@std@@8 10039f0c     BaseChan.obj
 0002:00005f28       ??_R1A@?0A@EA@exception@std@@8 10039f28     BaseChan.obj
 0002:00005f44       ??_R3exception@std@@8      10039f44     BaseChan.obj
 0002:00005f54       ??_R2exception@std@@8      10039f54     BaseChan.obj
 0002:00005f5c       ??_R4ICommChannel@@6B@     10039f5c     BaseChan.obj
 0002:00005f70       ??_R3ICommChannel@@8       10039f70     BaseChan.obj
 0002:00005f80       ??_R2ICommChannel@@8       10039f80     BaseChan.obj
 0002:00005f88       ??_R1A@?0A@EA@ICommChannel@@8 10039f88     BaseChan.obj
 0002:00005fa4       ??_R4IProtocolObserver@@6B@ 10039fa4     BaseChan.obj
 0002:00005fb8       ??_R3IProtocolObserver@@8  10039fb8     BaseChan.obj
 0002:00005fc8       ??_R2IProtocolObserver@@8  10039fc8     BaseChan.obj
 0002:00005fd0       ??_R1A@?0A@EA@IProtocolObserver@@8 10039fd0     BaseChan.obj
 0002:00005fec       ??_R4IProtocolChannel@@6B@ 10039fec     BaseChan.obj
 0002:00006000       ??_R3IProtocolChannel@@8   1003a000     BaseChan.obj
 0002:00006010       ??_R2IProtocolChannel@@8   1003a010     BaseChan.obj
 0002:0000601c       ??_R1A@?0A@EA@IProtocolChannel@@8 1003a01c     BaseChan.obj
 0002:00006038       ??_R4logic_error@std@@6B@  1003a038     BaseChan.obj
 0002:0000604c       ??_R3logic_error@std@@8    1003a04c     BaseChan.obj
 0002:0000605c       ??_R2logic_error@std@@8    1003a05c     BaseChan.obj
 0002:00006068       ??_R1A@?0A@EA@logic_error@std@@8 1003a068     BaseChan.obj
 0002:00006084       ??_R4length_error@std@@6B@ 1003a084     BaseChan.obj
 0002:00006098       ??_R3length_error@std@@8   1003a098     BaseChan.obj
 0002:000060a8       ??_R2length_error@std@@8   1003a0a8     BaseChan.obj
 0002:000060b8       ??_R1A@?0A@EA@length_error@std@@8 1003a0b8     BaseChan.obj
 0002:000060d4       ??_R4CBaseChannel@@6BIProtocolChannel@@@ 1003a0d4     BaseChan.obj
 0002:000060e8       ??_R3CBaseChannel@@8       1003a0e8     BaseChan.obj
 0002:000060f8       ??_R2CBaseChannel@@8       1003a0f8     BaseChan.obj
 0002:0000610c       ??_R1A@?0A@EA@CBaseChannel@@8 1003a10c     BaseChan.obj
 0002:00006128       ??_R13?0A@EN@IProtocolObserver@@8 1003a128     BaseChan.obj
 0002:00006144       ??_R4CBaseChannel@@6BIProtocolObserver@@@ 1003a144     BaseChan.obj
 0002:00006158       ??_R4CBmChannel@@6BIProtocolChannel@@@ 1003a158     BmChannel.obj
 0002:0000616c       ??_R3CBmChannel@@8         1003a16c     BmChannel.obj
 0002:0000617c       ??_R2CBmChannel@@8         1003a17c     BmChannel.obj
 0002:00006194       ??_R1A@?0A@EA@CBmChannel@@8 1003a194     BmChannel.obj
 0002:000061b0       ??_R4CBmChannel@@6BIProtocolObserver@@@ 1003a1b0     BmChannel.obj
 0002:000061c4       ??_R4CBmPackage@@6B@       1003a1c4     BmPackage.obj
 0002:000061d8       ??_R3CBmPackage@@8         1003a1d8     BmPackage.obj
 0002:000061e8       ??_R2CBmPackage@@8         1003a1e8     BmPackage.obj
 0002:000061f8       ??_R1A@?0A@EA@CBmPackage@@8 1003a1f8     BmPackage.obj
 0002:00006214       ??_R1A@?0A@EA@CDiagPackage@@8 1003a214     BmPackage.obj
 0002:00006230       ??_R3CDiagPackage@@8       1003a230     BmPackage.obj
 0002:00006240       ??_R2CDiagPackage@@8       1003a240     BmPackage.obj
 0002:0000624c       ??_R1A@?0A@EA@IProtocolPackage@@8 1003a24c     BmPackage.obj
 0002:00006268       ??_R3IProtocolPackage@@8   1003a268     BmPackage.obj
 0002:00006278       ??_R2IProtocolPackage@@8   1003a278     BmPackage.obj
 0002:00006280       ??_R4CDiagChannel@@6BIProtocolChannel@@@ 1003a280     DiagChannel.obj
 0002:00006294       ??_R3CDiagChannel@@8       1003a294     DiagChannel.obj
 0002:000062a4       ??_R2CDiagChannel@@8       1003a2a4     DiagChannel.obj
 0002:000062bc       ??_R1A@?0A@EA@CDiagChannel@@8 1003a2bc     DiagChannel.obj
 0002:000062d8       ??_R4CDiagChannel@@6BIProtocolObserver@@@ 1003a2d8     DiagChannel.obj
 0002:000062ec       ??_R4IProtocolPackage@@6B@ 1003a2ec     DiagPackage.obj
 0002:00006300       ??_R4CDiagPackage@@6B@     1003a300     DiagPackage.obj
 0002:00006314       ??_R4CSmpChannel@@6BIProtocolChannel@@@ 1003a314     SmpChannel.obj
 0002:00006328       ??_R3CSmpChannel@@8        1003a328     SmpChannel.obj
 0002:00006338       ??_R2CSmpChannel@@8        1003a338     SmpChannel.obj
 0002:00006350       ??_R1A@?0A@EA@CSmpChannel@@8 1003a350     SmpChannel.obj
 0002:0000636c       ??_R4CSmpChannel@@6BIProtocolObserver@@@ 1003a36c     SmpChannel.obj
 0002:00006380       ??_R4CSmpPackage@@6B@      1003a380     SmpPackage.obj
 0002:00006394       ??_R3CSmpPackage@@8        1003a394     SmpPackage.obj
 0002:000063a4       ??_R2CSmpPackage@@8        1003a3a4     SmpPackage.obj
 0002:000063b4       ??_R1A@?0A@EA@CSmpPackage@@8 1003a3b4     SmpPackage.obj
 0002:000063d0       ??_R4ISpLog@@6B@           1003a3d0     SpLog.obj
 0002:000063e4       ??_R3ISpLog@@8             1003a3e4     SpLog.obj
 0002:000063f4       ??_R2ISpLog@@8             1003a3f4     SpLog.obj
 0002:000063fc       ??_R1A@?0A@EA@ISpLog@@8    1003a3fc     SpLog.obj
 0002:00006418       ??_R4CSpLog@@6B@           1003a418     SpLog.obj
 0002:0000642c       ??_R3CSpLog@@8             1003a42c     SpLog.obj
 0002:0000643c       ??_R2CSpLog@@8             1003a43c     SpLog.obj
 0002:00006448       ??_R1A@?0A@EA@CSpLog@@8    1003a448     SpLog.obj
 0002:00006464       ??_R4CFnLog@@6B@           1003a464     SpLog.obj
 0002:00006478       ??_R3CFnLog@@8             1003a478     SpLog.obj
 0002:00006488       ??_R2CFnLog@@8             1003a488     SpLog.obj
 0002:00006490       ??_R1A@?0A@EA@CFnLog@@8    1003a490     SpLog.obj
 0002:000064ac       ??_R4invalid_argument@std@@6B@ 1003a4ac     libcpmt:string.obj
 0002:000064c0       ??_R3invalid_argument@std@@8 1003a4c0     libcpmt:string.obj
 0002:000064d0       ??_R2invalid_argument@std@@8 1003a4d0     libcpmt:string.obj
 0002:000064e0       ??_R1A@?0A@EA@invalid_argument@std@@8 1003a4e0     libcpmt:string.obj
 0002:000064fc       ??_R4out_of_range@std@@6B@ 1003a4fc     libcpmt:string.obj
 0002:00006510       ??_R3out_of_range@std@@8   1003a510     libcpmt:string.obj
 0002:00006520       ??_R2out_of_range@std@@8   1003a520     libcpmt:string.obj
 0002:00006530       ??_R1A@?0A@EA@out_of_range@std@@8 1003a530     libcpmt:string.obj
 0002:0000654c       ??_R4exception@std@@6B@    1003a54c     LIBCMT:stdexcpt.obj
 0002:00006560       ??_R4bad_cast@std@@6B@     1003a560     LIBCMT:stdexcpt.obj
 0002:00006574       ??_R3bad_cast@std@@8       1003a574     LIBCMT:stdexcpt.obj
 0002:00006584       ??_R2bad_cast@std@@8       1003a584     LIBCMT:stdexcpt.obj
 0002:00006590       ??_R1A@?0A@EA@bad_cast@std@@8 1003a590     LIBCMT:stdexcpt.obj
 0002:000065ac       ??_R4bad_typeid@std@@6B@   1003a5ac     LIBCMT:stdexcpt.obj
 0002:000065c0       ??_R3bad_typeid@std@@8     1003a5c0     LIBCMT:stdexcpt.obj
 0002:000065d0       ??_R2bad_typeid@std@@8     1003a5d0     LIBCMT:stdexcpt.obj
 0002:000065dc       ??_R1A@?0A@EA@bad_typeid@std@@8 1003a5dc     LIBCMT:stdexcpt.obj
 0002:000065f8       ??_R4__non_rtti_object@std@@6B@ 1003a5f8     LIBCMT:stdexcpt.obj
 0002:0000660c       ??_R3__non_rtti_object@std@@8 1003a60c     LIBCMT:stdexcpt.obj
 0002:0000661c       ??_R2__non_rtti_object@std@@8 1003a61c     LIBCMT:stdexcpt.obj
 0002:0000662c       ??_R1A@?0A@EA@__non_rtti_object@std@@8 1003a62c     LIBCMT:stdexcpt.obj
 0002:00006648       ??_R4type_info@@6B@        1003a648     LIBCMT:typinfo.obj
 0002:0000665c       ??_R3type_info@@8          1003a65c     LIBCMT:typinfo.obj
 0002:0000666c       ??_R2type_info@@8          1003a66c     LIBCMT:typinfo.obj
 0002:00006674       ??_R1A@?0A@EA@type_info@@8 1003a674     LIBCMT:typinfo.obj
 0002:00006690       ??_R4bad_exception@std@@6B@ 1003a690     LIBCMT:frame.obj
 0002:000066a4       ??_R3bad_exception@std@@8  1003a6a4     LIBCMT:frame.obj
 0002:000066b4       ??_R2bad_exception@std@@8  1003a6b4     LIBCMT:frame.obj
 0002:000066c0       ??_R1A@?0A@EA@bad_exception@std@@8 1003a6c0     LIBCMT:frame.obj
 0002:000066e0       ___safe_se_handler_table   1003a6e0     <linker-defined>
 0002:00006768       ___rtc_iaa                 1003a768     LIBCMT:_initsect_.obj
 0002:0000676c       ___rtc_izz                 1003a76c     LIBCMT:_initsect_.obj
 0002:00006770       ___rtc_taa                 1003a770     LIBCMT:_initsect_.obj
 0002:00006774       ___rtc_tzz                 1003a774     LIBCMT:_initsect_.obj
 0002:00006778       __TI2?AVbad_alloc@std@@    1003a778     BaseChan.obj
 0002:00006788       __CTA2?AVbad_alloc@std@@   1003a788     BaseChan.obj
 0002:00006794       __CT??_R0?AVbad_alloc@std@@@8??0bad_alloc@std@@QAE@ABV01@@Z12 1003a794     BaseChan.obj
 0002:000067b0       __CT??_R0?AVexception@std@@@8??0exception@std@@QAE@ABV01@@Z12 1003a7b0     BaseChan.obj
 0002:00006884       __TI3?AVlength_error@std@@ 1003a884     BaseChan.obj
 0002:000068c0       __CTA3?AVlength_error@std@@ 1003a8c0     BaseChan.obj
 0002:000068d0       __CT??_R0?AVlength_error@std@@@8??0length_error@std@@QAE@ABV01@@Z40 1003a8d0     BaseChan.obj
 0002:000068ec       __CT??_R0?AVlogic_error@std@@@8??0logic_error@std@@QAE@ABV01@@Z40 1003a8ec     BaseChan.obj
 0002:00006e7c       __TI3?AVout_of_range@std@@ 1003ae7c     libcpmt:string.obj
 0002:00006eb8       __CTA3?AVout_of_range@std@@ 1003aeb8     libcpmt:string.obj
 0002:00006ec8       __CT??_R0?AVout_of_range@std@@@8??0out_of_range@std@@QAE@ABV01@@Z40 1003aec8     libcpmt:string.obj
 0002:00006ee4       __TI3?AVinvalid_argument@std@@ 1003aee4     libcpmt:string.obj
 0002:00006f20       __CTA3?AVinvalid_argument@std@@ 1003af20     libcpmt:string.obj
 0002:00006f30       __CT??_R0?AVinvalid_argument@std@@@8??0invalid_argument@std@@QAE@ABV01@@Z40 1003af30     libcpmt:string.obj
 0002:00007364       __TI2?AVbad_exception@std@@ 1003b364     LIBCMT:frame.obj
 0002:00007374       __CTA2?AVbad_exception@std@@ 1003b374     LIBCMT:frame.obj
 0002:00007380       __CT??_R0?AVbad_exception@std@@@8??0bad_exception@std@@QAE@ABV01@@Z12 1003b380     LIBCMT:frame.obj
 0002:00007a14       __IMPORT_DESCRIPTOR_KERNEL32 1003ba14     kernel32:KERNEL32.dll
 0002:00007a28       __IMPORT_DESCRIPTOR_USER32 1003ba28     user32:USER32.dll
 0002:00007a3c       __IMPORT_DESCRIPTOR_SHLWAPI 1003ba3c     shlwapi:SHLWAPI.dll
 0002:00007a50       __NULL_IMPORT_DESCRIPTOR   1003ba50     kernel32:KERNEL32.dll
 0003:00000004       ??_R0?AVbad_alloc@std@@@8  1003d004     BaseChan.obj
 0003:00000020       ??_R0?AVexception@std@@@8  1003d020     BaseChan.obj
 0003:0000003c       ??_R0?AVICommChannel@@@8   1003d03c     BaseChan.obj
 0003:00000058       ??_R0?AVIProtocolObserver@@@8 1003d058     BaseChan.obj
 0003:00000078       ??_R0?AVIProtocolChannel@@@8 1003d078     BaseChan.obj
 0003:00000098       ??_R0?AVlogic_error@std@@@8 1003d098     BaseChan.obj
 0003:000000b8       ??_R0?AVlength_error@std@@@8 1003d0b8     BaseChan.obj
 0003:000000d8       ??_R0?AVCBaseChannel@@@8   1003d0d8     BaseChan.obj
 0003:000000f8       ??_R0?AVCBmChannel@@@8     1003d0f8     BmChannel.obj
 0003:00000118       ??_R0?AVCBmPackage@@@8     1003d118     BmPackage.obj
 0003:00000134       ??_R0?AVCDiagPackage@@@8   1003d134     BmPackage.obj
 0003:00000150       ??_R0?AVIProtocolPackage@@@8 1003d150     BmPackage.obj
 0003:00000178       ??_R0?AVCDiagChannel@@@8   1003d178     DiagChannel.obj
 0003:0000019c       ??_R0?AVCSmpChannel@@@8    1003d19c     SmpChannel.obj
 0003:000001bc       ??_R0?AVCSmpPackage@@@8    1003d1bc     SmpPackage.obj
 0003:000001d8       ??_R0?AVISpLog@@@8         1003d1d8     SpLog.obj
 0003:000001f0       ??_R0?AVCSpLog@@@8         1003d1f0     SpLog.obj
 0003:00000208       ??_R0?AVCFnLog@@@8         1003d208     SpLog.obj
 0003:00000224       ??_R0?AVinvalid_argument@std@@@8 1003d224     libcpmt:string.obj
 0003:00000248       ??_R0?AVout_of_range@std@@@8 1003d248     libcpmt:string.obj
 0003:0000026c       ??_R0?AVbad_cast@std@@@8   1003d26c     LIBCMT:stdexcpt.obj
 0003:00000288       ??_R0?AVbad_typeid@std@@@8 1003d288     LIBCMT:stdexcpt.obj
 0003:000002a8       ??_R0?AV__non_rtti_object@std@@@8 1003d2a8     LIBCMT:stdexcpt.obj
 0003:000002d0       ??_R0?AVtype_info@@@8      1003d2d0     LIBCMT:typinfo.obj
 0003:000002e8       ___security_cookie         1003d2e8     LIBCMT:gs_cookie.obj
 0003:000002ec       ___security_cookie_complement 1003d2ec     LIBCMT:gs_cookie.obj
 0003:00000300       ___abort_behavior          1003d300     LIBCMT:abort.obj
 0003:00000308       __iob                      1003d308     LIBCMT:_file.obj
 0003:000007c8       ___flsindex                1003d7c8     LIBCMT:tidtable.obj
 0003:000007cc       ___getvalueindex           1003d7cc     LIBCMT:tidtable.obj
 0003:000007d0       __aexit_rtn                1003d7d0     LIBCMT:crt0dat.obj
 0003:000007d4       __First_FPE_Indx           1003d7d4     LIBCMT:winxfltr.obj
 0003:000007d8       __Num_FPE                  1003d7d8     LIBCMT:winxfltr.obj
 0003:000007dc       __XcptActTabSize           1003d7dc     LIBCMT:winxfltr.obj
 0003:000007e0       __XcptActTabCount          1003d7e0     LIBCMT:winxfltr.obj
 0003:000007e8       ??_R0?AVbad_exception@std@@@8 1003d7e8     LIBCMT:frame.obj
 0003:00000810       ___badioinfo               1003d810     LIBCMT:ioinit.obj
 0003:00000850       ___nullstring              1003d850     LIBCMT:output.obj
 0003:00000854       ___wnullstring             1003d854     LIBCMT:output.obj
 0003:00000978       ___initialmbcinfo          1003d978     LIBCMT:mbctype.obj
 0003:00000b98       __mbctype                  1003db98     LIBCMT:mbctype.obj
 0003:00000ca0       __mbcasemap                1003dca0     LIBCMT:mbctype.obj
 0003:00000da0       ___ptmbcinfo               1003dda0     LIBCMT:mbctype.obj
 0003:00000e9c       ___globallocalestatus      1003de9c     LIBCMT:glstatus.obj
 0003:00000ea0       ___clocalestr              1003dea0     LIBCMT:nlsdata2.obj
 0003:00000ea8       ___initiallocinfo          1003dea8     LIBCMT:nlsdata2.obj
 0003:00000f80       ___ptlocinfo               1003df80     LIBCMT:nlsdata2.obj
 0003:00000f84       ___lc_clike                1003df84     LIBCMT:nlsdata2.obj
 0003:00000f88       ___initiallocalestructinfo 1003df88     LIBCMT:nlsdata2.obj
 0003:00000f90       __amblksiz                 1003df90     LIBCMT:heapinit.obj
 0003:00000f94       __cfltcvt_tab              1003df94     LIBCMT:cmiscdat.obj
 0003:00000fbc       __NLG_Destination          1003dfbc     LIBCMT:exsup.obj
 0003:00000fd0       __lookuptrailbytes         1003dfd0     LIBCMT:read.obj
 0003:000010d0       __pctype                   1003e0d0     LIBCMT:ctype.obj
 0003:000010d4       __pwctype                  1003e0d4     LIBCMT:ctype.obj
 0003:000010d8       ___lc_time_c               1003e0d8     LIBCMT:strftime.obj
 0003:00001190       ___lc_time_curr            1003e190     LIBCMT:strftime.obj
 0003:00001194       ___lconv_static_decimal    1003e194     LIBCMT:lconv.obj
 0003:00001198       ___lconv_c                 1003e198     LIBCMT:lconv.obj
 0003:000011c8       ___lconv                   1003e1c8     LIBCMT:lconv.obj
 0003:000011cc       ___mb_cur_max              1003e1cc     LIBCMT:nlsdata1.obj
 0003:000011d0       ___decimal_point           1003e1d0     LIBCMT:nlsdata1.obj
 0003:000011d4       ___decimal_point_length    1003e1d4     LIBCMT:nlsdata1.obj
 0003:000011e8       __timezone                 1003e1e8     LIBCMT:timeset.obj
 0003:000011ec       __daylight                 1003e1ec     LIBCMT:timeset.obj
 0003:000011f0       __dstbias                  1003e1f0     LIBCMT:timeset.obj
 0003:00001278       __tzname                   1003e278     LIBCMT:timeset.obj
 0003:00001298       __coninpfh                 1003e298     LIBCMT:initcon.obj
 0003:0000129c       __confh                    1003e29c     LIBCMT:initcon.obj
 0003:000012a0       __lpdays                   1003e2a0     LIBCMT:days.obj
 0003:000012d4       __days                     1003e2d4     LIBCMT:days.obj
 0003:00001320       ?g_pfReleaseChannel@@3P6AXPAVICommChannel@@@ZA 1003e320     DiagChan.obj
 0003:00001324       ?g_pfCreateChannel@@3P6AHPAPAVICommChannel@@W4CHANNEL_TYPE@@@ZA 1003e324     DiagChan.obj
 0003:00001328       ?ghModule@@3PAXA           1003e328     DiagChan.obj
 0003:0000132c       ?ghChannelLib@@3PAUHINSTANCE__@@A 1003e32c     DiagChan.obj
 0003:00001544       __cflush                   1003e544     LIBCMT:_file.obj
 0003:0000154c       __aenvptr                  1003e54c     LIBCMT:dllcrt0.obj
 0003:00001550       __wenvptr                  1003e550     LIBCMT:dllcrt0.obj
 0003:00001554       ___error_mode              1003e554     LIBCMT:dllcrt0.obj
 0003:00001558       ___app_type                1003e558     LIBCMT:dllcrt0.obj
 0003:00001564       ___pInvalidArgHandler      1003e564     LIBCMT:invarg.obj
 0003:0000187c       _gpFlsAlloc                1003e87c     LIBCMT:tidtable.obj
 0003:00001880       _gpFlsGetValue             1003e880     LIBCMT:tidtable.obj
 0003:00001884       _gpFlsSetValue             1003e884     LIBCMT:tidtable.obj
 0003:00001888       _gpFlsFree                 1003e888     LIBCMT:tidtable.obj
 0003:00001894       ___pPurecall               1003e894     LIBCMT:inithelp.obj
 0003:00001bbc       ?_pnhHeap@@3P6AHI@ZA       1003ebbc     LIBCMT:handler.obj
 0003:00001bc0       __umaskval                 1003ebc0     LIBCMT:crt0dat.obj
 0003:00001bc4       ___argc                    1003ebc4     LIBCMT:crt0dat.obj
 0003:00001bc8       ___argv                    1003ebc8     LIBCMT:crt0dat.obj
 0003:00001bcc       ___wargv                   1003ebcc     LIBCMT:crt0dat.obj
 0003:00001bd0       __environ                  1003ebd0     LIBCMT:crt0dat.obj
 0003:00001bd4       ___initenv                 1003ebd4     LIBCMT:crt0dat.obj
 0003:00001bd8       __wenviron                 1003ebd8     LIBCMT:crt0dat.obj
 0003:00001bdc       ___winitenv                1003ebdc     LIBCMT:crt0dat.obj
 0003:00001be0       __pgmptr                   1003ebe0     LIBCMT:crt0dat.obj
 0003:00001be4       __wpgmptr                  1003ebe4     LIBCMT:crt0dat.obj
 0003:00001be8       __exitflag                 1003ebe8     LIBCMT:crt0dat.obj
 0003:00001bec       __C_Termination_Done       1003ebec     LIBCMT:crt0dat.obj
 0003:00001bf0       __C_Exit_Done              1003ebf0     LIBCMT:crt0dat.obj
 0003:00001bf4       __maxwait                  1003ebf4     LIBCMT:crtheap.obj
 0003:00001bf8       ?__pInconsistency@@3P6AXXZA 1003ebf8     LIBCMT:hooks.obj
 0003:00001c10       __stdbuf                   1003ec10     LIBCMT:_sftbuf.obj
 0003:00001d6c       ___mbulinfo                1003ed6c     LIBCMT:mbctype.obj
 0003:00001d78       ___mbcodepage              1003ed78     LIBCMT:mbctype.obj
 0003:00001d7c       ___ismbcodepage            1003ed7c     LIBCMT:mbctype.obj
 0003:00001d80       ___mblcid                  1003ed80     LIBCMT:mbctype.obj
 0003:00001d84       ___locale_changed          1003ed84     LIBCMT:setlocal.obj
 0003:00001d88       ___lc_handle               1003ed88     LIBCMT:nlsdata2.obj
 0003:00001da0       ___lc_codepage             1003eda0     LIBCMT:nlsdata2.obj
 0003:00001da4       ___lc_collate_cp           1003eda4     LIBCMT:nlsdata2.obj
 0003:00001eb4       __crtheap                  1003eeb4     LIBCMT:heapinit.obj
 0003:00001eb8       ___sbh_pHeaderDefer        1003eeb8     LIBCMT:sbheap.obj
 0003:00001ebc       __newmode                  1003eebc     LIBCMT:_newmode.obj
 0003:00001ed4       ?pArgList@UnDecorator@@0PAVReplicator@@A 1003eed4     LIBCMT:undname.obj
 0003:00001ed8       ?pZNameList@UnDecorator@@0PAVReplicator@@A 1003eed8     LIBCMT:undname.obj
 0003:00001edc       ?pTemplateArgList@UnDecorator@@0PAVReplicator@@A 1003eedc     LIBCMT:undname.obj
 0003:00001ee0       ?gName@UnDecorator@@0PBDB  1003eee0     LIBCMT:undname.obj
 0003:00001ee4       ?name@UnDecorator@@0PBDB   1003eee4     LIBCMT:undname.obj
 0003:00001ee8       ?outputString@UnDecorator@@0PADA 1003eee8     LIBCMT:undname.obj
 0003:00001eec       ?maxStringLength@UnDecorator@@0HA 1003eeec     LIBCMT:undname.obj
 0003:00001ef0       ?disableFlags@UnDecorator@@0KA 1003eef0     LIBCMT:undname.obj
 0003:00001ef4       ?m_pGetParameter@UnDecorator@@0P6APADJ@ZA 1003eef4     LIBCMT:undname.obj
 0003:00001ef8       ?fExplicitTemplateParams@UnDecorator@@0_NA 1003eef8     LIBCMT:undname.obj
 0003:00001ef9       ?fGetTemplateArgumentList@UnDecorator@@0_NA 1003eef9     LIBCMT:undname.obj
 0003:00001efc       ?nodes@?1??make@DNameStatusNode@@SAPAV2@W4DNameStatus@@@Z@4PAV2@A 1003eefc     LIBCMT:undname.obj
 0003:00001f2c       ??_B?1??make@DNameStatusNode@@SAPAV1@W4DNameStatus@@@Z@51 1003ef2c     LIBCMT:undname.obj
 0003:00001f50       __commode                  1003ef50     LIBCMT:ncommode.obj
 0003:00001f60       ___lconv_static_null       1003ef60     LIBCMT:lconv.obj
 0003:00002020       __fmode                    1003f020     LIBCMT:txtmode.obj
 0003:00002028       __debugger_hook_dummy      1003f028     <common>
 0003:0000202c       ___sbh_initialized         1003f02c     <common>
 0003:00002030       ___sbh_cntHeaderList       1003f030     <common>
 0003:00002034       ___sbh_pHeaderList         1003f034     <common>
 0003:00002038       ___sbh_threshold           1003f038     <common>
 0003:0000203c       ___sbh_pHeaderScan         1003f03c     <common>
 0003:00002040       ___sbh_sizeHeaderList      1003f040     <common>
 0003:00002044       ___sbh_indGroupDefer       1003f044     <common>
 0003:00002048       ___active_heap             1003f048     <common>
 0003:0000204c       ___setlc_active            1003f04c     <common>
 0003:00002050       ___unguarded_readlc_active 1003f050     <common>
 0003:00002054       __nhandle                  1003f054     <common>
 0003:00002060       ___pioinfo                 1003f060     <common>
 0003:00002160       ___env_initialized         1003f160     <common>
 0003:00002164       ___onexitend               1003f164     <common>
 0003:00002168       ___onexitbegin             1003f168     <common>
 0003:0000216c       ___mbctype_initialized     1003f16c     <common>
 0003:00002170       __FPinit                   1003f170     <common>
 0003:00002174       ___dyn_tls_init_callback   1003f174     <common>
 0003:00002178       ___sse2_available          1003f178     <common>
 0003:0000217c       __acmdln                   1003f17c     <common>
 0003:00002180       ___piob                    1003f180     <common>
 0003:000021a0       __bufin                    1003f1a0     <common>
 0003:000031a0       __nstream                  100401a0     <common>
 0003:000031a4       __FPmtterm                 100401a4     <common>
 0003:000031a8       __FPmtinit                 100401a8     <common>

 entry point at        0001:00011b86

 Static symbols

 0001:fffff000       __ehhandler$?_Copy@?$basic_string@DU?$char_traits@D@std@@V?$allocator@D@2@@std@@IAEXII@Z 10000000 f   libcpmt:string.obj
 0001:fffff000       __unwindfunclet$??0logic_error@std@@QAE@ABV01@@Z$0 10000000 f   DiagPackage.obj
 0001:fffff000       __ehhandler$?_Copy@?$basic_string@DU?$char_traits@D@std@@V?$allocator@D@2@@std@@IAEXII@Z 10000000 f   SmpPackage.obj
 0001:fffff000       __unwindfunclet$??0logic_error@std@@QAE@ABV?$basic_string@DU?$char_traits@D@std@@V?$allocator@D@2@@1@@Z$0 10000000 f   SmpPackage.obj
 0001:fffff000       __unwindfunclet$??0logic_error@std@@QAE@ABV01@@Z$0 10000000 f   libcpmt:string.obj
 0001:fffff000       __unwindfunclet$?_Xlen@?$deque@PAUPRT_BUFF@@V?$allocator@PAUPRT_BUFF@@@std@@@std@@KAXXZ$0 10000000 f   SmpPackage.obj
 0001:fffff000       __unwindfunclet$??0logic_error@std@@QAE@ABV?$basic_string@DU?$char_traits@D@std@@V?$allocator@D@2@@1@@Z$0 10000000 f   libcpmt:string.obj
 0001:fffff000       __unwindfunclet$??0logic_error@std@@QAE@ABV01@@Z$0 10000000 f   SmpPackage.obj
 0001:fffff000       __unwindfunclet$??0logic_error@std@@QAE@ABV?$basic_string@DU?$char_traits@D@std@@V?$allocator@D@2@@1@@Z$0 10000000 f   DiagPackage.obj
 0001:fffff000       __ehhandler$?_Copy@?$basic_string@DU?$char_traits@D@std@@V?$allocator@D@2@@std@@IAEXII@Z 10000000 f   DiagPackage.obj
 0001:fffff008       __ehhandler$??0logic_error@std@@QAE@ABV01@@Z 10000008 f   SmpPackage.obj
 0001:fffff008       __ehhandler$??0logic_error@std@@QAE@ABV?$basic_string@DU?$char_traits@D@std@@V?$allocator@D@2@@1@@Z 10000008 f   DiagPackage.obj
 0001:fffff008       __ehhandler$?_Xlen@?$deque@PAUPRT_BUFF@@V?$allocator@PAUPRT_BUFF@@@std@@@std@@KAXXZ 10000008 f   SmpPackage.obj
 0001:fffff008       __ehhandler$??0logic_error@std@@QAE@ABV?$basic_string@DU?$char_traits@D@std@@V?$allocator@D@2@@1@@Z 10000008 f   libcpmt:string.obj
 0001:fffff008       __ehhandler$??0logic_error@std@@QAE@ABV?$basic_string@DU?$char_traits@D@std@@V?$allocator@D@2@@1@@Z 10000008 f   SmpPackage.obj
 0001:fffff008       __ehhandler$??0logic_error@std@@QAE@ABV01@@Z 10000008 f   libcpmt:string.obj
 0001:fffff008       __ehhandler$??0logic_error@std@@QAE@ABV01@@Z 10000008 f   DiagPackage.obj
 0001:fffff059       __catch$?_Copy@?$basic_string@DU?$char_traits@D@std@@V?$allocator@D@2@@std@@IAEXII@Z$0 10000059 f   libcpmt:string.obj
 0001:fffff07d       __catch$?_Copy@?$basic_string@DU?$char_traits@D@std@@V?$allocator@D@2@@std@@IAEXII@Z$0 1000007d f   DiagPackage.obj
 0001:fffff07d       __catch$?_Copy@?$basic_string@DU?$char_traits@D@std@@V?$allocator@D@2@@std@@IAEXII@Z$0 1000007d f   SmpPackage.obj
 0001:fffff0ca       __catch$?_Copy@?$basic_string@DU?$char_traits@D@std@@V?$allocator@D@2@@std@@IAEXII@Z$1 100000ca f   libcpmt:string.obj
 0001:fffff10e       __catch$?_Copy@?$basic_string@DU?$char_traits@D@std@@V?$allocator@D@2@@std@@IAEXII@Z$1 1000010e f   SmpPackage.obj
 0001:fffff10e       __catch$?_Copy@?$basic_string@DU?$char_traits@D@std@@V?$allocator@D@2@@std@@IAEXII@Z$1 1000010e f   DiagPackage.obj
 0001:0000207d       __catch$?_Copy@?$basic_string@DU?$char_traits@D@std@@V?$allocator@D@2@@std@@IAEXII@Z$0 1000307d f i BaseChan.obj
 0001:0000210e       __catch$?_Copy@?$basic_string@DU?$char_traits@D@std@@V?$allocator@D@2@@std@@IAEXII@Z$1 1000310e f i BaseChan.obj
 0001:00003b76       __catch$??$_Insert@V?$_Const_iterator@$0A@@?$list@PAUPRT_BUFF@@V?$allocator@PAUPRT_BUFF@@@std@@@std@@@?$list@PAUPRT_BUFF@@V?$allocator@PAUPRT_BUFF@@@std@@@std@@QAEXV?$_Const_iterator@$0A@@01@00Uforward_iterator_tag@1@@Z$0 10004b76 f i BaseChan.obj
 0001:00004464       __catch$??0?$list@PAUPRT_BUFF@@V?$allocator@PAUPRT_BUFF@@@std@@@std@@QAE@ABV01@@Z$0 10005464 f i BaseChan.obj
 0001:00004b4d       __catch$??$_Uninit_copy@PAUPRT_COND_T@@PAU1@V?$allocator@UPRT_COND_T@@@std@@@std@@YAPAUPRT_COND_T@@PAU1@00AAV?$allocator@UPRT_COND_T@@@0@U_Nonscalar_ptr_iterator_tag@0@U_Range_checked_iterator_tag@0@@Z$0 10005b4d f i BaseChan.obj
 0001:00004cbb       __catch$??$_Uninit_fill_n@PAUPRT_COND_T@@IU1@V?$allocator@UPRT_COND_T@@@std@@@std@@YAXPAUPRT_COND_T@@IABU1@AAV?$allocator@UPRT_COND_T@@@0@U_Nonscalar_ptr_iterator_tag@0@U_Range_checked_iterator_tag@0@@Z$0 10005cbb f i BaseChan.obj
 0001:000059b5       __catch$?_Insert_n@?$vector@UPRT_COND_T@@V?$allocator@UPRT_COND_T@@@std@@@std@@IAEXV?$_Vector_const_iterator@UPRT_COND_T@@V?$allocator@UPRT_COND_T@@@std@@@2@IABUPRT_COND_T@@@Z$0 100069b5 f i BaseChan.obj
 0001:00005a9e       __catch$?_Insert_n@?$vector@UPRT_COND_T@@V?$allocator@UPRT_COND_T@@@std@@@std@@IAEXV?$_Vector_const_iterator@UPRT_COND_T@@V?$allocator@UPRT_COND_T@@@std@@@2@IABUPRT_COND_T@@@Z$2 10006a9e f i BaseChan.obj
 0001:000096b0       _win32mmap                 1000a6b0 f   dlmalloc.obj
 0001:000096d0       _win32direct_mmap          1000a6d0 f   dlmalloc.obj
 0001:000096f0       _win32munmap               1000a6f0 f   dlmalloc.obj
 0001:00009770       _win32_acquire_lock        1000a770 f   dlmalloc.obj
 0001:000097d0       _win32_release_lock        1000a7d0 f   dlmalloc.obj
 0001:000097f0       _segment_holding           1000a7f0 f   dlmalloc.obj
 0001:00009810       _has_segment_link          1000a810 f   dlmalloc.obj
 0001:00009840       _init_mparams              1000a840 f   dlmalloc.obj
 0001:00009950       _change_mparam             1000a950 f   dlmalloc.obj
 0001:000099b0       _internal_mallinfo         1000a9b0 f   dlmalloc.obj
 0001:00009b40       _internal_malloc_stats     1000ab40 f   dlmalloc.obj
 0001:00009cb0       _mmap_alloc                1000acb0 f   dlmalloc.obj
 0001:00009d40       _mmap_resize               1000ad40 f   dlmalloc.obj
 0001:00009d70       _init_top                  1000ad70 f   dlmalloc.obj
 0001:00009da0       _init_bins                 1000ada0 f   dlmalloc.obj
 0001:00009dc0       _prepend_alloc             1000adc0 f   dlmalloc.obj
 0001:0000a160       _add_segment               1000b160 f   dlmalloc.obj
 0001:0000a3f0       _sys_alloc                 1000b3f0 f   dlmalloc.obj
 0001:0000a5d0       _release_unused_segments   1000b5d0 f   dlmalloc.obj
 0001:0000a8f0       _sys_trim                  1000b8f0 f   dlmalloc.obj
 0001:0000aa50       _tmalloc_large             1000ba50 f   dlmalloc.obj
 0001:0000ae80       _tmalloc_small             1000be80 f   dlmalloc.obj
 0001:0000bc50       _internal_realloc          1000cc50 f   dlmalloc.obj
 0001:0000bea0       _internal_memalign         1000cea0 f   dlmalloc.obj
 0001:0000c0b0       _ialloc                    1000d0b0 f   dlmalloc.obj
 0001:0000f4b3       __callthreadstartex        100104b3 f   LIBCMT:threadex.obj
 0001:0000f4f4       __threadstartex@4          100104f4 f   LIBCMT:threadex.obj
 0001:0000faf1       ?CatchGuardHandler@@YA?AW4_EXCEPTION_DISPOSITION@@PAUEHExceptionRecord@@PAUCatchGuardRN@@PAX2@Z 10010af1 f   LIBCMT:_trnsctrl_.obj
 0001:0000fbfb       ?TranslatorGuardHandler@@YA?AW4_EXCEPTION_DISPOSITION@@PAUEHExceptionRecord@@PAUTranslatorGuardRN@@PAX2@Z 10010bfb f   LIBCMT:_trnsctrl_.obj
 0001:00011a90       ___DllMainCRTStartup       10012a90 f   LIBCMT:dllcrt0.obj
 0001:000131d6       _fastzero_I                100141d6 f   LIBCMT:p4_memset.obj
 0001:000132bc       _has_osfxsr_set            100142bc f   LIBCMT:cpu_disp.obj
 0001:0001337b       __onexit_nolock            1001437b f   LIBCMT:onexit.obj
 0001:0001373b       __initterm                 1001473b f   LIBCMT:crt0dat.obj
 0001:00013879       _doexit                    10014879 f   LIBCMT:crt0dat.obj
 0001:00013a3e       _xcptlookup                10014a3e f   LIBCMT:winxfltr.obj
 0001:00013c50       _ValidateLocalCookies      10014c50 f   LIBCMT:chandler4.obj
 0001:00013f78       _fastcopy_I                10014f78 f   LIBCMT:p4_memcpy.obj
 0001:000142bb       ?ExFilterRethrow@@YAHPAU_EXCEPTION_POINTERS@@@Z 100152bb f   LIBCMT:frame.obj
 0001:000146af       ?IsInExceptionSpec@@YAEPAUEHExceptionRecord@@PBU_s_ESTypeList@@@Z 100156af f   LIBCMT:frame.obj
 0001:0001472a       ?CallUnexpected@@YAXPBU_s_ESTypeList@@@Z 1001572a f   LIBCMT:frame.obj
 0001:0001475b       __catch$?CallUnexpected@@YAXPBU_s_ESTypeList@@@Z$0 1001575b f   LIBCMT:frame.obj
 0001:00014773       ?Is_bad_exception_allowed@@YAEPBU_s_ESTypeList@@@Z 10015773 f   LIBCMT:frame.obj
 0001:0001482b       ?CallCatchBlock@@YAPAXPAUEHExceptionRecord@@PAUEHRegistrationNode@@PAU_CONTEXT@@PBU_s_FuncInfo@@PAXHK@Z 1001582b f   LIBCMT:frame.obj
 0001:00014d1d       ?CatchIt@@YAXPAUEHExceptionRecord@@PAUEHRegistrationNode@@PAU_CONTEXT@@PAXPBU_s_FuncInfo@@PBU_s_HandlerType@@PBU_s_CatchableType@@PBU_s_TryBlockMapEntry@@H1E@Z 10015d1d f   LIBCMT:frame.obj
 0001:00014d8b       ?FindHandlerForForeignException@@YAXPAUEHExceptionRecord@@PAUEHRegistrationNode@@PAU_CONTEXT@@PAXPBU_s_FuncInfo@@HH1@Z 10015d8b f   LIBCMT:frame.obj
 0001:00014e7f       ?FindHandler@@YAXPAUEHExceptionRecord@@PAUEHRegistrationNode@@PAU_CONTEXT@@PAXPBU_s_FuncInfo@@EH1@Z 10015e7f f   LIBCMT:frame.obj
 0001:00015628       _flsall                    10016628 f   LIBCMT:fflush.obj
 0001:00015a00       ___check_float_string      10016a00 f   LIBCMT:input.obj
 0001:00015a69       __hextodec                 10016a69 f   LIBCMT:input.obj
 0001:00015a89       __inc                      10016a89 f   LIBCMT:input.obj
 0001:00015a9f       __un_inc                   10016a9f f   LIBCMT:input.obj
 0001:00015ab2       __whiteout                 10016ab2 f   LIBCMT:input.obj
 0001:00016a99       ___check_float_string      10017a99 f   LIBCMT:inputs.obj
 0001:00016af0       __hextodec                 10017af0 f   LIBCMT:inputs.obj
 0001:00016b10       __inc                      10017b10 f   LIBCMT:inputs.obj
 0001:00016b26       __un_inc                   10017b26 f   LIBCMT:inputs.obj
 0001:00016b39       __whiteout                 10017b39 f   LIBCMT:inputs.obj
 0001:00018230       __unwind_handler4          10019230 f   LIBCMT:exsup4.obj
 0001:00018311       _ctrlevent_capture@4       10019311 f   LIBCMT:winsig.obj
 0001:000183ac       _siglookup                 100193ac f   LIBCMT:winsig.obj
 0001:000188bf       _write_char                100198bf f   LIBCMT:output.obj
 0001:000188f2       _write_multi_char          100198f2 f   LIBCMT:output.obj
 0001:00018918       _write_string              10019918 f   LIBCMT:output.obj
 0001:00019ad9       ?CPtoLCID@@YAHH@Z          1001aad9 f   LIBCMT:mbctype.obj
 0001:00019b08       ?setSBCS@@YAXPAUthreadmbcinfostruct@@@Z 1001ab08 f   LIBCMT:mbctype.obj
 0001:00019b6c       ?setSBUpLow@@YAXPAUthreadmbcinfostruct@@@Z 1001ab6c f   LIBCMT:mbctype.obj
 0001:00019da3       ?getSystemCP@@YAHH@Z       1001ada3 f   LIBCMT:mbctype.obj
 0001:0001a477       __copytlocinfo_nolock      1001b477 f   LIBCMT:setlocal.obj
 0001:0001a49d       __updatetlocinfoEx_nolock  1001b49d f   LIBCMT:setlocal.obj
 0001:0001a5bb       _sync_legacy_variables_lk  1001b5bb f   LIBCMT:setlocal.obj
 0001:0001a968       __setlocale_get_all        1001b968 f   LIBCMT:setlocal.obj
 0001:0001ad16       __setlocale_set_cat        1001bd16 f   LIBCMT:setlocal.obj
 0001:0001b018       __setlocale_nolock         1001c018 f   LIBCMT:setlocal.obj
 0001:0001b56b       _write_char                1001c56b f   LIBCMT:woutput.obj
 0001:0001b59a       _write_multi_char          1001c59a f   LIBCMT:woutput.obj
 0001:0001b5c1       _write_string              1001c5c1 f   LIBCMT:woutput.obj
 0001:0001c821       _parse_cmdline             1001d821 f   LIBCMT:stdargv.obj
 0001:0001e7c6       ?und_strlen@@YAIPBD@Z      1001f7c6 f   LIBCMT:undname.obj
 0001:0001e7d4       ?und_memcpy@@YAXPADPBDI@Z  1001f7d4 f   LIBCMT:undname.obj
 0001:0001e7ea       ?und_strncmp@@YAIPBD0I@Z   1001f7ea f   LIBCMT:undname.obj
 0001:000233c8       ?__crtGetLocaleInfoW_stat@@YAHPAUlocaleinfo_struct@@KKPA_WHH@Z 100243c8 f   LIBCMT:w_loc.obj
 0001:0002344b       ?__crtGetLocaleInfoA_stat@@YAHPAUlocaleinfo_struct@@KKPADHH@Z 1002444b f   LIBCMT:a_loc.obj
 0001:00023c1c       __unwind_handler           10024c1c f   LIBCMT:exsup.obj
 0001:000257dc       __tsopen_nolock            100267dc f   LIBCMT:wopen.obj
 0001:00026715       _write_char                10027715 f   LIBCMT:outputs.obj
 0001:00026748       _write_multi_char          10027748 f   LIBCMT:outputs.obj
 0001:0002676e       _write_string              1002776e f   LIBCMT:outputs.obj
 0001:000274b6       _write_char                100284b6 f   LIBCMT:outputp.obj
 0001:000274e9       _write_multi_char          100284e9 f   LIBCMT:outputp.obj
 0001:0002750f       _write_string              1002850f f   LIBCMT:outputp.obj
 0001:000289cf       ?strncnt@@YAHPBDH@Z        100299cf f   LIBCMT:a_map.obj
 0001:000289ed       ?__crtLCMapStringA_stat@@YAHPAUlocaleinfo_struct@@KKPBDHPADHHH@Z 100299ed f   LIBCMT:a_map.obj
 0001:00028dd7       ?__crtGetStringTypeA_stat@@YAHPAUlocaleinfo_struct@@KPBDHPAGHHH@Z 10029dd7 f   LIBCMT:a_str.obj
 0001:00029002       __get_lc_time              1002a002 f   LIBCMT:inittime.obj
 0001:0002962b       _fix_grouping              1002a62b f   LIBCMT:initnum.obj
 0001:0002986d       _fix_grouping              1002a86d f   LIBCMT:initmon.obj
 0001:0002a5c2       ?_store_str@@YAXPADPAPADPAI@Z 1002b5c2 f   LIBCMT:strftime.obj
 0001:0002a5e2       ?_store_number@@YAXHPAPADPAI@Z 1002b5e2 f   LIBCMT:strftime.obj
 0001:0002a618       ?_store_num@@YAXHHPAPADPAII@Z 1002b618 f   LIBCMT:strftime.obj
 0001:0002a693       ?_expandtime@@YAHPAUlocaleinfo_struct@@DPBUtm@@PAPADPAIPAU__lc_time_data@@I@Z 1002b693 f   LIBCMT:strftime.obj
 0001:0002aa7b       ?_store_winword@@YAHPAUlocaleinfo_struct@@HPBUtm@@PAPADPAIPAU__lc_time_data@@@Z 1002ba7b f   LIBCMT:strftime.obj
 0001:0002b156       _TranslateName             1002c156 f   LIBCMT:getqloc.obj
 0001:0002b1b8       _GetLcidFromDefault        1002c1b8 f   LIBCMT:getqloc.obj
 0001:0002b1cc       _ProcessCodePage           1002c1cc f   LIBCMT:getqloc.obj
 0001:0002b270       _TestDefaultCountry        1002c270 f   LIBCMT:getqloc.obj
 0001:0002b294       _LcidFromHexString         1002c294 f   LIBCMT:getqloc.obj
 0001:0002b2c8       _GetPrimaryLen             1002c2c8 f   LIBCMT:getqloc.obj
 0001:0002b2e3       _CountryEnumProc@4         1002c2e3 f   LIBCMT:getqloc.obj
 0001:0002b37b       _TestDefaultLanguage       1002c37b f   LIBCMT:getqloc.obj
 0001:0002b3ef       _LangCountryEnumProc@4     1002c3ef f   LIBCMT:getqloc.obj
 0001:0002b5c1       _LanguageEnumProc@4        1002c5c1 f   LIBCMT:getqloc.obj
 0001:0002b682       _GetLcidFromCountry        1002c682 f   LIBCMT:getqloc.obj
 0001:0002b6ae       _GetLcidFromLangCountry    1002c6ae f   LIBCMT:getqloc.obj
 0001:0002b715       _GetLcidFromLanguage       1002c715 f   LIBCMT:getqloc.obj
 0001:0002b942       _cmpResult                 1002c942 f   LIBCMT:memcmp.obj
 0001:0002b954       _cmpBYTE                   1002c954 f   LIBCMT:memcmp.obj
 0001:0002b96c       _cmpWORD                   1002c96c f   LIBCMT:memcmp.obj
 0001:0002b9ac       _cmpDWORD                  1002c9ac f   LIBCMT:memcmp.obj
 0001:0002ba24       _unaligned_memcmp          1002ca24 f   LIBCMT:memcmp.obj
 0001:0002e640       ?wcsncnt@@YAHPB_WH@Z       1002f640 f   LIBCMT:w_map.obj
 0001:0002e660       ?__crtLCMapStringW_stat@@YAHPAUlocaleinfo_struct@@KKPB_WHPA_WHH@Z 1002f660 f   LIBCMT:w_map.obj
 0001:0002ea0a       ?x_ismbbtype_l@@YAHPAUlocaleinfo_struct@@IHH@Z 1002fa0a f   LIBCMT:ismbbyte.obj
 0001:0002f6a2       ?strtoxl@@YAKPAUlocaleinfo_struct@@PBDPAPBDHH@Z 100306a2 f   LIBCMT:strtol.obj
 0001:0002fcf9       __tzset_nolock             10030cf9 f   LIBCMT:tzset.obj
 0001:0003003f       _cvtdate                   1003103f f   LIBCMT:tzset.obj
 0001:00030236       __isindst_nolock           10031236 f   LIBCMT:tzset.obj
 0001:00030786       _xtoa_s@20                 10031786 f   LIBCMT:xtoas.obj
 0001:000308ce       @x64toa_s@24               100318ce f   LIBCMT:xtoas.obj
 0001:00030a1a       ?__crtGetStringTypeW_stat@@YAHPAUlocaleinfo_struct@@KPB_WHPAGHH@Z 10031a1a f   LIBCMT:w_str.obj
 0001:00030bef       ?strtoxq@@YA_KPAUlocaleinfo_struct@@PBDPAPBDHH@Z 10031bef f   LIBCMT:strtoq.obj
 0001:00031023       __getenv_s_helper          10032023 f   LIBCMT:getenv.obj
 0001:000310b8       __dupenv_s_helper          100320b8 f   LIBCMT:getenv.obj
 0001:0003174d       ?strncnt@@YAHPBDH@Z        1003274d f   LIBCMT:a_cmp.obj
 0001:0003176b       ?__crtCompareStringA_stat@@YAHPAUlocaleinfo_struct@@KKPBDH1HH@Z 1003276b f   LIBCMT:a_cmp.obj
 0001:00031c40       _findenv                   10032c40 f   LIBCMT:setenv.obj
 0001:00031c92       _copy_environ              10032c92 f   LIBCMT:setenv.obj
 0001:000322e0       __ehhandler$?_Copy@?$basic_string@DU?$char_traits@D@std@@V?$allocator@D@2@@std@@IAEXII@Z 100332e0 f   BaseChan.obj
 0001:00032300       __unwindfunclet$??0logic_error@std@@QAE@ABV?$basic_string@DU?$char_traits@D@std@@V?$allocator@D@2@@1@@Z$0 10033300 f   BaseChan.obj
 0001:00032308       __ehhandler$??0logic_error@std@@QAE@ABV?$basic_string@DU?$char_traits@D@std@@V?$allocator@D@2@@1@@Z 10033308 f   BaseChan.obj
 0001:00032330       __unwindfunclet$?_Incsize@?$list@PAUPRT_BUFF@@V?$allocator@PAUPRT_BUFF@@@std@@@std@@IAEXI@Z$0 10033330 f   BaseChan.obj
 0001:00032338       __ehhandler$?_Incsize@?$list@PAUPRT_BUFF@@V?$allocator@PAUPRT_BUFF@@@std@@@std@@IAEXI@Z 10033338 f   BaseChan.obj
 0001:00032360       __unwindfunclet$??0logic_error@std@@QAE@ABV01@@Z$0 10033360 f   BaseChan.obj
 0001:00032368       __ehhandler$??0logic_error@std@@QAE@ABV01@@Z 10033368 f   BaseChan.obj
 0001:00032390       __unwindfunclet$?_Xlen@?$vector@UPRT_COND_T@@V?$allocator@UPRT_COND_T@@@std@@@std@@KAXXZ$0 10033390 f   BaseChan.obj
 0001:00032398       __ehhandler$?_Xlen@?$vector@UPRT_COND_T@@V?$allocator@UPRT_COND_T@@@std@@@std@@KAXXZ 10033398 f   BaseChan.obj
 0001:000323c0       __unwindfunclet$?_Xlen@?$vector@PAVIProtocolObserver@@V?$allocator@PAVIProtocolObserver@@@std@@@std@@KAXXZ$0 100333c0 f   BaseChan.obj
 0001:000323c8       __ehhandler$?_Xlen@?$vector@PAVIProtocolObserver@@V?$allocator@PAVIProtocolObserver@@@std@@@std@@KAXXZ 100333c8 f   BaseChan.obj
 0001:000323f0       __ehhandler$??$_Insert@V?$_Const_iterator@$0A@@?$list@PAUPRT_BUFF@@V?$allocator@PAUPRT_BUFF@@@std@@@std@@@?$list@PAUPRT_BUFF@@V?$allocator@PAUPRT_BUFF@@@std@@@std@@QAEXV?$_Const_iterator@$0A@@01@00Uforward_iterator_tag@1@@Z 100333f0 f   BaseChan.obj
 0001:00032410       __ehhandler$??0?$list@PAUPRT_BUFF@@V?$allocator@PAUPRT_BUFF@@@std@@@std@@QAE@ABV01@@Z 10033410 f   BaseChan.obj
 0001:00032430       __unwindfunclet$?splice@?$list@PAUPRT_BUFF@@V?$allocator@PAUPRT_BUFF@@@std@@@std@@QAEXV?$_Const_iterator@$0A@@12@AAV12@00@Z$0 10033430 f   BaseChan.obj
 0001:00032438       __ehhandler$?splice@?$list@PAUPRT_BUFF@@V?$allocator@PAUPRT_BUFF@@@std@@@std@@QAEXV?$_Const_iterator@$0A@@12@AAV12@00@Z 10033438 f   BaseChan.obj
 0001:00032460       __unwindfunclet$??$_Construct@UPRT_COND_T@@U1@@std@@YAXPAUPRT_COND_T@@ABU1@@Z$0 10033460 f   BaseChan.obj
 0001:00032471       __ehhandler$??$_Construct@UPRT_COND_T@@U1@@std@@YAXPAUPRT_COND_T@@ABU1@@Z 10033471 f   BaseChan.obj
 0001:00032490       __unwindfunclet$??$_Uninit_copy@PAUPRT_COND_T@@PAU1@V?$allocator@UPRT_COND_T@@@std@@@std@@YAPAUPRT_COND_T@@PAU1@00AAV?$allocator@UPRT_COND_T@@@0@U_Nonscalar_ptr_iterator_tag@0@U_Range_checked_iterator_tag@0@@Z$2 10033490 f   BaseChan.obj
 0001:000324a1       __ehhandler$??$_Uninit_copy@PAUPRT_COND_T@@PAU1@V?$allocator@UPRT_COND_T@@@std@@@std@@YAPAUPRT_COND_T@@PAU1@00AAV?$allocator@UPRT_COND_T@@@0@U_Nonscalar_ptr_iterator_tag@0@U_Range_checked_iterator_tag@0@@Z 100334a1 f   BaseChan.obj
 0001:000324c0       __unwindfunclet$??$_Uninit_fill_n@PAUPRT_COND_T@@IU1@V?$allocator@UPRT_COND_T@@@std@@@std@@YAXPAUPRT_COND_T@@IABU1@AAV?$allocator@UPRT_COND_T@@@0@U_Nonscalar_ptr_iterator_tag@0@U_Range_checked_iterator_tag@0@@Z$2 100334c0 f   BaseChan.obj
 0001:000324d1       __ehhandler$??$_Uninit_fill_n@PAUPRT_COND_T@@IU1@V?$allocator@UPRT_COND_T@@@std@@@std@@YAXPAUPRT_COND_T@@IABU1@AAV?$allocator@UPRT_COND_T@@@0@U_Nonscalar_ptr_iterator_tag@0@U_Range_checked_iterator_tag@0@@Z 100334d1 f   BaseChan.obj
 0001:000324f0       __unwindfunclet$??0CBaseChannel@@QAE@XZ$0 100334f0 f   BaseChan.obj
 0001:000324f8       __unwindfunclet$??0CBaseChannel@@QAE@XZ$1 100334f8 f   BaseChan.obj
 0001:00032503       __unwindfunclet$??0CBaseChannel@@QAE@XZ$2 10033503 f   BaseChan.obj
 0001:0003250e       __unwindfunclet$??0CBaseChannel@@QAE@XZ$3 1003350e f   BaseChan.obj
 0001:00032519       __ehhandler$??0CBaseChannel@@QAE@XZ 10033519 f   BaseChan.obj
 0001:00032540       __unwindfunclet$??1CBaseChannel@@UAE@XZ$0 10033540 f   BaseChan.obj
 0001:00032548       __unwindfunclet$??1CBaseChannel@@UAE@XZ$1 10033548 f   BaseChan.obj
 0001:00032553       __unwindfunclet$??1CBaseChannel@@UAE@XZ$2 10033553 f   BaseChan.obj
 0001:0003255e       __unwindfunclet$??1CBaseChannel@@UAE@XZ$3 1003355e f   BaseChan.obj
 0001:00032569       __unwindfunclet$??1CBaseChannel@@UAE@XZ$4 10033569 f   BaseChan.obj
 0001:00032574       __ehhandler$??1CBaseChannel@@UAE@XZ 10033574 f   BaseChan.obj
 0001:00032590       __unwindfunclet$?_Insert_n@?$vector@UPRT_COND_T@@V?$allocator@UPRT_COND_T@@@std@@@std@@IAEXV?$_Vector_const_iterator@UPRT_COND_T@@V?$allocator@UPRT_COND_T@@@std@@@2@IABUPRT_COND_T@@@Z$4 10033590 f   BaseChan.obj
 0001:00032598       __unwindfunclet$?_Insert_n@?$vector@UPRT_COND_T@@V?$allocator@UPRT_COND_T@@@std@@@std@@IAEXV?$_Vector_const_iterator@UPRT_COND_T@@V?$allocator@UPRT_COND_T@@@std@@@2@IABUPRT_COND_T@@@Z$5 10033598 f   BaseChan.obj
 0001:000325a0       __ehhandler$?_Insert_n@?$vector@UPRT_COND_T@@V?$allocator@UPRT_COND_T@@@std@@@std@@IAEXV?$_Vector_const_iterator@UPRT_COND_T@@V?$allocator@UPRT_COND_T@@@std@@@2@IABUPRT_COND_T@@@Z 100335a0 f   BaseChan.obj
 0001:000325c0       __unwindfunclet$?AddCond@CBaseChannel@@MAEHPAXH@Z$0 100335c0 f   BaseChan.obj
 0001:000325c8       __ehhandler$?AddCond@CBaseChannel@@MAEHPAXH@Z 100335c8 f   BaseChan.obj
 0001:000325f0       __unwindfunclet$?FindPackage@CBaseChannel@@MAEPAUPRT_BUFF@@PAUPRT_READ_T@@_N@Z$0 100335f0 f   BaseChan.obj
 0001:000325f8       __ehhandler$?FindPackage@CBaseChannel@@MAEPAUPRT_BUFF@@PAUPRT_READ_T@@_N@Z 100335f8 f   BaseChan.obj
 0001:00032620       __unwindfunclet$??0CBmChannel@@QAE@XZ$0 10033620 f   BmChannel.obj
 0001:00032628       __unwindfunclet$??0CBmChannel@@QAE@XZ$1 10033628 f   BmChannel.obj
 0001:00032636       __ehhandler$??0CBmChannel@@QAE@XZ 10033636 f   BmChannel.obj
 0001:00032660       __unwindfunclet$??1CBmChannel@@UAE@XZ$0 10033660 f   BmChannel.obj
 0001:00032668       __ehhandler$??1CBmChannel@@UAE@XZ 10033668 f   BmChannel.obj
 0001:00032690       __unwindfunclet$??1CDiagChannel@@UAE@XZ$0 10033690 f   DiagChannel.obj
 0001:00032698       __ehhandler$??1CDiagChannel@@UAE@XZ 10033698 f   DiagChannel.obj
 0001:000326c0       __unwindfunclet$?GetCondition@CDiagChannel@@MAEPAXPAXI_N@Z$0 100336c0 f   DiagChannel.obj
 0001:000326cb       __ehhandler$?GetCondition@CDiagChannel@@MAEPAXPAXI_N@Z 100336cb f   DiagChannel.obj
 0001:00032700       __unwindfunclet$??0CDiagChannel@@QAE@XZ$0 10033700 f   DiagChannel.obj
 0001:00032708       __unwindfunclet$??0CDiagChannel@@QAE@XZ$1 10033708 f   DiagChannel.obj
 0001:00032716       __ehhandler$??0CDiagChannel@@QAE@XZ 10033716 f   DiagChannel.obj
 0001:00032740       __unwindfunclet$?_Xlen@?$deque@PAUPRT_BUFF@@V?$allocator@PAUPRT_BUFF@@@std@@@std@@KAXXZ$0 10033740 f   DiagPackage.obj
 0001:00032748       __ehhandler$?_Xlen@?$deque@PAUPRT_BUFF@@V?$allocator@PAUPRT_BUFF@@@std@@@std@@KAXXZ 10033748 f   DiagPackage.obj
 0001:00032770       __unwindfunclet$??0CSmpChannel@@QAE@XZ$0 10033770 f   SmpChannel.obj
 0001:00032778       __unwindfunclet$??0CSmpChannel@@QAE@XZ$1 10033778 f   SmpChannel.obj
 0001:00032786       __ehhandler$??0CSmpChannel@@QAE@XZ 10033786 f   SmpChannel.obj
 0001:000327b0       __unwindfunclet$??1CSmpChannel@@UAE@XZ$0 100337b0 f   SmpChannel.obj
 0001:000327b8       __ehhandler$??1CSmpChannel@@UAE@XZ 100337b8 f   SmpChannel.obj
 0001:000327d3       __unwindfunclet$?_Xlen@_String_base@std@@SAXXZ$0 100337d3 f   libcpmt:string.obj
 0001:000327db       __ehhandler$?_Xlen@_String_base@std@@SAXXZ 100337db f   libcpmt:string.obj
 0001:000327f6       __unwindfunclet$?_Xran@_String_base@std@@SAXXZ$0 100337f6 f   libcpmt:string.obj
 0001:000327fe       __ehhandler$?_Xran@_String_base@std@@SAXXZ 100337fe f   libcpmt:string.obj
 0001:00032819       __unwindfunclet$?_Xinvarg@_String_base@std@@SAXXZ$0 10033819 f   libcpmt:string.obj
 0001:00032821       __ehhandler$?_Xinvarg@_String_base@std@@SAXXZ 10033821 f   libcpmt:string.obj
 0001:0003283c       __ehhandler$?CallUnexpected@@YAXPBU_s_ESTypeList@@@Z 1003383c f   LIBCMT:frame.obj
 0001:00032857       ??__Fnomem@?5???2@YAPAXI@Z@YAXXZ 10033857 f   LIBCMT:new.obj
